
ex3:     file format elf32-littlearm


Disassembly of section .init:

00008000 <_init>:
    8000:	b5f8      	push	{r3, r4, r5, r6, r7, lr}
    8002:	bf00      	nop
    8004:	bcf8      	pop	{r3, r4, r5, r6, r7}
    8006:	bc08      	pop	{r3}
    8008:	469e      	mov	lr, r3
    800a:	4770      	bx	lr

Disassembly of section .text:

00008010 <exit>:
    8010:	b508      	push	{r3, lr}
    8012:	2100      	movs	r1, #0
    8014:	4604      	mov	r4, r0
    8016:	f000 f91f 	bl	8258 <__call_exitprocs>
    801a:	4b04      	ldr	r3, [pc, #16]	; (802c <exit+0x1c>)
    801c:	6818      	ldr	r0, [r3, #0]
    801e:	6bc3      	ldr	r3, [r0, #60]	; 0x3c
    8020:	b103      	cbz	r3, 8024 <exit+0x14>
    8022:	4798      	blx	r3
    8024:	4620      	mov	r0, r4
    8026:	f000 fd11 	bl	8a4c <_exit>
    802a:	bf00      	nop
    802c:	00014b54 	.word	0x00014b54

00008030 <register_fini>:
    8030:	4b02      	ldr	r3, [pc, #8]	; (803c <register_fini+0xc>)
    8032:	b113      	cbz	r3, 803a <register_fini+0xa>
    8034:	4802      	ldr	r0, [pc, #8]	; (8040 <register_fini+0x10>)
    8036:	f000 b987 	b.w	8348 <atexit>
    803a:	4770      	bx	lr
    803c:	00000000 	.word	0x00000000
    8040:	00008355 	.word	0x00008355

00008044 <__do_global_dtors_aux>:
    8044:	b510      	push	{r4, lr}
    8046:	4c05      	ldr	r4, [pc, #20]	; (805c <__do_global_dtors_aux+0x18>)
    8048:	7823      	ldrb	r3, [r4, #0]
    804a:	b933      	cbnz	r3, 805a <__do_global_dtors_aux+0x16>
    804c:	4b04      	ldr	r3, [pc, #16]	; (8060 <__do_global_dtors_aux+0x1c>)
    804e:	b113      	cbz	r3, 8056 <__do_global_dtors_aux+0x12>
    8050:	4804      	ldr	r0, [pc, #16]	; (8064 <__do_global_dtors_aux+0x20>)
    8052:	f3af 8000 	nop.w
    8056:	2301      	movs	r3, #1
    8058:	7023      	strb	r3, [r4, #0]
    805a:	bd10      	pop	{r4, pc}
    805c:	0001da84 	.word	0x0001da84
    8060:	00000000 	.word	0x00000000
    8064:	00015090 	.word	0x00015090

00008068 <frame_dummy>:
    8068:	b508      	push	{r3, lr}
    806a:	4b06      	ldr	r3, [pc, #24]	; (8084 <frame_dummy+0x1c>)
    806c:	b11b      	cbz	r3, 8076 <frame_dummy+0xe>
    806e:	4806      	ldr	r0, [pc, #24]	; (8088 <frame_dummy+0x20>)
    8070:	4906      	ldr	r1, [pc, #24]	; (808c <frame_dummy+0x24>)
    8072:	f3af 8000 	nop.w
    8076:	4806      	ldr	r0, [pc, #24]	; (8090 <frame_dummy+0x28>)
    8078:	6803      	ldr	r3, [r0, #0]
    807a:	b113      	cbz	r3, 8082 <frame_dummy+0x1a>
    807c:	4b05      	ldr	r3, [pc, #20]	; (8094 <frame_dummy+0x2c>)
    807e:	b103      	cbz	r3, 8082 <frame_dummy+0x1a>
    8080:	4798      	blx	r3
    8082:	bd08      	pop	{r3, pc}
    8084:	00000000 	.word	0x00000000
    8088:	00015090 	.word	0x00015090
    808c:	0001da88 	.word	0x0001da88
    8090:	0001d0a0 	.word	0x0001d0a0
    8094:	00000000 	.word	0x00000000

00008098 <_mainCRTStartup>:
    8098:	2016      	movs	r0, #22
    809a:	a12e      	add	r1, pc, #184	; (adr r1, 8154 <_mainCRTStartup+0xbc>)
    809c:	beab      	bkpt	0x00ab
    809e:	482d      	ldr	r0, [pc, #180]	; (8154 <_mainCRTStartup+0xbc>)
    80a0:	6801      	ldr	r1, [r0, #0]
    80a2:	2900      	cmp	r1, #0
    80a4:	d101      	bne.n	80aa <_mainCRTStartup+0x12>
    80a6:	4932      	ldr	r1, [pc, #200]	; (8170 <_mainCRTStartup+0xd8>)
    80a8:	6001      	str	r1, [r0, #0]
    80aa:	6881      	ldr	r1, [r0, #8]
    80ac:	68c2      	ldr	r2, [r0, #12]
    80ae:	2900      	cmp	r1, #0
    80b0:	d000      	beq.n	80b4 <_mainCRTStartup+0x1c>
    80b2:	468d      	mov	sp, r1
    80b4:	2a00      	cmp	r2, #0
    80b6:	d001      	beq.n	80bc <_mainCRTStartup+0x24>
    80b8:	f502 7a80 	add.w	sl, r2, #256	; 0x100
    80bc:	2100      	movs	r1, #0
    80be:	468b      	mov	fp, r1
    80c0:	460f      	mov	r7, r1
    80c2:	4825      	ldr	r0, [pc, #148]	; (8158 <_mainCRTStartup+0xc0>)
    80c4:	4a25      	ldr	r2, [pc, #148]	; (815c <_mainCRTStartup+0xc4>)
    80c6:	1a12      	subs	r2, r2, r0
    80c8:	f000 f87c 	bl	81c4 <memset>
    80cc:	f000 f9d8 	bl	8480 <initialise_monitor_handles>
    80d0:	2015      	movs	r0, #21
    80d2:	a125      	add	r1, pc, #148	; (adr r1, 8168 <_mainCRTStartup+0xd0>)
    80d4:	beab      	bkpt	0x00ab
    80d6:	4924      	ldr	r1, [pc, #144]	; (8168 <_mainCRTStartup+0xd0>)
    80d8:	2000      	movs	r0, #0
    80da:	b401      	push	{r0}
    80dc:	780b      	ldrb	r3, [r1, #0]
    80de:	3101      	adds	r1, #1
    80e0:	2b00      	cmp	r3, #0
    80e2:	d015      	beq.n	8110 <_mainCRTStartup+0x78>
    80e4:	2b20      	cmp	r3, #32
    80e6:	d0f9      	beq.n	80dc <_mainCRTStartup+0x44>
    80e8:	2b22      	cmp	r3, #34	; 0x22
    80ea:	d001      	beq.n	80f0 <_mainCRTStartup+0x58>
    80ec:	2b27      	cmp	r3, #39	; 0x27
    80ee:	d101      	bne.n	80f4 <_mainCRTStartup+0x5c>
    80f0:	001a      	movs	r2, r3
    80f2:	e001      	b.n	80f8 <_mainCRTStartup+0x60>
    80f4:	2220      	movs	r2, #32
    80f6:	3901      	subs	r1, #1
    80f8:	b402      	push	{r1}
    80fa:	3001      	adds	r0, #1
    80fc:	780b      	ldrb	r3, [r1, #0]
    80fe:	3101      	adds	r1, #1
    8100:	2b00      	cmp	r3, #0
    8102:	d005      	beq.n	8110 <_mainCRTStartup+0x78>
    8104:	429a      	cmp	r2, r3
    8106:	d1f9      	bne.n	80fc <_mainCRTStartup+0x64>
    8108:	2200      	movs	r2, #0
    810a:	1e4b      	subs	r3, r1, #1
    810c:	701a      	strb	r2, [r3, #0]
    810e:	e7e5      	b.n	80dc <_mainCRTStartup+0x44>
    8110:	4669      	mov	r1, sp
    8112:	0002      	movs	r2, r0
    8114:	0092      	lsls	r2, r2, #2
    8116:	446a      	add	r2, sp
    8118:	466b      	mov	r3, sp
    811a:	429a      	cmp	r2, r3
    811c:	d906      	bls.n	812c <_mainCRTStartup+0x94>
    811e:	3a04      	subs	r2, #4
    8120:	6814      	ldr	r4, [r2, #0]
    8122:	681d      	ldr	r5, [r3, #0]
    8124:	6015      	str	r5, [r2, #0]
    8126:	601c      	str	r4, [r3, #0]
    8128:	3304      	adds	r3, #4
    812a:	e7f6      	b.n	811a <_mainCRTStartup+0x82>
    812c:	466c      	mov	r4, sp
    812e:	2507      	movs	r5, #7
    8130:	43ac      	bics	r4, r5
    8132:	46a5      	mov	sp, r4
    8134:	0004      	movs	r4, r0
    8136:	000d      	movs	r5, r1
    8138:	4809      	ldr	r0, [pc, #36]	; (8160 <_mainCRTStartup+0xc8>)
    813a:	2800      	cmp	r0, #0
    813c:	d002      	beq.n	8144 <_mainCRTStartup+0xac>
    813e:	4809      	ldr	r0, [pc, #36]	; (8164 <_mainCRTStartup+0xcc>)
    8140:	f000 f902 	bl	8348 <atexit>
    8144:	f000 f816 	bl	8174 <__libc_init_array>
    8148:	0020      	movs	r0, r4
    814a:	0029      	movs	r1, r5
    814c:	f000 fcfc 	bl	8b48 <main>
    8150:	f7ff ff5e 	bl	8010 <exit>
    8154:	0001d0ac 	.word	0x0001d0ac
    8158:	0001da84 	.word	0x0001da84
    815c:	0001db94 	.word	0x0001db94
    8160:	00008349 	.word	0x00008349
    8164:	00008355 	.word	0x00008355
    8168:	0001d0bc 	.word	0x0001d0bc
    816c:	000000ff 	.word	0x000000ff
    8170:	0001db94 	.word	0x0001db94

00008174 <__libc_init_array>:
    8174:	b570      	push	{r4, r5, r6, lr}
    8176:	4e0f      	ldr	r6, [pc, #60]	; (81b4 <__libc_init_array+0x40>)
    8178:	4d0f      	ldr	r5, [pc, #60]	; (81b8 <__libc_init_array+0x44>)
    817a:	1b76      	subs	r6, r6, r5
    817c:	10b6      	asrs	r6, r6, #2
    817e:	d007      	beq.n	8190 <__libc_init_array+0x1c>
    8180:	3d04      	subs	r5, #4
    8182:	2400      	movs	r4, #0
    8184:	3401      	adds	r4, #1
    8186:	f855 3f04 	ldr.w	r3, [r5, #4]!
    818a:	4798      	blx	r3
    818c:	42a6      	cmp	r6, r4
    818e:	d1f9      	bne.n	8184 <__libc_init_array+0x10>
    8190:	4e0a      	ldr	r6, [pc, #40]	; (81bc <__libc_init_array+0x48>)
    8192:	4d0b      	ldr	r5, [pc, #44]	; (81c0 <__libc_init_array+0x4c>)
    8194:	f7ff ff34 	bl	8000 <_init>
    8198:	1b76      	subs	r6, r6, r5
    819a:	10b6      	asrs	r6, r6, #2
    819c:	d008      	beq.n	81b0 <__libc_init_array+0x3c>
    819e:	3d04      	subs	r5, #4
    81a0:	2400      	movs	r4, #0
    81a2:	3401      	adds	r4, #1
    81a4:	f855 3f04 	ldr.w	r3, [r5, #4]!
    81a8:	4798      	blx	r3
    81aa:	42a6      	cmp	r6, r4
    81ac:	d1f9      	bne.n	81a2 <__libc_init_array+0x2e>
    81ae:	bd70      	pop	{r4, r5, r6, pc}
    81b0:	bd70      	pop	{r4, r5, r6, pc}
    81b2:	bf00      	nop
    81b4:	0001d094 	.word	0x0001d094
    81b8:	0001d094 	.word	0x0001d094
    81bc:	0001d09c 	.word	0x0001d09c
    81c0:	0001d094 	.word	0x0001d094

000081c4 <memset>:
    81c4:	b4f0      	push	{r4, r5, r6, r7}
    81c6:	0784      	lsls	r4, r0, #30
    81c8:	d043      	beq.n	8252 <memset+0x8e>
    81ca:	1e54      	subs	r4, r2, #1
    81cc:	2a00      	cmp	r2, #0
    81ce:	d03e      	beq.n	824e <memset+0x8a>
    81d0:	b2cd      	uxtb	r5, r1
    81d2:	4603      	mov	r3, r0
    81d4:	e003      	b.n	81de <memset+0x1a>
    81d6:	1e62      	subs	r2, r4, #1
    81d8:	2c00      	cmp	r4, #0
    81da:	d038      	beq.n	824e <memset+0x8a>
    81dc:	4614      	mov	r4, r2
    81de:	f803 5b01 	strb.w	r5, [r3], #1
    81e2:	079a      	lsls	r2, r3, #30
    81e4:	d1f7      	bne.n	81d6 <memset+0x12>
    81e6:	2c03      	cmp	r4, #3
    81e8:	d92a      	bls.n	8240 <memset+0x7c>
    81ea:	b2cd      	uxtb	r5, r1
    81ec:	ea45 2505 	orr.w	r5, r5, r5, lsl #8
    81f0:	2c0f      	cmp	r4, #15
    81f2:	ea45 4505 	orr.w	r5, r5, r5, lsl #16
    81f6:	d915      	bls.n	8224 <memset+0x60>
    81f8:	f1a4 0710 	sub.w	r7, r4, #16
    81fc:	093f      	lsrs	r7, r7, #4
    81fe:	f103 0610 	add.w	r6, r3, #16
    8202:	eb06 1607 	add.w	r6, r6, r7, lsl #4
    8206:	461a      	mov	r2, r3
    8208:	6015      	str	r5, [r2, #0]
    820a:	6055      	str	r5, [r2, #4]
    820c:	6095      	str	r5, [r2, #8]
    820e:	60d5      	str	r5, [r2, #12]
    8210:	3210      	adds	r2, #16
    8212:	42b2      	cmp	r2, r6
    8214:	d1f8      	bne.n	8208 <memset+0x44>
    8216:	f004 040f 	and.w	r4, r4, #15
    821a:	3701      	adds	r7, #1
    821c:	2c03      	cmp	r4, #3
    821e:	eb03 1307 	add.w	r3, r3, r7, lsl #4
    8222:	d90d      	bls.n	8240 <memset+0x7c>
    8224:	461e      	mov	r6, r3
    8226:	4622      	mov	r2, r4
    8228:	3a04      	subs	r2, #4
    822a:	2a03      	cmp	r2, #3
    822c:	f846 5b04 	str.w	r5, [r6], #4
    8230:	d8fa      	bhi.n	8228 <memset+0x64>
    8232:	1f22      	subs	r2, r4, #4
    8234:	f022 0203 	bic.w	r2, r2, #3
    8238:	3204      	adds	r2, #4
    823a:	4413      	add	r3, r2
    823c:	f004 0403 	and.w	r4, r4, #3
    8240:	b12c      	cbz	r4, 824e <memset+0x8a>
    8242:	b2c9      	uxtb	r1, r1
    8244:	441c      	add	r4, r3
    8246:	f803 1b01 	strb.w	r1, [r3], #1
    824a:	42a3      	cmp	r3, r4
    824c:	d1fb      	bne.n	8246 <memset+0x82>
    824e:	bcf0      	pop	{r4, r5, r6, r7}
    8250:	4770      	bx	lr
    8252:	4614      	mov	r4, r2
    8254:	4603      	mov	r3, r0
    8256:	e7c6      	b.n	81e6 <memset+0x22>

00008258 <__call_exitprocs>:
    8258:	e92d 4ff0 	stmdb	sp!, {r4, r5, r6, r7, r8, r9, sl, fp, lr}
    825c:	4b38      	ldr	r3, [pc, #224]	; (8340 <__call_exitprocs+0xe8>)
    825e:	b085      	sub	sp, #20
    8260:	681b      	ldr	r3, [r3, #0]
    8262:	9002      	str	r0, [sp, #8]
    8264:	f503 72a4 	add.w	r2, r3, #328	; 0x148
    8268:	9301      	str	r3, [sp, #4]
    826a:	460f      	mov	r7, r1
    826c:	9203      	str	r2, [sp, #12]
    826e:	9b01      	ldr	r3, [sp, #4]
    8270:	f8d3 8148 	ldr.w	r8, [r3, #328]	; 0x148
    8274:	f1b8 0f00 	cmp.w	r8, #0
    8278:	d01c      	beq.n	82b4 <__call_exitprocs+0x5c>
    827a:	f8dd b00c 	ldr.w	fp, [sp, #12]
    827e:	f04f 0901 	mov.w	r9, #1
    8282:	46da      	mov	sl, fp
    8284:	f8d8 3004 	ldr.w	r3, [r8, #4]
    8288:	1e5c      	subs	r4, r3, #1
    828a:	d411      	bmi.n	82b0 <__call_exitprocs+0x58>
    828c:	f108 0588 	add.w	r5, r8, #136	; 0x88
    8290:	1c9e      	adds	r6, r3, #2
    8292:	eb05 0583 	add.w	r5, r5, r3, lsl #2
    8296:	eb08 0686 	add.w	r6, r8, r6, lsl #2
    829a:	b177      	cbz	r7, 82ba <__call_exitprocs+0x62>
    829c:	6feb      	ldr	r3, [r5, #124]	; 0x7c
    829e:	42bb      	cmp	r3, r7
    82a0:	d00b      	beq.n	82ba <__call_exitprocs+0x62>
    82a2:	3c01      	subs	r4, #1
    82a4:	1c63      	adds	r3, r4, #1
    82a6:	f1a5 0504 	sub.w	r5, r5, #4
    82aa:	f1a6 0604 	sub.w	r6, r6, #4
    82ae:	d1f4      	bne.n	829a <__call_exitprocs+0x42>
    82b0:	4a24      	ldr	r2, [pc, #144]	; (8344 <__call_exitprocs+0xec>)
    82b2:	bb7a      	cbnz	r2, 8314 <__call_exitprocs+0xbc>
    82b4:	b005      	add	sp, #20
    82b6:	e8bd 8ff0 	ldmia.w	sp!, {r4, r5, r6, r7, r8, r9, sl, fp, pc}
    82ba:	f8d8 2004 	ldr.w	r2, [r8, #4]
    82be:	f856 3c04 	ldr.w	r3, [r6, #-4]
    82c2:	3a01      	subs	r2, #1
    82c4:	42a2      	cmp	r2, r4
    82c6:	bf16      	itet	ne
    82c8:	2200      	movne	r2, #0
    82ca:	f8c8 4004 	streq.w	r4, [r8, #4]
    82ce:	f846 2c04 	strne.w	r2, [r6, #-4]
    82d2:	2b00      	cmp	r3, #0
    82d4:	d0e5      	beq.n	82a2 <__call_exitprocs+0x4a>
    82d6:	fa09 f204 	lsl.w	r2, r9, r4
    82da:	f8d8 1188 	ldr.w	r1, [r8, #392]	; 0x188
    82de:	f8d8 b004 	ldr.w	fp, [r8, #4]
    82e2:	420a      	tst	r2, r1
    82e4:	d010      	beq.n	8308 <__call_exitprocs+0xb0>
    82e6:	f8d8 118c 	ldr.w	r1, [r8, #396]	; 0x18c
    82ea:	420a      	tst	r2, r1
    82ec:	d10e      	bne.n	830c <__call_exitprocs+0xb4>
    82ee:	9802      	ldr	r0, [sp, #8]
    82f0:	f855 1c04 	ldr.w	r1, [r5, #-4]
    82f4:	4798      	blx	r3
    82f6:	f8d8 3004 	ldr.w	r3, [r8, #4]
    82fa:	455b      	cmp	r3, fp
    82fc:	d1b7      	bne.n	826e <__call_exitprocs+0x16>
    82fe:	f8da 3000 	ldr.w	r3, [sl]
    8302:	4543      	cmp	r3, r8
    8304:	d0cd      	beq.n	82a2 <__call_exitprocs+0x4a>
    8306:	e7b2      	b.n	826e <__call_exitprocs+0x16>
    8308:	4798      	blx	r3
    830a:	e7f4      	b.n	82f6 <__call_exitprocs+0x9e>
    830c:	f855 0c04 	ldr.w	r0, [r5, #-4]
    8310:	4798      	blx	r3
    8312:	e7f0      	b.n	82f6 <__call_exitprocs+0x9e>
    8314:	f8d8 3004 	ldr.w	r3, [r8, #4]
    8318:	b96b      	cbnz	r3, 8336 <__call_exitprocs+0xde>
    831a:	f8d8 3000 	ldr.w	r3, [r8]
    831e:	b163      	cbz	r3, 833a <__call_exitprocs+0xe2>
    8320:	4640      	mov	r0, r8
    8322:	f8ca 3000 	str.w	r3, [sl]
    8326:	f3af 8000 	nop.w
    832a:	f8da 8000 	ldr.w	r8, [sl]
    832e:	f1b8 0f00 	cmp.w	r8, #0
    8332:	d1a7      	bne.n	8284 <__call_exitprocs+0x2c>
    8334:	e7be      	b.n	82b4 <__call_exitprocs+0x5c>
    8336:	f8d8 3000 	ldr.w	r3, [r8]
    833a:	46c2      	mov	sl, r8
    833c:	4698      	mov	r8, r3
    833e:	e7f6      	b.n	832e <__call_exitprocs+0xd6>
    8340:	00014b54 	.word	0x00014b54
    8344:	00000000 	.word	0x00000000

00008348 <atexit>:
    8348:	4601      	mov	r1, r0
    834a:	2000      	movs	r0, #0
    834c:	4602      	mov	r2, r0
    834e:	4603      	mov	r3, r0
    8350:	f000 b818 	b.w	8384 <__register_exitproc>

00008354 <__libc_fini_array>:
    8354:	b538      	push	{r3, r4, r5, lr}
    8356:	4d09      	ldr	r5, [pc, #36]	; (837c <__libc_fini_array+0x28>)
    8358:	4c09      	ldr	r4, [pc, #36]	; (8380 <__libc_fini_array+0x2c>)
    835a:	1b64      	subs	r4, r4, r5
    835c:	10a4      	asrs	r4, r4, #2
    835e:	bf18      	it	ne
    8360:	eb05 0584 	addne.w	r5, r5, r4, lsl #2
    8364:	d005      	beq.n	8372 <__libc_fini_array+0x1e>
    8366:	3c01      	subs	r4, #1
    8368:	f855 3d04 	ldr.w	r3, [r5, #-4]!
    836c:	4798      	blx	r3
    836e:	2c00      	cmp	r4, #0
    8370:	d1f9      	bne.n	8366 <__libc_fini_array+0x12>
    8372:	e8bd 4038 	ldmia.w	sp!, {r3, r4, r5, lr}
    8376:	f00c bbe3 	b.w	14b40 <_fini>
    837a:	bf00      	nop
    837c:	0001d09c 	.word	0x0001d09c
    8380:	0001d0a0 	.word	0x0001d0a0

00008384 <__register_exitproc>:
    8384:	b5f0      	push	{r4, r5, r6, r7, lr}
    8386:	4c27      	ldr	r4, [pc, #156]	; (8424 <__register_exitproc+0xa0>)
    8388:	b085      	sub	sp, #20
    838a:	6826      	ldr	r6, [r4, #0]
    838c:	4607      	mov	r7, r0
    838e:	f8d6 4148 	ldr.w	r4, [r6, #328]	; 0x148
    8392:	2c00      	cmp	r4, #0
    8394:	d040      	beq.n	8418 <__register_exitproc+0x94>
    8396:	6865      	ldr	r5, [r4, #4]
    8398:	2d1f      	cmp	r5, #31
    839a:	dd1e      	ble.n	83da <__register_exitproc+0x56>
    839c:	4822      	ldr	r0, [pc, #136]	; (8428 <__register_exitproc+0xa4>)
    839e:	b918      	cbnz	r0, 83a8 <__register_exitproc+0x24>
    83a0:	f04f 30ff 	mov.w	r0, #4294967295
    83a4:	b005      	add	sp, #20
    83a6:	bdf0      	pop	{r4, r5, r6, r7, pc}
    83a8:	f44f 70c8 	mov.w	r0, #400	; 0x190
    83ac:	9103      	str	r1, [sp, #12]
    83ae:	9202      	str	r2, [sp, #8]
    83b0:	9301      	str	r3, [sp, #4]
    83b2:	f3af 8000 	nop.w
    83b6:	9903      	ldr	r1, [sp, #12]
    83b8:	4604      	mov	r4, r0
    83ba:	9a02      	ldr	r2, [sp, #8]
    83bc:	9b01      	ldr	r3, [sp, #4]
    83be:	2800      	cmp	r0, #0
    83c0:	d0ee      	beq.n	83a0 <__register_exitproc+0x1c>
    83c2:	f8d6 5148 	ldr.w	r5, [r6, #328]	; 0x148
    83c6:	2000      	movs	r0, #0
    83c8:	6025      	str	r5, [r4, #0]
    83ca:	6060      	str	r0, [r4, #4]
    83cc:	4605      	mov	r5, r0
    83ce:	f8c6 4148 	str.w	r4, [r6, #328]	; 0x148
    83d2:	f8c4 0188 	str.w	r0, [r4, #392]	; 0x188
    83d6:	f8c4 018c 	str.w	r0, [r4, #396]	; 0x18c
    83da:	b93f      	cbnz	r7, 83ec <__register_exitproc+0x68>
    83dc:	1c6b      	adds	r3, r5, #1
    83de:	2000      	movs	r0, #0
    83e0:	3502      	adds	r5, #2
    83e2:	6063      	str	r3, [r4, #4]
    83e4:	f844 1025 	str.w	r1, [r4, r5, lsl #2]
    83e8:	b005      	add	sp, #20
    83ea:	bdf0      	pop	{r4, r5, r6, r7, pc}
    83ec:	2601      	movs	r6, #1
    83ee:	40ae      	lsls	r6, r5
    83f0:	eb04 0085 	add.w	r0, r4, r5, lsl #2
    83f4:	f8c0 2088 	str.w	r2, [r0, #136]	; 0x88
    83f8:	f8d4 2188 	ldr.w	r2, [r4, #392]	; 0x188
    83fc:	2f02      	cmp	r7, #2
    83fe:	ea42 0206 	orr.w	r2, r2, r6
    8402:	f8c4 2188 	str.w	r2, [r4, #392]	; 0x188
    8406:	f8c0 3108 	str.w	r3, [r0, #264]	; 0x108
    840a:	d1e7      	bne.n	83dc <__register_exitproc+0x58>
    840c:	f8d4 318c 	ldr.w	r3, [r4, #396]	; 0x18c
    8410:	431e      	orrs	r6, r3
    8412:	f8c4 618c 	str.w	r6, [r4, #396]	; 0x18c
    8416:	e7e1      	b.n	83dc <__register_exitproc+0x58>
    8418:	f506 74a6 	add.w	r4, r6, #332	; 0x14c
    841c:	f8c6 4148 	str.w	r4, [r6, #328]	; 0x148
    8420:	e7b9      	b.n	8396 <__register_exitproc+0x12>
    8422:	bf00      	nop
    8424:	00014b54 	.word	0x00014b54
    8428:	00000000 	.word	0x00000000

0000842c <findslot>:
    842c:	4b0b      	ldr	r3, [pc, #44]	; (845c <findslot+0x30>)
    842e:	b510      	push	{r4, lr}
    8430:	4604      	mov	r4, r0
    8432:	6818      	ldr	r0, [r3, #0]
    8434:	b108      	cbz	r0, 843a <findslot+0xe>
    8436:	6b83      	ldr	r3, [r0, #56]	; 0x38
    8438:	b14b      	cbz	r3, 844e <findslot+0x22>
    843a:	2c13      	cmp	r4, #19
    843c:	d80b      	bhi.n	8456 <findslot+0x2a>
    843e:	4808      	ldr	r0, [pc, #32]	; (8460 <findslot+0x34>)
    8440:	f850 3034 	ldr.w	r3, [r0, r4, lsl #3]
    8444:	3301      	adds	r3, #1
    8446:	d006      	beq.n	8456 <findslot+0x2a>
    8448:	eb00 00c4 	add.w	r0, r0, r4, lsl #3
    844c:	bd10      	pop	{r4, pc}
    844e:	f000 fc0b 	bl	8c68 <__sinit>
    8452:	2c13      	cmp	r4, #19
    8454:	d9f3      	bls.n	843e <findslot+0x12>
    8456:	2000      	movs	r0, #0
    8458:	bd10      	pop	{r4, pc}
    845a:	bf00      	nop
    845c:	0001d5e8 	.word	0x0001d5e8
    8460:	0001dab0 	.word	0x0001dab0

00008464 <checkerror.part.0>:
    8464:	b570      	push	{r4, r5, r6, lr}
    8466:	f000 fbcd 	bl	8c04 <__errno>
    846a:	2513      	movs	r5, #19
    846c:	4604      	mov	r4, r0
    846e:	2600      	movs	r6, #0
    8470:	4628      	mov	r0, r5
    8472:	4631      	mov	r1, r6
    8474:	beab      	bkpt	0x00ab
    8476:	4605      	mov	r5, r0
    8478:	f04f 30ff 	mov.w	r0, #4294967295
    847c:	6025      	str	r5, [r4, #0]
    847e:	bd70      	pop	{r4, r5, r6, pc}

00008480 <initialise_monitor_handles>:
    8480:	e92d 47f0 	stmdb	sp!, {r4, r5, r6, r7, r8, r9, sl, lr}
    8484:	f8df 8098 	ldr.w	r8, [pc, #152]	; 8520 <initialise_monitor_handles+0xa0>
    8488:	b084      	sub	sp, #16
    848a:	2603      	movs	r6, #3
    848c:	2300      	movs	r3, #0
    848e:	f8cd 8004 	str.w	r8, [sp, #4]
    8492:	2401      	movs	r4, #1
    8494:	9603      	str	r6, [sp, #12]
    8496:	ad01      	add	r5, sp, #4
    8498:	9302      	str	r3, [sp, #8]
    849a:	4620      	mov	r0, r4
    849c:	4629      	mov	r1, r5
    849e:	beab      	bkpt	0x00ab
    84a0:	4681      	mov	r9, r0
    84a2:	4f1c      	ldr	r7, [pc, #112]	; (8514 <initialise_monitor_handles+0x94>)
    84a4:	2304      	movs	r3, #4
    84a6:	f8cd 8004 	str.w	r8, [sp, #4]
    84aa:	f8c7 9000 	str.w	r9, [r7]
    84ae:	9603      	str	r6, [sp, #12]
    84b0:	9302      	str	r3, [sp, #8]
    84b2:	4620      	mov	r0, r4
    84b4:	4629      	mov	r1, r5
    84b6:	beab      	bkpt	0x00ab
    84b8:	4682      	mov	sl, r0
    84ba:	f8df 9068 	ldr.w	r9, [pc, #104]	; 8524 <initialise_monitor_handles+0xa4>
    84be:	2308      	movs	r3, #8
    84c0:	f8cd 8004 	str.w	r8, [sp, #4]
    84c4:	f8c9 a000 	str.w	sl, [r9]
    84c8:	9603      	str	r6, [sp, #12]
    84ca:	9302      	str	r3, [sp, #8]
    84cc:	4620      	mov	r0, r4
    84ce:	4629      	mov	r1, r5
    84d0:	beab      	bkpt	0x00ab
    84d2:	4604      	mov	r4, r0
    84d4:	4b10      	ldr	r3, [pc, #64]	; (8518 <initialise_monitor_handles+0x98>)
    84d6:	1c62      	adds	r2, r4, #1
    84d8:	601c      	str	r4, [r3, #0]
    84da:	d015      	beq.n	8508 <initialise_monitor_handles+0x88>
    84dc:	f8d9 5000 	ldr.w	r5, [r9]
    84e0:	480e      	ldr	r0, [pc, #56]	; (851c <initialise_monitor_handles+0x9c>)
    84e2:	2300      	movs	r3, #0
    84e4:	f04f 31ff 	mov.w	r1, #4294967295
    84e8:	50c1      	str	r1, [r0, r3]
    84ea:	3308      	adds	r3, #8
    84ec:	2ba0      	cmp	r3, #160	; 0xa0
    84ee:	4a0b      	ldr	r2, [pc, #44]	; (851c <initialise_monitor_handles+0x9c>)
    84f0:	d1fa      	bne.n	84e8 <initialise_monitor_handles+0x68>
    84f2:	6839      	ldr	r1, [r7, #0]
    84f4:	2300      	movs	r3, #0
    84f6:	6011      	str	r1, [r2, #0]
    84f8:	6095      	str	r5, [r2, #8]
    84fa:	6114      	str	r4, [r2, #16]
    84fc:	6053      	str	r3, [r2, #4]
    84fe:	60d3      	str	r3, [r2, #12]
    8500:	6153      	str	r3, [r2, #20]
    8502:	b004      	add	sp, #16
    8504:	e8bd 87f0 	ldmia.w	sp!, {r4, r5, r6, r7, r8, r9, sl, pc}
    8508:	f8d9 2000 	ldr.w	r2, [r9]
    850c:	4614      	mov	r4, r2
    850e:	601a      	str	r2, [r3, #0]
    8510:	4615      	mov	r5, r2
    8512:	e7e5      	b.n	84e0 <initialise_monitor_handles+0x60>
    8514:	0001daa4 	.word	0x0001daa4
    8518:	0001daac 	.word	0x0001daac
    851c:	0001dab0 	.word	0x0001dab0
    8520:	00014b58 	.word	0x00014b58
    8524:	0001daa0 	.word	0x0001daa0

00008528 <_swiread>:
    8528:	b530      	push	{r4, r5, lr}
    852a:	b085      	sub	sp, #20
    852c:	9001      	str	r0, [sp, #4]
    852e:	9102      	str	r1, [sp, #8]
    8530:	9203      	str	r2, [sp, #12]
    8532:	2406      	movs	r4, #6
    8534:	ad01      	add	r5, sp, #4
    8536:	4620      	mov	r0, r4
    8538:	4629      	mov	r1, r5
    853a:	beab      	bkpt	0x00ab
    853c:	4604      	mov	r4, r0
    853e:	1c63      	adds	r3, r4, #1
    8540:	d002      	beq.n	8548 <_swiread+0x20>
    8542:	4620      	mov	r0, r4
    8544:	b005      	add	sp, #20
    8546:	bd30      	pop	{r4, r5, pc}
    8548:	f7ff ff8c 	bl	8464 <checkerror.part.0>
    854c:	b005      	add	sp, #20
    854e:	bd30      	pop	{r4, r5, pc}

00008550 <_read>:
    8550:	b570      	push	{r4, r5, r6, lr}
    8552:	460e      	mov	r6, r1
    8554:	4615      	mov	r5, r2
    8556:	f7ff ff69 	bl	842c <findslot>
    855a:	4604      	mov	r4, r0
    855c:	b158      	cbz	r0, 8576 <_read+0x26>
    855e:	4631      	mov	r1, r6
    8560:	6800      	ldr	r0, [r0, #0]
    8562:	462a      	mov	r2, r5
    8564:	f7ff ffe0 	bl	8528 <_swiread>
    8568:	1c43      	adds	r3, r0, #1
    856a:	d003      	beq.n	8574 <_read+0x24>
    856c:	6863      	ldr	r3, [r4, #4]
    856e:	1a28      	subs	r0, r5, r0
    8570:	4403      	add	r3, r0
    8572:	6063      	str	r3, [r4, #4]
    8574:	bd70      	pop	{r4, r5, r6, pc}
    8576:	f000 fb45 	bl	8c04 <__errno>
    857a:	2309      	movs	r3, #9
    857c:	6003      	str	r3, [r0, #0]
    857e:	f04f 30ff 	mov.w	r0, #4294967295
    8582:	bd70      	pop	{r4, r5, r6, pc}

00008584 <_swilseek>:
    8584:	b5f0      	push	{r4, r5, r6, r7, lr}
    8586:	b083      	sub	sp, #12
    8588:	460c      	mov	r4, r1
    858a:	4616      	mov	r6, r2
    858c:	f7ff ff4e 	bl	842c <findslot>
    8590:	4605      	mov	r5, r0
    8592:	2800      	cmp	r0, #0
    8594:	d039      	beq.n	860a <_swilseek+0x86>
    8596:	2e02      	cmp	r6, #2
    8598:	d826      	bhi.n	85e8 <_swilseek+0x64>
    859a:	2e01      	cmp	r6, #1
    859c:	d021      	beq.n	85e2 <_swilseek+0x5e>
    859e:	2e02      	cmp	r6, #2
    85a0:	d011      	beq.n	85c6 <_swilseek+0x42>
    85a2:	466e      	mov	r6, sp
    85a4:	682b      	ldr	r3, [r5, #0]
    85a6:	270a      	movs	r7, #10
    85a8:	e88d 0018 	stmia.w	sp, {r3, r4}
    85ac:	4638      	mov	r0, r7
    85ae:	4631      	mov	r1, r6
    85b0:	beab      	bkpt	0x00ab
    85b2:	4606      	mov	r6, r0
    85b4:	1c73      	adds	r3, r6, #1
    85b6:	d01e      	beq.n	85f6 <_swilseek+0x72>
    85b8:	4630      	mov	r0, r6
    85ba:	2800      	cmp	r0, #0
    85bc:	db22      	blt.n	8604 <_swilseek+0x80>
    85be:	606c      	str	r4, [r5, #4]
    85c0:	4620      	mov	r0, r4
    85c2:	b003      	add	sp, #12
    85c4:	bdf0      	pop	{r4, r5, r6, r7, pc}
    85c6:	6803      	ldr	r3, [r0, #0]
    85c8:	ae02      	add	r6, sp, #8
    85ca:	f846 3d08 	str.w	r3, [r6, #-8]!
    85ce:	270c      	movs	r7, #12
    85d0:	4638      	mov	r0, r7
    85d2:	4631      	mov	r1, r6
    85d4:	beab      	bkpt	0x00ab
    85d6:	4607      	mov	r7, r0
    85d8:	1c79      	adds	r1, r7, #1
    85da:	d00f      	beq.n	85fc <_swilseek+0x78>
    85dc:	4638      	mov	r0, r7
    85de:	4404      	add	r4, r0
    85e0:	e7e0      	b.n	85a4 <_swilseek+0x20>
    85e2:	6843      	ldr	r3, [r0, #4]
    85e4:	18e4      	adds	r4, r4, r3
    85e6:	d5dc      	bpl.n	85a2 <_swilseek+0x1e>
    85e8:	f000 fb0c 	bl	8c04 <__errno>
    85ec:	2316      	movs	r3, #22
    85ee:	6003      	str	r3, [r0, #0]
    85f0:	f04f 30ff 	mov.w	r0, #4294967295
    85f4:	e7e5      	b.n	85c2 <_swilseek+0x3e>
    85f6:	f7ff ff35 	bl	8464 <checkerror.part.0>
    85fa:	e7de      	b.n	85ba <_swilseek+0x36>
    85fc:	f7ff ff32 	bl	8464 <checkerror.part.0>
    8600:	1c42      	adds	r2, r0, #1
    8602:	d1ec      	bne.n	85de <_swilseek+0x5a>
    8604:	f04f 30ff 	mov.w	r0, #4294967295
    8608:	e7db      	b.n	85c2 <_swilseek+0x3e>
    860a:	f000 fafb 	bl	8c04 <__errno>
    860e:	2309      	movs	r3, #9
    8610:	6003      	str	r3, [r0, #0]
    8612:	f04f 30ff 	mov.w	r0, #4294967295
    8616:	e7d4      	b.n	85c2 <_swilseek+0x3e>

00008618 <_lseek>:
    8618:	f7ff bfb4 	b.w	8584 <_swilseek>

0000861c <_swiwrite>:
    861c:	b530      	push	{r4, r5, lr}
    861e:	b085      	sub	sp, #20
    8620:	9001      	str	r0, [sp, #4]
    8622:	9102      	str	r1, [sp, #8]
    8624:	9203      	str	r2, [sp, #12]
    8626:	2405      	movs	r4, #5
    8628:	ad01      	add	r5, sp, #4
    862a:	4620      	mov	r0, r4
    862c:	4629      	mov	r1, r5
    862e:	beab      	bkpt	0x00ab
    8630:	4604      	mov	r4, r0
    8632:	1c63      	adds	r3, r4, #1
    8634:	d002      	beq.n	863c <_swiwrite+0x20>
    8636:	4620      	mov	r0, r4
    8638:	b005      	add	sp, #20
    863a:	bd30      	pop	{r4, r5, pc}
    863c:	f7ff ff12 	bl	8464 <checkerror.part.0>
    8640:	b005      	add	sp, #20
    8642:	bd30      	pop	{r4, r5, pc}

00008644 <_write>:
    8644:	b570      	push	{r4, r5, r6, lr}
    8646:	460e      	mov	r6, r1
    8648:	4615      	mov	r5, r2
    864a:	f7ff feef 	bl	842c <findslot>
    864e:	4604      	mov	r4, r0
    8650:	b1e0      	cbz	r0, 868c <_write+0x48>
    8652:	4631      	mov	r1, r6
    8654:	6800      	ldr	r0, [r0, #0]
    8656:	462a      	mov	r2, r5
    8658:	f7ff ffe0 	bl	861c <_swiwrite>
    865c:	1e03      	subs	r3, r0, #0
    865e:	db12      	blt.n	8686 <_write+0x42>
    8660:	6862      	ldr	r2, [r4, #4]
    8662:	1ae8      	subs	r0, r5, r3
    8664:	4402      	add	r2, r0
    8666:	429d      	cmp	r5, r3
    8668:	6062      	str	r2, [r4, #4]
    866a:	d000      	beq.n	866e <_write+0x2a>
    866c:	bd70      	pop	{r4, r5, r6, pc}
    866e:	f000 fac9 	bl	8c04 <__errno>
    8672:	2613      	movs	r6, #19
    8674:	4605      	mov	r5, r0
    8676:	2400      	movs	r4, #0
    8678:	4630      	mov	r0, r6
    867a:	4621      	mov	r1, r4
    867c:	beab      	bkpt	0x00ab
    867e:	4606      	mov	r6, r0
    8680:	602e      	str	r6, [r5, #0]
    8682:	4620      	mov	r0, r4
    8684:	bd70      	pop	{r4, r5, r6, pc}
    8686:	f04f 30ff 	mov.w	r0, #4294967295
    868a:	e7ef      	b.n	866c <_write+0x28>
    868c:	f000 faba 	bl	8c04 <__errno>
    8690:	2309      	movs	r3, #9
    8692:	6003      	str	r3, [r0, #0]
    8694:	f04f 30ff 	mov.w	r0, #4294967295
    8698:	bd70      	pop	{r4, r5, r6, pc}
    869a:	bf00      	nop

0000869c <_swiclose>:
    869c:	b530      	push	{r4, r5, lr}
    869e:	b083      	sub	sp, #12
    86a0:	ac02      	add	r4, sp, #8
    86a2:	f844 0d04 	str.w	r0, [r4, #-4]!
    86a6:	2502      	movs	r5, #2
    86a8:	4628      	mov	r0, r5
    86aa:	4621      	mov	r1, r4
    86ac:	beab      	bkpt	0x00ab
    86ae:	4604      	mov	r4, r0
    86b0:	1c63      	adds	r3, r4, #1
    86b2:	d002      	beq.n	86ba <_swiclose+0x1e>
    86b4:	4620      	mov	r0, r4
    86b6:	b003      	add	sp, #12
    86b8:	bd30      	pop	{r4, r5, pc}
    86ba:	f7ff fed3 	bl	8464 <checkerror.part.0>
    86be:	b003      	add	sp, #12
    86c0:	bd30      	pop	{r4, r5, pc}
    86c2:	bf00      	nop

000086c4 <_close>:
    86c4:	b570      	push	{r4, r5, r6, lr}
    86c6:	b082      	sub	sp, #8
    86c8:	4604      	mov	r4, r0
    86ca:	f7ff feaf 	bl	842c <findslot>
    86ce:	4605      	mov	r5, r0
    86d0:	b318      	cbz	r0, 871a <_close+0x56>
    86d2:	3c01      	subs	r4, #1
    86d4:	2c01      	cmp	r4, #1
    86d6:	d911      	bls.n	86fc <_close+0x38>
    86d8:	682b      	ldr	r3, [r5, #0]
    86da:	ac02      	add	r4, sp, #8
    86dc:	f844 3d04 	str.w	r3, [r4, #-4]!
    86e0:	2602      	movs	r6, #2
    86e2:	4630      	mov	r0, r6
    86e4:	4621      	mov	r1, r4
    86e6:	beab      	bkpt	0x00ab
    86e8:	4604      	mov	r4, r0
    86ea:	1c63      	adds	r3, r4, #1
    86ec:	d010      	beq.n	8710 <_close+0x4c>
    86ee:	4620      	mov	r0, r4
    86f0:	b910      	cbnz	r0, 86f8 <_close+0x34>
    86f2:	f04f 33ff 	mov.w	r3, #4294967295
    86f6:	602b      	str	r3, [r5, #0]
    86f8:	b002      	add	sp, #8
    86fa:	bd70      	pop	{r4, r5, r6, pc}
    86fc:	4b0a      	ldr	r3, [pc, #40]	; (8728 <_close+0x64>)
    86fe:	689a      	ldr	r2, [r3, #8]
    8700:	691b      	ldr	r3, [r3, #16]
    8702:	429a      	cmp	r2, r3
    8704:	d1e8      	bne.n	86d8 <_close+0x14>
    8706:	f04f 33ff 	mov.w	r3, #4294967295
    870a:	6003      	str	r3, [r0, #0]
    870c:	2000      	movs	r0, #0
    870e:	e7f3      	b.n	86f8 <_close+0x34>
    8710:	f7ff fea8 	bl	8464 <checkerror.part.0>
    8714:	2800      	cmp	r0, #0
    8716:	d1ef      	bne.n	86f8 <_close+0x34>
    8718:	e7eb      	b.n	86f2 <_close+0x2e>
    871a:	f000 fa73 	bl	8c04 <__errno>
    871e:	2309      	movs	r3, #9
    8720:	6003      	str	r3, [r0, #0]
    8722:	f04f 30ff 	mov.w	r0, #4294967295
    8726:	e7e7      	b.n	86f8 <_close+0x34>
    8728:	0001dab0 	.word	0x0001dab0

0000872c <_getpid>:
    872c:	2001      	movs	r0, #1
    872e:	4770      	bx	lr

00008730 <_sbrk>:
    8730:	b508      	push	{r3, lr}
    8732:	4b0a      	ldr	r3, [pc, #40]	; (875c <_sbrk+0x2c>)
    8734:	4601      	mov	r1, r0
    8736:	681a      	ldr	r2, [r3, #0]
    8738:	b16a      	cbz	r2, 8756 <_sbrk+0x26>
    873a:	4610      	mov	r0, r2
    873c:	1842      	adds	r2, r0, r1
    873e:	4669      	mov	r1, sp
    8740:	428a      	cmp	r2, r1
    8742:	d801      	bhi.n	8748 <_sbrk+0x18>
    8744:	601a      	str	r2, [r3, #0]
    8746:	bd08      	pop	{r3, pc}
    8748:	f000 fa5c 	bl	8c04 <__errno>
    874c:	230c      	movs	r3, #12
    874e:	6003      	str	r3, [r0, #0]
    8750:	f04f 30ff 	mov.w	r0, #4294967295
    8754:	bd08      	pop	{r3, pc}
    8756:	4802      	ldr	r0, [pc, #8]	; (8760 <_sbrk+0x30>)
    8758:	6018      	str	r0, [r3, #0]
    875a:	e7ef      	b.n	873c <_sbrk+0xc>
    875c:	0001daa8 	.word	0x0001daa8
    8760:	0001db94 	.word	0x0001db94

00008764 <_swistat>:
    8764:	b570      	push	{r4, r5, r6, lr}
    8766:	460c      	mov	r4, r1
    8768:	f7ff fe60 	bl	842c <findslot>
    876c:	4605      	mov	r5, r0
    876e:	b1b0      	cbz	r0, 879e <_swistat+0x3a>
    8770:	6863      	ldr	r3, [r4, #4]
    8772:	f44f 6280 	mov.w	r2, #1024	; 0x400
    8776:	f443 5300 	orr.w	r3, r3, #8192	; 0x2000
    877a:	6063      	str	r3, [r4, #4]
    877c:	62e2      	str	r2, [r4, #44]	; 0x2c
    877e:	260c      	movs	r6, #12
    8780:	4630      	mov	r0, r6
    8782:	4629      	mov	r1, r5
    8784:	beab      	bkpt	0x00ab
    8786:	4605      	mov	r5, r0
    8788:	1c6a      	adds	r2, r5, #1
    878a:	d003      	beq.n	8794 <_swistat+0x30>
    878c:	4628      	mov	r0, r5
    878e:	6120      	str	r0, [r4, #16]
    8790:	2000      	movs	r0, #0
    8792:	bd70      	pop	{r4, r5, r6, pc}
    8794:	f7ff fe66 	bl	8464 <checkerror.part.0>
    8798:	1c43      	adds	r3, r0, #1
    879a:	d1f8      	bne.n	878e <_swistat+0x2a>
    879c:	bd70      	pop	{r4, r5, r6, pc}
    879e:	f000 fa31 	bl	8c04 <__errno>
    87a2:	2309      	movs	r3, #9
    87a4:	6003      	str	r3, [r0, #0]
    87a6:	f04f 30ff 	mov.w	r0, #4294967295
    87aa:	bd70      	pop	{r4, r5, r6, pc}

000087ac <_fstat>:
    87ac:	b538      	push	{r3, r4, r5, lr}
    87ae:	460c      	mov	r4, r1
    87b0:	4605      	mov	r5, r0
    87b2:	2100      	movs	r1, #0
    87b4:	4620      	mov	r0, r4
    87b6:	223c      	movs	r2, #60	; 0x3c
    87b8:	f7ff fd04 	bl	81c4 <memset>
    87bc:	4628      	mov	r0, r5
    87be:	4621      	mov	r1, r4
    87c0:	e8bd 4038 	ldmia.w	sp!, {r3, r4, r5, lr}
    87c4:	f7ff bfce 	b.w	8764 <_swistat>

000087c8 <_stat>:
    87c8:	b538      	push	{r3, r4, r5, lr}
    87ca:	460d      	mov	r5, r1
    87cc:	4604      	mov	r4, r0
    87ce:	2100      	movs	r1, #0
    87d0:	223c      	movs	r2, #60	; 0x3c
    87d2:	4628      	mov	r0, r5
    87d4:	f7ff fcf6 	bl	81c4 <memset>
    87d8:	4620      	mov	r0, r4
    87da:	2100      	movs	r1, #0
    87dc:	f000 f812 	bl	8804 <_swiopen>
    87e0:	1c43      	adds	r3, r0, #1
    87e2:	4604      	mov	r4, r0
    87e4:	d00b      	beq.n	87fe <_stat+0x36>
    87e6:	686b      	ldr	r3, [r5, #4]
    87e8:	4629      	mov	r1, r5
    87ea:	f443 4301 	orr.w	r3, r3, #33024	; 0x8100
    87ee:	606b      	str	r3, [r5, #4]
    87f0:	f7ff ffb8 	bl	8764 <_swistat>
    87f4:	4605      	mov	r5, r0
    87f6:	4620      	mov	r0, r4
    87f8:	f7ff ff64 	bl	86c4 <_close>
    87fc:	462c      	mov	r4, r5
    87fe:	4620      	mov	r0, r4
    8800:	bd38      	pop	{r3, r4, r5, pc}
    8802:	bf00      	nop

00008804 <_swiopen>:
    8804:	e92d 47f0 	stmdb	sp!, {r4, r5, r6, r7, r8, r9, sl, lr}
    8808:	4e32      	ldr	r6, [pc, #200]	; (88d4 <_swiopen+0xd0>)
    880a:	b090      	sub	sp, #64	; 0x40
    880c:	4682      	mov	sl, r0
    880e:	4688      	mov	r8, r1
    8810:	2400      	movs	r4, #0
    8812:	f856 5034 	ldr.w	r5, [r6, r4, lsl #3]
    8816:	00e7      	lsls	r7, r4, #3
    8818:	1c6b      	adds	r3, r5, #1
    881a:	d00c      	beq.n	8836 <_swiopen+0x32>
    881c:	3401      	adds	r4, #1
    881e:	2c14      	cmp	r4, #20
    8820:	d1f7      	bne.n	8812 <_swiopen+0xe>
    8822:	f000 f9ef 	bl	8c04 <__errno>
    8826:	2318      	movs	r3, #24
    8828:	6003      	str	r3, [r0, #0]
    882a:	f04f 35ff 	mov.w	r5, #4294967295
    882e:	4628      	mov	r0, r5
    8830:	b010      	add	sp, #64	; 0x40
    8832:	e8bd 87f0 	ldmia.w	sp!, {r4, r5, r6, r7, r8, r9, sl, pc}
    8836:	f408 6320 	and.w	r3, r8, #2560	; 0xa00
    883a:	f5b3 6f20 	cmp.w	r3, #2560	; 0xa00
    883e:	f10d 0904 	add.w	r9, sp, #4
    8842:	d03b      	beq.n	88bc <_swiopen+0xb8>
    8844:	f240 6301 	movw	r3, #1537	; 0x601
    8848:	f3c8 4500 	ubfx	r5, r8, #16, #1
    884c:	f018 0f02 	tst.w	r8, #2
    8850:	ea08 0303 	and.w	r3, r8, r3
    8854:	bf18      	it	ne
    8856:	f045 0502 	orrne.w	r5, r5, #2
    885a:	b10b      	cbz	r3, 8860 <_swiopen+0x5c>
    885c:	f045 0504 	orr.w	r5, r5, #4
    8860:	f018 0f08 	tst.w	r8, #8
    8864:	bf18      	it	ne
    8866:	f025 0504 	bicne.w	r5, r5, #4
    886a:	4650      	mov	r0, sl
    886c:	bf18      	it	ne
    886e:	f045 0508 	orrne.w	r5, r5, #8
    8872:	f8cd a004 	str.w	sl, [sp, #4]
    8876:	f000 fe5b 	bl	9530 <strlen>
    887a:	9502      	str	r5, [sp, #8]
    887c:	9003      	str	r0, [sp, #12]
    887e:	2501      	movs	r5, #1
    8880:	4628      	mov	r0, r5
    8882:	4649      	mov	r1, r9
    8884:	beab      	bkpt	0x00ab
    8886:	4605      	mov	r5, r0
    8888:	2d00      	cmp	r5, #0
    888a:	db09      	blt.n	88a0 <_swiopen+0x9c>
    888c:	f846 5034 	str.w	r5, [r6, r4, lsl #3]
    8890:	4625      	mov	r5, r4
    8892:	4437      	add	r7, r6
    8894:	2300      	movs	r3, #0
    8896:	4628      	mov	r0, r5
    8898:	607b      	str	r3, [r7, #4]
    889a:	b010      	add	sp, #64	; 0x40
    889c:	e8bd 87f0 	ldmia.w	sp!, {r4, r5, r6, r7, r8, r9, sl, pc}
    88a0:	f000 f9b0 	bl	8c04 <__errno>
    88a4:	2613      	movs	r6, #19
    88a6:	4604      	mov	r4, r0
    88a8:	2700      	movs	r7, #0
    88aa:	4630      	mov	r0, r6
    88ac:	4639      	mov	r1, r7
    88ae:	beab      	bkpt	0x00ab
    88b0:	4606      	mov	r6, r0
    88b2:	4628      	mov	r0, r5
    88b4:	6026      	str	r6, [r4, #0]
    88b6:	b010      	add	sp, #64	; 0x40
    88b8:	e8bd 87f0 	ldmia.w	sp!, {r4, r5, r6, r7, r8, r9, sl, pc}
    88bc:	4649      	mov	r1, r9
    88be:	4650      	mov	r0, sl
    88c0:	f7ff ff82 	bl	87c8 <_stat>
    88c4:	3001      	adds	r0, #1
    88c6:	d0bd      	beq.n	8844 <_swiopen+0x40>
    88c8:	f000 f99c 	bl	8c04 <__errno>
    88cc:	2311      	movs	r3, #17
    88ce:	6003      	str	r3, [r0, #0]
    88d0:	e7ad      	b.n	882e <_swiopen+0x2a>
    88d2:	bf00      	nop
    88d4:	0001dab0 	.word	0x0001dab0

000088d8 <_open>:
    88d8:	b40e      	push	{r1, r2, r3}
    88da:	b500      	push	{lr}
    88dc:	9901      	ldr	r1, [sp, #4]
    88de:	f7ff ff91 	bl	8804 <_swiopen>
    88e2:	f85d eb04 	ldr.w	lr, [sp], #4
    88e6:	b003      	add	sp, #12
    88e8:	4770      	bx	lr
    88ea:	bf00      	nop

000088ec <_link>:
    88ec:	b508      	push	{r3, lr}
    88ee:	f000 f989 	bl	8c04 <__errno>
    88f2:	2358      	movs	r3, #88	; 0x58
    88f4:	6003      	str	r3, [r0, #0]
    88f6:	f04f 30ff 	mov.w	r0, #4294967295
    88fa:	bd08      	pop	{r3, pc}

000088fc <_unlink>:
    88fc:	b5f0      	push	{r4, r5, r6, r7, lr}
    88fe:	b083      	sub	sp, #12
    8900:	9000      	str	r0, [sp, #0]
    8902:	f000 fe15 	bl	9530 <strlen>
    8906:	240e      	movs	r4, #14
    8908:	9001      	str	r0, [sp, #4]
    890a:	466d      	mov	r5, sp
    890c:	4620      	mov	r0, r4
    890e:	4629      	mov	r1, r5
    8910:	beab      	bkpt	0x00ab
    8912:	4604      	mov	r4, r0
    8914:	1c63      	adds	r3, r4, #1
    8916:	d002      	beq.n	891e <_unlink+0x22>
    8918:	2000      	movs	r0, #0
    891a:	b003      	add	sp, #12
    891c:	bdf0      	pop	{r4, r5, r6, r7, pc}
    891e:	f000 f971 	bl	8c04 <__errno>
    8922:	2613      	movs	r6, #19
    8924:	4605      	mov	r5, r0
    8926:	2700      	movs	r7, #0
    8928:	4630      	mov	r0, r6
    892a:	4639      	mov	r1, r7
    892c:	beab      	bkpt	0x00ab
    892e:	4606      	mov	r6, r0
    8930:	4620      	mov	r0, r4
    8932:	602e      	str	r6, [r5, #0]
    8934:	b003      	add	sp, #12
    8936:	bdf0      	pop	{r4, r5, r6, r7, pc}

00008938 <_gettimeofday>:
    8938:	b5f0      	push	{r4, r5, r6, r7, lr}
    893a:	4605      	mov	r5, r0
    893c:	460c      	mov	r4, r1
    893e:	b138      	cbz	r0, 8950 <_gettimeofday+0x18>
    8940:	2711      	movs	r7, #17
    8942:	2600      	movs	r6, #0
    8944:	4638      	mov	r0, r7
    8946:	4631      	mov	r1, r6
    8948:	beab      	bkpt	0x00ab
    894a:	4607      	mov	r7, r0
    894c:	602f      	str	r7, [r5, #0]
    894e:	606e      	str	r6, [r5, #4]
    8950:	b114      	cbz	r4, 8958 <_gettimeofday+0x20>
    8952:	2300      	movs	r3, #0
    8954:	6023      	str	r3, [r4, #0]
    8956:	6063      	str	r3, [r4, #4]
    8958:	2000      	movs	r0, #0
    895a:	bdf0      	pop	{r4, r5, r6, r7, pc}

0000895c <_clock>:
    895c:	b530      	push	{r4, r5, lr}
    895e:	2410      	movs	r4, #16
    8960:	2500      	movs	r5, #0
    8962:	4620      	mov	r0, r4
    8964:	4629      	mov	r1, r5
    8966:	beab      	bkpt	0x00ab
    8968:	4604      	mov	r4, r0
    896a:	4620      	mov	r0, r4
    896c:	bd30      	pop	{r4, r5, pc}
    896e:	bf00      	nop

00008970 <_times>:
    8970:	b570      	push	{r4, r5, r6, lr}
    8972:	4604      	mov	r4, r0
    8974:	2610      	movs	r6, #16
    8976:	2500      	movs	r5, #0
    8978:	4630      	mov	r0, r6
    897a:	4629      	mov	r1, r5
    897c:	beab      	bkpt	0x00ab
    897e:	4606      	mov	r6, r0
    8980:	b11c      	cbz	r4, 898a <_times+0x1a>
    8982:	6026      	str	r6, [r4, #0]
    8984:	6065      	str	r5, [r4, #4]
    8986:	60a5      	str	r5, [r4, #8]
    8988:	60e5      	str	r5, [r4, #12]
    898a:	4630      	mov	r0, r6
    898c:	bd70      	pop	{r4, r5, r6, pc}
    898e:	bf00      	nop

00008990 <_isatty>:
    8990:	b570      	push	{r4, r5, r6, lr}
    8992:	f7ff fd4b 	bl	842c <findslot>
    8996:	4604      	mov	r4, r0
    8998:	b190      	cbz	r0, 89c0 <_isatty+0x30>
    899a:	2509      	movs	r5, #9
    899c:	4628      	mov	r0, r5
    899e:	4621      	mov	r1, r4
    89a0:	beab      	bkpt	0x00ab
    89a2:	4604      	mov	r4, r0
    89a4:	2c01      	cmp	r4, #1
    89a6:	d009      	beq.n	89bc <_isatty+0x2c>
    89a8:	f000 f92c 	bl	8c04 <__errno>
    89ac:	2613      	movs	r6, #19
    89ae:	4605      	mov	r5, r0
    89b0:	2400      	movs	r4, #0
    89b2:	4630      	mov	r0, r6
    89b4:	4621      	mov	r1, r4
    89b6:	beab      	bkpt	0x00ab
    89b8:	4606      	mov	r6, r0
    89ba:	602e      	str	r6, [r5, #0]
    89bc:	4620      	mov	r0, r4
    89be:	bd70      	pop	{r4, r5, r6, pc}
    89c0:	f000 f920 	bl	8c04 <__errno>
    89c4:	2309      	movs	r3, #9
    89c6:	6003      	str	r3, [r0, #0]
    89c8:	e7f8      	b.n	89bc <_isatty+0x2c>
    89ca:	bf00      	nop

000089cc <_system>:
    89cc:	b530      	push	{r4, r5, lr}
    89ce:	b083      	sub	sp, #12
    89d0:	b1d8      	cbz	r0, 8a0a <_system+0x3e>
    89d2:	9000      	str	r0, [sp, #0]
    89d4:	f000 fdac 	bl	9530 <strlen>
    89d8:	2412      	movs	r4, #18
    89da:	9001      	str	r0, [sp, #4]
    89dc:	466d      	mov	r5, sp
    89de:	4620      	mov	r0, r4
    89e0:	4629      	mov	r1, r5
    89e2:	beab      	bkpt	0x00ab
    89e4:	4604      	mov	r4, r0
    89e6:	1c63      	adds	r3, r4, #1
    89e8:	d00b      	beq.n	8a02 <_system+0x36>
    89ea:	2cff      	cmp	r4, #255	; 0xff
    89ec:	4620      	mov	r0, r4
    89ee:	d806      	bhi.n	89fe <_system+0x32>
    89f0:	b12c      	cbz	r4, 89fe <_system+0x32>
    89f2:	0040      	lsls	r0, r0, #1
    89f4:	f3c0 2307 	ubfx	r3, r0, #8, #8
    89f8:	d001      	beq.n	89fe <_system+0x32>
    89fa:	42a3      	cmp	r3, r4
    89fc:	d1f9      	bne.n	89f2 <_system+0x26>
    89fe:	b003      	add	sp, #12
    8a00:	bd30      	pop	{r4, r5, pc}
    8a02:	f7ff fd2f 	bl	8464 <checkerror.part.0>
    8a06:	4604      	mov	r4, r0
    8a08:	e7ef      	b.n	89ea <_system+0x1e>
    8a0a:	2001      	movs	r0, #1
    8a0c:	b003      	add	sp, #12
    8a0e:	bd30      	pop	{r4, r5, pc}

00008a10 <_rename>:
    8a10:	b530      	push	{r4, r5, lr}
    8a12:	b085      	sub	sp, #20
    8a14:	460c      	mov	r4, r1
    8a16:	9000      	str	r0, [sp, #0]
    8a18:	f000 fd8a 	bl	9530 <strlen>
    8a1c:	9001      	str	r0, [sp, #4]
    8a1e:	4620      	mov	r0, r4
    8a20:	9402      	str	r4, [sp, #8]
    8a22:	f000 fd85 	bl	9530 <strlen>
    8a26:	240f      	movs	r4, #15
    8a28:	9003      	str	r0, [sp, #12]
    8a2a:	466d      	mov	r5, sp
    8a2c:	4620      	mov	r0, r4
    8a2e:	4629      	mov	r1, r5
    8a30:	beab      	bkpt	0x00ab
    8a32:	4604      	mov	r4, r0
    8a34:	1c63      	adds	r3, r4, #1
    8a36:	d006      	beq.n	8a46 <_rename+0x36>
    8a38:	4620      	mov	r0, r4
    8a3a:	3000      	adds	r0, #0
    8a3c:	bf18      	it	ne
    8a3e:	2001      	movne	r0, #1
    8a40:	4240      	negs	r0, r0
    8a42:	b005      	add	sp, #20
    8a44:	bd30      	pop	{r4, r5, pc}
    8a46:	f7ff fd0d 	bl	8464 <checkerror.part.0>
    8a4a:	e7f6      	b.n	8a3a <_rename+0x2a>

00008a4c <_exit>:
    8a4c:	f04f 31ff 	mov.w	r1, #4294967295
    8a50:	f000 b800 	b.w	8a54 <_kill>

00008a54 <_kill>:
    8a54:	2906      	cmp	r1, #6
    8a56:	b530      	push	{r4, r5, lr}
    8a58:	bf0c      	ite	eq
    8a5a:	4d04      	ldreq	r5, [pc, #16]	; (8a6c <_kill+0x18>)
    8a5c:	4d04      	ldrne	r5, [pc, #16]	; (8a70 <_kill+0x1c>)
    8a5e:	2418      	movs	r4, #24
    8a60:	4620      	mov	r0, r4
    8a62:	4629      	mov	r1, r5
    8a64:	beab      	bkpt	0x00ab
    8a66:	4604      	mov	r4, r0
    8a68:	4620      	mov	r0, r4
    8a6a:	bd30      	pop	{r4, r5, pc}
    8a6c:	00020023 	.word	0x00020023
    8a70:	00020026 	.word	0x00020026

00008a74 <ubfx>:
    8a74:	b480      	push	{r7}
    8a76:	b085      	sub	sp, #20
    8a78:	af00      	add	r7, sp, #0
    8a7a:	60f8      	str	r0, [r7, #12]
    8a7c:	60b9      	str	r1, [r7, #8]
    8a7e:	607a      	str	r2, [r7, #4]
    8a80:	603b      	str	r3, [r7, #0]
    8a82:	683a      	ldr	r2, [r7, #0]
    8a84:	687b      	ldr	r3, [r7, #4]
    8a86:	4413      	add	r3, r2
    8a88:	f1c3 0321 	rsb	r3, r3, #33	; 0x21
    8a8c:	68ba      	ldr	r2, [r7, #8]
    8a8e:	409a      	lsls	r2, r3
    8a90:	68fb      	ldr	r3, [r7, #12]
    8a92:	601a      	str	r2, [r3, #0]
    8a94:	68fb      	ldr	r3, [r7, #12]
    8a96:	681a      	ldr	r2, [r3, #0]
    8a98:	683b      	ldr	r3, [r7, #0]
    8a9a:	f1c3 0320 	rsb	r3, r3, #32
    8a9e:	40da      	lsrs	r2, r3
    8aa0:	68fb      	ldr	r3, [r7, #12]
    8aa2:	601a      	str	r2, [r3, #0]
    8aa4:	3714      	adds	r7, #20
    8aa6:	46bd      	mov	sp, r7
    8aa8:	f85d 7b04 	ldr.w	r7, [sp], #4
    8aac:	4770      	bx	lr
    8aae:	bf00      	nop

00008ab0 <sbfx>:
    8ab0:	b480      	push	{r7}
    8ab2:	b085      	sub	sp, #20
    8ab4:	af00      	add	r7, sp, #0
    8ab6:	60f8      	str	r0, [r7, #12]
    8ab8:	60b9      	str	r1, [r7, #8]
    8aba:	607a      	str	r2, [r7, #4]
    8abc:	603b      	str	r3, [r7, #0]
    8abe:	683a      	ldr	r2, [r7, #0]
    8ac0:	687b      	ldr	r3, [r7, #4]
    8ac2:	4413      	add	r3, r2
    8ac4:	f1c3 0321 	rsb	r3, r3, #33	; 0x21
    8ac8:	68ba      	ldr	r2, [r7, #8]
    8aca:	409a      	lsls	r2, r3
    8acc:	68fb      	ldr	r3, [r7, #12]
    8ace:	601a      	str	r2, [r3, #0]
    8ad0:	68fb      	ldr	r3, [r7, #12]
    8ad2:	681a      	ldr	r2, [r3, #0]
    8ad4:	683b      	ldr	r3, [r7, #0]
    8ad6:	f1c3 0320 	rsb	r3, r3, #32
    8ada:	411a      	asrs	r2, r3
    8adc:	68fb      	ldr	r3, [r7, #12]
    8ade:	601a      	str	r2, [r3, #0]
    8ae0:	3714      	adds	r7, #20
    8ae2:	46bd      	mov	sp, r7
    8ae4:	f85d 7b04 	ldr.w	r7, [sp], #4
    8ae8:	4770      	bx	lr
    8aea:	bf00      	nop

00008aec <bfc>:
    8aec:	b580      	push	{r7, lr}
    8aee:	b086      	sub	sp, #24
    8af0:	af00      	add	r7, sp, #0
    8af2:	60f8      	str	r0, [r7, #12]
    8af4:	60b9      	str	r1, [r7, #8]
    8af6:	607a      	str	r2, [r7, #4]
    8af8:	f04f 33ff 	mov.w	r3, #4294967295
    8afc:	617b      	str	r3, [r7, #20]
    8afe:	687a      	ldr	r2, [r7, #4]
    8b00:	68bb      	ldr	r3, [r7, #8]
    8b02:	4413      	add	r3, r2
    8b04:	f1c3 0321 	rsb	r3, r3, #33	; 0x21
    8b08:	697a      	ldr	r2, [r7, #20]
    8b0a:	fa02 f303 	lsl.w	r3, r2, r3
    8b0e:	617b      	str	r3, [r7, #20]
    8b10:	687b      	ldr	r3, [r7, #4]
    8b12:	f1c3 0320 	rsb	r3, r3, #32
    8b16:	697a      	ldr	r2, [r7, #20]
    8b18:	fa22 f303 	lsr.w	r3, r2, r3
    8b1c:	617b      	str	r3, [r7, #20]
    8b1e:	697a      	ldr	r2, [r7, #20]
    8b20:	68bb      	ldr	r3, [r7, #8]
    8b22:	fa02 f303 	lsl.w	r3, r2, r3
    8b26:	617b      	str	r3, [r7, #20]
    8b28:	4806      	ldr	r0, [pc, #24]	; (8b44 <bfc+0x58>)
    8b2a:	6979      	ldr	r1, [r7, #20]
    8b2c:	f000 fc72 	bl	9414 <printf>
    8b30:	68fb      	ldr	r3, [r7, #12]
    8b32:	681a      	ldr	r2, [r3, #0]
    8b34:	697b      	ldr	r3, [r7, #20]
    8b36:	43db      	mvns	r3, r3
    8b38:	401a      	ands	r2, r3
    8b3a:	68fb      	ldr	r3, [r7, #12]
    8b3c:	601a      	str	r2, [r3, #0]
    8b3e:	3718      	adds	r7, #24
    8b40:	46bd      	mov	sp, r7
    8b42:	bd80      	pop	{r7, pc}
    8b44:	00014b5c 	.word	0x00014b5c

00008b48 <main>:
    8b48:	b580      	push	{r7, lr}
    8b4a:	b084      	sub	sp, #16
    8b4c:	af00      	add	r7, sp, #0
    8b4e:	4825      	ldr	r0, [pc, #148]	; (8be4 <main+0x9c>)
    8b50:	f000 fc60 	bl	9414 <printf>
    8b54:	4824      	ldr	r0, [pc, #144]	; (8be8 <main+0xa0>)
    8b56:	68f9      	ldr	r1, [r7, #12]
    8b58:	f000 fc82 	bl	9460 <scanf>
    8b5c:	4823      	ldr	r0, [pc, #140]	; (8bec <main+0xa4>)
    8b5e:	f000 fc59 	bl	9414 <printf>
    8b62:	f107 0308 	add.w	r3, r7, #8
    8b66:	4820      	ldr	r0, [pc, #128]	; (8be8 <main+0xa0>)
    8b68:	4619      	mov	r1, r3
    8b6a:	f000 fc79 	bl	9460 <scanf>
    8b6e:	4820      	ldr	r0, [pc, #128]	; (8bf0 <main+0xa8>)
    8b70:	f000 fc50 	bl	9414 <printf>
    8b74:	1d3b      	adds	r3, r7, #4
    8b76:	481c      	ldr	r0, [pc, #112]	; (8be8 <main+0xa0>)
    8b78:	4619      	mov	r1, r3
    8b7a:	f000 fc71 	bl	9460 <scanf>
    8b7e:	68fb      	ldr	r3, [r7, #12]
    8b80:	681b      	ldr	r3, [r3, #0]
    8b82:	481c      	ldr	r0, [pc, #112]	; (8bf4 <main+0xac>)
    8b84:	4619      	mov	r1, r3
    8b86:	f000 fc45 	bl	9414 <printf>
    8b8a:	68fb      	ldr	r3, [r7, #12]
    8b8c:	6819      	ldr	r1, [r3, #0]
    8b8e:	68ba      	ldr	r2, [r7, #8]
    8b90:	687b      	ldr	r3, [r7, #4]
    8b92:	68f8      	ldr	r0, [r7, #12]
    8b94:	f7ff ff6e 	bl	8a74 <ubfx>
    8b98:	68fb      	ldr	r3, [r7, #12]
    8b9a:	681b      	ldr	r3, [r3, #0]
    8b9c:	4816      	ldr	r0, [pc, #88]	; (8bf8 <main+0xb0>)
    8b9e:	4619      	mov	r1, r3
    8ba0:	f000 fc38 	bl	9414 <printf>
    8ba4:	68fb      	ldr	r3, [r7, #12]
    8ba6:	6819      	ldr	r1, [r3, #0]
    8ba8:	68ba      	ldr	r2, [r7, #8]
    8baa:	687b      	ldr	r3, [r7, #4]
    8bac:	68f8      	ldr	r0, [r7, #12]
    8bae:	f7ff ff61 	bl	8a74 <ubfx>
    8bb2:	68fb      	ldr	r3, [r7, #12]
    8bb4:	681b      	ldr	r3, [r3, #0]
    8bb6:	4811      	ldr	r0, [pc, #68]	; (8bfc <main+0xb4>)
    8bb8:	4619      	mov	r1, r3
    8bba:	f000 fc2b 	bl	9414 <printf>
    8bbe:	68ba      	ldr	r2, [r7, #8]
    8bc0:	687b      	ldr	r3, [r7, #4]
    8bc2:	68f8      	ldr	r0, [r7, #12]
    8bc4:	4611      	mov	r1, r2
    8bc6:	461a      	mov	r2, r3
    8bc8:	f7ff ff90 	bl	8aec <bfc>
    8bcc:	68fb      	ldr	r3, [r7, #12]
    8bce:	681b      	ldr	r3, [r3, #0]
    8bd0:	480b      	ldr	r0, [pc, #44]	; (8c00 <main+0xb8>)
    8bd2:	4619      	mov	r1, r3
    8bd4:	f000 fc1e 	bl	9414 <printf>
    8bd8:	2300      	movs	r3, #0
    8bda:	4618      	mov	r0, r3
    8bdc:	3710      	adds	r7, #16
    8bde:	46bd      	mov	sp, r7
    8be0:	bd80      	pop	{r7, pc}
    8be2:	bf00      	nop
    8be4:	00014b6c 	.word	0x00014b6c
    8be8:	00014b80 	.word	0x00014b80
    8bec:	00014b84 	.word	0x00014b84
    8bf0:	00014b94 	.word	0x00014b94
    8bf4:	00014ba8 	.word	0x00014ba8
    8bf8:	00014bb8 	.word	0x00014bb8
    8bfc:	00014bcc 	.word	0x00014bcc
    8c00:	00014be0 	.word	0x00014be0

00008c04 <__errno>:
    8c04:	4b01      	ldr	r3, [pc, #4]	; (8c0c <__errno+0x8>)
    8c06:	6818      	ldr	r0, [r3, #0]
    8c08:	4770      	bx	lr
    8c0a:	bf00      	nop
    8c0c:	0001d5e8 	.word	0x0001d5e8

00008c10 <__fp_lock>:
    8c10:	2000      	movs	r0, #0
    8c12:	4770      	bx	lr

00008c14 <__fp_unlock>:
    8c14:	2000      	movs	r0, #0
    8c16:	4770      	bx	lr

00008c18 <_cleanup_r>:
    8c18:	4901      	ldr	r1, [pc, #4]	; (8c20 <_cleanup_r+0x8>)
    8c1a:	f000 b901 	b.w	8e20 <_fwalk>
    8c1e:	bf00      	nop
    8c20:	0000cb31 	.word	0x0000cb31

00008c24 <__sfmoreglue>:
    8c24:	b570      	push	{r4, r5, r6, lr}
    8c26:	1e4b      	subs	r3, r1, #1
    8c28:	2568      	movs	r5, #104	; 0x68
    8c2a:	fb05 f503 	mul.w	r5, r5, r3
    8c2e:	460e      	mov	r6, r1
    8c30:	f105 0174 	add.w	r1, r5, #116	; 0x74
    8c34:	f000 f93e 	bl	8eb4 <_malloc_r>
    8c38:	4604      	mov	r4, r0
    8c3a:	b140      	cbz	r0, 8c4e <__sfmoreglue+0x2a>
    8c3c:	2100      	movs	r1, #0
    8c3e:	300c      	adds	r0, #12
    8c40:	6066      	str	r6, [r4, #4]
    8c42:	f105 0268 	add.w	r2, r5, #104	; 0x68
    8c46:	6021      	str	r1, [r4, #0]
    8c48:	60a0      	str	r0, [r4, #8]
    8c4a:	f7ff fabb 	bl	81c4 <memset>
    8c4e:	4620      	mov	r0, r4
    8c50:	bd70      	pop	{r4, r5, r6, pc}
    8c52:	bf00      	nop

00008c54 <_cleanup>:
    8c54:	4b02      	ldr	r3, [pc, #8]	; (8c60 <_cleanup+0xc>)
    8c56:	4903      	ldr	r1, [pc, #12]	; (8c64 <_cleanup+0x10>)
    8c58:	6818      	ldr	r0, [r3, #0]
    8c5a:	f000 b8e1 	b.w	8e20 <_fwalk>
    8c5e:	bf00      	nop
    8c60:	00014b54 	.word	0x00014b54
    8c64:	0000cb31 	.word	0x0000cb31

00008c68 <__sinit>:
    8c68:	e92d 4ff0 	stmdb	sp!, {r4, r5, r6, r7, r8, r9, sl, fp, lr}
    8c6c:	6b84      	ldr	r4, [r0, #56]	; 0x38
    8c6e:	b083      	sub	sp, #12
    8c70:	4607      	mov	r7, r0
    8c72:	2c00      	cmp	r4, #0
    8c74:	d165      	bne.n	8d42 <__sinit+0xda>
    8c76:	687d      	ldr	r5, [r7, #4]
    8c78:	4833      	ldr	r0, [pc, #204]	; (8d48 <__sinit+0xe0>)
    8c7a:	2304      	movs	r3, #4
    8c7c:	2103      	movs	r1, #3
    8c7e:	f507 723b 	add.w	r2, r7, #748	; 0x2ec
    8c82:	63f8      	str	r0, [r7, #60]	; 0x3c
    8c84:	f8c7 12e4 	str.w	r1, [r7, #740]	; 0x2e4
    8c88:	f8c7 22e8 	str.w	r2, [r7, #744]	; 0x2e8
    8c8c:	f8c7 42e0 	str.w	r4, [r7, #736]	; 0x2e0
    8c90:	f105 005c 	add.w	r0, r5, #92	; 0x5c
    8c94:	81ab      	strh	r3, [r5, #12]
    8c96:	602c      	str	r4, [r5, #0]
    8c98:	606c      	str	r4, [r5, #4]
    8c9a:	60ac      	str	r4, [r5, #8]
    8c9c:	666c      	str	r4, [r5, #100]	; 0x64
    8c9e:	81ec      	strh	r4, [r5, #14]
    8ca0:	612c      	str	r4, [r5, #16]
    8ca2:	616c      	str	r4, [r5, #20]
    8ca4:	61ac      	str	r4, [r5, #24]
    8ca6:	4621      	mov	r1, r4
    8ca8:	2208      	movs	r2, #8
    8caa:	f7ff fa8b 	bl	81c4 <memset>
    8cae:	f8df b09c 	ldr.w	fp, [pc, #156]	; 8d4c <__sinit+0xe4>
    8cb2:	68be      	ldr	r6, [r7, #8]
    8cb4:	f8df a098 	ldr.w	sl, [pc, #152]	; 8d50 <__sinit+0xe8>
    8cb8:	f8df 9098 	ldr.w	r9, [pc, #152]	; 8d54 <__sinit+0xec>
    8cbc:	f8df 8098 	ldr.w	r8, [pc, #152]	; 8d58 <__sinit+0xf0>
    8cc0:	2301      	movs	r3, #1
    8cc2:	2209      	movs	r2, #9
    8cc4:	61ed      	str	r5, [r5, #28]
    8cc6:	f8c5 b020 	str.w	fp, [r5, #32]
    8cca:	f8c5 a024 	str.w	sl, [r5, #36]	; 0x24
    8cce:	f8c5 9028 	str.w	r9, [r5, #40]	; 0x28
    8cd2:	f8c5 802c 	str.w	r8, [r5, #44]	; 0x2c
    8cd6:	4621      	mov	r1, r4
    8cd8:	81f3      	strh	r3, [r6, #14]
    8cda:	81b2      	strh	r2, [r6, #12]
    8cdc:	6034      	str	r4, [r6, #0]
    8cde:	6074      	str	r4, [r6, #4]
    8ce0:	60b4      	str	r4, [r6, #8]
    8ce2:	6674      	str	r4, [r6, #100]	; 0x64
    8ce4:	6134      	str	r4, [r6, #16]
    8ce6:	6174      	str	r4, [r6, #20]
    8ce8:	61b4      	str	r4, [r6, #24]
    8cea:	2208      	movs	r2, #8
    8cec:	f106 005c 	add.w	r0, r6, #92	; 0x5c
    8cf0:	9301      	str	r3, [sp, #4]
    8cf2:	f7ff fa67 	bl	81c4 <memset>
    8cf6:	68fd      	ldr	r5, [r7, #12]
    8cf8:	2012      	movs	r0, #18
    8cfa:	2202      	movs	r2, #2
    8cfc:	61f6      	str	r6, [r6, #28]
    8cfe:	f8c6 b020 	str.w	fp, [r6, #32]
    8d02:	f8c6 a024 	str.w	sl, [r6, #36]	; 0x24
    8d06:	f8c6 9028 	str.w	r9, [r6, #40]	; 0x28
    8d0a:	f8c6 802c 	str.w	r8, [r6, #44]	; 0x2c
    8d0e:	4621      	mov	r1, r4
    8d10:	81a8      	strh	r0, [r5, #12]
    8d12:	81ea      	strh	r2, [r5, #14]
    8d14:	602c      	str	r4, [r5, #0]
    8d16:	606c      	str	r4, [r5, #4]
    8d18:	60ac      	str	r4, [r5, #8]
    8d1a:	666c      	str	r4, [r5, #100]	; 0x64
    8d1c:	612c      	str	r4, [r5, #16]
    8d1e:	616c      	str	r4, [r5, #20]
    8d20:	61ac      	str	r4, [r5, #24]
    8d22:	f105 005c 	add.w	r0, r5, #92	; 0x5c
    8d26:	2208      	movs	r2, #8
    8d28:	f7ff fa4c 	bl	81c4 <memset>
    8d2c:	9b01      	ldr	r3, [sp, #4]
    8d2e:	61ed      	str	r5, [r5, #28]
    8d30:	f8c5 b020 	str.w	fp, [r5, #32]
    8d34:	f8c5 a024 	str.w	sl, [r5, #36]	; 0x24
    8d38:	f8c5 9028 	str.w	r9, [r5, #40]	; 0x28
    8d3c:	f8c5 802c 	str.w	r8, [r5, #44]	; 0x2c
    8d40:	63bb      	str	r3, [r7, #56]	; 0x38
    8d42:	b003      	add	sp, #12
    8d44:	e8bd 8ff0 	ldmia.w	sp!, {r4, r5, r6, r7, r8, r9, sl, fp, pc}
    8d48:	00008c19 	.word	0x00008c19
    8d4c:	000094a9 	.word	0x000094a9
    8d50:	000094d1 	.word	0x000094d1
    8d54:	00009509 	.word	0x00009509
    8d58:	00009529 	.word	0x00009529

00008d5c <__sfp>:
    8d5c:	4b21      	ldr	r3, [pc, #132]	; (8de4 <__sfp+0x88>)
    8d5e:	b570      	push	{r4, r5, r6, lr}
    8d60:	681d      	ldr	r5, [r3, #0]
    8d62:	4606      	mov	r6, r0
    8d64:	6bab      	ldr	r3, [r5, #56]	; 0x38
    8d66:	2b00      	cmp	r3, #0
    8d68:	d02c      	beq.n	8dc4 <__sfp+0x68>
    8d6a:	f505 7538 	add.w	r5, r5, #736	; 0x2e0
    8d6e:	686b      	ldr	r3, [r5, #4]
    8d70:	68ac      	ldr	r4, [r5, #8]
    8d72:	3b01      	subs	r3, #1
    8d74:	d505      	bpl.n	8d82 <__sfp+0x26>
    8d76:	e021      	b.n	8dbc <__sfp+0x60>
    8d78:	3b01      	subs	r3, #1
    8d7a:	1c5a      	adds	r2, r3, #1
    8d7c:	f104 0468 	add.w	r4, r4, #104	; 0x68
    8d80:	d01c      	beq.n	8dbc <__sfp+0x60>
    8d82:	f9b4 200c 	ldrsh.w	r2, [r4, #12]
    8d86:	2a00      	cmp	r2, #0
    8d88:	d1f6      	bne.n	8d78 <__sfp+0x1c>
    8d8a:	2500      	movs	r5, #0
    8d8c:	2301      	movs	r3, #1
    8d8e:	f64f 72ff 	movw	r2, #65535	; 0xffff
    8d92:	81e2      	strh	r2, [r4, #14]
    8d94:	81a3      	strh	r3, [r4, #12]
    8d96:	6665      	str	r5, [r4, #100]	; 0x64
    8d98:	6025      	str	r5, [r4, #0]
    8d9a:	60a5      	str	r5, [r4, #8]
    8d9c:	6065      	str	r5, [r4, #4]
    8d9e:	6125      	str	r5, [r4, #16]
    8da0:	6165      	str	r5, [r4, #20]
    8da2:	61a5      	str	r5, [r4, #24]
    8da4:	4629      	mov	r1, r5
    8da6:	f104 005c 	add.w	r0, r4, #92	; 0x5c
    8daa:	2208      	movs	r2, #8
    8dac:	f7ff fa0a 	bl	81c4 <memset>
    8db0:	6325      	str	r5, [r4, #48]	; 0x30
    8db2:	6365      	str	r5, [r4, #52]	; 0x34
    8db4:	6465      	str	r5, [r4, #68]	; 0x44
    8db6:	64a5      	str	r5, [r4, #72]	; 0x48
    8db8:	4620      	mov	r0, r4
    8dba:	bd70      	pop	{r4, r5, r6, pc}
    8dbc:	682b      	ldr	r3, [r5, #0]
    8dbe:	b12b      	cbz	r3, 8dcc <__sfp+0x70>
    8dc0:	461d      	mov	r5, r3
    8dc2:	e7d4      	b.n	8d6e <__sfp+0x12>
    8dc4:	4628      	mov	r0, r5
    8dc6:	f7ff ff4f 	bl	8c68 <__sinit>
    8dca:	e7ce      	b.n	8d6a <__sfp+0xe>
    8dcc:	4630      	mov	r0, r6
    8dce:	2104      	movs	r1, #4
    8dd0:	f7ff ff28 	bl	8c24 <__sfmoreglue>
    8dd4:	6028      	str	r0, [r5, #0]
    8dd6:	b108      	cbz	r0, 8ddc <__sfp+0x80>
    8dd8:	4605      	mov	r5, r0
    8dda:	e7c8      	b.n	8d6e <__sfp+0x12>
    8ddc:	230c      	movs	r3, #12
    8dde:	6033      	str	r3, [r6, #0]
    8de0:	bd70      	pop	{r4, r5, r6, pc}
    8de2:	bf00      	nop
    8de4:	00014b54 	.word	0x00014b54

00008de8 <__sfp_lock_acquire>:
    8de8:	4770      	bx	lr
    8dea:	bf00      	nop

00008dec <__sfp_lock_release>:
    8dec:	4770      	bx	lr
    8dee:	bf00      	nop

00008df0 <__sinit_lock_acquire>:
    8df0:	4770      	bx	lr
    8df2:	bf00      	nop

00008df4 <__sinit_lock_release>:
    8df4:	4770      	bx	lr
    8df6:	bf00      	nop

00008df8 <__fp_lock_all>:
    8df8:	4b02      	ldr	r3, [pc, #8]	; (8e04 <__fp_lock_all+0xc>)
    8dfa:	4903      	ldr	r1, [pc, #12]	; (8e08 <__fp_lock_all+0x10>)
    8dfc:	6818      	ldr	r0, [r3, #0]
    8dfe:	f000 b80f 	b.w	8e20 <_fwalk>
    8e02:	bf00      	nop
    8e04:	0001d5e8 	.word	0x0001d5e8
    8e08:	00008c11 	.word	0x00008c11

00008e0c <__fp_unlock_all>:
    8e0c:	4b02      	ldr	r3, [pc, #8]	; (8e18 <__fp_unlock_all+0xc>)
    8e0e:	4903      	ldr	r1, [pc, #12]	; (8e1c <__fp_unlock_all+0x10>)
    8e10:	6818      	ldr	r0, [r3, #0]
    8e12:	f000 b805 	b.w	8e20 <_fwalk>
    8e16:	bf00      	nop
    8e18:	0001d5e8 	.word	0x0001d5e8
    8e1c:	00008c15 	.word	0x00008c15

00008e20 <_fwalk>:
    8e20:	e92d 41f0 	stmdb	sp!, {r4, r5, r6, r7, r8, lr}
    8e24:	f510 7738 	adds.w	r7, r0, #736	; 0x2e0
    8e28:	4688      	mov	r8, r1
    8e2a:	d019      	beq.n	8e60 <_fwalk+0x40>
    8e2c:	2600      	movs	r6, #0
    8e2e:	687d      	ldr	r5, [r7, #4]
    8e30:	68bc      	ldr	r4, [r7, #8]
    8e32:	3d01      	subs	r5, #1
    8e34:	d40e      	bmi.n	8e54 <_fwalk+0x34>
    8e36:	89a3      	ldrh	r3, [r4, #12]
    8e38:	3d01      	subs	r5, #1
    8e3a:	2b01      	cmp	r3, #1
    8e3c:	d906      	bls.n	8e4c <_fwalk+0x2c>
    8e3e:	f9b4 300e 	ldrsh.w	r3, [r4, #14]
    8e42:	4620      	mov	r0, r4
    8e44:	3301      	adds	r3, #1
    8e46:	d001      	beq.n	8e4c <_fwalk+0x2c>
    8e48:	47c0      	blx	r8
    8e4a:	4306      	orrs	r6, r0
    8e4c:	1c6b      	adds	r3, r5, #1
    8e4e:	f104 0468 	add.w	r4, r4, #104	; 0x68
    8e52:	d1f0      	bne.n	8e36 <_fwalk+0x16>
    8e54:	683f      	ldr	r7, [r7, #0]
    8e56:	2f00      	cmp	r7, #0
    8e58:	d1e9      	bne.n	8e2e <_fwalk+0xe>
    8e5a:	4630      	mov	r0, r6
    8e5c:	e8bd 81f0 	ldmia.w	sp!, {r4, r5, r6, r7, r8, pc}
    8e60:	463e      	mov	r6, r7
    8e62:	4630      	mov	r0, r6
    8e64:	e8bd 81f0 	ldmia.w	sp!, {r4, r5, r6, r7, r8, pc}

00008e68 <_fwalk_reent>:
    8e68:	e92d 43f8 	stmdb	sp!, {r3, r4, r5, r6, r7, r8, r9, lr}
    8e6c:	f510 7638 	adds.w	r6, r0, #736	; 0x2e0
    8e70:	4680      	mov	r8, r0
    8e72:	4689      	mov	r9, r1
    8e74:	d01a      	beq.n	8eac <_fwalk_reent+0x44>
    8e76:	2700      	movs	r7, #0
    8e78:	6875      	ldr	r5, [r6, #4]
    8e7a:	68b4      	ldr	r4, [r6, #8]
    8e7c:	3d01      	subs	r5, #1
    8e7e:	d40f      	bmi.n	8ea0 <_fwalk_reent+0x38>
    8e80:	89a3      	ldrh	r3, [r4, #12]
    8e82:	3d01      	subs	r5, #1
    8e84:	2b01      	cmp	r3, #1
    8e86:	d907      	bls.n	8e98 <_fwalk_reent+0x30>
    8e88:	f9b4 300e 	ldrsh.w	r3, [r4, #14]
    8e8c:	4621      	mov	r1, r4
    8e8e:	3301      	adds	r3, #1
    8e90:	4640      	mov	r0, r8
    8e92:	d001      	beq.n	8e98 <_fwalk_reent+0x30>
    8e94:	47c8      	blx	r9
    8e96:	4307      	orrs	r7, r0
    8e98:	1c6b      	adds	r3, r5, #1
    8e9a:	f104 0468 	add.w	r4, r4, #104	; 0x68
    8e9e:	d1ef      	bne.n	8e80 <_fwalk_reent+0x18>
    8ea0:	6836      	ldr	r6, [r6, #0]
    8ea2:	2e00      	cmp	r6, #0
    8ea4:	d1e8      	bne.n	8e78 <_fwalk_reent+0x10>
    8ea6:	4638      	mov	r0, r7
    8ea8:	e8bd 83f8 	ldmia.w	sp!, {r3, r4, r5, r6, r7, r8, r9, pc}
    8eac:	4637      	mov	r7, r6
    8eae:	4638      	mov	r0, r7
    8eb0:	e8bd 83f8 	ldmia.w	sp!, {r3, r4, r5, r6, r7, r8, r9, pc}

00008eb4 <_malloc_r>:
    8eb4:	e92d 4ff0 	stmdb	sp!, {r4, r5, r6, r7, r8, r9, sl, fp, lr}
    8eb8:	f101 050b 	add.w	r5, r1, #11
    8ebc:	2d16      	cmp	r5, #22
    8ebe:	b083      	sub	sp, #12
    8ec0:	4606      	mov	r6, r0
    8ec2:	d927      	bls.n	8f14 <_malloc_r+0x60>
    8ec4:	f035 0507 	bics.w	r5, r5, #7
    8ec8:	d427      	bmi.n	8f1a <_malloc_r+0x66>
    8eca:	42a9      	cmp	r1, r5
    8ecc:	d825      	bhi.n	8f1a <_malloc_r+0x66>
    8ece:	4630      	mov	r0, r6
    8ed0:	f000 fa8c 	bl	93ec <__malloc_lock>
    8ed4:	f5b5 7ffc 	cmp.w	r5, #504	; 0x1f8
    8ed8:	d226      	bcs.n	8f28 <_malloc_r+0x74>
    8eda:	4fc1      	ldr	r7, [pc, #772]	; (91e0 <_malloc_r+0x32c>)
    8edc:	ea4f 0cd5 	mov.w	ip, r5, lsr #3
    8ee0:	eb07 03cc 	add.w	r3, r7, ip, lsl #3
    8ee4:	68dc      	ldr	r4, [r3, #12]
    8ee6:	429c      	cmp	r4, r3
    8ee8:	f000 81d2 	beq.w	9290 <_malloc_r+0x3dc>
    8eec:	6863      	ldr	r3, [r4, #4]
    8eee:	68e2      	ldr	r2, [r4, #12]
    8ef0:	f023 0303 	bic.w	r3, r3, #3
    8ef4:	4423      	add	r3, r4
    8ef6:	6858      	ldr	r0, [r3, #4]
    8ef8:	68a1      	ldr	r1, [r4, #8]
    8efa:	f040 0501 	orr.w	r5, r0, #1
    8efe:	60ca      	str	r2, [r1, #12]
    8f00:	4630      	mov	r0, r6
    8f02:	6091      	str	r1, [r2, #8]
    8f04:	605d      	str	r5, [r3, #4]
    8f06:	f000 fa73 	bl	93f0 <__malloc_unlock>
    8f0a:	3408      	adds	r4, #8
    8f0c:	4620      	mov	r0, r4
    8f0e:	b003      	add	sp, #12
    8f10:	e8bd 8ff0 	ldmia.w	sp!, {r4, r5, r6, r7, r8, r9, sl, fp, pc}
    8f14:	2510      	movs	r5, #16
    8f16:	42a9      	cmp	r1, r5
    8f18:	d9d9      	bls.n	8ece <_malloc_r+0x1a>
    8f1a:	2400      	movs	r4, #0
    8f1c:	230c      	movs	r3, #12
    8f1e:	4620      	mov	r0, r4
    8f20:	6033      	str	r3, [r6, #0]
    8f22:	b003      	add	sp, #12
    8f24:	e8bd 8ff0 	ldmia.w	sp!, {r4, r5, r6, r7, r8, r9, sl, fp, pc}
    8f28:	ea5f 2c55 	movs.w	ip, r5, lsr #9
    8f2c:	f000 8089 	beq.w	9042 <_malloc_r+0x18e>
    8f30:	f1bc 0f04 	cmp.w	ip, #4
    8f34:	f200 8160 	bhi.w	91f8 <_malloc_r+0x344>
    8f38:	ea4f 1c95 	mov.w	ip, r5, lsr #6
    8f3c:	f10c 0c38 	add.w	ip, ip, #56	; 0x38
    8f40:	ea4f 014c 	mov.w	r1, ip, lsl #1
    8f44:	4fa6      	ldr	r7, [pc, #664]	; (91e0 <_malloc_r+0x32c>)
    8f46:	eb07 0181 	add.w	r1, r7, r1, lsl #2
    8f4a:	68cc      	ldr	r4, [r1, #12]
    8f4c:	42a1      	cmp	r1, r4
    8f4e:	d105      	bne.n	8f5c <_malloc_r+0xa8>
    8f50:	e00c      	b.n	8f6c <_malloc_r+0xb8>
    8f52:	2b00      	cmp	r3, #0
    8f54:	da79      	bge.n	904a <_malloc_r+0x196>
    8f56:	68e4      	ldr	r4, [r4, #12]
    8f58:	42a1      	cmp	r1, r4
    8f5a:	d007      	beq.n	8f6c <_malloc_r+0xb8>
    8f5c:	6862      	ldr	r2, [r4, #4]
    8f5e:	f022 0203 	bic.w	r2, r2, #3
    8f62:	1b53      	subs	r3, r2, r5
    8f64:	2b0f      	cmp	r3, #15
    8f66:	ddf4      	ble.n	8f52 <_malloc_r+0x9e>
    8f68:	f10c 3cff 	add.w	ip, ip, #4294967295
    8f6c:	f10c 0c01 	add.w	ip, ip, #1
    8f70:	4b9b      	ldr	r3, [pc, #620]	; (91e0 <_malloc_r+0x32c>)
    8f72:	693c      	ldr	r4, [r7, #16]
    8f74:	f103 0e08 	add.w	lr, r3, #8
    8f78:	4574      	cmp	r4, lr
    8f7a:	f000 817e 	beq.w	927a <_malloc_r+0x3c6>
    8f7e:	6861      	ldr	r1, [r4, #4]
    8f80:	f021 0103 	bic.w	r1, r1, #3
    8f84:	1b4a      	subs	r2, r1, r5
    8f86:	2a0f      	cmp	r2, #15
    8f88:	f300 8164 	bgt.w	9254 <_malloc_r+0x3a0>
    8f8c:	2a00      	cmp	r2, #0
    8f8e:	f8c3 e014 	str.w	lr, [r3, #20]
    8f92:	f8c3 e010 	str.w	lr, [r3, #16]
    8f96:	da69      	bge.n	906c <_malloc_r+0x1b8>
    8f98:	f5b1 7f00 	cmp.w	r1, #512	; 0x200
    8f9c:	f080 813a 	bcs.w	9214 <_malloc_r+0x360>
    8fa0:	08c9      	lsrs	r1, r1, #3
    8fa2:	108a      	asrs	r2, r1, #2
    8fa4:	f04f 0801 	mov.w	r8, #1
    8fa8:	fa08 f802 	lsl.w	r8, r8, r2
    8fac:	eb03 01c1 	add.w	r1, r3, r1, lsl #3
    8fb0:	685a      	ldr	r2, [r3, #4]
    8fb2:	6888      	ldr	r0, [r1, #8]
    8fb4:	ea48 0202 	orr.w	r2, r8, r2
    8fb8:	60a0      	str	r0, [r4, #8]
    8fba:	60e1      	str	r1, [r4, #12]
    8fbc:	605a      	str	r2, [r3, #4]
    8fbe:	608c      	str	r4, [r1, #8]
    8fc0:	60c4      	str	r4, [r0, #12]
    8fc2:	ea4f 03ac 	mov.w	r3, ip, asr #2
    8fc6:	2001      	movs	r0, #1
    8fc8:	4098      	lsls	r0, r3
    8fca:	4290      	cmp	r0, r2
    8fcc:	d85b      	bhi.n	9086 <_malloc_r+0x1d2>
    8fce:	4202      	tst	r2, r0
    8fd0:	d106      	bne.n	8fe0 <_malloc_r+0x12c>
    8fd2:	f02c 0c03 	bic.w	ip, ip, #3
    8fd6:	0040      	lsls	r0, r0, #1
    8fd8:	4202      	tst	r2, r0
    8fda:	f10c 0c04 	add.w	ip, ip, #4
    8fde:	d0fa      	beq.n	8fd6 <_malloc_r+0x122>
    8fe0:	eb07 08cc 	add.w	r8, r7, ip, lsl #3
    8fe4:	4644      	mov	r4, r8
    8fe6:	46e1      	mov	r9, ip
    8fe8:	68e3      	ldr	r3, [r4, #12]
    8fea:	429c      	cmp	r4, r3
    8fec:	d107      	bne.n	8ffe <_malloc_r+0x14a>
    8fee:	e146      	b.n	927e <_malloc_r+0x3ca>
    8ff0:	2a00      	cmp	r2, #0
    8ff2:	f280 8157 	bge.w	92a4 <_malloc_r+0x3f0>
    8ff6:	68db      	ldr	r3, [r3, #12]
    8ff8:	429c      	cmp	r4, r3
    8ffa:	f000 8140 	beq.w	927e <_malloc_r+0x3ca>
    8ffe:	6859      	ldr	r1, [r3, #4]
    9000:	f021 0103 	bic.w	r1, r1, #3
    9004:	1b4a      	subs	r2, r1, r5
    9006:	2a0f      	cmp	r2, #15
    9008:	ddf2      	ble.n	8ff0 <_malloc_r+0x13c>
    900a:	461c      	mov	r4, r3
    900c:	f854 cf08 	ldr.w	ip, [r4, #8]!
    9010:	68d9      	ldr	r1, [r3, #12]
    9012:	f045 0901 	orr.w	r9, r5, #1
    9016:	f042 0801 	orr.w	r8, r2, #1
    901a:	441d      	add	r5, r3
    901c:	f8c3 9004 	str.w	r9, [r3, #4]
    9020:	4630      	mov	r0, r6
    9022:	f8cc 100c 	str.w	r1, [ip, #12]
    9026:	f8c1 c008 	str.w	ip, [r1, #8]
    902a:	617d      	str	r5, [r7, #20]
    902c:	613d      	str	r5, [r7, #16]
    902e:	f8c5 e00c 	str.w	lr, [r5, #12]
    9032:	f8c5 e008 	str.w	lr, [r5, #8]
    9036:	f8c5 8004 	str.w	r8, [r5, #4]
    903a:	50aa      	str	r2, [r5, r2]
    903c:	f000 f9d8 	bl	93f0 <__malloc_unlock>
    9040:	e764      	b.n	8f0c <_malloc_r+0x58>
    9042:	217e      	movs	r1, #126	; 0x7e
    9044:	f04f 0c3f 	mov.w	ip, #63	; 0x3f
    9048:	e77c      	b.n	8f44 <_malloc_r+0x90>
    904a:	4422      	add	r2, r4
    904c:	6850      	ldr	r0, [r2, #4]
    904e:	68e3      	ldr	r3, [r4, #12]
    9050:	68a1      	ldr	r1, [r4, #8]
    9052:	f040 0501 	orr.w	r5, r0, #1
    9056:	60cb      	str	r3, [r1, #12]
    9058:	4630      	mov	r0, r6
    905a:	6099      	str	r1, [r3, #8]
    905c:	6055      	str	r5, [r2, #4]
    905e:	f000 f9c7 	bl	93f0 <__malloc_unlock>
    9062:	3408      	adds	r4, #8
    9064:	4620      	mov	r0, r4
    9066:	b003      	add	sp, #12
    9068:	e8bd 8ff0 	ldmia.w	sp!, {r4, r5, r6, r7, r8, r9, sl, fp, pc}
    906c:	4421      	add	r1, r4
    906e:	684b      	ldr	r3, [r1, #4]
    9070:	4630      	mov	r0, r6
    9072:	f043 0301 	orr.w	r3, r3, #1
    9076:	604b      	str	r3, [r1, #4]
    9078:	f000 f9ba 	bl	93f0 <__malloc_unlock>
    907c:	3408      	adds	r4, #8
    907e:	4620      	mov	r0, r4
    9080:	b003      	add	sp, #12
    9082:	e8bd 8ff0 	ldmia.w	sp!, {r4, r5, r6, r7, r8, r9, sl, fp, pc}
    9086:	68bc      	ldr	r4, [r7, #8]
    9088:	6863      	ldr	r3, [r4, #4]
    908a:	f023 0903 	bic.w	r9, r3, #3
    908e:	45a9      	cmp	r9, r5
    9090:	d304      	bcc.n	909c <_malloc_r+0x1e8>
    9092:	ebc5 0309 	rsb	r3, r5, r9
    9096:	2b0f      	cmp	r3, #15
    9098:	f300 8091 	bgt.w	91be <_malloc_r+0x30a>
    909c:	4b51      	ldr	r3, [pc, #324]	; (91e4 <_malloc_r+0x330>)
    909e:	4a52      	ldr	r2, [pc, #328]	; (91e8 <_malloc_r+0x334>)
    90a0:	6819      	ldr	r1, [r3, #0]
    90a2:	6813      	ldr	r3, [r2, #0]
    90a4:	eb05 0a01 	add.w	sl, r5, r1
    90a8:	3301      	adds	r3, #1
    90aa:	eb04 0b09 	add.w	fp, r4, r9
    90ae:	f000 8161 	beq.w	9374 <_malloc_r+0x4c0>
    90b2:	f50a 5a80 	add.w	sl, sl, #4096	; 0x1000
    90b6:	f10a 0a0f 	add.w	sl, sl, #15
    90ba:	f42a 6a7f 	bic.w	sl, sl, #4080	; 0xff0
    90be:	f02a 0a0f 	bic.w	sl, sl, #15
    90c2:	4630      	mov	r0, r6
    90c4:	4651      	mov	r1, sl
    90c6:	9201      	str	r2, [sp, #4]
    90c8:	f000 f9b8 	bl	943c <_sbrk_r>
    90cc:	f1b0 3fff 	cmp.w	r0, #4294967295
    90d0:	4680      	mov	r8, r0
    90d2:	9a01      	ldr	r2, [sp, #4]
    90d4:	f000 8101 	beq.w	92da <_malloc_r+0x426>
    90d8:	4583      	cmp	fp, r0
    90da:	f200 80fb 	bhi.w	92d4 <_malloc_r+0x420>
    90de:	f8df c114 	ldr.w	ip, [pc, #276]	; 91f4 <_malloc_r+0x340>
    90e2:	45c3      	cmp	fp, r8
    90e4:	f8dc 3000 	ldr.w	r3, [ip]
    90e8:	4453      	add	r3, sl
    90ea:	f8cc 3000 	str.w	r3, [ip]
    90ee:	f000 814a 	beq.w	9386 <_malloc_r+0x4d2>
    90f2:	6812      	ldr	r2, [r2, #0]
    90f4:	493c      	ldr	r1, [pc, #240]	; (91e8 <_malloc_r+0x334>)
    90f6:	3201      	adds	r2, #1
    90f8:	bf1b      	ittet	ne
    90fa:	ebcb 0b08 	rsbne	fp, fp, r8
    90fe:	445b      	addne	r3, fp
    9100:	f8c1 8000 	streq.w	r8, [r1]
    9104:	f8cc 3000 	strne.w	r3, [ip]
    9108:	f018 0307 	ands.w	r3, r8, #7
    910c:	f000 8114 	beq.w	9338 <_malloc_r+0x484>
    9110:	f1c3 0208 	rsb	r2, r3, #8
    9114:	f5c3 5380 	rsb	r3, r3, #4096	; 0x1000
    9118:	4490      	add	r8, r2
    911a:	3308      	adds	r3, #8
    911c:	44c2      	add	sl, r8
    911e:	f3ca 0a0b 	ubfx	sl, sl, #0, #12
    9122:	ebca 0a03 	rsb	sl, sl, r3
    9126:	4651      	mov	r1, sl
    9128:	4630      	mov	r0, r6
    912a:	f8cd c004 	str.w	ip, [sp, #4]
    912e:	f000 f985 	bl	943c <_sbrk_r>
    9132:	1c43      	adds	r3, r0, #1
    9134:	f8dd c004 	ldr.w	ip, [sp, #4]
    9138:	f000 8135 	beq.w	93a6 <_malloc_r+0x4f2>
    913c:	ebc8 0200 	rsb	r2, r8, r0
    9140:	4452      	add	r2, sl
    9142:	f042 0201 	orr.w	r2, r2, #1
    9146:	f8dc 3000 	ldr.w	r3, [ip]
    914a:	42bc      	cmp	r4, r7
    914c:	4453      	add	r3, sl
    914e:	f8c7 8008 	str.w	r8, [r7, #8]
    9152:	f8cc 3000 	str.w	r3, [ip]
    9156:	f8c8 2004 	str.w	r2, [r8, #4]
    915a:	f8df a098 	ldr.w	sl, [pc, #152]	; 91f4 <_malloc_r+0x340>
    915e:	d015      	beq.n	918c <_malloc_r+0x2d8>
    9160:	f1b9 0f0f 	cmp.w	r9, #15
    9164:	f240 80eb 	bls.w	933e <_malloc_r+0x48a>
    9168:	6861      	ldr	r1, [r4, #4]
    916a:	f1a9 020c 	sub.w	r2, r9, #12
    916e:	f022 0207 	bic.w	r2, r2, #7
    9172:	f001 0101 	and.w	r1, r1, #1
    9176:	ea42 0e01 	orr.w	lr, r2, r1
    917a:	2005      	movs	r0, #5
    917c:	18a1      	adds	r1, r4, r2
    917e:	2a0f      	cmp	r2, #15
    9180:	f8c4 e004 	str.w	lr, [r4, #4]
    9184:	6048      	str	r0, [r1, #4]
    9186:	6088      	str	r0, [r1, #8]
    9188:	f200 8111 	bhi.w	93ae <_malloc_r+0x4fa>
    918c:	4a17      	ldr	r2, [pc, #92]	; (91ec <_malloc_r+0x338>)
    918e:	68bc      	ldr	r4, [r7, #8]
    9190:	6811      	ldr	r1, [r2, #0]
    9192:	428b      	cmp	r3, r1
    9194:	bf88      	it	hi
    9196:	6013      	strhi	r3, [r2, #0]
    9198:	4a15      	ldr	r2, [pc, #84]	; (91f0 <_malloc_r+0x33c>)
    919a:	6811      	ldr	r1, [r2, #0]
    919c:	428b      	cmp	r3, r1
    919e:	bf88      	it	hi
    91a0:	6013      	strhi	r3, [r2, #0]
    91a2:	6862      	ldr	r2, [r4, #4]
    91a4:	f022 0203 	bic.w	r2, r2, #3
    91a8:	4295      	cmp	r5, r2
    91aa:	ebc5 0302 	rsb	r3, r5, r2
    91ae:	d801      	bhi.n	91b4 <_malloc_r+0x300>
    91b0:	2b0f      	cmp	r3, #15
    91b2:	dc04      	bgt.n	91be <_malloc_r+0x30a>
    91b4:	4630      	mov	r0, r6
    91b6:	f000 f91b 	bl	93f0 <__malloc_unlock>
    91ba:	2400      	movs	r4, #0
    91bc:	e6a6      	b.n	8f0c <_malloc_r+0x58>
    91be:	f045 0201 	orr.w	r2, r5, #1
    91c2:	f043 0301 	orr.w	r3, r3, #1
    91c6:	4425      	add	r5, r4
    91c8:	6062      	str	r2, [r4, #4]
    91ca:	4630      	mov	r0, r6
    91cc:	60bd      	str	r5, [r7, #8]
    91ce:	606b      	str	r3, [r5, #4]
    91d0:	f000 f90e 	bl	93f0 <__malloc_unlock>
    91d4:	3408      	adds	r4, #8
    91d6:	4620      	mov	r0, r4
    91d8:	b003      	add	sp, #12
    91da:	e8bd 8ff0 	ldmia.w	sp!, {r4, r5, r6, r7, r8, r9, sl, fp, pc}
    91de:	bf00      	nop
    91e0:	0001d5ec 	.word	0x0001d5ec
    91e4:	0001db58 	.word	0x0001db58
    91e8:	0001d9f8 	.word	0x0001d9f8
    91ec:	0001db54 	.word	0x0001db54
    91f0:	0001db50 	.word	0x0001db50
    91f4:	0001db5c 	.word	0x0001db5c
    91f8:	f1bc 0f14 	cmp.w	ip, #20
    91fc:	d961      	bls.n	92c2 <_malloc_r+0x40e>
    91fe:	f1bc 0f54 	cmp.w	ip, #84	; 0x54
    9202:	f200 808f 	bhi.w	9324 <_malloc_r+0x470>
    9206:	ea4f 3c15 	mov.w	ip, r5, lsr #12
    920a:	f10c 0c6e 	add.w	ip, ip, #110	; 0x6e
    920e:	ea4f 014c 	mov.w	r1, ip, lsl #1
    9212:	e697      	b.n	8f44 <_malloc_r+0x90>
    9214:	0a4b      	lsrs	r3, r1, #9
    9216:	2b04      	cmp	r3, #4
    9218:	d958      	bls.n	92cc <_malloc_r+0x418>
    921a:	2b14      	cmp	r3, #20
    921c:	f200 80ad 	bhi.w	937a <_malloc_r+0x4c6>
    9220:	f103 025b 	add.w	r2, r3, #91	; 0x5b
    9224:	0050      	lsls	r0, r2, #1
    9226:	eb07 0080 	add.w	r0, r7, r0, lsl #2
    922a:	6883      	ldr	r3, [r0, #8]
    922c:	f8df 81b8 	ldr.w	r8, [pc, #440]	; 93e8 <_malloc_r+0x534>
    9230:	4283      	cmp	r3, r0
    9232:	f000 808a 	beq.w	934a <_malloc_r+0x496>
    9236:	685a      	ldr	r2, [r3, #4]
    9238:	f022 0203 	bic.w	r2, r2, #3
    923c:	4291      	cmp	r1, r2
    923e:	d202      	bcs.n	9246 <_malloc_r+0x392>
    9240:	689b      	ldr	r3, [r3, #8]
    9242:	4298      	cmp	r0, r3
    9244:	d1f7      	bne.n	9236 <_malloc_r+0x382>
    9246:	68d9      	ldr	r1, [r3, #12]
    9248:	687a      	ldr	r2, [r7, #4]
    924a:	60e1      	str	r1, [r4, #12]
    924c:	60a3      	str	r3, [r4, #8]
    924e:	608c      	str	r4, [r1, #8]
    9250:	60dc      	str	r4, [r3, #12]
    9252:	e6b6      	b.n	8fc2 <_malloc_r+0x10e>
    9254:	f045 0701 	orr.w	r7, r5, #1
    9258:	f042 0101 	orr.w	r1, r2, #1
    925c:	4425      	add	r5, r4
    925e:	6067      	str	r7, [r4, #4]
    9260:	4630      	mov	r0, r6
    9262:	615d      	str	r5, [r3, #20]
    9264:	611d      	str	r5, [r3, #16]
    9266:	f8c5 e00c 	str.w	lr, [r5, #12]
    926a:	f8c5 e008 	str.w	lr, [r5, #8]
    926e:	6069      	str	r1, [r5, #4]
    9270:	50aa      	str	r2, [r5, r2]
    9272:	3408      	adds	r4, #8
    9274:	f000 f8bc 	bl	93f0 <__malloc_unlock>
    9278:	e648      	b.n	8f0c <_malloc_r+0x58>
    927a:	685a      	ldr	r2, [r3, #4]
    927c:	e6a1      	b.n	8fc2 <_malloc_r+0x10e>
    927e:	f109 0901 	add.w	r9, r9, #1
    9282:	f019 0f03 	tst.w	r9, #3
    9286:	f104 0408 	add.w	r4, r4, #8
    928a:	f47f aead 	bne.w	8fe8 <_malloc_r+0x134>
    928e:	e02d      	b.n	92ec <_malloc_r+0x438>
    9290:	f104 0308 	add.w	r3, r4, #8
    9294:	6964      	ldr	r4, [r4, #20]
    9296:	42a3      	cmp	r3, r4
    9298:	bf08      	it	eq
    929a:	f10c 0c02 	addeq.w	ip, ip, #2
    929e:	f43f ae67 	beq.w	8f70 <_malloc_r+0xbc>
    92a2:	e623      	b.n	8eec <_malloc_r+0x38>
    92a4:	4419      	add	r1, r3
    92a6:	6848      	ldr	r0, [r1, #4]
    92a8:	461c      	mov	r4, r3
    92aa:	f854 2f08 	ldr.w	r2, [r4, #8]!
    92ae:	68db      	ldr	r3, [r3, #12]
    92b0:	f040 0501 	orr.w	r5, r0, #1
    92b4:	604d      	str	r5, [r1, #4]
    92b6:	4630      	mov	r0, r6
    92b8:	60d3      	str	r3, [r2, #12]
    92ba:	609a      	str	r2, [r3, #8]
    92bc:	f000 f898 	bl	93f0 <__malloc_unlock>
    92c0:	e624      	b.n	8f0c <_malloc_r+0x58>
    92c2:	f10c 0c5b 	add.w	ip, ip, #91	; 0x5b
    92c6:	ea4f 014c 	mov.w	r1, ip, lsl #1
    92ca:	e63b      	b.n	8f44 <_malloc_r+0x90>
    92cc:	098a      	lsrs	r2, r1, #6
    92ce:	3238      	adds	r2, #56	; 0x38
    92d0:	0050      	lsls	r0, r2, #1
    92d2:	e7a8      	b.n	9226 <_malloc_r+0x372>
    92d4:	42bc      	cmp	r4, r7
    92d6:	f43f af02 	beq.w	90de <_malloc_r+0x22a>
    92da:	68bc      	ldr	r4, [r7, #8]
    92dc:	6862      	ldr	r2, [r4, #4]
    92de:	f022 0203 	bic.w	r2, r2, #3
    92e2:	e761      	b.n	91a8 <_malloc_r+0x2f4>
    92e4:	f8d8 8000 	ldr.w	r8, [r8]
    92e8:	4598      	cmp	r8, r3
    92ea:	d17a      	bne.n	93e2 <_malloc_r+0x52e>
    92ec:	f01c 0f03 	tst.w	ip, #3
    92f0:	f1a8 0308 	sub.w	r3, r8, #8
    92f4:	f10c 3cff 	add.w	ip, ip, #4294967295
    92f8:	d1f4      	bne.n	92e4 <_malloc_r+0x430>
    92fa:	687b      	ldr	r3, [r7, #4]
    92fc:	ea23 0300 	bic.w	r3, r3, r0
    9300:	607b      	str	r3, [r7, #4]
    9302:	0040      	lsls	r0, r0, #1
    9304:	4298      	cmp	r0, r3
    9306:	f63f aebe 	bhi.w	9086 <_malloc_r+0x1d2>
    930a:	2800      	cmp	r0, #0
    930c:	f43f aebb 	beq.w	9086 <_malloc_r+0x1d2>
    9310:	4203      	tst	r3, r0
    9312:	46cc      	mov	ip, r9
    9314:	f47f ae64 	bne.w	8fe0 <_malloc_r+0x12c>
    9318:	0040      	lsls	r0, r0, #1
    931a:	4203      	tst	r3, r0
    931c:	f10c 0c04 	add.w	ip, ip, #4
    9320:	d0fa      	beq.n	9318 <_malloc_r+0x464>
    9322:	e65d      	b.n	8fe0 <_malloc_r+0x12c>
    9324:	f5bc 7faa 	cmp.w	ip, #340	; 0x154
    9328:	d819      	bhi.n	935e <_malloc_r+0x4aa>
    932a:	ea4f 3cd5 	mov.w	ip, r5, lsr #15
    932e:	f10c 0c77 	add.w	ip, ip, #119	; 0x77
    9332:	ea4f 014c 	mov.w	r1, ip, lsl #1
    9336:	e605      	b.n	8f44 <_malloc_r+0x90>
    9338:	f44f 5380 	mov.w	r3, #4096	; 0x1000
    933c:	e6ee      	b.n	911c <_malloc_r+0x268>
    933e:	2301      	movs	r3, #1
    9340:	f8c8 3004 	str.w	r3, [r8, #4]
    9344:	4644      	mov	r4, r8
    9346:	2200      	movs	r2, #0
    9348:	e72e      	b.n	91a8 <_malloc_r+0x2f4>
    934a:	1092      	asrs	r2, r2, #2
    934c:	2001      	movs	r0, #1
    934e:	4090      	lsls	r0, r2
    9350:	f8d8 2004 	ldr.w	r2, [r8, #4]
    9354:	4619      	mov	r1, r3
    9356:	4302      	orrs	r2, r0
    9358:	f8c8 2004 	str.w	r2, [r8, #4]
    935c:	e775      	b.n	924a <_malloc_r+0x396>
    935e:	f240 5354 	movw	r3, #1364	; 0x554
    9362:	459c      	cmp	ip, r3
    9364:	d81b      	bhi.n	939e <_malloc_r+0x4ea>
    9366:	ea4f 4c95 	mov.w	ip, r5, lsr #18
    936a:	f10c 0c7c 	add.w	ip, ip, #124	; 0x7c
    936e:	ea4f 014c 	mov.w	r1, ip, lsl #1
    9372:	e5e7      	b.n	8f44 <_malloc_r+0x90>
    9374:	f10a 0a10 	add.w	sl, sl, #16
    9378:	e6a3      	b.n	90c2 <_malloc_r+0x20e>
    937a:	2b54      	cmp	r3, #84	; 0x54
    937c:	d81f      	bhi.n	93be <_malloc_r+0x50a>
    937e:	0b0a      	lsrs	r2, r1, #12
    9380:	326e      	adds	r2, #110	; 0x6e
    9382:	0050      	lsls	r0, r2, #1
    9384:	e74f      	b.n	9226 <_malloc_r+0x372>
    9386:	f3cb 010b 	ubfx	r1, fp, #0, #12
    938a:	2900      	cmp	r1, #0
    938c:	f47f aeb1 	bne.w	90f2 <_malloc_r+0x23e>
    9390:	eb0a 0109 	add.w	r1, sl, r9
    9394:	68ba      	ldr	r2, [r7, #8]
    9396:	f041 0101 	orr.w	r1, r1, #1
    939a:	6051      	str	r1, [r2, #4]
    939c:	e6f6      	b.n	918c <_malloc_r+0x2d8>
    939e:	21fc      	movs	r1, #252	; 0xfc
    93a0:	f04f 0c7e 	mov.w	ip, #126	; 0x7e
    93a4:	e5ce      	b.n	8f44 <_malloc_r+0x90>
    93a6:	2201      	movs	r2, #1
    93a8:	f04f 0a00 	mov.w	sl, #0
    93ac:	e6cb      	b.n	9146 <_malloc_r+0x292>
    93ae:	f104 0108 	add.w	r1, r4, #8
    93b2:	4630      	mov	r0, r6
    93b4:	f003 fdb8 	bl	cf28 <_free_r>
    93b8:	f8da 3000 	ldr.w	r3, [sl]
    93bc:	e6e6      	b.n	918c <_malloc_r+0x2d8>
    93be:	f5b3 7faa 	cmp.w	r3, #340	; 0x154
    93c2:	d803      	bhi.n	93cc <_malloc_r+0x518>
    93c4:	0bca      	lsrs	r2, r1, #15
    93c6:	3277      	adds	r2, #119	; 0x77
    93c8:	0050      	lsls	r0, r2, #1
    93ca:	e72c      	b.n	9226 <_malloc_r+0x372>
    93cc:	f240 5254 	movw	r2, #1364	; 0x554
    93d0:	4293      	cmp	r3, r2
    93d2:	d803      	bhi.n	93dc <_malloc_r+0x528>
    93d4:	0c8a      	lsrs	r2, r1, #18
    93d6:	327c      	adds	r2, #124	; 0x7c
    93d8:	0050      	lsls	r0, r2, #1
    93da:	e724      	b.n	9226 <_malloc_r+0x372>
    93dc:	20fc      	movs	r0, #252	; 0xfc
    93de:	227e      	movs	r2, #126	; 0x7e
    93e0:	e721      	b.n	9226 <_malloc_r+0x372>
    93e2:	687b      	ldr	r3, [r7, #4]
    93e4:	e78d      	b.n	9302 <_malloc_r+0x44e>
    93e6:	bf00      	nop
    93e8:	0001d5ec 	.word	0x0001d5ec

000093ec <__malloc_lock>:
    93ec:	4770      	bx	lr
    93ee:	bf00      	nop

000093f0 <__malloc_unlock>:
    93f0:	4770      	bx	lr
    93f2:	bf00      	nop

000093f4 <_printf_r>:
    93f4:	b40e      	push	{r1, r2, r3}
    93f6:	b510      	push	{r4, lr}
    93f8:	b083      	sub	sp, #12
    93fa:	ac05      	add	r4, sp, #20
    93fc:	f854 2b04 	ldr.w	r2, [r4], #4
    9400:	6881      	ldr	r1, [r0, #8]
    9402:	4623      	mov	r3, r4
    9404:	9401      	str	r4, [sp, #4]
    9406:	f000 f8c3 	bl	9590 <_vfprintf_r>
    940a:	b003      	add	sp, #12
    940c:	e8bd 4010 	ldmia.w	sp!, {r4, lr}
    9410:	b003      	add	sp, #12
    9412:	4770      	bx	lr

00009414 <printf>:
    9414:	b40f      	push	{r0, r1, r2, r3}
    9416:	b510      	push	{r4, lr}
    9418:	4b07      	ldr	r3, [pc, #28]	; (9438 <printf+0x24>)
    941a:	b082      	sub	sp, #8
    941c:	ac04      	add	r4, sp, #16
    941e:	f854 2b04 	ldr.w	r2, [r4], #4
    9422:	6818      	ldr	r0, [r3, #0]
    9424:	4623      	mov	r3, r4
    9426:	6881      	ldr	r1, [r0, #8]
    9428:	9401      	str	r4, [sp, #4]
    942a:	f000 f8b1 	bl	9590 <_vfprintf_r>
    942e:	b002      	add	sp, #8
    9430:	e8bd 4010 	ldmia.w	sp!, {r4, lr}
    9434:	b004      	add	sp, #16
    9436:	4770      	bx	lr
    9438:	0001d5e8 	.word	0x0001d5e8

0000943c <_sbrk_r>:
    943c:	b538      	push	{r3, r4, r5, lr}
    943e:	4c07      	ldr	r4, [pc, #28]	; (945c <_sbrk_r+0x20>)
    9440:	2300      	movs	r3, #0
    9442:	4605      	mov	r5, r0
    9444:	4608      	mov	r0, r1
    9446:	6023      	str	r3, [r4, #0]
    9448:	f7ff f972 	bl	8730 <_sbrk>
    944c:	1c43      	adds	r3, r0, #1
    944e:	d000      	beq.n	9452 <_sbrk_r+0x16>
    9450:	bd38      	pop	{r3, r4, r5, pc}
    9452:	6823      	ldr	r3, [r4, #0]
    9454:	2b00      	cmp	r3, #0
    9456:	d0fb      	beq.n	9450 <_sbrk_r+0x14>
    9458:	602b      	str	r3, [r5, #0]
    945a:	bd38      	pop	{r3, r4, r5, pc}
    945c:	0001db90 	.word	0x0001db90

00009460 <scanf>:
    9460:	b40f      	push	{r0, r1, r2, r3}
    9462:	b510      	push	{r4, lr}
    9464:	4b07      	ldr	r3, [pc, #28]	; (9484 <scanf+0x24>)
    9466:	b082      	sub	sp, #8
    9468:	ac04      	add	r4, sp, #16
    946a:	f854 2b04 	ldr.w	r2, [r4], #4
    946e:	6818      	ldr	r0, [r3, #0]
    9470:	4623      	mov	r3, r4
    9472:	6841      	ldr	r1, [r0, #4]
    9474:	9401      	str	r4, [sp, #4]
    9476:	f002 fac7 	bl	ba08 <_vfscanf_r>
    947a:	b002      	add	sp, #8
    947c:	e8bd 4010 	ldmia.w	sp!, {r4, lr}
    9480:	b004      	add	sp, #16
    9482:	4770      	bx	lr
    9484:	0001d5e8 	.word	0x0001d5e8

00009488 <_scanf_r>:
    9488:	b40e      	push	{r1, r2, r3}
    948a:	b510      	push	{r4, lr}
    948c:	b083      	sub	sp, #12
    948e:	ac05      	add	r4, sp, #20
    9490:	f854 2b04 	ldr.w	r2, [r4], #4
    9494:	6841      	ldr	r1, [r0, #4]
    9496:	4623      	mov	r3, r4
    9498:	9401      	str	r4, [sp, #4]
    949a:	f002 fab5 	bl	ba08 <_vfscanf_r>
    949e:	b003      	add	sp, #12
    94a0:	e8bd 4010 	ldmia.w	sp!, {r4, lr}
    94a4:	b003      	add	sp, #12
    94a6:	4770      	bx	lr

000094a8 <__sread>:
    94a8:	b510      	push	{r4, lr}
    94aa:	460c      	mov	r4, r1
    94ac:	f9b1 100e 	ldrsh.w	r1, [r1, #14]
    94b0:	f004 fc8c 	bl	ddcc <_read_r>
    94b4:	2800      	cmp	r0, #0
    94b6:	db03      	blt.n	94c0 <__sread+0x18>
    94b8:	6d23      	ldr	r3, [r4, #80]	; 0x50
    94ba:	4403      	add	r3, r0
    94bc:	6523      	str	r3, [r4, #80]	; 0x50
    94be:	bd10      	pop	{r4, pc}
    94c0:	89a3      	ldrh	r3, [r4, #12]
    94c2:	f423 5380 	bic.w	r3, r3, #4096	; 0x1000
    94c6:	81a3      	strh	r3, [r4, #12]
    94c8:	bd10      	pop	{r4, pc}
    94ca:	bf00      	nop

000094cc <__seofread>:
    94cc:	2000      	movs	r0, #0
    94ce:	4770      	bx	lr

000094d0 <__swrite>:
    94d0:	e92d 41f0 	stmdb	sp!, {r4, r5, r6, r7, r8, lr}
    94d4:	460c      	mov	r4, r1
    94d6:	8989      	ldrh	r1, [r1, #12]
    94d8:	461d      	mov	r5, r3
    94da:	05cb      	lsls	r3, r1, #23
    94dc:	4616      	mov	r6, r2
    94de:	4607      	mov	r7, r0
    94e0:	d506      	bpl.n	94f0 <__swrite+0x20>
    94e2:	f9b4 100e 	ldrsh.w	r1, [r4, #14]
    94e6:	2200      	movs	r2, #0
    94e8:	2302      	movs	r3, #2
    94ea:	f003 fe37 	bl	d15c <_lseek_r>
    94ee:	89a1      	ldrh	r1, [r4, #12]
    94f0:	f421 5180 	bic.w	r1, r1, #4096	; 0x1000
    94f4:	81a1      	strh	r1, [r4, #12]
    94f6:	4638      	mov	r0, r7
    94f8:	f9b4 100e 	ldrsh.w	r1, [r4, #14]
    94fc:	4632      	mov	r2, r6
    94fe:	462b      	mov	r3, r5
    9500:	e8bd 41f0 	ldmia.w	sp!, {r4, r5, r6, r7, r8, lr}
    9504:	f002 ba94 	b.w	ba30 <_write_r>

00009508 <__sseek>:
    9508:	b510      	push	{r4, lr}
    950a:	460c      	mov	r4, r1
    950c:	f9b1 100e 	ldrsh.w	r1, [r1, #14]
    9510:	f003 fe24 	bl	d15c <_lseek_r>
    9514:	89a3      	ldrh	r3, [r4, #12]
    9516:	1c42      	adds	r2, r0, #1
    9518:	bf0e      	itee	eq
    951a:	f423 5380 	biceq.w	r3, r3, #4096	; 0x1000
    951e:	f443 5380 	orrne.w	r3, r3, #4096	; 0x1000
    9522:	6520      	strne	r0, [r4, #80]	; 0x50
    9524:	81a3      	strh	r3, [r4, #12]
    9526:	bd10      	pop	{r4, pc}

00009528 <__sclose>:
    9528:	f9b1 100e 	ldrsh.w	r1, [r1, #14]
    952c:	f002 baf6 	b.w	bb1c <_close_r>

00009530 <strlen>:
    9530:	f020 0103 	bic.w	r1, r0, #3
    9534:	f010 0003 	ands.w	r0, r0, #3
    9538:	f1c0 0000 	rsb	r0, r0, #0
    953c:	f851 3b04 	ldr.w	r3, [r1], #4
    9540:	f100 0c04 	add.w	ip, r0, #4
    9544:	ea4f 0ccc 	mov.w	ip, ip, lsl #3
    9548:	f06f 0200 	mvn.w	r2, #0
    954c:	bf1c      	itt	ne
    954e:	fa22 f20c 	lsrne.w	r2, r2, ip
    9552:	4313      	orrne	r3, r2
    9554:	f04f 0c01 	mov.w	ip, #1
    9558:	ea4c 2c0c 	orr.w	ip, ip, ip, lsl #8
    955c:	ea4c 4c0c 	orr.w	ip, ip, ip, lsl #16
    9560:	eba3 020c 	sub.w	r2, r3, ip
    9564:	ea22 0203 	bic.w	r2, r2, r3
    9568:	ea12 12cc 	ands.w	r2, r2, ip, lsl #7
    956c:	bf04      	itt	eq
    956e:	f851 3b04 	ldreq.w	r3, [r1], #4
    9572:	3004      	addeq	r0, #4
    9574:	d0f4      	beq.n	9560 <strlen+0x30>
    9576:	f013 0fff 	tst.w	r3, #255	; 0xff
    957a:	bf1f      	itttt	ne
    957c:	3001      	addne	r0, #1
    957e:	f413 4f7f 	tstne.w	r3, #65280	; 0xff00
    9582:	3001      	addne	r0, #1
    9584:	f413 0f7f 	tstne.w	r3, #16711680	; 0xff0000
    9588:	bf18      	it	ne
    958a:	3001      	addne	r0, #1
    958c:	4770      	bx	lr
    958e:	bf00      	nop

00009590 <_vfprintf_r>:
    9590:	e92d 4ff0 	stmdb	sp!, {r4, r5, r6, r7, r8, r9, sl, fp, lr}
    9594:	b0c9      	sub	sp, #292	; 0x124
    9596:	461c      	mov	r4, r3
    9598:	4689      	mov	r9, r1
    959a:	920a      	str	r2, [sp, #40]	; 0x28
    959c:	900d      	str	r0, [sp, #52]	; 0x34
    959e:	f003 fdcd 	bl	d13c <_localeconv_r>
    95a2:	6800      	ldr	r0, [r0, #0]
    95a4:	940f      	str	r4, [sp, #60]	; 0x3c
    95a6:	9015      	str	r0, [sp, #84]	; 0x54
    95a8:	f7ff ffc2 	bl	9530 <strlen>
    95ac:	9d0d      	ldr	r5, [sp, #52]	; 0x34
    95ae:	9018      	str	r0, [sp, #96]	; 0x60
    95b0:	b11d      	cbz	r5, 95ba <_vfprintf_r+0x2a>
    95b2:	6bab      	ldr	r3, [r5, #56]	; 0x38
    95b4:	2b00      	cmp	r3, #0
    95b6:	f000 8109 	beq.w	97cc <_vfprintf_r+0x23c>
    95ba:	f8b9 200c 	ldrh.w	r2, [r9, #12]
    95be:	b293      	uxth	r3, r2
    95c0:	049f      	lsls	r7, r3, #18
    95c2:	d40a      	bmi.n	95da <_vfprintf_r+0x4a>
    95c4:	f8d9 1064 	ldr.w	r1, [r9, #100]	; 0x64
    95c8:	f442 5300 	orr.w	r3, r2, #8192	; 0x2000
    95cc:	f421 5100 	bic.w	r1, r1, #8192	; 0x2000
    95d0:	f8a9 300c 	strh.w	r3, [r9, #12]
    95d4:	f8c9 1064 	str.w	r1, [r9, #100]	; 0x64
    95d8:	b29b      	uxth	r3, r3
    95da:	071e      	lsls	r6, r3, #28
    95dc:	f140 80c0 	bpl.w	9760 <_vfprintf_r+0x1d0>
    95e0:	f8d9 2010 	ldr.w	r2, [r9, #16]
    95e4:	2a00      	cmp	r2, #0
    95e6:	f000 80bb 	beq.w	9760 <_vfprintf_r+0x1d0>
    95ea:	f003 031a 	and.w	r3, r3, #26
    95ee:	2b0a      	cmp	r3, #10
    95f0:	f000 80c2 	beq.w	9778 <_vfprintf_r+0x1e8>
    95f4:	ac38      	add	r4, sp, #224	; 0xe0
    95f6:	46a4      	mov	ip, r4
    95f8:	9408      	str	r4, [sp, #32]
    95fa:	942b      	str	r4, [sp, #172]	; 0xac
    95fc:	2500      	movs	r5, #0
    95fe:	2400      	movs	r4, #0
    9600:	e9cd 4516 	strd	r4, r5, [sp, #88]	; 0x58
    9604:	2300      	movs	r3, #0
    9606:	9311      	str	r3, [sp, #68]	; 0x44
    9608:	932d      	str	r3, [sp, #180]	; 0xb4
    960a:	932c      	str	r3, [sp, #176]	; 0xb0
    960c:	931a      	str	r3, [sp, #104]	; 0x68
    960e:	9319      	str	r3, [sp, #100]	; 0x64
    9610:	9310      	str	r3, [sp, #64]	; 0x40
    9612:	4666      	mov	r6, ip
    9614:	9d0a      	ldr	r5, [sp, #40]	; 0x28
    9616:	782b      	ldrb	r3, [r5, #0]
    9618:	2b00      	cmp	r3, #0
    961a:	f000 80db 	beq.w	97d4 <_vfprintf_r+0x244>
    961e:	2b25      	cmp	r3, #37	; 0x25
    9620:	f000 80d8 	beq.w	97d4 <_vfprintf_r+0x244>
    9624:	1c6a      	adds	r2, r5, #1
    9626:	e002      	b.n	962e <_vfprintf_r+0x9e>
    9628:	2b25      	cmp	r3, #37	; 0x25
    962a:	f000 808b 	beq.w	9744 <_vfprintf_r+0x1b4>
    962e:	7813      	ldrb	r3, [r2, #0]
    9630:	4614      	mov	r4, r2
    9632:	3201      	adds	r2, #1
    9634:	2b00      	cmp	r3, #0
    9636:	d1f7      	bne.n	9628 <_vfprintf_r+0x98>
    9638:	980a      	ldr	r0, [sp, #40]	; 0x28
    963a:	1a25      	subs	r5, r4, r0
    963c:	b17d      	cbz	r5, 965e <_vfprintf_r+0xce>
    963e:	9b2c      	ldr	r3, [sp, #176]	; 0xb0
    9640:	9a2d      	ldr	r2, [sp, #180]	; 0xb4
    9642:	3301      	adds	r3, #1
    9644:	980a      	ldr	r0, [sp, #40]	; 0x28
    9646:	442a      	add	r2, r5
    9648:	2b07      	cmp	r3, #7
    964a:	e886 0021 	stmia.w	r6, {r0, r5}
    964e:	922d      	str	r2, [sp, #180]	; 0xb4
    9650:	932c      	str	r3, [sp, #176]	; 0xb0
    9652:	f300 80a4 	bgt.w	979e <_vfprintf_r+0x20e>
    9656:	3608      	adds	r6, #8
    9658:	9910      	ldr	r1, [sp, #64]	; 0x40
    965a:	4429      	add	r1, r5
    965c:	9110      	str	r1, [sp, #64]	; 0x40
    965e:	7823      	ldrb	r3, [r4, #0]
    9660:	2b00      	cmp	r3, #0
    9662:	f000 80a4 	beq.w	97ae <_vfprintf_r+0x21e>
    9666:	2300      	movs	r3, #0
    9668:	1c65      	adds	r5, r4, #1
    966a:	f894 8001 	ldrb.w	r8, [r4, #1]
    966e:	f04f 34ff 	mov.w	r4, #4294967295
    9672:	461a      	mov	r2, r3
    9674:	f88d 308f 	strb.w	r3, [sp, #143]	; 0x8f
    9678:	930e      	str	r3, [sp, #56]	; 0x38
    967a:	9309      	str	r3, [sp, #36]	; 0x24
    967c:	950a      	str	r5, [sp, #40]	; 0x28
    967e:	940b      	str	r4, [sp, #44]	; 0x2c
    9680:	462b      	mov	r3, r5
    9682:	3301      	adds	r3, #1
    9684:	f1a8 0120 	sub.w	r1, r8, #32
    9688:	2958      	cmp	r1, #88	; 0x58
    968a:	f200 83f4 	bhi.w	9e76 <_vfprintf_r+0x8e6>
    968e:	e8df f011 	tbh	[pc, r1, lsl #1]
    9692:	0238      	.short	0x0238
    9694:	03f203f2 	.word	0x03f203f2
    9698:	03f20303 	.word	0x03f20303
    969c:	03f203f2 	.word	0x03f203f2
    96a0:	03f203f2 	.word	0x03f203f2
    96a4:	023f03f2 	.word	0x023f03f2
    96a8:	03f20234 	.word	0x03f20234
    96ac:	03350060 	.word	0x03350060
    96b0:	037603f2 	.word	0x037603f2
    96b4:	037d037d 	.word	0x037d037d
    96b8:	037d037d 	.word	0x037d037d
    96bc:	037d037d 	.word	0x037d037d
    96c0:	037d037d 	.word	0x037d037d
    96c4:	03f2037d 	.word	0x03f2037d
    96c8:	03f203f2 	.word	0x03f203f2
    96cc:	03f203f2 	.word	0x03f203f2
    96d0:	03f203f2 	.word	0x03f203f2
    96d4:	03f203f2 	.word	0x03f203f2
    96d8:	035203f2 	.word	0x035203f2
    96dc:	03f2039d 	.word	0x03f2039d
    96e0:	03f2039d 	.word	0x03f2039d
    96e4:	03f203f2 	.word	0x03f203f2
    96e8:	038e03f2 	.word	0x038e03f2
    96ec:	03f203f2 	.word	0x03f203f2
    96f0:	03f203d0 	.word	0x03f203d0
    96f4:	03f203f2 	.word	0x03f203f2
    96f8:	03f203f2 	.word	0x03f203f2
    96fc:	03f202a3 	.word	0x03f202a3
    9700:	02c303f2 	.word	0x02c303f2
    9704:	03f203f2 	.word	0x03f203f2
    9708:	03f203f2 	.word	0x03f203f2
    970c:	03f203f2 	.word	0x03f203f2
    9710:	03f203f2 	.word	0x03f203f2
    9714:	03f203f2 	.word	0x03f203f2
    9718:	031c030a 	.word	0x031c030a
    971c:	039d039d 	.word	0x039d039d
    9720:	02d9039d 	.word	0x02d9039d
    9724:	03f2031c 	.word	0x03f2031c
    9728:	02e203f2 	.word	0x02e203f2
    972c:	02ee03f2 	.word	0x02ee03f2
    9730:	021c020a 	.word	0x021c020a
    9734:	03f2024b 	.word	0x03f2024b
    9738:	03f20254 	.word	0x03f20254
    973c:	03f200a3 	.word	0x03f200a3
    9740:	027b03f2 	.word	0x027b03f2
    9744:	990a      	ldr	r1, [sp, #40]	; 0x28
    9746:	1a65      	subs	r5, r4, r1
    9748:	e778      	b.n	963c <_vfprintf_r+0xac>
    974a:	9c0e      	ldr	r4, [sp, #56]	; 0x38
    974c:	910f      	str	r1, [sp, #60]	; 0x3c
    974e:	4264      	negs	r4, r4
    9750:	940e      	str	r4, [sp, #56]	; 0x38
    9752:	9d09      	ldr	r5, [sp, #36]	; 0x24
    9754:	f045 0504 	orr.w	r5, r5, #4
    9758:	9509      	str	r5, [sp, #36]	; 0x24
    975a:	f893 8000 	ldrb.w	r8, [r3]
    975e:	e790      	b.n	9682 <_vfprintf_r+0xf2>
    9760:	980d      	ldr	r0, [sp, #52]	; 0x34
    9762:	4649      	mov	r1, r9
    9764:	f002 f978 	bl	ba58 <__swsetup_r>
    9768:	b9a0      	cbnz	r0, 9794 <_vfprintf_r+0x204>
    976a:	f8b9 300c 	ldrh.w	r3, [r9, #12]
    976e:	f003 031a 	and.w	r3, r3, #26
    9772:	2b0a      	cmp	r3, #10
    9774:	f47f af3e 	bne.w	95f4 <_vfprintf_r+0x64>
    9778:	f9b9 300e 	ldrsh.w	r3, [r9, #14]
    977c:	2b00      	cmp	r3, #0
    977e:	f6ff af39 	blt.w	95f4 <_vfprintf_r+0x64>
    9782:	980d      	ldr	r0, [sp, #52]	; 0x34
    9784:	4649      	mov	r1, r9
    9786:	9a0a      	ldr	r2, [sp, #40]	; 0x28
    9788:	4623      	mov	r3, r4
    978a:	f001 f99f 	bl	aacc <__sbprintf>
    978e:	b049      	add	sp, #292	; 0x124
    9790:	e8bd 8ff0 	ldmia.w	sp!, {r4, r5, r6, r7, r8, r9, sl, fp, pc}
    9794:	f04f 30ff 	mov.w	r0, #4294967295
    9798:	b049      	add	sp, #292	; 0x124
    979a:	e8bd 8ff0 	ldmia.w	sp!, {r4, r5, r6, r7, r8, r9, sl, fp, pc}
    979e:	980d      	ldr	r0, [sp, #52]	; 0x34
    97a0:	4649      	mov	r1, r9
    97a2:	aa2b      	add	r2, sp, #172	; 0xac
    97a4:	f007 fbe8 	bl	10f78 <__sprint_r>
    97a8:	b940      	cbnz	r0, 97bc <_vfprintf_r+0x22c>
    97aa:	ae38      	add	r6, sp, #224	; 0xe0
    97ac:	e754      	b.n	9658 <_vfprintf_r+0xc8>
    97ae:	9b2d      	ldr	r3, [sp, #180]	; 0xb4
    97b0:	b123      	cbz	r3, 97bc <_vfprintf_r+0x22c>
    97b2:	980d      	ldr	r0, [sp, #52]	; 0x34
    97b4:	4649      	mov	r1, r9
    97b6:	aa2b      	add	r2, sp, #172	; 0xac
    97b8:	f007 fbde 	bl	10f78 <__sprint_r>
    97bc:	f8b9 300c 	ldrh.w	r3, [r9, #12]
    97c0:	065b      	lsls	r3, r3, #25
    97c2:	d4e7      	bmi.n	9794 <_vfprintf_r+0x204>
    97c4:	9810      	ldr	r0, [sp, #64]	; 0x40
    97c6:	b049      	add	sp, #292	; 0x124
    97c8:	e8bd 8ff0 	ldmia.w	sp!, {r4, r5, r6, r7, r8, r9, sl, fp, pc}
    97cc:	4628      	mov	r0, r5
    97ce:	f7ff fa4b 	bl	8c68 <__sinit>
    97d2:	e6f2      	b.n	95ba <_vfprintf_r+0x2a>
    97d4:	9c0a      	ldr	r4, [sp, #40]	; 0x28
    97d6:	e742      	b.n	965e <_vfprintf_r+0xce>
    97d8:	9c09      	ldr	r4, [sp, #36]	; 0x24
    97da:	930a      	str	r3, [sp, #40]	; 0x28
    97dc:	06a2      	lsls	r2, r4, #26
    97de:	f140 8206 	bpl.w	9bee <_vfprintf_r+0x65e>
    97e2:	9d0f      	ldr	r5, [sp, #60]	; 0x3c
    97e4:	1deb      	adds	r3, r5, #7
    97e6:	f023 0307 	bic.w	r3, r3, #7
    97ea:	f103 0c08 	add.w	ip, r3, #8
    97ee:	e9d3 4500 	ldrd	r4, r5, [r3]
    97f2:	f8cd c03c 	str.w	ip, [sp, #60]	; 0x3c
    97f6:	2301      	movs	r3, #1
    97f8:	f04f 0a00 	mov.w	sl, #0
    97fc:	f88d a08f 	strb.w	sl, [sp, #143]	; 0x8f
    9800:	990b      	ldr	r1, [sp, #44]	; 0x2c
    9802:	2900      	cmp	r1, #0
    9804:	db05      	blt.n	9812 <_vfprintf_r+0x282>
    9806:	f8dd c024 	ldr.w	ip, [sp, #36]	; 0x24
    980a:	f02c 0c80 	bic.w	ip, ip, #128	; 0x80
    980e:	f8cd c024 	str.w	ip, [sp, #36]	; 0x24
    9812:	ea54 0005 	orrs.w	r0, r4, r5
    9816:	f040 8347 	bne.w	9ea8 <_vfprintf_r+0x918>
    981a:	990b      	ldr	r1, [sp, #44]	; 0x2c
    981c:	2900      	cmp	r1, #0
    981e:	f040 8343 	bne.w	9ea8 <_vfprintf_r+0x918>
    9822:	2b00      	cmp	r3, #0
    9824:	f040 84b9 	bne.w	a19a <_vfprintf_r+0xc0a>
    9828:	f8dd c024 	ldr.w	ip, [sp, #36]	; 0x24
    982c:	f01c 0f01 	tst.w	ip, #1
    9830:	f000 84b3 	beq.w	a19a <_vfprintf_r+0xc0a>
    9834:	af48      	add	r7, sp, #288	; 0x120
    9836:	2330      	movs	r3, #48	; 0x30
    9838:	9d08      	ldr	r5, [sp, #32]
    983a:	f807 3d41 	strb.w	r3, [r7, #-65]!
    983e:	1bec      	subs	r4, r5, r7
    9840:	f8dd c02c 	ldr.w	ip, [sp, #44]	; 0x2c
    9844:	2500      	movs	r5, #0
    9846:	4564      	cmp	r4, ip
    9848:	bfa8      	it	ge
    984a:	46a4      	movge	ip, r4
    984c:	f8cd c030 	str.w	ip, [sp, #48]	; 0x30
    9850:	9514      	str	r5, [sp, #80]	; 0x50
    9852:	f1ba 0f00 	cmp.w	sl, #0
    9856:	d002      	beq.n	985e <_vfprintf_r+0x2ce>
    9858:	9d0c      	ldr	r5, [sp, #48]	; 0x30
    985a:	3501      	adds	r5, #1
    985c:	950c      	str	r5, [sp, #48]	; 0x30
    985e:	9b09      	ldr	r3, [sp, #36]	; 0x24
    9860:	f013 0302 	ands.w	r3, r3, #2
    9864:	9312      	str	r3, [sp, #72]	; 0x48
    9866:	d002      	beq.n	986e <_vfprintf_r+0x2de>
    9868:	9d0c      	ldr	r5, [sp, #48]	; 0x30
    986a:	3502      	adds	r5, #2
    986c:	950c      	str	r5, [sp, #48]	; 0x30
    986e:	f8dd c024 	ldr.w	ip, [sp, #36]	; 0x24
    9872:	f01c 0c84 	ands.w	ip, ip, #132	; 0x84
    9876:	f8cd c04c 	str.w	ip, [sp, #76]	; 0x4c
    987a:	f040 8312 	bne.w	9ea2 <_vfprintf_r+0x912>
    987e:	9d0e      	ldr	r5, [sp, #56]	; 0x38
    9880:	f8dd c030 	ldr.w	ip, [sp, #48]	; 0x30
    9884:	ebcc 0b05 	rsb	fp, ip, r5
    9888:	f1bb 0f00 	cmp.w	fp, #0
    988c:	f340 8309 	ble.w	9ea2 <_vfprintf_r+0x912>
    9890:	f1bb 0f10 	cmp.w	fp, #16
    9894:	992d      	ldr	r1, [sp, #180]	; 0xb4
    9896:	9a2c      	ldr	r2, [sp, #176]	; 0xb0
    9898:	f8df a528 	ldr.w	sl, [pc, #1320]	; 9dc4 <_vfprintf_r+0x834>
    989c:	dd27      	ble.n	98ee <_vfprintf_r+0x35e>
    989e:	971b      	str	r7, [sp, #108]	; 0x6c
    98a0:	2510      	movs	r5, #16
    98a2:	4657      	mov	r7, sl
    98a4:	46a2      	mov	sl, r4
    98a6:	9c0d      	ldr	r4, [sp, #52]	; 0x34
    98a8:	e006      	b.n	98b8 <_vfprintf_r+0x328>
    98aa:	f1ab 0b10 	sub.w	fp, fp, #16
    98ae:	f1bb 0f10 	cmp.w	fp, #16
    98b2:	f106 0608 	add.w	r6, r6, #8
    98b6:	dd17      	ble.n	98e8 <_vfprintf_r+0x358>
    98b8:	3201      	adds	r2, #1
    98ba:	3110      	adds	r1, #16
    98bc:	2a07      	cmp	r2, #7
    98be:	912d      	str	r1, [sp, #180]	; 0xb4
    98c0:	922c      	str	r2, [sp, #176]	; 0xb0
    98c2:	6037      	str	r7, [r6, #0]
    98c4:	6075      	str	r5, [r6, #4]
    98c6:	ddf0      	ble.n	98aa <_vfprintf_r+0x31a>
    98c8:	4620      	mov	r0, r4
    98ca:	4649      	mov	r1, r9
    98cc:	aa2b      	add	r2, sp, #172	; 0xac
    98ce:	f007 fb53 	bl	10f78 <__sprint_r>
    98d2:	2800      	cmp	r0, #0
    98d4:	f47f af72 	bne.w	97bc <_vfprintf_r+0x22c>
    98d8:	f1ab 0b10 	sub.w	fp, fp, #16
    98dc:	f1bb 0f10 	cmp.w	fp, #16
    98e0:	992d      	ldr	r1, [sp, #180]	; 0xb4
    98e2:	9a2c      	ldr	r2, [sp, #176]	; 0xb0
    98e4:	ae38      	add	r6, sp, #224	; 0xe0
    98e6:	dce7      	bgt.n	98b8 <_vfprintf_r+0x328>
    98e8:	4654      	mov	r4, sl
    98ea:	46ba      	mov	sl, r7
    98ec:	9f1b      	ldr	r7, [sp, #108]	; 0x6c
    98ee:	3201      	adds	r2, #1
    98f0:	eb0b 0c01 	add.w	ip, fp, r1
    98f4:	2a07      	cmp	r2, #7
    98f6:	f8cd c0b4 	str.w	ip, [sp, #180]	; 0xb4
    98fa:	922c      	str	r2, [sp, #176]	; 0xb0
    98fc:	e886 0c00 	stmia.w	r6, {sl, fp}
    9900:	f300 849a 	bgt.w	a238 <_vfprintf_r+0xca8>
    9904:	f89d a08f 	ldrb.w	sl, [sp, #143]	; 0x8f
    9908:	3608      	adds	r6, #8
    990a:	f1ba 0f00 	cmp.w	sl, #0
    990e:	d00f      	beq.n	9930 <_vfprintf_r+0x3a0>
    9910:	9b2c      	ldr	r3, [sp, #176]	; 0xb0
    9912:	f10c 0c01 	add.w	ip, ip, #1
    9916:	3301      	adds	r3, #1
    9918:	f10d 018f 	add.w	r1, sp, #143	; 0x8f
    991c:	2201      	movs	r2, #1
    991e:	2b07      	cmp	r3, #7
    9920:	f8cd c0b4 	str.w	ip, [sp, #180]	; 0xb4
    9924:	932c      	str	r3, [sp, #176]	; 0xb0
    9926:	e886 0006 	stmia.w	r6, {r1, r2}
    992a:	f300 841c 	bgt.w	a166 <_vfprintf_r+0xbd6>
    992e:	3608      	adds	r6, #8
    9930:	9b12      	ldr	r3, [sp, #72]	; 0x48
    9932:	b173      	cbz	r3, 9952 <_vfprintf_r+0x3c2>
    9934:	9b2c      	ldr	r3, [sp, #176]	; 0xb0
    9936:	f10c 0c02 	add.w	ip, ip, #2
    993a:	3301      	adds	r3, #1
    993c:	a924      	add	r1, sp, #144	; 0x90
    993e:	2202      	movs	r2, #2
    9940:	2b07      	cmp	r3, #7
    9942:	f8cd c0b4 	str.w	ip, [sp, #180]	; 0xb4
    9946:	932c      	str	r3, [sp, #176]	; 0xb0
    9948:	e886 0006 	stmia.w	r6, {r1, r2}
    994c:	f300 8418 	bgt.w	a180 <_vfprintf_r+0xbf0>
    9950:	3608      	adds	r6, #8
    9952:	9d13      	ldr	r5, [sp, #76]	; 0x4c
    9954:	2d80      	cmp	r5, #128	; 0x80
    9956:	f000 8348 	beq.w	9fea <_vfprintf_r+0xa5a>
    995a:	9a0b      	ldr	r2, [sp, #44]	; 0x2c
    995c:	1b15      	subs	r5, r2, r4
    995e:	2d00      	cmp	r5, #0
    9960:	dd3d      	ble.n	99de <_vfprintf_r+0x44e>
    9962:	2d10      	cmp	r5, #16
    9964:	9b2c      	ldr	r3, [sp, #176]	; 0xb0
    9966:	f8df a460 	ldr.w	sl, [pc, #1120]	; 9dc8 <_vfprintf_r+0x838>
    996a:	dd2c      	ble.n	99c6 <_vfprintf_r+0x436>
    996c:	4651      	mov	r1, sl
    996e:	940b      	str	r4, [sp, #44]	; 0x2c
    9970:	46aa      	mov	sl, r5
    9972:	f04f 0b10 	mov.w	fp, #16
    9976:	4662      	mov	r2, ip
    9978:	9c0d      	ldr	r4, [sp, #52]	; 0x34
    997a:	460d      	mov	r5, r1
    997c:	e006      	b.n	998c <_vfprintf_r+0x3fc>
    997e:	f1aa 0a10 	sub.w	sl, sl, #16
    9982:	f1ba 0f10 	cmp.w	sl, #16
    9986:	f106 0608 	add.w	r6, r6, #8
    998a:	dd17      	ble.n	99bc <_vfprintf_r+0x42c>
    998c:	3301      	adds	r3, #1
    998e:	3210      	adds	r2, #16
    9990:	2b07      	cmp	r3, #7
    9992:	922d      	str	r2, [sp, #180]	; 0xb4
    9994:	932c      	str	r3, [sp, #176]	; 0xb0
    9996:	e886 0820 	stmia.w	r6, {r5, fp}
    999a:	ddf0      	ble.n	997e <_vfprintf_r+0x3ee>
    999c:	4620      	mov	r0, r4
    999e:	4649      	mov	r1, r9
    99a0:	aa2b      	add	r2, sp, #172	; 0xac
    99a2:	f007 fae9 	bl	10f78 <__sprint_r>
    99a6:	2800      	cmp	r0, #0
    99a8:	f47f af08 	bne.w	97bc <_vfprintf_r+0x22c>
    99ac:	f1aa 0a10 	sub.w	sl, sl, #16
    99b0:	f1ba 0f10 	cmp.w	sl, #16
    99b4:	9a2d      	ldr	r2, [sp, #180]	; 0xb4
    99b6:	9b2c      	ldr	r3, [sp, #176]	; 0xb0
    99b8:	ae38      	add	r6, sp, #224	; 0xe0
    99ba:	dce7      	bgt.n	998c <_vfprintf_r+0x3fc>
    99bc:	4694      	mov	ip, r2
    99be:	9c0b      	ldr	r4, [sp, #44]	; 0x2c
    99c0:	462a      	mov	r2, r5
    99c2:	4655      	mov	r5, sl
    99c4:	4692      	mov	sl, r2
    99c6:	3301      	adds	r3, #1
    99c8:	44ac      	add	ip, r5
    99ca:	2b07      	cmp	r3, #7
    99cc:	f8cd c0b4 	str.w	ip, [sp, #180]	; 0xb4
    99d0:	932c      	str	r3, [sp, #176]	; 0xb0
    99d2:	f8c6 a000 	str.w	sl, [r6]
    99d6:	6075      	str	r5, [r6, #4]
    99d8:	f300 83b9 	bgt.w	a14e <_vfprintf_r+0xbbe>
    99dc:	3608      	adds	r6, #8
    99de:	9d09      	ldr	r5, [sp, #36]	; 0x24
    99e0:	05eb      	lsls	r3, r5, #23
    99e2:	f100 82a2 	bmi.w	9f2a <_vfprintf_r+0x99a>
    99e6:	9b2c      	ldr	r3, [sp, #176]	; 0xb0
    99e8:	44a4      	add	ip, r4
    99ea:	3301      	adds	r3, #1
    99ec:	2b07      	cmp	r3, #7
    99ee:	f8cd c0b4 	str.w	ip, [sp, #180]	; 0xb4
    99f2:	6037      	str	r7, [r6, #0]
    99f4:	6074      	str	r4, [r6, #4]
    99f6:	932c      	str	r3, [sp, #176]	; 0xb0
    99f8:	f300 8393 	bgt.w	a122 <_vfprintf_r+0xb92>
    99fc:	3608      	adds	r6, #8
    99fe:	9c09      	ldr	r4, [sp, #36]	; 0x24
    9a00:	0762      	lsls	r2, r4, #29
    9a02:	d540      	bpl.n	9a86 <_vfprintf_r+0x4f6>
    9a04:	9d0e      	ldr	r5, [sp, #56]	; 0x38
    9a06:	980c      	ldr	r0, [sp, #48]	; 0x30
    9a08:	1a2c      	subs	r4, r5, r0
    9a0a:	2c00      	cmp	r4, #0
    9a0c:	dd3b      	ble.n	9a86 <_vfprintf_r+0x4f6>
    9a0e:	2c10      	cmp	r4, #16
    9a10:	9b2c      	ldr	r3, [sp, #176]	; 0xb0
    9a12:	f8df a3b0 	ldr.w	sl, [pc, #944]	; 9dc4 <_vfprintf_r+0x834>
    9a16:	dd22      	ble.n	9a5e <_vfprintf_r+0x4ce>
    9a18:	2510      	movs	r5, #16
    9a1a:	4662      	mov	r2, ip
    9a1c:	f8dd 8034 	ldr.w	r8, [sp, #52]	; 0x34
    9a20:	4657      	mov	r7, sl
    9a22:	e004      	b.n	9a2e <_vfprintf_r+0x49e>
    9a24:	3c10      	subs	r4, #16
    9a26:	2c10      	cmp	r4, #16
    9a28:	f106 0608 	add.w	r6, r6, #8
    9a2c:	dd15      	ble.n	9a5a <_vfprintf_r+0x4ca>
    9a2e:	3301      	adds	r3, #1
    9a30:	3210      	adds	r2, #16
    9a32:	2b07      	cmp	r3, #7
    9a34:	922d      	str	r2, [sp, #180]	; 0xb4
    9a36:	932c      	str	r3, [sp, #176]	; 0xb0
    9a38:	6037      	str	r7, [r6, #0]
    9a3a:	6075      	str	r5, [r6, #4]
    9a3c:	ddf2      	ble.n	9a24 <_vfprintf_r+0x494>
    9a3e:	4640      	mov	r0, r8
    9a40:	4649      	mov	r1, r9
    9a42:	aa2b      	add	r2, sp, #172	; 0xac
    9a44:	f007 fa98 	bl	10f78 <__sprint_r>
    9a48:	2800      	cmp	r0, #0
    9a4a:	f47f aeb7 	bne.w	97bc <_vfprintf_r+0x22c>
    9a4e:	3c10      	subs	r4, #16
    9a50:	2c10      	cmp	r4, #16
    9a52:	9a2d      	ldr	r2, [sp, #180]	; 0xb4
    9a54:	9b2c      	ldr	r3, [sp, #176]	; 0xb0
    9a56:	ae38      	add	r6, sp, #224	; 0xe0
    9a58:	dce9      	bgt.n	9a2e <_vfprintf_r+0x49e>
    9a5a:	4694      	mov	ip, r2
    9a5c:	46ba      	mov	sl, r7
    9a5e:	3301      	adds	r3, #1
    9a60:	44a4      	add	ip, r4
    9a62:	2b07      	cmp	r3, #7
    9a64:	f8cd c0b4 	str.w	ip, [sp, #180]	; 0xb4
    9a68:	932c      	str	r3, [sp, #176]	; 0xb0
    9a6a:	f8c6 a000 	str.w	sl, [r6]
    9a6e:	6074      	str	r4, [r6, #4]
    9a70:	dd09      	ble.n	9a86 <_vfprintf_r+0x4f6>
    9a72:	980d      	ldr	r0, [sp, #52]	; 0x34
    9a74:	4649      	mov	r1, r9
    9a76:	aa2b      	add	r2, sp, #172	; 0xac
    9a78:	f007 fa7e 	bl	10f78 <__sprint_r>
    9a7c:	2800      	cmp	r0, #0
    9a7e:	f47f ae9d 	bne.w	97bc <_vfprintf_r+0x22c>
    9a82:	f8dd c0b4 	ldr.w	ip, [sp, #180]	; 0xb4
    9a86:	9c10      	ldr	r4, [sp, #64]	; 0x40
    9a88:	980c      	ldr	r0, [sp, #48]	; 0x30
    9a8a:	9d0e      	ldr	r5, [sp, #56]	; 0x38
    9a8c:	42a8      	cmp	r0, r5
    9a8e:	bfac      	ite	ge
    9a90:	1824      	addge	r4, r4, r0
    9a92:	1964      	addlt	r4, r4, r5
    9a94:	9410      	str	r4, [sp, #64]	; 0x40
    9a96:	f1bc 0f00 	cmp.w	ip, #0
    9a9a:	f040 834e 	bne.w	a13a <_vfprintf_r+0xbaa>
    9a9e:	2300      	movs	r3, #0
    9aa0:	932c      	str	r3, [sp, #176]	; 0xb0
    9aa2:	ae38      	add	r6, sp, #224	; 0xe0
    9aa4:	e5b6      	b.n	9614 <_vfprintf_r+0x84>
    9aa6:	f8dd c024 	ldr.w	ip, [sp, #36]	; 0x24
    9aaa:	930a      	str	r3, [sp, #40]	; 0x28
    9aac:	f01c 0320 	ands.w	r3, ip, #32
    9ab0:	f000 81ca 	beq.w	9e48 <_vfprintf_r+0x8b8>
    9ab4:	9c0f      	ldr	r4, [sp, #60]	; 0x3c
    9ab6:	1de3      	adds	r3, r4, #7
    9ab8:	f023 0307 	bic.w	r3, r3, #7
    9abc:	f103 0508 	add.w	r5, r3, #8
    9ac0:	950f      	str	r5, [sp, #60]	; 0x3c
    9ac2:	e9d3 4500 	ldrd	r4, r5, [r3]
    9ac6:	2300      	movs	r3, #0
    9ac8:	e696      	b.n	97f8 <_vfprintf_r+0x268>
    9aca:	f8dd c024 	ldr.w	ip, [sp, #36]	; 0x24
    9ace:	9d0f      	ldr	r5, [sp, #60]	; 0x3c
    9ad0:	930a      	str	r3, [sp, #40]	; 0x28
    9ad2:	9b0f      	ldr	r3, [sp, #60]	; 0x3c
    9ad4:	48b9      	ldr	r0, [pc, #740]	; (9dbc <_vfprintf_r+0x82c>)
    9ad6:	3504      	adds	r5, #4
    9ad8:	681c      	ldr	r4, [r3, #0]
    9ada:	f04f 0878 	mov.w	r8, #120	; 0x78
    9ade:	2330      	movs	r3, #48	; 0x30
    9ae0:	f04c 0c02 	orr.w	ip, ip, #2
    9ae4:	950f      	str	r5, [sp, #60]	; 0x3c
    9ae6:	f88d 3090 	strb.w	r3, [sp, #144]	; 0x90
    9aea:	f8cd c024 	str.w	ip, [sp, #36]	; 0x24
    9aee:	2500      	movs	r5, #0
    9af0:	f88d 8091 	strb.w	r8, [sp, #145]	; 0x91
    9af4:	901a      	str	r0, [sp, #104]	; 0x68
    9af6:	2302      	movs	r3, #2
    9af8:	e67e      	b.n	97f8 <_vfprintf_r+0x268>
    9afa:	f893 8000 	ldrb.w	r8, [r3]
    9afe:	222b      	movs	r2, #43	; 0x2b
    9b00:	e5bf      	b.n	9682 <_vfprintf_r+0xf2>
    9b02:	f893 8000 	ldrb.w	r8, [r3]
    9b06:	2a00      	cmp	r2, #0
    9b08:	f47f adbb 	bne.w	9682 <_vfprintf_r+0xf2>
    9b0c:	2220      	movs	r2, #32
    9b0e:	e5b8      	b.n	9682 <_vfprintf_r+0xf2>
    9b10:	9c0f      	ldr	r4, [sp, #60]	; 0x3c
    9b12:	9d0f      	ldr	r5, [sp, #60]	; 0x3c
    9b14:	6824      	ldr	r4, [r4, #0]
    9b16:	1d29      	adds	r1, r5, #4
    9b18:	2c00      	cmp	r4, #0
    9b1a:	940e      	str	r4, [sp, #56]	; 0x38
    9b1c:	f6ff ae15 	blt.w	974a <_vfprintf_r+0x1ba>
    9b20:	910f      	str	r1, [sp, #60]	; 0x3c
    9b22:	f893 8000 	ldrb.w	r8, [r3]
    9b26:	e5ac      	b.n	9682 <_vfprintf_r+0xf2>
    9b28:	f8dd c024 	ldr.w	ip, [sp, #36]	; 0x24
    9b2c:	f04c 0c20 	orr.w	ip, ip, #32
    9b30:	f8cd c024 	str.w	ip, [sp, #36]	; 0x24
    9b34:	f893 8000 	ldrb.w	r8, [r3]
    9b38:	e5a3      	b.n	9682 <_vfprintf_r+0xf2>
    9b3a:	9c0f      	ldr	r4, [sp, #60]	; 0x3c
    9b3c:	f04f 0a00 	mov.w	sl, #0
    9b40:	6827      	ldr	r7, [r4, #0]
    9b42:	930a      	str	r3, [sp, #40]	; 0x28
    9b44:	f88d a08f 	strb.w	sl, [sp, #143]	; 0x8f
    9b48:	1d25      	adds	r5, r4, #4
    9b4a:	2f00      	cmp	r7, #0
    9b4c:	f000 865c 	beq.w	a808 <_vfprintf_r+0x1278>
    9b50:	9c0b      	ldr	r4, [sp, #44]	; 0x2c
    9b52:	4638      	mov	r0, r7
    9b54:	2c00      	cmp	r4, #0
    9b56:	f2c0 8607 	blt.w	a768 <_vfprintf_r+0x11d8>
    9b5a:	4651      	mov	r1, sl
    9b5c:	4622      	mov	r2, r4
    9b5e:	f003 fc0d 	bl	d37c <memchr>
    9b62:	2800      	cmp	r0, #0
    9b64:	f000 869c 	beq.w	a8a0 <_vfprintf_r+0x1310>
    9b68:	9c0b      	ldr	r4, [sp, #44]	; 0x2c
    9b6a:	1bc0      	subs	r0, r0, r7
    9b6c:	42a0      	cmp	r0, r4
    9b6e:	bfb8      	it	lt
    9b70:	4604      	movlt	r4, r0
    9b72:	950f      	str	r5, [sp, #60]	; 0x3c
    9b74:	ea24 75e4 	bic.w	r5, r4, r4, asr #31
    9b78:	f8cd a02c 	str.w	sl, [sp, #44]	; 0x2c
    9b7c:	f8cd a050 	str.w	sl, [sp, #80]	; 0x50
    9b80:	950c      	str	r5, [sp, #48]	; 0x30
    9b82:	f89d a08f 	ldrb.w	sl, [sp, #143]	; 0x8f
    9b86:	e664      	b.n	9852 <_vfprintf_r+0x2c2>
    9b88:	9d09      	ldr	r5, [sp, #36]	; 0x24
    9b8a:	4c8c      	ldr	r4, [pc, #560]	; (9dbc <_vfprintf_r+0x82c>)
    9b8c:	06af      	lsls	r7, r5, #26
    9b8e:	930a      	str	r3, [sp, #40]	; 0x28
    9b90:	941a      	str	r4, [sp, #104]	; 0x68
    9b92:	f88d 208f 	strb.w	r2, [sp, #143]	; 0x8f
    9b96:	d547      	bpl.n	9c28 <_vfprintf_r+0x698>
    9b98:	f8dd c03c 	ldr.w	ip, [sp, #60]	; 0x3c
    9b9c:	f10c 0307 	add.w	r3, ip, #7
    9ba0:	f023 0307 	bic.w	r3, r3, #7
    9ba4:	f103 0408 	add.w	r4, r3, #8
    9ba8:	940f      	str	r4, [sp, #60]	; 0x3c
    9baa:	e9d3 4500 	ldrd	r4, r5, [r3]
    9bae:	f8dd c024 	ldr.w	ip, [sp, #36]	; 0x24
    9bb2:	f01c 0f01 	tst.w	ip, #1
    9bb6:	f000 82f4 	beq.w	a1a2 <_vfprintf_r+0xc12>
    9bba:	ea54 0005 	orrs.w	r0, r4, r5
    9bbe:	f000 82f0 	beq.w	a1a2 <_vfprintf_r+0xc12>
    9bc2:	2330      	movs	r3, #48	; 0x30
    9bc4:	f04c 0c02 	orr.w	ip, ip, #2
    9bc8:	f88d 3090 	strb.w	r3, [sp, #144]	; 0x90
    9bcc:	f88d 8091 	strb.w	r8, [sp, #145]	; 0x91
    9bd0:	f8cd c024 	str.w	ip, [sp, #36]	; 0x24
    9bd4:	2302      	movs	r3, #2
    9bd6:	e60f      	b.n	97f8 <_vfprintf_r+0x268>
    9bd8:	f8dd c024 	ldr.w	ip, [sp, #36]	; 0x24
    9bdc:	930a      	str	r3, [sp, #40]	; 0x28
    9bde:	f04c 0c10 	orr.w	ip, ip, #16
    9be2:	f8cd c024 	str.w	ip, [sp, #36]	; 0x24
    9be6:	9c09      	ldr	r4, [sp, #36]	; 0x24
    9be8:	06a2      	lsls	r2, r4, #26
    9bea:	f53f adfa 	bmi.w	97e2 <_vfprintf_r+0x252>
    9bee:	9c09      	ldr	r4, [sp, #36]	; 0x24
    9bf0:	06e3      	lsls	r3, r4, #27
    9bf2:	f100 8330 	bmi.w	a256 <_vfprintf_r+0xcc6>
    9bf6:	f8dd c024 	ldr.w	ip, [sp, #36]	; 0x24
    9bfa:	f01c 0f40 	tst.w	ip, #64	; 0x40
    9bfe:	f000 832a 	beq.w	a256 <_vfprintf_r+0xcc6>
    9c02:	f8dd c03c 	ldr.w	ip, [sp, #60]	; 0x3c
    9c06:	2500      	movs	r5, #0
    9c08:	f8bc 4000 	ldrh.w	r4, [ip]
    9c0c:	f10c 0c04 	add.w	ip, ip, #4
    9c10:	2301      	movs	r3, #1
    9c12:	f8cd c03c 	str.w	ip, [sp, #60]	; 0x3c
    9c16:	e5ef      	b.n	97f8 <_vfprintf_r+0x268>
    9c18:	9d09      	ldr	r5, [sp, #36]	; 0x24
    9c1a:	4c69      	ldr	r4, [pc, #420]	; (9dc0 <_vfprintf_r+0x830>)
    9c1c:	06af      	lsls	r7, r5, #26
    9c1e:	930a      	str	r3, [sp, #40]	; 0x28
    9c20:	f88d 208f 	strb.w	r2, [sp, #143]	; 0x8f
    9c24:	941a      	str	r4, [sp, #104]	; 0x68
    9c26:	d4b7      	bmi.n	9b98 <_vfprintf_r+0x608>
    9c28:	9d09      	ldr	r5, [sp, #36]	; 0x24
    9c2a:	06ed      	lsls	r5, r5, #27
    9c2c:	f140 84c9 	bpl.w	a5c2 <_vfprintf_r+0x1032>
    9c30:	f8dd c03c 	ldr.w	ip, [sp, #60]	; 0x3c
    9c34:	2500      	movs	r5, #0
    9c36:	f8dc 4000 	ldr.w	r4, [ip]
    9c3a:	f10c 0c04 	add.w	ip, ip, #4
    9c3e:	f8cd c03c 	str.w	ip, [sp, #60]	; 0x3c
    9c42:	e7b4      	b.n	9bae <_vfprintf_r+0x61e>
    9c44:	f8dd c024 	ldr.w	ip, [sp, #36]	; 0x24
    9c48:	f04c 0c40 	orr.w	ip, ip, #64	; 0x40
    9c4c:	f8cd c024 	str.w	ip, [sp, #36]	; 0x24
    9c50:	f893 8000 	ldrb.w	r8, [r3]
    9c54:	e515      	b.n	9682 <_vfprintf_r+0xf2>
    9c56:	f893 8000 	ldrb.w	r8, [r3]
    9c5a:	4619      	mov	r1, r3
    9c5c:	f1b8 0f6c 	cmp.w	r8, #108	; 0x6c
    9c60:	f000 856d 	beq.w	a73e <_vfprintf_r+0x11ae>
    9c64:	9d09      	ldr	r5, [sp, #36]	; 0x24
    9c66:	f045 0510 	orr.w	r5, r5, #16
    9c6a:	9509      	str	r5, [sp, #36]	; 0x24
    9c6c:	e509      	b.n	9682 <_vfprintf_r+0xf2>
    9c6e:	f8dd c024 	ldr.w	ip, [sp, #36]	; 0x24
    9c72:	930a      	str	r3, [sp, #40]	; 0x28
    9c74:	f01c 0f20 	tst.w	ip, #32
    9c78:	f88d 208f 	strb.w	r2, [sp, #143]	; 0x8f
    9c7c:	f000 84b0 	beq.w	a5e0 <_vfprintf_r+0x1050>
    9c80:	9c0f      	ldr	r4, [sp, #60]	; 0x3c
    9c82:	6821      	ldr	r1, [r4, #0]
    9c84:	9c10      	ldr	r4, [sp, #64]	; 0x40
    9c86:	17e5      	asrs	r5, r4, #31
    9c88:	462b      	mov	r3, r5
    9c8a:	9d0f      	ldr	r5, [sp, #60]	; 0x3c
    9c8c:	4622      	mov	r2, r4
    9c8e:	3504      	adds	r5, #4
    9c90:	950f      	str	r5, [sp, #60]	; 0x3c
    9c92:	e9c1 2300 	strd	r2, r3, [r1]
    9c96:	e4bd      	b.n	9614 <_vfprintf_r+0x84>
    9c98:	9d09      	ldr	r5, [sp, #36]	; 0x24
    9c9a:	f045 0501 	orr.w	r5, r5, #1
    9c9e:	9509      	str	r5, [sp, #36]	; 0x24
    9ca0:	f893 8000 	ldrb.w	r8, [r3]
    9ca4:	e4ed      	b.n	9682 <_vfprintf_r+0xf2>
    9ca6:	930a      	str	r3, [sp, #40]	; 0x28
    9ca8:	9b0f      	ldr	r3, [sp, #60]	; 0x3c
    9caa:	9d0f      	ldr	r5, [sp, #60]	; 0x3c
    9cac:	681a      	ldr	r2, [r3, #0]
    9cae:	2401      	movs	r4, #1
    9cb0:	2300      	movs	r3, #0
    9cb2:	3504      	adds	r5, #4
    9cb4:	469a      	mov	sl, r3
    9cb6:	940c      	str	r4, [sp, #48]	; 0x30
    9cb8:	f88d 20b8 	strb.w	r2, [sp, #184]	; 0xb8
    9cbc:	950f      	str	r5, [sp, #60]	; 0x3c
    9cbe:	f88d 308f 	strb.w	r3, [sp, #143]	; 0x8f
    9cc2:	930b      	str	r3, [sp, #44]	; 0x2c
    9cc4:	9314      	str	r3, [sp, #80]	; 0x50
    9cc6:	af2e      	add	r7, sp, #184	; 0xb8
    9cc8:	e5c9      	b.n	985e <_vfprintf_r+0x2ce>
    9cca:	9c09      	ldr	r4, [sp, #36]	; 0x24
    9ccc:	930a      	str	r3, [sp, #40]	; 0x28
    9cce:	06a5      	lsls	r5, r4, #26
    9cd0:	f88d 208f 	strb.w	r2, [sp, #143]	; 0x8f
    9cd4:	d53b      	bpl.n	9d4e <_vfprintf_r+0x7be>
    9cd6:	9d0f      	ldr	r5, [sp, #60]	; 0x3c
    9cd8:	1de9      	adds	r1, r5, #7
    9cda:	f021 0107 	bic.w	r1, r1, #7
    9cde:	e9d1 2300 	ldrd	r2, r3, [r1]
    9ce2:	3108      	adds	r1, #8
    9ce4:	910f      	str	r1, [sp, #60]	; 0x3c
    9ce6:	4614      	mov	r4, r2
    9ce8:	461d      	mov	r5, r3
    9cea:	2a00      	cmp	r2, #0
    9cec:	f173 0c00 	sbcs.w	ip, r3, #0
    9cf0:	f2c0 83ca 	blt.w	a488 <_vfprintf_r+0xef8>
    9cf4:	f89d a08f 	ldrb.w	sl, [sp, #143]	; 0x8f
    9cf8:	2301      	movs	r3, #1
    9cfa:	e581      	b.n	9800 <_vfprintf_r+0x270>
    9cfc:	f893 8000 	ldrb.w	r8, [r3]
    9d00:	1c58      	adds	r0, r3, #1
    9d02:	f1b8 0f2a 	cmp.w	r8, #42	; 0x2a
    9d06:	f000 86ae 	beq.w	aa66 <_vfprintf_r+0x14d6>
    9d0a:	f1a8 0130 	sub.w	r1, r8, #48	; 0x30
    9d0e:	2909      	cmp	r1, #9
    9d10:	bf98      	it	ls
    9d12:	2300      	movls	r3, #0
    9d14:	f200 860c 	bhi.w	a930 <_vfprintf_r+0x13a0>
    9d18:	f810 8b01 	ldrb.w	r8, [r0], #1
    9d1c:	eb03 0383 	add.w	r3, r3, r3, lsl #2
    9d20:	eb01 0343 	add.w	r3, r1, r3, lsl #1
    9d24:	f1a8 0130 	sub.w	r1, r8, #48	; 0x30
    9d28:	2909      	cmp	r1, #9
    9d2a:	d9f5      	bls.n	9d18 <_vfprintf_r+0x788>
    9d2c:	ea43 73e3 	orr.w	r3, r3, r3, asr #31
    9d30:	930b      	str	r3, [sp, #44]	; 0x2c
    9d32:	4603      	mov	r3, r0
    9d34:	e4a6      	b.n	9684 <_vfprintf_r+0xf4>
    9d36:	f8dd c024 	ldr.w	ip, [sp, #36]	; 0x24
    9d3a:	930a      	str	r3, [sp, #40]	; 0x28
    9d3c:	f04c 0c10 	orr.w	ip, ip, #16
    9d40:	f8cd c024 	str.w	ip, [sp, #36]	; 0x24
    9d44:	9c09      	ldr	r4, [sp, #36]	; 0x24
    9d46:	f88d 208f 	strb.w	r2, [sp, #143]	; 0x8f
    9d4a:	06a5      	lsls	r5, r4, #26
    9d4c:	d4c3      	bmi.n	9cd6 <_vfprintf_r+0x746>
    9d4e:	f8dd c024 	ldr.w	ip, [sp, #36]	; 0x24
    9d52:	f01c 0f10 	tst.w	ip, #16
    9d56:	f040 82b0 	bne.w	a2ba <_vfprintf_r+0xd2a>
    9d5a:	f8dd c024 	ldr.w	ip, [sp, #36]	; 0x24
    9d5e:	f01c 0f40 	tst.w	ip, #64	; 0x40
    9d62:	f000 82aa 	beq.w	a2ba <_vfprintf_r+0xd2a>
    9d66:	f8dd c03c 	ldr.w	ip, [sp, #60]	; 0x3c
    9d6a:	f9bc 4000 	ldrsh.w	r4, [ip]
    9d6e:	f10c 0c04 	add.w	ip, ip, #4
    9d72:	17e5      	asrs	r5, r4, #31
    9d74:	4622      	mov	r2, r4
    9d76:	462b      	mov	r3, r5
    9d78:	f8cd c03c 	str.w	ip, [sp, #60]	; 0x3c
    9d7c:	e7b5      	b.n	9cea <_vfprintf_r+0x75a>
    9d7e:	9d09      	ldr	r5, [sp, #36]	; 0x24
    9d80:	f045 0580 	orr.w	r5, r5, #128	; 0x80
    9d84:	9509      	str	r5, [sp, #36]	; 0x24
    9d86:	f893 8000 	ldrb.w	r8, [r3]
    9d8a:	e47a      	b.n	9682 <_vfprintf_r+0xf2>
    9d8c:	2400      	movs	r4, #0
    9d8e:	f1a8 0130 	sub.w	r1, r8, #48	; 0x30
    9d92:	940e      	str	r4, [sp, #56]	; 0x38
    9d94:	4620      	mov	r0, r4
    9d96:	f813 8b01 	ldrb.w	r8, [r3], #1
    9d9a:	eb00 0080 	add.w	r0, r0, r0, lsl #2
    9d9e:	eb01 0040 	add.w	r0, r1, r0, lsl #1
    9da2:	f1a8 0130 	sub.w	r1, r8, #48	; 0x30
    9da6:	2909      	cmp	r1, #9
    9da8:	d9f5      	bls.n	9d96 <_vfprintf_r+0x806>
    9daa:	900e      	str	r0, [sp, #56]	; 0x38
    9dac:	e46a      	b.n	9684 <_vfprintf_r+0xf4>
    9dae:	9d09      	ldr	r5, [sp, #36]	; 0x24
    9db0:	f045 0508 	orr.w	r5, r5, #8
    9db4:	9509      	str	r5, [sp, #36]	; 0x24
    9db6:	f893 8000 	ldrb.w	r8, [r3]
    9dba:	e462      	b.n	9682 <_vfprintf_r+0xf2>
    9dbc:	00014c24 	.word	0x00014c24
    9dc0:	00014c10 	.word	0x00014c10
    9dc4:	00014bf0 	.word	0x00014bf0
    9dc8:	00014c44 	.word	0x00014c44
    9dcc:	9d0f      	ldr	r5, [sp, #60]	; 0x3c
    9dce:	930a      	str	r3, [sp, #40]	; 0x28
    9dd0:	1deb      	adds	r3, r5, #7
    9dd2:	f023 0307 	bic.w	r3, r3, #7
    9dd6:	f103 0c08 	add.w	ip, r3, #8
    9dda:	f88d 208f 	strb.w	r2, [sp, #143]	; 0x8f
    9dde:	f8cd c03c 	str.w	ip, [sp, #60]	; 0x3c
    9de2:	e9d3 4500 	ldrd	r4, r5, [r3]
    9de6:	e9cd 4516 	strd	r4, r5, [sp, #88]	; 0x58
    9dea:	e9dd 0116 	ldrd	r0, r1, [sp, #88]	; 0x58
    9dee:	f004 f8eb 	bl	dfc8 <__fpclassifyd>
    9df2:	2801      	cmp	r0, #1
    9df4:	e9dd 0116 	ldrd	r0, r1, [sp, #88]	; 0x58
    9df8:	f040 8350 	bne.w	a49c <_vfprintf_r+0xf0c>
    9dfc:	2200      	movs	r2, #0
    9dfe:	2300      	movs	r3, #0
    9e00:	f00a fafe 	bl	14400 <__aeabi_dcmplt>
    9e04:	2800      	cmp	r0, #0
    9e06:	f040 8531 	bne.w	a86c <_vfprintf_r+0x12dc>
    9e0a:	f89d a08f 	ldrb.w	sl, [sp, #143]	; 0x8f
    9e0e:	2503      	movs	r5, #3
    9e10:	950c      	str	r5, [sp, #48]	; 0x30
    9e12:	9d09      	ldr	r5, [sp, #36]	; 0x24
    9e14:	4f9e      	ldr	r7, [pc, #632]	; (a090 <_vfprintf_r+0xb00>)
    9e16:	f025 0580 	bic.w	r5, r5, #128	; 0x80
    9e1a:	4b9e      	ldr	r3, [pc, #632]	; (a094 <_vfprintf_r+0xb04>)
    9e1c:	2400      	movs	r4, #0
    9e1e:	9509      	str	r5, [sp, #36]	; 0x24
    9e20:	2500      	movs	r5, #0
    9e22:	940b      	str	r4, [sp, #44]	; 0x2c
    9e24:	f1b8 0f47 	cmp.w	r8, #71	; 0x47
    9e28:	bfd8      	it	le
    9e2a:	461f      	movle	r7, r3
    9e2c:	2403      	movs	r4, #3
    9e2e:	9514      	str	r5, [sp, #80]	; 0x50
    9e30:	e50f      	b.n	9852 <_vfprintf_r+0x2c2>
    9e32:	9d09      	ldr	r5, [sp, #36]	; 0x24
    9e34:	930a      	str	r3, [sp, #40]	; 0x28
    9e36:	f045 0510 	orr.w	r5, r5, #16
    9e3a:	9509      	str	r5, [sp, #36]	; 0x24
    9e3c:	f8dd c024 	ldr.w	ip, [sp, #36]	; 0x24
    9e40:	f01c 0320 	ands.w	r3, ip, #32
    9e44:	f47f ae36 	bne.w	9ab4 <_vfprintf_r+0x524>
    9e48:	f8dd c024 	ldr.w	ip, [sp, #36]	; 0x24
    9e4c:	f01c 0210 	ands.w	r2, ip, #16
    9e50:	f040 823b 	bne.w	a2ca <_vfprintf_r+0xd3a>
    9e54:	f8dd c024 	ldr.w	ip, [sp, #36]	; 0x24
    9e58:	f01c 0340 	ands.w	r3, ip, #64	; 0x40
    9e5c:	f000 8235 	beq.w	a2ca <_vfprintf_r+0xd3a>
    9e60:	f8dd c03c 	ldr.w	ip, [sp, #60]	; 0x3c
    9e64:	4613      	mov	r3, r2
    9e66:	f8bc 4000 	ldrh.w	r4, [ip]
    9e6a:	f10c 0c04 	add.w	ip, ip, #4
    9e6e:	2500      	movs	r5, #0
    9e70:	f8cd c03c 	str.w	ip, [sp, #60]	; 0x3c
    9e74:	e4c0      	b.n	97f8 <_vfprintf_r+0x268>
    9e76:	930a      	str	r3, [sp, #40]	; 0x28
    9e78:	f88d 208f 	strb.w	r2, [sp, #143]	; 0x8f
    9e7c:	f1b8 0f00 	cmp.w	r8, #0
    9e80:	f43f ac95 	beq.w	97ae <_vfprintf_r+0x21e>
    9e84:	2300      	movs	r3, #0
    9e86:	f04f 0c01 	mov.w	ip, #1
    9e8a:	469a      	mov	sl, r3
    9e8c:	f8cd c030 	str.w	ip, [sp, #48]	; 0x30
    9e90:	f88d 80b8 	strb.w	r8, [sp, #184]	; 0xb8
    9e94:	f88d 308f 	strb.w	r3, [sp, #143]	; 0x8f
    9e98:	930b      	str	r3, [sp, #44]	; 0x2c
    9e9a:	9314      	str	r3, [sp, #80]	; 0x50
    9e9c:	4664      	mov	r4, ip
    9e9e:	af2e      	add	r7, sp, #184	; 0xb8
    9ea0:	e4dd      	b.n	985e <_vfprintf_r+0x2ce>
    9ea2:	f8dd c0b4 	ldr.w	ip, [sp, #180]	; 0xb4
    9ea6:	e530      	b.n	990a <_vfprintf_r+0x37a>
    9ea8:	2b01      	cmp	r3, #1
    9eaa:	f000 80e3 	beq.w	a074 <_vfprintf_r+0xae4>
    9eae:	2b02      	cmp	r3, #2
    9eb0:	f10d 03df 	add.w	r3, sp, #223	; 0xdf
    9eb4:	d118      	bne.n	9ee8 <_vfprintf_r+0x958>
    9eb6:	f8dd c068 	ldr.w	ip, [sp, #104]	; 0x68
    9eba:	4619      	mov	r1, r3
    9ebc:	f004 000f 	and.w	r0, r4, #15
    9ec0:	0922      	lsrs	r2, r4, #4
    9ec2:	f81c 0000 	ldrb.w	r0, [ip, r0]
    9ec6:	ea42 7205 	orr.w	r2, r2, r5, lsl #28
    9eca:	092b      	lsrs	r3, r5, #4
    9ecc:	7008      	strb	r0, [r1, #0]
    9ece:	ea52 0003 	orrs.w	r0, r2, r3
    9ed2:	460f      	mov	r7, r1
    9ed4:	4614      	mov	r4, r2
    9ed6:	461d      	mov	r5, r3
    9ed8:	f101 31ff 	add.w	r1, r1, #4294967295
    9edc:	d1ee      	bne.n	9ebc <_vfprintf_r+0x92c>
    9ede:	9d08      	ldr	r5, [sp, #32]
    9ee0:	e9cd 231e 	strd	r2, r3, [sp, #120]	; 0x78
    9ee4:	1bec      	subs	r4, r5, r7
    9ee6:	e4ab      	b.n	9840 <_vfprintf_r+0x2b0>
    9ee8:	08e0      	lsrs	r0, r4, #3
    9eea:	ea40 7045 	orr.w	r0, r0, r5, lsl #29
    9eee:	f004 0207 	and.w	r2, r4, #7
    9ef2:	08e9      	lsrs	r1, r5, #3
    9ef4:	3230      	adds	r2, #48	; 0x30
    9ef6:	ea50 0c01 	orrs.w	ip, r0, r1
    9efa:	461f      	mov	r7, r3
    9efc:	701a      	strb	r2, [r3, #0]
    9efe:	4604      	mov	r4, r0
    9f00:	460d      	mov	r5, r1
    9f02:	f103 33ff 	add.w	r3, r3, #4294967295
    9f06:	d1ef      	bne.n	9ee8 <_vfprintf_r+0x958>
    9f08:	9c09      	ldr	r4, [sp, #36]	; 0x24
    9f0a:	e9cd 011c 	strd	r0, r1, [sp, #112]	; 0x70
    9f0e:	07e0      	lsls	r0, r4, #31
    9f10:	4639      	mov	r1, r7
    9f12:	f140 80b8 	bpl.w	a086 <_vfprintf_r+0xaf6>
    9f16:	2a30      	cmp	r2, #48	; 0x30
    9f18:	f000 80b5 	beq.w	a086 <_vfprintf_r+0xaf6>
    9f1c:	9d08      	ldr	r5, [sp, #32]
    9f1e:	461f      	mov	r7, r3
    9f20:	2330      	movs	r3, #48	; 0x30
    9f22:	1bec      	subs	r4, r5, r7
    9f24:	f801 3c01 	strb.w	r3, [r1, #-1]
    9f28:	e48a      	b.n	9840 <_vfprintf_r+0x2b0>
    9f2a:	f1b8 0f65 	cmp.w	r8, #101	; 0x65
    9f2e:	f340 80b7 	ble.w	a0a0 <_vfprintf_r+0xb10>
    9f32:	e9dd 0116 	ldrd	r0, r1, [sp, #88]	; 0x58
    9f36:	2200      	movs	r2, #0
    9f38:	2300      	movs	r3, #0
    9f3a:	f8cd c01c 	str.w	ip, [sp, #28]
    9f3e:	f00a fa55 	bl	143ec <__aeabi_dcmpeq>
    9f42:	f8dd c01c 	ldr.w	ip, [sp, #28]
    9f46:	2800      	cmp	r0, #0
    9f48:	f000 812e 	beq.w	a1a8 <_vfprintf_r+0xc18>
    9f4c:	9b2c      	ldr	r3, [sp, #176]	; 0xb0
    9f4e:	4952      	ldr	r1, [pc, #328]	; (a098 <_vfprintf_r+0xb08>)
    9f50:	3301      	adds	r3, #1
    9f52:	f10c 0c01 	add.w	ip, ip, #1
    9f56:	2201      	movs	r2, #1
    9f58:	2b07      	cmp	r3, #7
    9f5a:	f8cd c0b4 	str.w	ip, [sp, #180]	; 0xb4
    9f5e:	932c      	str	r3, [sp, #176]	; 0xb0
    9f60:	e886 0006 	stmia.w	r6, {r1, r2}
    9f64:	f300 8361 	bgt.w	a62a <_vfprintf_r+0x109a>
    9f68:	3608      	adds	r6, #8
    9f6a:	9b25      	ldr	r3, [sp, #148]	; 0x94
    9f6c:	9c11      	ldr	r4, [sp, #68]	; 0x44
    9f6e:	42a3      	cmp	r3, r4
    9f70:	db03      	blt.n	9f7a <_vfprintf_r+0x9ea>
    9f72:	9d09      	ldr	r5, [sp, #36]	; 0x24
    9f74:	07ef      	lsls	r7, r5, #31
    9f76:	f57f ad42 	bpl.w	99fe <_vfprintf_r+0x46e>
    9f7a:	9b2c      	ldr	r3, [sp, #176]	; 0xb0
    9f7c:	9c18      	ldr	r4, [sp, #96]	; 0x60
    9f7e:	3301      	adds	r3, #1
    9f80:	9d15      	ldr	r5, [sp, #84]	; 0x54
    9f82:	44a4      	add	ip, r4
    9f84:	2b07      	cmp	r3, #7
    9f86:	f8cd c0b4 	str.w	ip, [sp, #180]	; 0xb4
    9f8a:	6035      	str	r5, [r6, #0]
    9f8c:	6074      	str	r4, [r6, #4]
    9f8e:	932c      	str	r3, [sp, #176]	; 0xb0
    9f90:	f300 83de 	bgt.w	a750 <_vfprintf_r+0x11c0>
    9f94:	3608      	adds	r6, #8
    9f96:	9d11      	ldr	r5, [sp, #68]	; 0x44
    9f98:	1e6c      	subs	r4, r5, #1
    9f9a:	2c00      	cmp	r4, #0
    9f9c:	f77f ad2f 	ble.w	99fe <_vfprintf_r+0x46e>
    9fa0:	2c10      	cmp	r4, #16
    9fa2:	9b2c      	ldr	r3, [sp, #176]	; 0xb0
    9fa4:	f8df a0f4 	ldr.w	sl, [pc, #244]	; a09c <_vfprintf_r+0xb0c>
    9fa8:	f340 8198 	ble.w	a2dc <_vfprintf_r+0xd4c>
    9fac:	2510      	movs	r5, #16
    9fae:	4662      	mov	r2, ip
    9fb0:	f8dd 8034 	ldr.w	r8, [sp, #52]	; 0x34
    9fb4:	4657      	mov	r7, sl
    9fb6:	e004      	b.n	9fc2 <_vfprintf_r+0xa32>
    9fb8:	3608      	adds	r6, #8
    9fba:	3c10      	subs	r4, #16
    9fbc:	2c10      	cmp	r4, #16
    9fbe:	f340 818b 	ble.w	a2d8 <_vfprintf_r+0xd48>
    9fc2:	3301      	adds	r3, #1
    9fc4:	3210      	adds	r2, #16
    9fc6:	2b07      	cmp	r3, #7
    9fc8:	922d      	str	r2, [sp, #180]	; 0xb4
    9fca:	932c      	str	r3, [sp, #176]	; 0xb0
    9fcc:	6037      	str	r7, [r6, #0]
    9fce:	6075      	str	r5, [r6, #4]
    9fd0:	ddf2      	ble.n	9fb8 <_vfprintf_r+0xa28>
    9fd2:	4640      	mov	r0, r8
    9fd4:	4649      	mov	r1, r9
    9fd6:	aa2b      	add	r2, sp, #172	; 0xac
    9fd8:	f006 ffce 	bl	10f78 <__sprint_r>
    9fdc:	2800      	cmp	r0, #0
    9fde:	f47f abed 	bne.w	97bc <_vfprintf_r+0x22c>
    9fe2:	9a2d      	ldr	r2, [sp, #180]	; 0xb4
    9fe4:	9b2c      	ldr	r3, [sp, #176]	; 0xb0
    9fe6:	ae38      	add	r6, sp, #224	; 0xe0
    9fe8:	e7e7      	b.n	9fba <_vfprintf_r+0xa2a>
    9fea:	980e      	ldr	r0, [sp, #56]	; 0x38
    9fec:	990c      	ldr	r1, [sp, #48]	; 0x30
    9fee:	1a45      	subs	r5, r0, r1
    9ff0:	2d00      	cmp	r5, #0
    9ff2:	f77f acb2 	ble.w	995a <_vfprintf_r+0x3ca>
    9ff6:	2d10      	cmp	r5, #16
    9ff8:	9b2c      	ldr	r3, [sp, #176]	; 0xb0
    9ffa:	f8df a0a0 	ldr.w	sl, [pc, #160]	; a09c <_vfprintf_r+0xb0c>
    9ffe:	dd2c      	ble.n	a05a <_vfprintf_r+0xaca>
    a000:	4651      	mov	r1, sl
    a002:	9412      	str	r4, [sp, #72]	; 0x48
    a004:	46aa      	mov	sl, r5
    a006:	f04f 0b10 	mov.w	fp, #16
    a00a:	4662      	mov	r2, ip
    a00c:	9c0d      	ldr	r4, [sp, #52]	; 0x34
    a00e:	460d      	mov	r5, r1
    a010:	e006      	b.n	a020 <_vfprintf_r+0xa90>
    a012:	f1aa 0a10 	sub.w	sl, sl, #16
    a016:	f1ba 0f10 	cmp.w	sl, #16
    a01a:	f106 0608 	add.w	r6, r6, #8
    a01e:	dd17      	ble.n	a050 <_vfprintf_r+0xac0>
    a020:	3301      	adds	r3, #1
    a022:	3210      	adds	r2, #16
    a024:	2b07      	cmp	r3, #7
    a026:	922d      	str	r2, [sp, #180]	; 0xb4
    a028:	932c      	str	r3, [sp, #176]	; 0xb0
    a02a:	e886 0820 	stmia.w	r6, {r5, fp}
    a02e:	ddf0      	ble.n	a012 <_vfprintf_r+0xa82>
    a030:	4620      	mov	r0, r4
    a032:	4649      	mov	r1, r9
    a034:	aa2b      	add	r2, sp, #172	; 0xac
    a036:	f006 ff9f 	bl	10f78 <__sprint_r>
    a03a:	2800      	cmp	r0, #0
    a03c:	f47f abbe 	bne.w	97bc <_vfprintf_r+0x22c>
    a040:	f1aa 0a10 	sub.w	sl, sl, #16
    a044:	f1ba 0f10 	cmp.w	sl, #16
    a048:	9a2d      	ldr	r2, [sp, #180]	; 0xb4
    a04a:	9b2c      	ldr	r3, [sp, #176]	; 0xb0
    a04c:	ae38      	add	r6, sp, #224	; 0xe0
    a04e:	dce7      	bgt.n	a020 <_vfprintf_r+0xa90>
    a050:	4694      	mov	ip, r2
    a052:	9c12      	ldr	r4, [sp, #72]	; 0x48
    a054:	462a      	mov	r2, r5
    a056:	4655      	mov	r5, sl
    a058:	4692      	mov	sl, r2
    a05a:	3301      	adds	r3, #1
    a05c:	44ac      	add	ip, r5
    a05e:	2b07      	cmp	r3, #7
    a060:	f8cd c0b4 	str.w	ip, [sp, #180]	; 0xb4
    a064:	932c      	str	r3, [sp, #176]	; 0xb0
    a066:	f8c6 a000 	str.w	sl, [r6]
    a06a:	6075      	str	r5, [r6, #4]
    a06c:	f300 81ff 	bgt.w	a46e <_vfprintf_r+0xede>
    a070:	3608      	adds	r6, #8
    a072:	e472      	b.n	995a <_vfprintf_r+0x3ca>
    a074:	2d00      	cmp	r5, #0
    a076:	bf08      	it	eq
    a078:	2c0a      	cmpeq	r4, #10
    a07a:	f080 813b 	bcs.w	a2f4 <_vfprintf_r+0xd64>
    a07e:	3430      	adds	r4, #48	; 0x30
    a080:	af48      	add	r7, sp, #288	; 0x120
    a082:	f807 4d41 	strb.w	r4, [r7, #-65]!
    a086:	9d08      	ldr	r5, [sp, #32]
    a088:	1bec      	subs	r4, r5, r7
    a08a:	f7ff bbd9 	b.w	9840 <_vfprintf_r+0x2b0>
    a08e:	bf00      	nop
    a090:	00014c04 	.word	0x00014c04
    a094:	00014c00 	.word	0x00014c00
    a098:	00014c40 	.word	0x00014c40
    a09c:	00014c44 	.word	0x00014c44
    a0a0:	9c11      	ldr	r4, [sp, #68]	; 0x44
    a0a2:	2c01      	cmp	r4, #1
    a0a4:	9c2c      	ldr	r4, [sp, #176]	; 0xb0
    a0a6:	f340 81a4 	ble.w	a3f2 <_vfprintf_r+0xe62>
    a0aa:	3401      	adds	r4, #1
    a0ac:	f10c 0501 	add.w	r5, ip, #1
    a0b0:	2301      	movs	r3, #1
    a0b2:	2c07      	cmp	r4, #7
    a0b4:	952d      	str	r5, [sp, #180]	; 0xb4
    a0b6:	942c      	str	r4, [sp, #176]	; 0xb0
    a0b8:	6037      	str	r7, [r6, #0]
    a0ba:	6073      	str	r3, [r6, #4]
    a0bc:	f300 81b4 	bgt.w	a428 <_vfprintf_r+0xe98>
    a0c0:	3608      	adds	r6, #8
    a0c2:	9818      	ldr	r0, [sp, #96]	; 0x60
    a0c4:	3401      	adds	r4, #1
    a0c6:	9915      	ldr	r1, [sp, #84]	; 0x54
    a0c8:	4405      	add	r5, r0
    a0ca:	2c07      	cmp	r4, #7
    a0cc:	952d      	str	r5, [sp, #180]	; 0xb4
    a0ce:	942c      	str	r4, [sp, #176]	; 0xb0
    a0d0:	6031      	str	r1, [r6, #0]
    a0d2:	6070      	str	r0, [r6, #4]
    a0d4:	f300 81b4 	bgt.w	a440 <_vfprintf_r+0xeb0>
    a0d8:	3608      	adds	r6, #8
    a0da:	e9dd 0116 	ldrd	r0, r1, [sp, #88]	; 0x58
    a0de:	2200      	movs	r2, #0
    a0e0:	2300      	movs	r3, #0
    a0e2:	f00a f983 	bl	143ec <__aeabi_dcmpeq>
    a0e6:	2800      	cmp	r0, #0
    a0e8:	f040 80bd 	bne.w	a266 <_vfprintf_r+0xcd6>
    a0ec:	9a11      	ldr	r2, [sp, #68]	; 0x44
    a0ee:	3401      	adds	r4, #1
    a0f0:	1e53      	subs	r3, r2, #1
    a0f2:	3701      	adds	r7, #1
    a0f4:	441d      	add	r5, r3
    a0f6:	2c07      	cmp	r4, #7
    a0f8:	942c      	str	r4, [sp, #176]	; 0xb0
    a0fa:	952d      	str	r5, [sp, #180]	; 0xb4
    a0fc:	6037      	str	r7, [r6, #0]
    a0fe:	6073      	str	r3, [r6, #4]
    a100:	f300 8186 	bgt.w	a410 <_vfprintf_r+0xe80>
    a104:	3608      	adds	r6, #8
    a106:	f8dd c064 	ldr.w	ip, [sp, #100]	; 0x64
    a10a:	3401      	adds	r4, #1
    a10c:	44ac      	add	ip, r5
    a10e:	9d19      	ldr	r5, [sp, #100]	; 0x64
    a110:	ab27      	add	r3, sp, #156	; 0x9c
    a112:	2c07      	cmp	r4, #7
    a114:	f8cd c0b4 	str.w	ip, [sp, #180]	; 0xb4
    a118:	942c      	str	r4, [sp, #176]	; 0xb0
    a11a:	e886 0028 	stmia.w	r6, {r3, r5}
    a11e:	f77f ac6d 	ble.w	99fc <_vfprintf_r+0x46c>
    a122:	980d      	ldr	r0, [sp, #52]	; 0x34
    a124:	4649      	mov	r1, r9
    a126:	aa2b      	add	r2, sp, #172	; 0xac
    a128:	f006 ff26 	bl	10f78 <__sprint_r>
    a12c:	2800      	cmp	r0, #0
    a12e:	f47f ab45 	bne.w	97bc <_vfprintf_r+0x22c>
    a132:	f8dd c0b4 	ldr.w	ip, [sp, #180]	; 0xb4
    a136:	ae38      	add	r6, sp, #224	; 0xe0
    a138:	e461      	b.n	99fe <_vfprintf_r+0x46e>
    a13a:	980d      	ldr	r0, [sp, #52]	; 0x34
    a13c:	4649      	mov	r1, r9
    a13e:	aa2b      	add	r2, sp, #172	; 0xac
    a140:	f006 ff1a 	bl	10f78 <__sprint_r>
    a144:	2800      	cmp	r0, #0
    a146:	f43f acaa 	beq.w	9a9e <_vfprintf_r+0x50e>
    a14a:	f7ff bb37 	b.w	97bc <_vfprintf_r+0x22c>
    a14e:	980d      	ldr	r0, [sp, #52]	; 0x34
    a150:	4649      	mov	r1, r9
    a152:	aa2b      	add	r2, sp, #172	; 0xac
    a154:	f006 ff10 	bl	10f78 <__sprint_r>
    a158:	2800      	cmp	r0, #0
    a15a:	f47f ab2f 	bne.w	97bc <_vfprintf_r+0x22c>
    a15e:	f8dd c0b4 	ldr.w	ip, [sp, #180]	; 0xb4
    a162:	ae38      	add	r6, sp, #224	; 0xe0
    a164:	e43b      	b.n	99de <_vfprintf_r+0x44e>
    a166:	980d      	ldr	r0, [sp, #52]	; 0x34
    a168:	4649      	mov	r1, r9
    a16a:	aa2b      	add	r2, sp, #172	; 0xac
    a16c:	f006 ff04 	bl	10f78 <__sprint_r>
    a170:	2800      	cmp	r0, #0
    a172:	f47f ab23 	bne.w	97bc <_vfprintf_r+0x22c>
    a176:	f8dd c0b4 	ldr.w	ip, [sp, #180]	; 0xb4
    a17a:	ae38      	add	r6, sp, #224	; 0xe0
    a17c:	f7ff bbd8 	b.w	9930 <_vfprintf_r+0x3a0>
    a180:	980d      	ldr	r0, [sp, #52]	; 0x34
    a182:	4649      	mov	r1, r9
    a184:	aa2b      	add	r2, sp, #172	; 0xac
    a186:	f006 fef7 	bl	10f78 <__sprint_r>
    a18a:	2800      	cmp	r0, #0
    a18c:	f47f ab16 	bne.w	97bc <_vfprintf_r+0x22c>
    a190:	f8dd c0b4 	ldr.w	ip, [sp, #180]	; 0xb4
    a194:	ae38      	add	r6, sp, #224	; 0xe0
    a196:	f7ff bbdc 	b.w	9952 <_vfprintf_r+0x3c2>
    a19a:	9c0b      	ldr	r4, [sp, #44]	; 0x2c
    a19c:	af38      	add	r7, sp, #224	; 0xe0
    a19e:	f7ff bb4f 	b.w	9840 <_vfprintf_r+0x2b0>
    a1a2:	2302      	movs	r3, #2
    a1a4:	f7ff bb28 	b.w	97f8 <_vfprintf_r+0x268>
    a1a8:	9b25      	ldr	r3, [sp, #148]	; 0x94
    a1aa:	2b00      	cmp	r3, #0
    a1ac:	f340 8249 	ble.w	a642 <_vfprintf_r+0x10b2>
    a1b0:	9c11      	ldr	r4, [sp, #68]	; 0x44
    a1b2:	9d14      	ldr	r5, [sp, #80]	; 0x50
    a1b4:	f8dd 8044 	ldr.w	r8, [sp, #68]	; 0x44
    a1b8:	42ac      	cmp	r4, r5
    a1ba:	bfa8      	it	ge
    a1bc:	462c      	movge	r4, r5
    a1be:	2c00      	cmp	r4, #0
    a1c0:	44b8      	add	r8, r7
    a1c2:	dd0b      	ble.n	a1dc <_vfprintf_r+0xc4c>
    a1c4:	9b2c      	ldr	r3, [sp, #176]	; 0xb0
    a1c6:	44a4      	add	ip, r4
    a1c8:	3301      	adds	r3, #1
    a1ca:	2b07      	cmp	r3, #7
    a1cc:	f8cd c0b4 	str.w	ip, [sp, #180]	; 0xb4
    a1d0:	6037      	str	r7, [r6, #0]
    a1d2:	6074      	str	r4, [r6, #4]
    a1d4:	932c      	str	r3, [sp, #176]	; 0xb0
    a1d6:	f300 82f0 	bgt.w	a7ba <_vfprintf_r+0x122a>
    a1da:	3608      	adds	r6, #8
    a1dc:	9d14      	ldr	r5, [sp, #80]	; 0x50
    a1de:	ea24 74e4 	bic.w	r4, r4, r4, asr #31
    a1e2:	1b2c      	subs	r4, r5, r4
    a1e4:	2c00      	cmp	r4, #0
    a1e6:	f340 80ad 	ble.w	a344 <_vfprintf_r+0xdb4>
    a1ea:	2c10      	cmp	r4, #16
    a1ec:	9b2c      	ldr	r3, [sp, #176]	; 0xb0
    a1ee:	f8df a6d8 	ldr.w	sl, [pc, #1752]	; a8c8 <_vfprintf_r+0x1338>
    a1f2:	f340 820d 	ble.w	a610 <_vfprintf_r+0x1080>
    a1f6:	4651      	mov	r1, sl
    a1f8:	2510      	movs	r5, #16
    a1fa:	46ba      	mov	sl, r7
    a1fc:	4662      	mov	r2, ip
    a1fe:	f8dd b034 	ldr.w	fp, [sp, #52]	; 0x34
    a202:	460f      	mov	r7, r1
    a204:	e004      	b.n	a210 <_vfprintf_r+0xc80>
    a206:	3608      	adds	r6, #8
    a208:	3c10      	subs	r4, #16
    a20a:	2c10      	cmp	r4, #16
    a20c:	f340 81fc 	ble.w	a608 <_vfprintf_r+0x1078>
    a210:	3301      	adds	r3, #1
    a212:	3210      	adds	r2, #16
    a214:	2b07      	cmp	r3, #7
    a216:	922d      	str	r2, [sp, #180]	; 0xb4
    a218:	932c      	str	r3, [sp, #176]	; 0xb0
    a21a:	6037      	str	r7, [r6, #0]
    a21c:	6075      	str	r5, [r6, #4]
    a21e:	ddf2      	ble.n	a206 <_vfprintf_r+0xc76>
    a220:	4658      	mov	r0, fp
    a222:	4649      	mov	r1, r9
    a224:	aa2b      	add	r2, sp, #172	; 0xac
    a226:	f006 fea7 	bl	10f78 <__sprint_r>
    a22a:	2800      	cmp	r0, #0
    a22c:	f47f aac6 	bne.w	97bc <_vfprintf_r+0x22c>
    a230:	9a2d      	ldr	r2, [sp, #180]	; 0xb4
    a232:	9b2c      	ldr	r3, [sp, #176]	; 0xb0
    a234:	ae38      	add	r6, sp, #224	; 0xe0
    a236:	e7e7      	b.n	a208 <_vfprintf_r+0xc78>
    a238:	980d      	ldr	r0, [sp, #52]	; 0x34
    a23a:	4649      	mov	r1, r9
    a23c:	aa2b      	add	r2, sp, #172	; 0xac
    a23e:	f006 fe9b 	bl	10f78 <__sprint_r>
    a242:	2800      	cmp	r0, #0
    a244:	f47f aaba 	bne.w	97bc <_vfprintf_r+0x22c>
    a248:	f89d a08f 	ldrb.w	sl, [sp, #143]	; 0x8f
    a24c:	f8dd c0b4 	ldr.w	ip, [sp, #180]	; 0xb4
    a250:	ae38      	add	r6, sp, #224	; 0xe0
    a252:	f7ff bb5a 	b.w	990a <_vfprintf_r+0x37a>
    a256:	9d0f      	ldr	r5, [sp, #60]	; 0x3c
    a258:	2301      	movs	r3, #1
    a25a:	682c      	ldr	r4, [r5, #0]
    a25c:	3504      	adds	r5, #4
    a25e:	950f      	str	r5, [sp, #60]	; 0x3c
    a260:	2500      	movs	r5, #0
    a262:	f7ff bac9 	b.w	97f8 <_vfprintf_r+0x268>
    a266:	9b11      	ldr	r3, [sp, #68]	; 0x44
    a268:	1e5f      	subs	r7, r3, #1
    a26a:	2f00      	cmp	r7, #0
    a26c:	f77f af4b 	ble.w	a106 <_vfprintf_r+0xb76>
    a270:	2f10      	cmp	r7, #16
    a272:	f8df a654 	ldr.w	sl, [pc, #1620]	; a8c8 <_vfprintf_r+0x1338>
    a276:	f340 80ef 	ble.w	a458 <_vfprintf_r+0xec8>
    a27a:	f04f 0810 	mov.w	r8, #16
    a27e:	f8dd b034 	ldr.w	fp, [sp, #52]	; 0x34
    a282:	e004      	b.n	a28e <_vfprintf_r+0xcfe>
    a284:	3608      	adds	r6, #8
    a286:	3f10      	subs	r7, #16
    a288:	2f10      	cmp	r7, #16
    a28a:	f340 80e5 	ble.w	a458 <_vfprintf_r+0xec8>
    a28e:	3401      	adds	r4, #1
    a290:	3510      	adds	r5, #16
    a292:	2c07      	cmp	r4, #7
    a294:	952d      	str	r5, [sp, #180]	; 0xb4
    a296:	942c      	str	r4, [sp, #176]	; 0xb0
    a298:	f8c6 a000 	str.w	sl, [r6]
    a29c:	f8c6 8004 	str.w	r8, [r6, #4]
    a2a0:	ddf0      	ble.n	a284 <_vfprintf_r+0xcf4>
    a2a2:	4658      	mov	r0, fp
    a2a4:	4649      	mov	r1, r9
    a2a6:	aa2b      	add	r2, sp, #172	; 0xac
    a2a8:	f006 fe66 	bl	10f78 <__sprint_r>
    a2ac:	2800      	cmp	r0, #0
    a2ae:	f47f aa85 	bne.w	97bc <_vfprintf_r+0x22c>
    a2b2:	9d2d      	ldr	r5, [sp, #180]	; 0xb4
    a2b4:	9c2c      	ldr	r4, [sp, #176]	; 0xb0
    a2b6:	ae38      	add	r6, sp, #224	; 0xe0
    a2b8:	e7e5      	b.n	a286 <_vfprintf_r+0xcf6>
    a2ba:	9d0f      	ldr	r5, [sp, #60]	; 0x3c
    a2bc:	682c      	ldr	r4, [r5, #0]
    a2be:	3504      	adds	r5, #4
    a2c0:	950f      	str	r5, [sp, #60]	; 0x3c
    a2c2:	17e5      	asrs	r5, r4, #31
    a2c4:	4622      	mov	r2, r4
    a2c6:	462b      	mov	r3, r5
    a2c8:	e50f      	b.n	9cea <_vfprintf_r+0x75a>
    a2ca:	9d0f      	ldr	r5, [sp, #60]	; 0x3c
    a2cc:	682c      	ldr	r4, [r5, #0]
    a2ce:	3504      	adds	r5, #4
    a2d0:	950f      	str	r5, [sp, #60]	; 0x3c
    a2d2:	2500      	movs	r5, #0
    a2d4:	f7ff ba90 	b.w	97f8 <_vfprintf_r+0x268>
    a2d8:	4694      	mov	ip, r2
    a2da:	46ba      	mov	sl, r7
    a2dc:	3301      	adds	r3, #1
    a2de:	44a4      	add	ip, r4
    a2e0:	2b07      	cmp	r3, #7
    a2e2:	f8cd c0b4 	str.w	ip, [sp, #180]	; 0xb4
    a2e6:	932c      	str	r3, [sp, #176]	; 0xb0
    a2e8:	f8c6 a000 	str.w	sl, [r6]
    a2ec:	6074      	str	r4, [r6, #4]
    a2ee:	f77f ab85 	ble.w	99fc <_vfprintf_r+0x46c>
    a2f2:	e716      	b.n	a122 <_vfprintf_r+0xb92>
    a2f4:	f10d 0bdf 	add.w	fp, sp, #223	; 0xdf
    a2f8:	4620      	mov	r0, r4
    a2fa:	4629      	mov	r1, r5
    a2fc:	220a      	movs	r2, #10
    a2fe:	2300      	movs	r3, #0
    a300:	f00a f93e 	bl	14580 <__aeabi_uldivmod>
    a304:	3230      	adds	r2, #48	; 0x30
    a306:	f88b 2000 	strb.w	r2, [fp]
    a30a:	4620      	mov	r0, r4
    a30c:	4629      	mov	r1, r5
    a30e:	220a      	movs	r2, #10
    a310:	2300      	movs	r3, #0
    a312:	f00a f935 	bl	14580 <__aeabi_uldivmod>
    a316:	4604      	mov	r4, r0
    a318:	460d      	mov	r5, r1
    a31a:	ea54 0c05 	orrs.w	ip, r4, r5
    a31e:	465f      	mov	r7, fp
    a320:	f10b 3bff 	add.w	fp, fp, #4294967295
    a324:	d1e8      	bne.n	a2f8 <_vfprintf_r+0xd68>
    a326:	9d08      	ldr	r5, [sp, #32]
    a328:	1bec      	subs	r4, r5, r7
    a32a:	f7ff ba89 	b.w	9840 <_vfprintf_r+0x2b0>
    a32e:	980d      	ldr	r0, [sp, #52]	; 0x34
    a330:	4649      	mov	r1, r9
    a332:	aa2b      	add	r2, sp, #172	; 0xac
    a334:	f006 fe20 	bl	10f78 <__sprint_r>
    a338:	2800      	cmp	r0, #0
    a33a:	f47f aa3f 	bne.w	97bc <_vfprintf_r+0x22c>
    a33e:	f8dd c0b4 	ldr.w	ip, [sp, #180]	; 0xb4
    a342:	ae38      	add	r6, sp, #224	; 0xe0
    a344:	9d14      	ldr	r5, [sp, #80]	; 0x50
    a346:	9c25      	ldr	r4, [sp, #148]	; 0x94
    a348:	442f      	add	r7, r5
    a34a:	9d11      	ldr	r5, [sp, #68]	; 0x44
    a34c:	42ac      	cmp	r4, r5
    a34e:	db40      	blt.n	a3d2 <_vfprintf_r+0xe42>
    a350:	9d09      	ldr	r5, [sp, #36]	; 0x24
    a352:	07e8      	lsls	r0, r5, #31
    a354:	d43d      	bmi.n	a3d2 <_vfprintf_r+0xe42>
    a356:	9811      	ldr	r0, [sp, #68]	; 0x44
    a358:	ebc7 0508 	rsb	r5, r7, r8
    a35c:	1b04      	subs	r4, r0, r4
    a35e:	42ac      	cmp	r4, r5
    a360:	bfb8      	it	lt
    a362:	4625      	movlt	r5, r4
    a364:	2d00      	cmp	r5, #0
    a366:	dd0b      	ble.n	a380 <_vfprintf_r+0xdf0>
    a368:	9b2c      	ldr	r3, [sp, #176]	; 0xb0
    a36a:	44ac      	add	ip, r5
    a36c:	3301      	adds	r3, #1
    a36e:	2b07      	cmp	r3, #7
    a370:	f8cd c0b4 	str.w	ip, [sp, #180]	; 0xb4
    a374:	6037      	str	r7, [r6, #0]
    a376:	6075      	str	r5, [r6, #4]
    a378:	932c      	str	r3, [sp, #176]	; 0xb0
    a37a:	f300 8254 	bgt.w	a826 <_vfprintf_r+0x1296>
    a37e:	3608      	adds	r6, #8
    a380:	ea25 75e5 	bic.w	r5, r5, r5, asr #31
    a384:	1b64      	subs	r4, r4, r5
    a386:	2c00      	cmp	r4, #0
    a388:	f77f ab39 	ble.w	99fe <_vfprintf_r+0x46e>
    a38c:	2c10      	cmp	r4, #16
    a38e:	9b2c      	ldr	r3, [sp, #176]	; 0xb0
    a390:	f8df a534 	ldr.w	sl, [pc, #1332]	; a8c8 <_vfprintf_r+0x1338>
    a394:	dda2      	ble.n	a2dc <_vfprintf_r+0xd4c>
    a396:	2510      	movs	r5, #16
    a398:	4662      	mov	r2, ip
    a39a:	f8dd 8034 	ldr.w	r8, [sp, #52]	; 0x34
    a39e:	4657      	mov	r7, sl
    a3a0:	e003      	b.n	a3aa <_vfprintf_r+0xe1a>
    a3a2:	3608      	adds	r6, #8
    a3a4:	3c10      	subs	r4, #16
    a3a6:	2c10      	cmp	r4, #16
    a3a8:	dd96      	ble.n	a2d8 <_vfprintf_r+0xd48>
    a3aa:	3301      	adds	r3, #1
    a3ac:	3210      	adds	r2, #16
    a3ae:	2b07      	cmp	r3, #7
    a3b0:	922d      	str	r2, [sp, #180]	; 0xb4
    a3b2:	932c      	str	r3, [sp, #176]	; 0xb0
    a3b4:	6037      	str	r7, [r6, #0]
    a3b6:	6075      	str	r5, [r6, #4]
    a3b8:	ddf3      	ble.n	a3a2 <_vfprintf_r+0xe12>
    a3ba:	4640      	mov	r0, r8
    a3bc:	4649      	mov	r1, r9
    a3be:	aa2b      	add	r2, sp, #172	; 0xac
    a3c0:	f006 fdda 	bl	10f78 <__sprint_r>
    a3c4:	2800      	cmp	r0, #0
    a3c6:	f47f a9f9 	bne.w	97bc <_vfprintf_r+0x22c>
    a3ca:	9a2d      	ldr	r2, [sp, #180]	; 0xb4
    a3cc:	9b2c      	ldr	r3, [sp, #176]	; 0xb0
    a3ce:	ae38      	add	r6, sp, #224	; 0xe0
    a3d0:	e7e8      	b.n	a3a4 <_vfprintf_r+0xe14>
    a3d2:	9d18      	ldr	r5, [sp, #96]	; 0x60
    a3d4:	9b2c      	ldr	r3, [sp, #176]	; 0xb0
    a3d6:	44ac      	add	ip, r5
    a3d8:	9d15      	ldr	r5, [sp, #84]	; 0x54
    a3da:	3301      	adds	r3, #1
    a3dc:	6035      	str	r5, [r6, #0]
    a3de:	9d18      	ldr	r5, [sp, #96]	; 0x60
    a3e0:	2b07      	cmp	r3, #7
    a3e2:	f8cd c0b4 	str.w	ip, [sp, #180]	; 0xb4
    a3e6:	6075      	str	r5, [r6, #4]
    a3e8:	932c      	str	r3, [sp, #176]	; 0xb0
    a3ea:	f300 8200 	bgt.w	a7ee <_vfprintf_r+0x125e>
    a3ee:	3608      	adds	r6, #8
    a3f0:	e7b1      	b.n	a356 <_vfprintf_r+0xdc6>
    a3f2:	9d09      	ldr	r5, [sp, #36]	; 0x24
    a3f4:	07e9      	lsls	r1, r5, #31
    a3f6:	f53f ae58 	bmi.w	a0aa <_vfprintf_r+0xb1a>
    a3fa:	3401      	adds	r4, #1
    a3fc:	f10c 0501 	add.w	r5, ip, #1
    a400:	2301      	movs	r3, #1
    a402:	2c07      	cmp	r4, #7
    a404:	952d      	str	r5, [sp, #180]	; 0xb4
    a406:	942c      	str	r4, [sp, #176]	; 0xb0
    a408:	6037      	str	r7, [r6, #0]
    a40a:	6073      	str	r3, [r6, #4]
    a40c:	f77f ae7a 	ble.w	a104 <_vfprintf_r+0xb74>
    a410:	980d      	ldr	r0, [sp, #52]	; 0x34
    a412:	4649      	mov	r1, r9
    a414:	aa2b      	add	r2, sp, #172	; 0xac
    a416:	f006 fdaf 	bl	10f78 <__sprint_r>
    a41a:	2800      	cmp	r0, #0
    a41c:	f47f a9ce 	bne.w	97bc <_vfprintf_r+0x22c>
    a420:	9d2d      	ldr	r5, [sp, #180]	; 0xb4
    a422:	9c2c      	ldr	r4, [sp, #176]	; 0xb0
    a424:	ae38      	add	r6, sp, #224	; 0xe0
    a426:	e66e      	b.n	a106 <_vfprintf_r+0xb76>
    a428:	980d      	ldr	r0, [sp, #52]	; 0x34
    a42a:	4649      	mov	r1, r9
    a42c:	aa2b      	add	r2, sp, #172	; 0xac
    a42e:	f006 fda3 	bl	10f78 <__sprint_r>
    a432:	2800      	cmp	r0, #0
    a434:	f47f a9c2 	bne.w	97bc <_vfprintf_r+0x22c>
    a438:	9d2d      	ldr	r5, [sp, #180]	; 0xb4
    a43a:	9c2c      	ldr	r4, [sp, #176]	; 0xb0
    a43c:	ae38      	add	r6, sp, #224	; 0xe0
    a43e:	e640      	b.n	a0c2 <_vfprintf_r+0xb32>
    a440:	980d      	ldr	r0, [sp, #52]	; 0x34
    a442:	4649      	mov	r1, r9
    a444:	aa2b      	add	r2, sp, #172	; 0xac
    a446:	f006 fd97 	bl	10f78 <__sprint_r>
    a44a:	2800      	cmp	r0, #0
    a44c:	f47f a9b6 	bne.w	97bc <_vfprintf_r+0x22c>
    a450:	9d2d      	ldr	r5, [sp, #180]	; 0xb4
    a452:	9c2c      	ldr	r4, [sp, #176]	; 0xb0
    a454:	ae38      	add	r6, sp, #224	; 0xe0
    a456:	e640      	b.n	a0da <_vfprintf_r+0xb4a>
    a458:	3401      	adds	r4, #1
    a45a:	443d      	add	r5, r7
    a45c:	2c07      	cmp	r4, #7
    a45e:	952d      	str	r5, [sp, #180]	; 0xb4
    a460:	942c      	str	r4, [sp, #176]	; 0xb0
    a462:	f8c6 a000 	str.w	sl, [r6]
    a466:	6077      	str	r7, [r6, #4]
    a468:	f77f ae4c 	ble.w	a104 <_vfprintf_r+0xb74>
    a46c:	e7d0      	b.n	a410 <_vfprintf_r+0xe80>
    a46e:	980d      	ldr	r0, [sp, #52]	; 0x34
    a470:	4649      	mov	r1, r9
    a472:	aa2b      	add	r2, sp, #172	; 0xac
    a474:	f006 fd80 	bl	10f78 <__sprint_r>
    a478:	2800      	cmp	r0, #0
    a47a:	f47f a99f 	bne.w	97bc <_vfprintf_r+0x22c>
    a47e:	f8dd c0b4 	ldr.w	ip, [sp, #180]	; 0xb4
    a482:	ae38      	add	r6, sp, #224	; 0xe0
    a484:	f7ff ba69 	b.w	995a <_vfprintf_r+0x3ca>
    a488:	f04f 0a2d 	mov.w	sl, #45	; 0x2d
    a48c:	4264      	negs	r4, r4
    a48e:	eb65 0545 	sbc.w	r5, r5, r5, lsl #1
    a492:	f88d a08f 	strb.w	sl, [sp, #143]	; 0x8f
    a496:	2301      	movs	r3, #1
    a498:	f7ff b9b2 	b.w	9800 <_vfprintf_r+0x270>
    a49c:	f003 fd94 	bl	dfc8 <__fpclassifyd>
    a4a0:	2800      	cmp	r0, #0
    a4a2:	f000 811b 	beq.w	a6dc <_vfprintf_r+0x114c>
    a4a6:	9d0b      	ldr	r5, [sp, #44]	; 0x2c
    a4a8:	f028 0a20 	bic.w	sl, r8, #32
    a4ac:	3501      	adds	r5, #1
    a4ae:	f000 826c 	beq.w	a98a <_vfprintf_r+0x13fa>
    a4b2:	f1ba 0f47 	cmp.w	sl, #71	; 0x47
    a4b6:	d104      	bne.n	a4c2 <_vfprintf_r+0xf32>
    a4b8:	9d0b      	ldr	r5, [sp, #44]	; 0x2c
    a4ba:	2d00      	cmp	r5, #0
    a4bc:	bf08      	it	eq
    a4be:	2501      	moveq	r5, #1
    a4c0:	950b      	str	r5, [sp, #44]	; 0x2c
    a4c2:	f8dd c024 	ldr.w	ip, [sp, #36]	; 0x24
    a4c6:	e9dd 2316 	ldrd	r2, r3, [sp, #88]	; 0x58
    a4ca:	f44c 7c80 	orr.w	ip, ip, #256	; 0x100
    a4ce:	2b00      	cmp	r3, #0
    a4d0:	f8cd c048 	str.w	ip, [sp, #72]	; 0x48
    a4d4:	f2c0 8250 	blt.w	a978 <_vfprintf_r+0x13e8>
    a4d8:	e9dd 4516 	ldrd	r4, r5, [sp, #88]	; 0x58
    a4dc:	e9cd 4520 	strd	r4, r5, [sp, #128]	; 0x80
    a4e0:	f04f 0b00 	mov.w	fp, #0
    a4e4:	f1b8 0f66 	cmp.w	r8, #102	; 0x66
    a4e8:	f000 8234 	beq.w	a954 <_vfprintf_r+0x13c4>
    a4ec:	f1b8 0f46 	cmp.w	r8, #70	; 0x46
    a4f0:	f000 828c 	beq.w	aa0c <_vfprintf_r+0x147c>
    a4f4:	f1ba 0f45 	cmp.w	sl, #69	; 0x45
    a4f8:	bf0a      	itet	eq
    a4fa:	9c0b      	ldreq	r4, [sp, #44]	; 0x2c
    a4fc:	9d0b      	ldrne	r5, [sp, #44]	; 0x2c
    a4fe:	1c65      	addeq	r5, r4, #1
    a500:	2002      	movs	r0, #2
    a502:	a925      	add	r1, sp, #148	; 0x94
    a504:	aa26      	add	r2, sp, #152	; 0x98
    a506:	ab29      	add	r3, sp, #164	; 0xa4
    a508:	e88d 0021 	stmia.w	sp, {r0, r5}
    a50c:	9203      	str	r2, [sp, #12]
    a50e:	9304      	str	r3, [sp, #16]
    a510:	9102      	str	r1, [sp, #8]
    a512:	980d      	ldr	r0, [sp, #52]	; 0x34
    a514:	e9dd 2320 	ldrd	r2, r3, [sp, #128]	; 0x80
    a518:	f001 fbae 	bl	bc78 <_dtoa_r>
    a51c:	f1b8 0f67 	cmp.w	r8, #103	; 0x67
    a520:	4607      	mov	r7, r0
    a522:	d002      	beq.n	a52a <_vfprintf_r+0xf9a>
    a524:	f1b8 0f47 	cmp.w	r8, #71	; 0x47
    a528:	d105      	bne.n	a536 <_vfprintf_r+0xfa6>
    a52a:	f8dd c024 	ldr.w	ip, [sp, #36]	; 0x24
    a52e:	f01c 0f01 	tst.w	ip, #1
    a532:	f000 823b 	beq.w	a9ac <_vfprintf_r+0x141c>
    a536:	f1ba 0f46 	cmp.w	sl, #70	; 0x46
    a53a:	eb07 0405 	add.w	r4, r7, r5
    a53e:	f000 81a8 	beq.w	a892 <_vfprintf_r+0x1302>
    a542:	e9dd 0120 	ldrd	r0, r1, [sp, #128]	; 0x80
    a546:	2200      	movs	r2, #0
    a548:	2300      	movs	r3, #0
    a54a:	f009 ff4f 	bl	143ec <__aeabi_dcmpeq>
    a54e:	2800      	cmp	r0, #0
    a550:	f040 819d 	bne.w	a88e <_vfprintf_r+0x12fe>
    a554:	9b29      	ldr	r3, [sp, #164]	; 0xa4
    a556:	429c      	cmp	r4, r3
    a558:	d906      	bls.n	a568 <_vfprintf_r+0xfd8>
    a55a:	2130      	movs	r1, #48	; 0x30
    a55c:	1c5a      	adds	r2, r3, #1
    a55e:	9229      	str	r2, [sp, #164]	; 0xa4
    a560:	7019      	strb	r1, [r3, #0]
    a562:	9b29      	ldr	r3, [sp, #164]	; 0xa4
    a564:	429c      	cmp	r4, r3
    a566:	d8f9      	bhi.n	a55c <_vfprintf_r+0xfcc>
    a568:	1bdb      	subs	r3, r3, r7
    a56a:	f1ba 0f47 	cmp.w	sl, #71	; 0x47
    a56e:	9311      	str	r3, [sp, #68]	; 0x44
    a570:	f000 8174 	beq.w	a85c <_vfprintf_r+0x12cc>
    a574:	f1b8 0f65 	cmp.w	r8, #101	; 0x65
    a578:	f340 8294 	ble.w	aaa4 <_vfprintf_r+0x1514>
    a57c:	f1b8 0f66 	cmp.w	r8, #102	; 0x66
    a580:	f000 8206 	beq.w	a990 <_vfprintf_r+0x1400>
    a584:	9c25      	ldr	r4, [sp, #148]	; 0x94
    a586:	9414      	str	r4, [sp, #80]	; 0x50
    a588:	9c11      	ldr	r4, [sp, #68]	; 0x44
    a58a:	9d14      	ldr	r5, [sp, #80]	; 0x50
    a58c:	42ac      	cmp	r4, r5
    a58e:	f300 81d4 	bgt.w	a93a <_vfprintf_r+0x13aa>
    a592:	f8dd c024 	ldr.w	ip, [sp, #36]	; 0x24
    a596:	f01c 0f01 	tst.w	ip, #1
    a59a:	f040 8253 	bne.w	aa44 <_vfprintf_r+0x14b4>
    a59e:	ea25 73e5 	bic.w	r3, r5, r5, asr #31
    a5a2:	462c      	mov	r4, r5
    a5a4:	f04f 0867 	mov.w	r8, #103	; 0x67
    a5a8:	f1bb 0f00 	cmp.w	fp, #0
    a5ac:	f040 8164 	bne.w	a878 <_vfprintf_r+0x12e8>
    a5b0:	9d12      	ldr	r5, [sp, #72]	; 0x48
    a5b2:	930c      	str	r3, [sp, #48]	; 0x30
    a5b4:	9509      	str	r5, [sp, #36]	; 0x24
    a5b6:	f8cd b02c 	str.w	fp, [sp, #44]	; 0x2c
    a5ba:	f89d a08f 	ldrb.w	sl, [sp, #143]	; 0x8f
    a5be:	f7ff b948 	b.w	9852 <_vfprintf_r+0x2c2>
    a5c2:	9c09      	ldr	r4, [sp, #36]	; 0x24
    a5c4:	0664      	lsls	r4, r4, #25
    a5c6:	f140 80a6 	bpl.w	a716 <_vfprintf_r+0x1186>
    a5ca:	f8dd c03c 	ldr.w	ip, [sp, #60]	; 0x3c
    a5ce:	2500      	movs	r5, #0
    a5d0:	f8bc 4000 	ldrh.w	r4, [ip]
    a5d4:	f10c 0c04 	add.w	ip, ip, #4
    a5d8:	f8cd c03c 	str.w	ip, [sp, #60]	; 0x3c
    a5dc:	f7ff bae7 	b.w	9bae <_vfprintf_r+0x61e>
    a5e0:	f8dd c024 	ldr.w	ip, [sp, #36]	; 0x24
    a5e4:	f01c 0f10 	tst.w	ip, #16
    a5e8:	f040 808d 	bne.w	a706 <_vfprintf_r+0x1176>
    a5ec:	f8dd c024 	ldr.w	ip, [sp, #36]	; 0x24
    a5f0:	f01c 0f40 	tst.w	ip, #64	; 0x40
    a5f4:	f000 8126 	beq.w	a844 <_vfprintf_r+0x12b4>
    a5f8:	9c0f      	ldr	r4, [sp, #60]	; 0x3c
    a5fa:	9d10      	ldr	r5, [sp, #64]	; 0x40
    a5fc:	6823      	ldr	r3, [r4, #0]
    a5fe:	3404      	adds	r4, #4
    a600:	940f      	str	r4, [sp, #60]	; 0x3c
    a602:	801d      	strh	r5, [r3, #0]
    a604:	f7ff b806 	b.w	9614 <_vfprintf_r+0x84>
    a608:	4694      	mov	ip, r2
    a60a:	463a      	mov	r2, r7
    a60c:	4657      	mov	r7, sl
    a60e:	4692      	mov	sl, r2
    a610:	3301      	adds	r3, #1
    a612:	44a4      	add	ip, r4
    a614:	2b07      	cmp	r3, #7
    a616:	f8cd c0b4 	str.w	ip, [sp, #180]	; 0xb4
    a61a:	932c      	str	r3, [sp, #176]	; 0xb0
    a61c:	f8c6 a000 	str.w	sl, [r6]
    a620:	6074      	str	r4, [r6, #4]
    a622:	f73f ae84 	bgt.w	a32e <_vfprintf_r+0xd9e>
    a626:	3608      	adds	r6, #8
    a628:	e68c      	b.n	a344 <_vfprintf_r+0xdb4>
    a62a:	980d      	ldr	r0, [sp, #52]	; 0x34
    a62c:	4649      	mov	r1, r9
    a62e:	aa2b      	add	r2, sp, #172	; 0xac
    a630:	f006 fca2 	bl	10f78 <__sprint_r>
    a634:	2800      	cmp	r0, #0
    a636:	f47f a8c1 	bne.w	97bc <_vfprintf_r+0x22c>
    a63a:	f8dd c0b4 	ldr.w	ip, [sp, #180]	; 0xb4
    a63e:	ae38      	add	r6, sp, #224	; 0xe0
    a640:	e493      	b.n	9f6a <_vfprintf_r+0x9da>
    a642:	9a2c      	ldr	r2, [sp, #176]	; 0xb0
    a644:	499c      	ldr	r1, [pc, #624]	; (a8b8 <_vfprintf_r+0x1328>)
    a646:	3201      	adds	r2, #1
    a648:	f10c 0c01 	add.w	ip, ip, #1
    a64c:	2001      	movs	r0, #1
    a64e:	2a07      	cmp	r2, #7
    a650:	f8cd c0b4 	str.w	ip, [sp, #180]	; 0xb4
    a654:	922c      	str	r2, [sp, #176]	; 0xb0
    a656:	6031      	str	r1, [r6, #0]
    a658:	6070      	str	r0, [r6, #4]
    a65a:	dc63      	bgt.n	a724 <_vfprintf_r+0x1194>
    a65c:	3608      	adds	r6, #8
    a65e:	461c      	mov	r4, r3
    a660:	b92c      	cbnz	r4, a66e <_vfprintf_r+0x10de>
    a662:	9d11      	ldr	r5, [sp, #68]	; 0x44
    a664:	b91d      	cbnz	r5, a66e <_vfprintf_r+0x10de>
    a666:	9d09      	ldr	r5, [sp, #36]	; 0x24
    a668:	07ed      	lsls	r5, r5, #31
    a66a:	f57f a9c8 	bpl.w	99fe <_vfprintf_r+0x46e>
    a66e:	9b2c      	ldr	r3, [sp, #176]	; 0xb0
    a670:	9d15      	ldr	r5, [sp, #84]	; 0x54
    a672:	9a18      	ldr	r2, [sp, #96]	; 0x60
    a674:	3301      	adds	r3, #1
    a676:	6035      	str	r5, [r6, #0]
    a678:	9d18      	ldr	r5, [sp, #96]	; 0x60
    a67a:	4462      	add	r2, ip
    a67c:	2b07      	cmp	r3, #7
    a67e:	922d      	str	r2, [sp, #180]	; 0xb4
    a680:	6075      	str	r5, [r6, #4]
    a682:	932c      	str	r3, [sp, #176]	; 0xb0
    a684:	f300 8147 	bgt.w	a916 <_vfprintf_r+0x1386>
    a688:	3608      	adds	r6, #8
    a68a:	4264      	negs	r4, r4
    a68c:	2c00      	cmp	r4, #0
    a68e:	f340 8086 	ble.w	a79e <_vfprintf_r+0x120e>
    a692:	2c10      	cmp	r4, #16
    a694:	f8df a230 	ldr.w	sl, [pc, #560]	; a8c8 <_vfprintf_r+0x1338>
    a698:	f340 809e 	ble.w	a7d8 <_vfprintf_r+0x1248>
    a69c:	4651      	mov	r1, sl
    a69e:	2510      	movs	r5, #16
    a6a0:	46ba      	mov	sl, r7
    a6a2:	f8dd 8034 	ldr.w	r8, [sp, #52]	; 0x34
    a6a6:	460f      	mov	r7, r1
    a6a8:	e004      	b.n	a6b4 <_vfprintf_r+0x1124>
    a6aa:	3608      	adds	r6, #8
    a6ac:	3c10      	subs	r4, #16
    a6ae:	2c10      	cmp	r4, #16
    a6b0:	f340 808f 	ble.w	a7d2 <_vfprintf_r+0x1242>
    a6b4:	3301      	adds	r3, #1
    a6b6:	3210      	adds	r2, #16
    a6b8:	2b07      	cmp	r3, #7
    a6ba:	922d      	str	r2, [sp, #180]	; 0xb4
    a6bc:	932c      	str	r3, [sp, #176]	; 0xb0
    a6be:	6037      	str	r7, [r6, #0]
    a6c0:	6075      	str	r5, [r6, #4]
    a6c2:	ddf2      	ble.n	a6aa <_vfprintf_r+0x111a>
    a6c4:	4640      	mov	r0, r8
    a6c6:	4649      	mov	r1, r9
    a6c8:	aa2b      	add	r2, sp, #172	; 0xac
    a6ca:	f006 fc55 	bl	10f78 <__sprint_r>
    a6ce:	2800      	cmp	r0, #0
    a6d0:	f47f a874 	bne.w	97bc <_vfprintf_r+0x22c>
    a6d4:	9a2d      	ldr	r2, [sp, #180]	; 0xb4
    a6d6:	9b2c      	ldr	r3, [sp, #176]	; 0xb0
    a6d8:	ae38      	add	r6, sp, #224	; 0xe0
    a6da:	e7e7      	b.n	a6ac <_vfprintf_r+0x111c>
    a6dc:	9c09      	ldr	r4, [sp, #36]	; 0x24
    a6de:	4f77      	ldr	r7, [pc, #476]	; (a8bc <_vfprintf_r+0x132c>)
    a6e0:	4b77      	ldr	r3, [pc, #476]	; (a8c0 <_vfprintf_r+0x1330>)
    a6e2:	f04f 0c03 	mov.w	ip, #3
    a6e6:	f024 0480 	bic.w	r4, r4, #128	; 0x80
    a6ea:	9409      	str	r4, [sp, #36]	; 0x24
    a6ec:	900b      	str	r0, [sp, #44]	; 0x2c
    a6ee:	f8cd c030 	str.w	ip, [sp, #48]	; 0x30
    a6f2:	9014      	str	r0, [sp, #80]	; 0x50
    a6f4:	f1b8 0f47 	cmp.w	r8, #71	; 0x47
    a6f8:	bfd8      	it	le
    a6fa:	461f      	movle	r7, r3
    a6fc:	4664      	mov	r4, ip
    a6fe:	f89d a08f 	ldrb.w	sl, [sp, #143]	; 0x8f
    a702:	f7ff b8a6 	b.w	9852 <_vfprintf_r+0x2c2>
    a706:	9c0f      	ldr	r4, [sp, #60]	; 0x3c
    a708:	9d10      	ldr	r5, [sp, #64]	; 0x40
    a70a:	6823      	ldr	r3, [r4, #0]
    a70c:	3404      	adds	r4, #4
    a70e:	940f      	str	r4, [sp, #60]	; 0x3c
    a710:	601d      	str	r5, [r3, #0]
    a712:	f7fe bf7f 	b.w	9614 <_vfprintf_r+0x84>
    a716:	9d0f      	ldr	r5, [sp, #60]	; 0x3c
    a718:	682c      	ldr	r4, [r5, #0]
    a71a:	3504      	adds	r5, #4
    a71c:	950f      	str	r5, [sp, #60]	; 0x3c
    a71e:	2500      	movs	r5, #0
    a720:	f7ff ba45 	b.w	9bae <_vfprintf_r+0x61e>
    a724:	980d      	ldr	r0, [sp, #52]	; 0x34
    a726:	4649      	mov	r1, r9
    a728:	aa2b      	add	r2, sp, #172	; 0xac
    a72a:	f006 fc25 	bl	10f78 <__sprint_r>
    a72e:	2800      	cmp	r0, #0
    a730:	f47f a844 	bne.w	97bc <_vfprintf_r+0x22c>
    a734:	9c25      	ldr	r4, [sp, #148]	; 0x94
    a736:	f8dd c0b4 	ldr.w	ip, [sp, #180]	; 0xb4
    a73a:	ae38      	add	r6, sp, #224	; 0xe0
    a73c:	e790      	b.n	a660 <_vfprintf_r+0x10d0>
    a73e:	9c09      	ldr	r4, [sp, #36]	; 0x24
    a740:	3301      	adds	r3, #1
    a742:	f044 0420 	orr.w	r4, r4, #32
    a746:	9409      	str	r4, [sp, #36]	; 0x24
    a748:	f891 8001 	ldrb.w	r8, [r1, #1]
    a74c:	f7fe bf99 	b.w	9682 <_vfprintf_r+0xf2>
    a750:	980d      	ldr	r0, [sp, #52]	; 0x34
    a752:	4649      	mov	r1, r9
    a754:	aa2b      	add	r2, sp, #172	; 0xac
    a756:	f006 fc0f 	bl	10f78 <__sprint_r>
    a75a:	2800      	cmp	r0, #0
    a75c:	f47f a82e 	bne.w	97bc <_vfprintf_r+0x22c>
    a760:	f8dd c0b4 	ldr.w	ip, [sp, #180]	; 0xb4
    a764:	ae38      	add	r6, sp, #224	; 0xe0
    a766:	e416      	b.n	9f96 <_vfprintf_r+0xa06>
    a768:	f8cd a02c 	str.w	sl, [sp, #44]	; 0x2c
    a76c:	f7fe fee0 	bl	9530 <strlen>
    a770:	950f      	str	r5, [sp, #60]	; 0x3c
    a772:	9d0b      	ldr	r5, [sp, #44]	; 0x2c
    a774:	ea20 7ce0 	bic.w	ip, r0, r0, asr #31
    a778:	4604      	mov	r4, r0
    a77a:	f8cd c030 	str.w	ip, [sp, #48]	; 0x30
    a77e:	9514      	str	r5, [sp, #80]	; 0x50
    a780:	f89d a08f 	ldrb.w	sl, [sp, #143]	; 0x8f
    a784:	f7ff b865 	b.w	9852 <_vfprintf_r+0x2c2>
    a788:	980d      	ldr	r0, [sp, #52]	; 0x34
    a78a:	4649      	mov	r1, r9
    a78c:	aa2b      	add	r2, sp, #172	; 0xac
    a78e:	f006 fbf3 	bl	10f78 <__sprint_r>
    a792:	2800      	cmp	r0, #0
    a794:	f47f a812 	bne.w	97bc <_vfprintf_r+0x22c>
    a798:	9a2d      	ldr	r2, [sp, #180]	; 0xb4
    a79a:	9b2c      	ldr	r3, [sp, #176]	; 0xb0
    a79c:	ae38      	add	r6, sp, #224	; 0xe0
    a79e:	f8dd c044 	ldr.w	ip, [sp, #68]	; 0x44
    a7a2:	3301      	adds	r3, #1
    a7a4:	9c11      	ldr	r4, [sp, #68]	; 0x44
    a7a6:	4494      	add	ip, r2
    a7a8:	2b07      	cmp	r3, #7
    a7aa:	f8cd c0b4 	str.w	ip, [sp, #180]	; 0xb4
    a7ae:	932c      	str	r3, [sp, #176]	; 0xb0
    a7b0:	6037      	str	r7, [r6, #0]
    a7b2:	6074      	str	r4, [r6, #4]
    a7b4:	f77f a922 	ble.w	99fc <_vfprintf_r+0x46c>
    a7b8:	e4b3      	b.n	a122 <_vfprintf_r+0xb92>
    a7ba:	980d      	ldr	r0, [sp, #52]	; 0x34
    a7bc:	4649      	mov	r1, r9
    a7be:	aa2b      	add	r2, sp, #172	; 0xac
    a7c0:	f006 fbda 	bl	10f78 <__sprint_r>
    a7c4:	2800      	cmp	r0, #0
    a7c6:	f47e aff9 	bne.w	97bc <_vfprintf_r+0x22c>
    a7ca:	f8dd c0b4 	ldr.w	ip, [sp, #180]	; 0xb4
    a7ce:	ae38      	add	r6, sp, #224	; 0xe0
    a7d0:	e504      	b.n	a1dc <_vfprintf_r+0xc4c>
    a7d2:	4639      	mov	r1, r7
    a7d4:	4657      	mov	r7, sl
    a7d6:	468a      	mov	sl, r1
    a7d8:	3301      	adds	r3, #1
    a7da:	4422      	add	r2, r4
    a7dc:	2b07      	cmp	r3, #7
    a7de:	922d      	str	r2, [sp, #180]	; 0xb4
    a7e0:	932c      	str	r3, [sp, #176]	; 0xb0
    a7e2:	f8c6 a000 	str.w	sl, [r6]
    a7e6:	6074      	str	r4, [r6, #4]
    a7e8:	dcce      	bgt.n	a788 <_vfprintf_r+0x11f8>
    a7ea:	3608      	adds	r6, #8
    a7ec:	e7d7      	b.n	a79e <_vfprintf_r+0x120e>
    a7ee:	980d      	ldr	r0, [sp, #52]	; 0x34
    a7f0:	4649      	mov	r1, r9
    a7f2:	aa2b      	add	r2, sp, #172	; 0xac
    a7f4:	f006 fbc0 	bl	10f78 <__sprint_r>
    a7f8:	2800      	cmp	r0, #0
    a7fa:	f47e afdf 	bne.w	97bc <_vfprintf_r+0x22c>
    a7fe:	9c25      	ldr	r4, [sp, #148]	; 0x94
    a800:	f8dd c0b4 	ldr.w	ip, [sp, #180]	; 0xb4
    a804:	ae38      	add	r6, sp, #224	; 0xe0
    a806:	e5a6      	b.n	a356 <_vfprintf_r+0xdc6>
    a808:	9c0b      	ldr	r4, [sp, #44]	; 0x2c
    a80a:	46ba      	mov	sl, r7
    a80c:	2c06      	cmp	r4, #6
    a80e:	bf28      	it	cs
    a810:	2406      	movcs	r4, #6
    a812:	ea24 7ce4 	bic.w	ip, r4, r4, asr #31
    a816:	970b      	str	r7, [sp, #44]	; 0x2c
    a818:	9714      	str	r7, [sp, #80]	; 0x50
    a81a:	950f      	str	r5, [sp, #60]	; 0x3c
    a81c:	f8cd c030 	str.w	ip, [sp, #48]	; 0x30
    a820:	4f28      	ldr	r7, [pc, #160]	; (a8c4 <_vfprintf_r+0x1334>)
    a822:	f7ff b816 	b.w	9852 <_vfprintf_r+0x2c2>
    a826:	980d      	ldr	r0, [sp, #52]	; 0x34
    a828:	4649      	mov	r1, r9
    a82a:	aa2b      	add	r2, sp, #172	; 0xac
    a82c:	f006 fba4 	bl	10f78 <__sprint_r>
    a830:	2800      	cmp	r0, #0
    a832:	f47e afc3 	bne.w	97bc <_vfprintf_r+0x22c>
    a836:	9c25      	ldr	r4, [sp, #148]	; 0x94
    a838:	9911      	ldr	r1, [sp, #68]	; 0x44
    a83a:	f8dd c0b4 	ldr.w	ip, [sp, #180]	; 0xb4
    a83e:	1b0c      	subs	r4, r1, r4
    a840:	ae38      	add	r6, sp, #224	; 0xe0
    a842:	e59d      	b.n	a380 <_vfprintf_r+0xdf0>
    a844:	f8dd c03c 	ldr.w	ip, [sp, #60]	; 0x3c
    a848:	9c10      	ldr	r4, [sp, #64]	; 0x40
    a84a:	f8dc 3000 	ldr.w	r3, [ip]
    a84e:	f10c 0c04 	add.w	ip, ip, #4
    a852:	f8cd c03c 	str.w	ip, [sp, #60]	; 0x3c
    a856:	601c      	str	r4, [r3, #0]
    a858:	f7fe bedc 	b.w	9614 <_vfprintf_r+0x84>
    a85c:	9b25      	ldr	r3, [sp, #148]	; 0x94
    a85e:	1cdc      	adds	r4, r3, #3
    a860:	db34      	blt.n	a8cc <_vfprintf_r+0x133c>
    a862:	9c0b      	ldr	r4, [sp, #44]	; 0x2c
    a864:	429c      	cmp	r4, r3
    a866:	db31      	blt.n	a8cc <_vfprintf_r+0x133c>
    a868:	9314      	str	r3, [sp, #80]	; 0x50
    a86a:	e68d      	b.n	a588 <_vfprintf_r+0xff8>
    a86c:	f04f 0a2d 	mov.w	sl, #45	; 0x2d
    a870:	f88d a08f 	strb.w	sl, [sp, #143]	; 0x8f
    a874:	f7ff bacb 	b.w	9e0e <_vfprintf_r+0x87e>
    a878:	9d12      	ldr	r5, [sp, #72]	; 0x48
    a87a:	f04f 0a2d 	mov.w	sl, #45	; 0x2d
    a87e:	9509      	str	r5, [sp, #36]	; 0x24
    a880:	2500      	movs	r5, #0
    a882:	930c      	str	r3, [sp, #48]	; 0x30
    a884:	f88d a08f 	strb.w	sl, [sp, #143]	; 0x8f
    a888:	950b      	str	r5, [sp, #44]	; 0x2c
    a88a:	f7fe bfe5 	b.w	9858 <_vfprintf_r+0x2c8>
    a88e:	4623      	mov	r3, r4
    a890:	e66a      	b.n	a568 <_vfprintf_r+0xfd8>
    a892:	783b      	ldrb	r3, [r7, #0]
    a894:	2b30      	cmp	r3, #48	; 0x30
    a896:	f000 80c0 	beq.w	aa1a <_vfprintf_r+0x148a>
    a89a:	9d25      	ldr	r5, [sp, #148]	; 0x94
    a89c:	442c      	add	r4, r5
    a89e:	e650      	b.n	a542 <_vfprintf_r+0xfb2>
    a8a0:	ea24 7ce4 	bic.w	ip, r4, r4, asr #31
    a8a4:	f8cd c030 	str.w	ip, [sp, #48]	; 0x30
    a8a8:	9c0b      	ldr	r4, [sp, #44]	; 0x2c
    a8aa:	950f      	str	r5, [sp, #60]	; 0x3c
    a8ac:	900b      	str	r0, [sp, #44]	; 0x2c
    a8ae:	9014      	str	r0, [sp, #80]	; 0x50
    a8b0:	f89d a08f 	ldrb.w	sl, [sp, #143]	; 0x8f
    a8b4:	f7fe bfcd 	b.w	9852 <_vfprintf_r+0x2c2>
    a8b8:	00014c40 	.word	0x00014c40
    a8bc:	00014c0c 	.word	0x00014c0c
    a8c0:	00014c08 	.word	0x00014c08
    a8c4:	00014c38 	.word	0x00014c38
    a8c8:	00014c44 	.word	0x00014c44
    a8cc:	f1a8 0802 	sub.w	r8, r8, #2
    a8d0:	1e59      	subs	r1, r3, #1
    a8d2:	2900      	cmp	r1, #0
    a8d4:	9125      	str	r1, [sp, #148]	; 0x94
    a8d6:	bfba      	itte	lt
    a8d8:	4249      	neglt	r1, r1
    a8da:	232d      	movlt	r3, #45	; 0x2d
    a8dc:	232b      	movge	r3, #43	; 0x2b
    a8de:	2909      	cmp	r1, #9
    a8e0:	f88d 809c 	strb.w	r8, [sp, #156]	; 0x9c
    a8e4:	f88d 309d 	strb.w	r3, [sp, #157]	; 0x9d
    a8e8:	dc62      	bgt.n	a9b0 <_vfprintf_r+0x1420>
    a8ea:	2330      	movs	r3, #48	; 0x30
    a8ec:	3130      	adds	r1, #48	; 0x30
    a8ee:	f88d 309e 	strb.w	r3, [sp, #158]	; 0x9e
    a8f2:	f88d 109f 	strb.w	r1, [sp, #159]	; 0x9f
    a8f6:	ab28      	add	r3, sp, #160	; 0xa0
    a8f8:	9d11      	ldr	r5, [sp, #68]	; 0x44
    a8fa:	aa27      	add	r2, sp, #156	; 0x9c
    a8fc:	9c11      	ldr	r4, [sp, #68]	; 0x44
    a8fe:	1a9a      	subs	r2, r3, r2
    a900:	2d01      	cmp	r5, #1
    a902:	9219      	str	r2, [sp, #100]	; 0x64
    a904:	4414      	add	r4, r2
    a906:	f340 80a4 	ble.w	aa52 <_vfprintf_r+0x14c2>
    a90a:	3401      	adds	r4, #1
    a90c:	2500      	movs	r5, #0
    a90e:	ea24 73e4 	bic.w	r3, r4, r4, asr #31
    a912:	9514      	str	r5, [sp, #80]	; 0x50
    a914:	e648      	b.n	a5a8 <_vfprintf_r+0x1018>
    a916:	980d      	ldr	r0, [sp, #52]	; 0x34
    a918:	4649      	mov	r1, r9
    a91a:	aa2b      	add	r2, sp, #172	; 0xac
    a91c:	f006 fb2c 	bl	10f78 <__sprint_r>
    a920:	2800      	cmp	r0, #0
    a922:	f47e af4b 	bne.w	97bc <_vfprintf_r+0x22c>
    a926:	9c25      	ldr	r4, [sp, #148]	; 0x94
    a928:	9a2d      	ldr	r2, [sp, #180]	; 0xb4
    a92a:	9b2c      	ldr	r3, [sp, #176]	; 0xb0
    a92c:	ae38      	add	r6, sp, #224	; 0xe0
    a92e:	e6ac      	b.n	a68a <_vfprintf_r+0x10fa>
    a930:	2400      	movs	r4, #0
    a932:	4603      	mov	r3, r0
    a934:	940b      	str	r4, [sp, #44]	; 0x2c
    a936:	f7fe bea5 	b.w	9684 <_vfprintf_r+0xf4>
    a93a:	9c14      	ldr	r4, [sp, #80]	; 0x50
    a93c:	9d11      	ldr	r5, [sp, #68]	; 0x44
    a93e:	2c00      	cmp	r4, #0
    a940:	bfd4      	ite	le
    a942:	f1c4 0402 	rsble	r4, r4, #2
    a946:	2401      	movgt	r4, #1
    a948:	442c      	add	r4, r5
    a94a:	ea24 73e4 	bic.w	r3, r4, r4, asr #31
    a94e:	f04f 0867 	mov.w	r8, #103	; 0x67
    a952:	e629      	b.n	a5a8 <_vfprintf_r+0x1018>
    a954:	9c0b      	ldr	r4, [sp, #44]	; 0x2c
    a956:	2003      	movs	r0, #3
    a958:	a925      	add	r1, sp, #148	; 0x94
    a95a:	aa26      	add	r2, sp, #152	; 0x98
    a95c:	ab29      	add	r3, sp, #164	; 0xa4
    a95e:	9401      	str	r4, [sp, #4]
    a960:	9000      	str	r0, [sp, #0]
    a962:	9203      	str	r2, [sp, #12]
    a964:	9304      	str	r3, [sp, #16]
    a966:	9102      	str	r1, [sp, #8]
    a968:	980d      	ldr	r0, [sp, #52]	; 0x34
    a96a:	e9dd 2320 	ldrd	r2, r3, [sp, #128]	; 0x80
    a96e:	f001 f983 	bl	bc78 <_dtoa_r>
    a972:	9d0b      	ldr	r5, [sp, #44]	; 0x2c
    a974:	4607      	mov	r7, r0
    a976:	e5de      	b.n	a536 <_vfprintf_r+0xfa6>
    a978:	9917      	ldr	r1, [sp, #92]	; 0x5c
    a97a:	9816      	ldr	r0, [sp, #88]	; 0x58
    a97c:	f101 4100 	add.w	r1, r1, #2147483648	; 0x80000000
    a980:	9020      	str	r0, [sp, #128]	; 0x80
    a982:	9121      	str	r1, [sp, #132]	; 0x84
    a984:	f04f 0b2d 	mov.w	fp, #45	; 0x2d
    a988:	e5ac      	b.n	a4e4 <_vfprintf_r+0xf54>
    a98a:	2406      	movs	r4, #6
    a98c:	940b      	str	r4, [sp, #44]	; 0x2c
    a98e:	e598      	b.n	a4c2 <_vfprintf_r+0xf32>
    a990:	9d25      	ldr	r5, [sp, #148]	; 0x94
    a992:	9c0b      	ldr	r4, [sp, #44]	; 0x2c
    a994:	2d00      	cmp	r5, #0
    a996:	9514      	str	r5, [sp, #80]	; 0x50
    a998:	dd78      	ble.n	aa8c <_vfprintf_r+0x14fc>
    a99a:	2c00      	cmp	r4, #0
    a99c:	d14b      	bne.n	aa36 <_vfprintf_r+0x14a6>
    a99e:	9d09      	ldr	r5, [sp, #36]	; 0x24
    a9a0:	07e8      	lsls	r0, r5, #31
    a9a2:	d448      	bmi.n	aa36 <_vfprintf_r+0x14a6>
    a9a4:	9c14      	ldr	r4, [sp, #80]	; 0x50
    a9a6:	ea24 73e4 	bic.w	r3, r4, r4, asr #31
    a9aa:	e5fd      	b.n	a5a8 <_vfprintf_r+0x1018>
    a9ac:	9b29      	ldr	r3, [sp, #164]	; 0xa4
    a9ae:	e5db      	b.n	a568 <_vfprintf_r+0xfd8>
    a9b0:	f10d 02aa 	add.w	r2, sp, #170	; 0xaa
    a9b4:	4d3e      	ldr	r5, [pc, #248]	; (aab0 <_vfprintf_r+0x1520>)
    a9b6:	17cb      	asrs	r3, r1, #31
    a9b8:	fb85 5001 	smull	r5, r0, r5, r1
    a9bc:	ebc3 00a0 	rsb	r0, r3, r0, asr #2
    a9c0:	eb00 0380 	add.w	r3, r0, r0, lsl #2
    a9c4:	eba1 0143 	sub.w	r1, r1, r3, lsl #1
    a9c8:	2809      	cmp	r0, #9
    a9ca:	4613      	mov	r3, r2
    a9cc:	f101 0230 	add.w	r2, r1, #48	; 0x30
    a9d0:	701a      	strb	r2, [r3, #0]
    a9d2:	4601      	mov	r1, r0
    a9d4:	f103 32ff 	add.w	r2, r3, #4294967295
    a9d8:	dcec      	bgt.n	a9b4 <_vfprintf_r+0x1424>
    a9da:	f100 0130 	add.w	r1, r0, #48	; 0x30
    a9de:	f10d 04ab 	add.w	r4, sp, #171	; 0xab
    a9e2:	b2c9      	uxtb	r1, r1
    a9e4:	4294      	cmp	r4, r2
    a9e6:	f803 1c01 	strb.w	r1, [r3, #-1]
    a9ea:	d95d      	bls.n	aaa8 <_vfprintf_r+0x1518>
    a9ec:	f10d 009d 	add.w	r0, sp, #157	; 0x9d
    a9f0:	461a      	mov	r2, r3
    a9f2:	e001      	b.n	a9f8 <_vfprintf_r+0x1468>
    a9f4:	f812 1b01 	ldrb.w	r1, [r2], #1
    a9f8:	42a2      	cmp	r2, r4
    a9fa:	f800 1f01 	strb.w	r1, [r0, #1]!
    a9fe:	d1f9      	bne.n	a9f4 <_vfprintf_r+0x1464>
    aa00:	f50d 7c90 	add.w	ip, sp, #288	; 0x120
    aa04:	ebc3 034c 	rsb	r3, r3, ip, lsl #1
    aa08:	3bf6      	subs	r3, #246	; 0xf6
    aa0a:	e775      	b.n	a8f8 <_vfprintf_r+0x1368>
    aa0c:	9d0b      	ldr	r5, [sp, #44]	; 0x2c
    aa0e:	2003      	movs	r0, #3
    aa10:	a925      	add	r1, sp, #148	; 0x94
    aa12:	aa26      	add	r2, sp, #152	; 0x98
    aa14:	ab29      	add	r3, sp, #164	; 0xa4
    aa16:	9501      	str	r5, [sp, #4]
    aa18:	e7a2      	b.n	a960 <_vfprintf_r+0x13d0>
    aa1a:	e9dd 0120 	ldrd	r0, r1, [sp, #128]	; 0x80
    aa1e:	2200      	movs	r2, #0
    aa20:	2300      	movs	r3, #0
    aa22:	f009 fce3 	bl	143ec <__aeabi_dcmpeq>
    aa26:	2800      	cmp	r0, #0
    aa28:	f47f af37 	bne.w	a89a <_vfprintf_r+0x130a>
    aa2c:	f1c5 0501 	rsb	r5, r5, #1
    aa30:	9525      	str	r5, [sp, #148]	; 0x94
    aa32:	442c      	add	r4, r5
    aa34:	e585      	b.n	a542 <_vfprintf_r+0xfb2>
    aa36:	9d0b      	ldr	r5, [sp, #44]	; 0x2c
    aa38:	1c6c      	adds	r4, r5, #1
    aa3a:	9d14      	ldr	r5, [sp, #80]	; 0x50
    aa3c:	442c      	add	r4, r5
    aa3e:	ea24 73e4 	bic.w	r3, r4, r4, asr #31
    aa42:	e5b1      	b.n	a5a8 <_vfprintf_r+0x1018>
    aa44:	9d14      	ldr	r5, [sp, #80]	; 0x50
    aa46:	f04f 0867 	mov.w	r8, #103	; 0x67
    aa4a:	1c6c      	adds	r4, r5, #1
    aa4c:	ea24 73e4 	bic.w	r3, r4, r4, asr #31
    aa50:	e5aa      	b.n	a5a8 <_vfprintf_r+0x1018>
    aa52:	f8dd c024 	ldr.w	ip, [sp, #36]	; 0x24
    aa56:	f01c 0301 	ands.w	r3, ip, #1
    aa5a:	f47f af56 	bne.w	a90a <_vfprintf_r+0x137a>
    aa5e:	9314      	str	r3, [sp, #80]	; 0x50
    aa60:	ea24 73e4 	bic.w	r3, r4, r4, asr #31
    aa64:	e5a0      	b.n	a5a8 <_vfprintf_r+0x1018>
    aa66:	9d0f      	ldr	r5, [sp, #60]	; 0x3c
    aa68:	f8dd c03c 	ldr.w	ip, [sp, #60]	; 0x3c
    aa6c:	682d      	ldr	r5, [r5, #0]
    aa6e:	f10c 0104 	add.w	r1, ip, #4
    aa72:	2d00      	cmp	r5, #0
    aa74:	f893 8001 	ldrb.w	r8, [r3, #1]
    aa78:	950b      	str	r5, [sp, #44]	; 0x2c
    aa7a:	910f      	str	r1, [sp, #60]	; 0x3c
    aa7c:	4603      	mov	r3, r0
    aa7e:	f6be ae00 	bge.w	9682 <_vfprintf_r+0xf2>
    aa82:	f04f 34ff 	mov.w	r4, #4294967295
    aa86:	940b      	str	r4, [sp, #44]	; 0x2c
    aa88:	f7fe bdfb 	b.w	9682 <_vfprintf_r+0xf2>
    aa8c:	b92c      	cbnz	r4, aa9a <_vfprintf_r+0x150a>
    aa8e:	9d09      	ldr	r5, [sp, #36]	; 0x24
    aa90:	07e9      	lsls	r1, r5, #31
    aa92:	d402      	bmi.n	aa9a <_vfprintf_r+0x150a>
    aa94:	2301      	movs	r3, #1
    aa96:	461c      	mov	r4, r3
    aa98:	e586      	b.n	a5a8 <_vfprintf_r+0x1018>
    aa9a:	9d0b      	ldr	r5, [sp, #44]	; 0x2c
    aa9c:	1cac      	adds	r4, r5, #2
    aa9e:	ea24 73e4 	bic.w	r3, r4, r4, asr #31
    aaa2:	e581      	b.n	a5a8 <_vfprintf_r+0x1018>
    aaa4:	9b25      	ldr	r3, [sp, #148]	; 0x94
    aaa6:	e713      	b.n	a8d0 <_vfprintf_r+0x1340>
    aaa8:	f10d 039e 	add.w	r3, sp, #158	; 0x9e
    aaac:	e724      	b.n	a8f8 <_vfprintf_r+0x1368>
    aaae:	bf00      	nop
    aab0:	66666667 	.word	0x66666667

0000aab4 <vfprintf>:
    aab4:	b430      	push	{r4, r5}
    aab6:	4c04      	ldr	r4, [pc, #16]	; (aac8 <vfprintf+0x14>)
    aab8:	460d      	mov	r5, r1
    aaba:	4613      	mov	r3, r2
    aabc:	4601      	mov	r1, r0
    aabe:	462a      	mov	r2, r5
    aac0:	6820      	ldr	r0, [r4, #0]
    aac2:	bc30      	pop	{r4, r5}
    aac4:	f7fe bd64 	b.w	9590 <_vfprintf_r>
    aac8:	0001d5e8 	.word	0x0001d5e8

0000aacc <__sbprintf>:
    aacc:	e92d 47f0 	stmdb	sp!, {r4, r5, r6, r7, r8, r9, sl, lr}
    aad0:	6e4f      	ldr	r7, [r1, #100]	; 0x64
    aad2:	f5ad 6d8d 	sub.w	sp, sp, #1128	; 0x468
    aad6:	4688      	mov	r8, r1
    aad8:	9719      	str	r7, [sp, #100]	; 0x64
    aada:	f8d8 701c 	ldr.w	r7, [r8, #28]
    aade:	f8b1 a00c 	ldrh.w	sl, [r1, #12]
    aae2:	f8b1 900e 	ldrh.w	r9, [r1, #14]
    aae6:	9707      	str	r7, [sp, #28]
    aae8:	f8d8 7024 	ldr.w	r7, [r8, #36]	; 0x24
    aaec:	ac1a      	add	r4, sp, #104	; 0x68
    aaee:	f44f 6580 	mov.w	r5, #1024	; 0x400
    aaf2:	f02a 0a02 	bic.w	sl, sl, #2
    aaf6:	2600      	movs	r6, #0
    aaf8:	4669      	mov	r1, sp
    aafa:	9400      	str	r4, [sp, #0]
    aafc:	9404      	str	r4, [sp, #16]
    aafe:	9502      	str	r5, [sp, #8]
    ab00:	9505      	str	r5, [sp, #20]
    ab02:	f8ad a00c 	strh.w	sl, [sp, #12]
    ab06:	f8ad 900e 	strh.w	r9, [sp, #14]
    ab0a:	9709      	str	r7, [sp, #36]	; 0x24
    ab0c:	9606      	str	r6, [sp, #24]
    ab0e:	4605      	mov	r5, r0
    ab10:	f7fe fd3e 	bl	9590 <_vfprintf_r>
    ab14:	1e04      	subs	r4, r0, #0
    ab16:	db07      	blt.n	ab28 <__sbprintf+0x5c>
    ab18:	4628      	mov	r0, r5
    ab1a:	4669      	mov	r1, sp
    ab1c:	f002 f8b4 	bl	cc88 <_fflush_r>
    ab20:	42b0      	cmp	r0, r6
    ab22:	bf18      	it	ne
    ab24:	f04f 34ff 	movne.w	r4, #4294967295
    ab28:	f8bd 300c 	ldrh.w	r3, [sp, #12]
    ab2c:	065b      	lsls	r3, r3, #25
    ab2e:	d505      	bpl.n	ab3c <__sbprintf+0x70>
    ab30:	f8b8 300c 	ldrh.w	r3, [r8, #12]
    ab34:	f043 0340 	orr.w	r3, r3, #64	; 0x40
    ab38:	f8a8 300c 	strh.w	r3, [r8, #12]
    ab3c:	4620      	mov	r0, r4
    ab3e:	f50d 6d8d 	add.w	sp, sp, #1128	; 0x468
    ab42:	e8bd 87f0 	ldmia.w	sp!, {r4, r5, r6, r7, r8, r9, sl, pc}
    ab46:	bf00      	nop

0000ab48 <__svfscanf_r>:
    ab48:	e92d 4ff0 	stmdb	sp!, {r4, r5, r6, r7, r8, r9, sl, fp, lr}
    ab4c:	460d      	mov	r5, r1
    ab4e:	8989      	ldrh	r1, [r1, #12]
    ab50:	f5ad 7d2f 	sub.w	sp, sp, #700	; 0x2bc
    ab54:	048c      	lsls	r4, r1, #18
    ab56:	900e      	str	r0, [sp, #56]	; 0x38
    ab58:	9306      	str	r3, [sp, #24]
    ab5a:	d406      	bmi.n	ab6a <__svfscanf_r+0x22>
    ab5c:	6e6b      	ldr	r3, [r5, #100]	; 0x64
    ab5e:	f441 5100 	orr.w	r1, r1, #8192	; 0x2000
    ab62:	f423 5300 	bic.w	r3, r3, #8192	; 0x2000
    ab66:	81a9      	strh	r1, [r5, #12]
    ab68:	666b      	str	r3, [r5, #100]	; 0x64
    ab6a:	4692      	mov	sl, r2
    ab6c:	f81a 3b01 	ldrb.w	r3, [sl], #1
    ab70:	2400      	movs	r4, #0
    ab72:	9409      	str	r4, [sp, #36]	; 0x24
    ab74:	940c      	str	r4, [sp, #48]	; 0x30
    ab76:	46a1      	mov	r9, r4
    ab78:	940b      	str	r4, [sp, #44]	; 0x2c
    ab7a:	f8df 83e4 	ldr.w	r8, [pc, #996]	; af60 <__svfscanf_r+0x418>
    ab7e:	9e0e      	ldr	r6, [sp, #56]	; 0x38
    ab80:	9313      	str	r3, [sp, #76]	; 0x4c
    ab82:	b343      	cbz	r3, abd6 <__svfscanf_r+0x8e>
    ab84:	f8d8 1000 	ldr.w	r1, [r8]
    ab88:	18c8      	adds	r0, r1, r3
    ab8a:	7840      	ldrb	r0, [r0, #1]
    ab8c:	f000 0008 	and.w	r0, r0, #8
    ab90:	f000 07ff 	and.w	r7, r0, #255	; 0xff
    ab94:	b320      	cbz	r0, abe0 <__svfscanf_r+0x98>
    ab96:	686a      	ldr	r2, [r5, #4]
    ab98:	e00e      	b.n	abb8 <__svfscanf_r+0x70>
    ab9a:	682b      	ldr	r3, [r5, #0]
    ab9c:	f8d8 2000 	ldr.w	r2, [r8]
    aba0:	7819      	ldrb	r1, [r3, #0]
    aba2:	3301      	adds	r3, #1
    aba4:	440a      	add	r2, r1
    aba6:	7852      	ldrb	r2, [r2, #1]
    aba8:	0710      	lsls	r0, r2, #28
    abaa:	d50d      	bpl.n	abc8 <__svfscanf_r+0x80>
    abac:	686a      	ldr	r2, [r5, #4]
    abae:	f109 0901 	add.w	r9, r9, #1
    abb2:	3a01      	subs	r2, #1
    abb4:	602b      	str	r3, [r5, #0]
    abb6:	606a      	str	r2, [r5, #4]
    abb8:	2a00      	cmp	r2, #0
    abba:	dcee      	bgt.n	ab9a <__svfscanf_r+0x52>
    abbc:	4630      	mov	r0, r6
    abbe:	4629      	mov	r1, r5
    abc0:	f003 f978 	bl	deb4 <__srefill_r>
    abc4:	2800      	cmp	r0, #0
    abc6:	d0e8      	beq.n	ab9a <__svfscanf_r+0x52>
    abc8:	4652      	mov	r2, sl
    abca:	4692      	mov	sl, r2
    abcc:	f81a 3b01 	ldrb.w	r3, [sl], #1
    abd0:	9313      	str	r3, [sp, #76]	; 0x4c
    abd2:	2b00      	cmp	r3, #0
    abd4:	d1d6      	bne.n	ab84 <__svfscanf_r+0x3c>
    abd6:	980b      	ldr	r0, [sp, #44]	; 0x2c
    abd8:	f50d 7d2f 	add.w	sp, sp, #700	; 0x2bc
    abdc:	e8bd 8ff0 	ldmia.w	sp!, {r4, r5, r6, r7, r8, r9, sl, fp, pc}
    abe0:	2b25      	cmp	r3, #37	; 0x25
    abe2:	f040 8084 	bne.w	acee <__svfscanf_r+0x1a6>
    abe6:	7853      	ldrb	r3, [r2, #1]
    abe8:	463c      	mov	r4, r7
    abea:	f10a 0201 	add.w	r2, sl, #1
    abee:	2b78      	cmp	r3, #120	; 0x78
    abf0:	f200 82e4 	bhi.w	b1bc <__svfscanf_r+0x674>
    abf4:	e8df f013 	tbh	[pc, r3, lsl #1]
    abf8:	02e2008f 	.word	0x02e2008f
    abfc:	02e202e2 	.word	0x02e202e2
    ac00:	02e202e2 	.word	0x02e202e2
    ac04:	02e202e2 	.word	0x02e202e2
    ac08:	02e202e2 	.word	0x02e202e2
    ac0c:	02e202e2 	.word	0x02e202e2
    ac10:	02e202e2 	.word	0x02e202e2
    ac14:	02e202e2 	.word	0x02e202e2
    ac18:	02e202e2 	.word	0x02e202e2
    ac1c:	02e202e2 	.word	0x02e202e2
    ac20:	02e202e2 	.word	0x02e202e2
    ac24:	02e202e2 	.word	0x02e202e2
    ac28:	02e202e2 	.word	0x02e202e2
    ac2c:	02e202e2 	.word	0x02e202e2
    ac30:	02e202e2 	.word	0x02e202e2
    ac34:	02e202e2 	.word	0x02e202e2
    ac38:	02e202e2 	.word	0x02e202e2
    ac3c:	02e202e2 	.word	0x02e202e2
    ac40:	007902e2 	.word	0x007902e2
    ac44:	02e202e2 	.word	0x02e202e2
    ac48:	02e202e2 	.word	0x02e202e2
    ac4c:	02e20225 	.word	0x02e20225
    ac50:	02e202e2 	.word	0x02e202e2
    ac54:	02e202e2 	.word	0x02e202e2
    ac58:	024e024e 	.word	0x024e024e
    ac5c:	024e024e 	.word	0x024e024e
    ac60:	024e024e 	.word	0x024e024e
    ac64:	024e024e 	.word	0x024e024e
    ac68:	024e024e 	.word	0x024e024e
    ac6c:	02e202e2 	.word	0x02e202e2
    ac70:	02e202e2 	.word	0x02e202e2
    ac74:	02e202e2 	.word	0x02e202e2
    ac78:	02e202e2 	.word	0x02e202e2
    ac7c:	02e202e2 	.word	0x02e202e2
    ac80:	0272022b 	.word	0x0272022b
    ac84:	027202e2 	.word	0x027202e2
    ac88:	02e202e2 	.word	0x02e202e2
    ac8c:	02e202e2 	.word	0x02e202e2
    ac90:	02e2026c 	.word	0x02e2026c
    ac94:	026202e2 	.word	0x026202e2
    ac98:	02e202e2 	.word	0x02e202e2
    ac9c:	02e202e2 	.word	0x02e202e2
    aca0:	02e202e2 	.word	0x02e202e2
    aca4:	02e202e2 	.word	0x02e202e2
    aca8:	02e20258 	.word	0x02e20258
    acac:	029202e2 	.word	0x029202e2
    acb0:	02e202e2 	.word	0x02e202e2
    acb4:	02e202e2 	.word	0x02e202e2
    acb8:	02e202e2 	.word	0x02e202e2
    acbc:	028c02e2 	.word	0x028c02e2
    acc0:	0272029d 	.word	0x0272029d
    acc4:	02720272 	.word	0x02720272
    acc8:	00950286 	.word	0x00950286
    accc:	02e202e2 	.word	0x02e202e2
    acd0:	02e202b5 	.word	0x02e202b5
    acd4:	02760278 	.word	0x02760278
    acd8:	02e202ab 	.word	0x02e202ab
    acdc:	02a702e2 	.word	0x02a702e2
    ace0:	029f02e2 	.word	0x029f02e2
    ace4:	02e202e2 	.word	0x02e202e2
    ace8:	0258      	.short	0x0258
    acea:	9207      	str	r2, [sp, #28]
    acec:	4692      	mov	sl, r2
    acee:	686b      	ldr	r3, [r5, #4]
    acf0:	2b00      	cmp	r3, #0
    acf2:	f340 8556 	ble.w	b7a2 <__svfscanf_r+0xc5a>
    acf6:	682b      	ldr	r3, [r5, #0]
    acf8:	f81a 2c01 	ldrb.w	r2, [sl, #-1]
    acfc:	7819      	ldrb	r1, [r3, #0]
    acfe:	4291      	cmp	r1, r2
    ad00:	f47f af69 	bne.w	abd6 <__svfscanf_r+0x8e>
    ad04:	686a      	ldr	r2, [r5, #4]
    ad06:	3301      	adds	r3, #1
    ad08:	3a01      	subs	r2, #1
    ad0a:	606a      	str	r2, [r5, #4]
    ad0c:	602b      	str	r3, [r5, #0]
    ad0e:	f109 0901 	add.w	r9, r9, #1
    ad12:	4652      	mov	r2, sl
    ad14:	e759      	b.n	abca <__svfscanf_r+0x82>
    ad16:	f04f 30ff 	mov.w	r0, #4294967295
    ad1a:	f50d 7d2f 	add.w	sp, sp, #700	; 0x2bc
    ad1e:	e8bd 8ff0 	ldmia.w	sp!, {r4, r5, r6, r7, r8, r9, sl, fp, pc}
    ad22:	9207      	str	r2, [sp, #28]
    ad24:	4a8d      	ldr	r2, [pc, #564]	; (af5c <__svfscanf_r+0x414>)
    ad26:	2300      	movs	r3, #0
    ad28:	9209      	str	r2, [sp, #36]	; 0x24
    ad2a:	930c      	str	r3, [sp, #48]	; 0x30
    ad2c:	f04f 0a03 	mov.w	sl, #3
    ad30:	686b      	ldr	r3, [r5, #4]
    ad32:	2b00      	cmp	r3, #0
    ad34:	f340 8198 	ble.w	b068 <__svfscanf_r+0x520>
    ad38:	0679      	lsls	r1, r7, #25
    ad3a:	d512      	bpl.n	ad62 <__svfscanf_r+0x21a>
    ad3c:	f10a 3aff 	add.w	sl, sl, #4294967295
    ad40:	f1ba 0f03 	cmp.w	sl, #3
    ad44:	f200 80b7 	bhi.w	aeb6 <__svfscanf_r+0x36e>
    ad48:	e8df f01a 	tbh	[pc, sl, lsl #1]
    ad4c:	008e00da 	.word	0x008e00da
    ad50:	0243001e 	.word	0x0243001e
    ad54:	4630      	mov	r0, r6
    ad56:	4629      	mov	r1, r5
    ad58:	f003 f8ac 	bl	deb4 <__srefill_r>
    ad5c:	2800      	cmp	r0, #0
    ad5e:	f040 818a 	bne.w	b076 <__svfscanf_r+0x52e>
    ad62:	f8d8 1000 	ldr.w	r1, [r8]
    ad66:	682b      	ldr	r3, [r5, #0]
    ad68:	e000      	b.n	ad6c <__svfscanf_r+0x224>
    ad6a:	602b      	str	r3, [r5, #0]
    ad6c:	781a      	ldrb	r2, [r3, #0]
    ad6e:	3301      	adds	r3, #1
    ad70:	440a      	add	r2, r1
    ad72:	7852      	ldrb	r2, [r2, #1]
    ad74:	0712      	lsls	r2, r2, #28
    ad76:	d5e1      	bpl.n	ad3c <__svfscanf_r+0x1f4>
    ad78:	686a      	ldr	r2, [r5, #4]
    ad7a:	f109 0901 	add.w	r9, r9, #1
    ad7e:	3a01      	subs	r2, #1
    ad80:	2a00      	cmp	r2, #0
    ad82:	606a      	str	r2, [r5, #4]
    ad84:	dcf1      	bgt.n	ad6a <__svfscanf_r+0x222>
    ad86:	e7e5      	b.n	ad54 <__svfscanf_r+0x20c>
    ad88:	1e63      	subs	r3, r4, #1
    ad8a:	f5b3 7fae 	cmp.w	r3, #348	; 0x15c
    ad8e:	bf86      	itte	hi
    ad90:	f46f 71ae 	mvnhi.w	r1, #348	; 0x15c
    ad94:	1863      	addhi	r3, r4, r1
    ad96:	2300      	movls	r3, #0
    ad98:	f04f 0b00 	mov.w	fp, #0
    ad9c:	f50d 7cac 	add.w	ip, sp, #344	; 0x158
    ada0:	9308      	str	r3, [sp, #32]
    ada2:	465b      	mov	r3, fp
    ada4:	46b3      	mov	fp, r6
    ada6:	9e0c      	ldr	r6, [sp, #48]	; 0x30
    ada8:	f8cd c014 	str.w	ip, [sp, #20]
    adac:	46e2      	mov	sl, ip
    adae:	bf88      	it	hi
    adb0:	f240 145d 	movwhi	r4, #349	; 0x15d
    adb4:	f447 6758 	orr.w	r7, r7, #3456	; 0xd80
    adb8:	46cc      	mov	ip, r9
    adba:	6828      	ldr	r0, [r5, #0]
    adbc:	7801      	ldrb	r1, [r0, #0]
    adbe:	f1a1 022b 	sub.w	r2, r1, #43	; 0x2b
    adc2:	2a4d      	cmp	r2, #77	; 0x4d
    adc4:	f200 80e2 	bhi.w	af8c <__svfscanf_r+0x444>
    adc8:	e8df f012 	tbh	[pc, r2, lsl #1]
    adcc:	00e00125 	.word	0x00e00125
    add0:	00e00125 	.word	0x00e00125
    add4:	00fd00e0 	.word	0x00fd00e0
    add8:	00cc00cc 	.word	0x00cc00cc
    addc:	00cc00cc 	.word	0x00cc00cc
    ade0:	00cc00cc 	.word	0x00cc00cc
    ade4:	013500cc 	.word	0x013500cc
    ade8:	00e00135 	.word	0x00e00135
    adec:	00e000e0 	.word	0x00e000e0
    adf0:	00e000e0 	.word	0x00e000e0
    adf4:	00e000e0 	.word	0x00e000e0
    adf8:	01200120 	.word	0x01200120
    adfc:	01200120 	.word	0x01200120
    ae00:	01200120 	.word	0x01200120
    ae04:	00e000e0 	.word	0x00e000e0
    ae08:	00e000e0 	.word	0x00e000e0
    ae0c:	00e000e0 	.word	0x00e000e0
    ae10:	00e000e0 	.word	0x00e000e0
    ae14:	00e000e0 	.word	0x00e000e0
    ae18:	00e000e0 	.word	0x00e000e0
    ae1c:	00e000e0 	.word	0x00e000e0
    ae20:	00e000e0 	.word	0x00e000e0
    ae24:	012a00e0 	.word	0x012a00e0
    ae28:	00e000e0 	.word	0x00e000e0
    ae2c:	00e000e0 	.word	0x00e000e0
    ae30:	00e000e0 	.word	0x00e000e0
    ae34:	00e000e0 	.word	0x00e000e0
    ae38:	01200120 	.word	0x01200120
    ae3c:	01200120 	.word	0x01200120
    ae40:	01200120 	.word	0x01200120
    ae44:	00e000e0 	.word	0x00e000e0
    ae48:	00e000e0 	.word	0x00e000e0
    ae4c:	00e000e0 	.word	0x00e000e0
    ae50:	00e000e0 	.word	0x00e000e0
    ae54:	00e000e0 	.word	0x00e000e0
    ae58:	00e000e0 	.word	0x00e000e0
    ae5c:	00e000e0 	.word	0x00e000e0
    ae60:	00e000e0 	.word	0x00e000e0
    ae64:	012a00e0 	.word	0x012a00e0
    ae68:	2c00      	cmp	r4, #0
    ae6a:	bf08      	it	eq
    ae6c:	f04f 34ff 	moveq.w	r4, #4294967295
    ae70:	f017 0301 	ands.w	r3, r7, #1
    ae74:	f040 817e 	bne.w	b174 <__svfscanf_r+0x62c>
    ae78:	06f9      	lsls	r1, r7, #27
    ae7a:	f140 838f 	bpl.w	b59c <__svfscanf_r+0xa54>
    ae7e:	461f      	mov	r7, r3
    ae80:	f8d8 1000 	ldr.w	r1, [r8]
    ae84:	682b      	ldr	r3, [r5, #0]
    ae86:	781a      	ldrb	r2, [r3, #0]
    ae88:	3301      	adds	r3, #1
    ae8a:	440a      	add	r2, r1
    ae8c:	7852      	ldrb	r2, [r2, #1]
    ae8e:	0712      	lsls	r2, r2, #28
    ae90:	d431      	bmi.n	aef6 <__svfscanf_r+0x3ae>
    ae92:	686a      	ldr	r2, [r5, #4]
    ae94:	3701      	adds	r7, #1
    ae96:	3a01      	subs	r2, #1
    ae98:	42bc      	cmp	r4, r7
    ae9a:	602b      	str	r3, [r5, #0]
    ae9c:	606a      	str	r2, [r5, #4]
    ae9e:	d02a      	beq.n	aef6 <__svfscanf_r+0x3ae>
    aea0:	2a00      	cmp	r2, #0
    aea2:	dcf0      	bgt.n	ae86 <__svfscanf_r+0x33e>
    aea4:	4630      	mov	r0, r6
    aea6:	4629      	mov	r1, r5
    aea8:	f003 f804 	bl	deb4 <__srefill_r>
    aeac:	bb18      	cbnz	r0, aef6 <__svfscanf_r+0x3ae>
    aeae:	f8d8 1000 	ldr.w	r1, [r8]
    aeb2:	682b      	ldr	r3, [r5, #0]
    aeb4:	e7e7      	b.n	ae86 <__svfscanf_r+0x33e>
    aeb6:	2c00      	cmp	r4, #0
    aeb8:	bf08      	it	eq
    aeba:	2401      	moveq	r4, #1
    aebc:	f017 0301 	ands.w	r3, r7, #1
    aec0:	f040 839e 	bne.w	b600 <__svfscanf_r+0xab8>
    aec4:	06f9      	lsls	r1, r7, #27
    aec6:	f140 8453 	bpl.w	b770 <__svfscanf_r+0xc28>
    aeca:	461f      	mov	r7, r3
    aecc:	e008      	b.n	aee0 <__svfscanf_r+0x398>
    aece:	441a      	add	r2, r3
    aed0:	602a      	str	r2, [r5, #0]
    aed2:	441f      	add	r7, r3
    aed4:	1ae4      	subs	r4, r4, r3
    aed6:	f002 ffed 	bl	deb4 <__srefill_r>
    aeda:	2800      	cmp	r0, #0
    aedc:	f040 8440 	bne.w	b760 <__svfscanf_r+0xc18>
    aee0:	686b      	ldr	r3, [r5, #4]
    aee2:	4630      	mov	r0, r6
    aee4:	42a3      	cmp	r3, r4
    aee6:	4629      	mov	r1, r5
    aee8:	682a      	ldr	r2, [r5, #0]
    aeea:	dbf0      	blt.n	aece <__svfscanf_r+0x386>
    aeec:	1b1b      	subs	r3, r3, r4
    aeee:	4422      	add	r2, r4
    aef0:	606b      	str	r3, [r5, #4]
    aef2:	4427      	add	r7, r4
    aef4:	602a      	str	r2, [r5, #0]
    aef6:	f8dd a01c 	ldr.w	sl, [sp, #28]
    aefa:	44b9      	add	r9, r7
    aefc:	4652      	mov	r2, sl
    aefe:	e664      	b.n	abca <__svfscanf_r+0x82>
    af00:	2c00      	cmp	r4, #0
    af02:	bf08      	it	eq
    af04:	f04f 34ff 	moveq.w	r4, #4294967295
    af08:	06fa      	lsls	r2, r7, #27
    af0a:	f140 8314 	bpl.w	b536 <__svfscanf_r+0x9ee>
    af0e:	682b      	ldr	r3, [r5, #0]
    af10:	2700      	movs	r7, #0
    af12:	f10d 0b58 	add.w	fp, sp, #88	; 0x58
    af16:	781a      	ldrb	r2, [r3, #0]
    af18:	3301      	adds	r3, #1
    af1a:	f81b 2002 	ldrb.w	r2, [fp, r2]
    af1e:	b1aa      	cbz	r2, af4c <__svfscanf_r+0x404>
    af20:	686a      	ldr	r2, [r5, #4]
    af22:	3701      	adds	r7, #1
    af24:	3a01      	subs	r2, #1
    af26:	42bc      	cmp	r4, r7
    af28:	602b      	str	r3, [r5, #0]
    af2a:	606a      	str	r2, [r5, #4]
    af2c:	d0e3      	beq.n	aef6 <__svfscanf_r+0x3ae>
    af2e:	2a00      	cmp	r2, #0
    af30:	dcf1      	bgt.n	af16 <__svfscanf_r+0x3ce>
    af32:	4630      	mov	r0, r6
    af34:	4629      	mov	r1, r5
    af36:	f002 ffbd 	bl	deb4 <__srefill_r>
    af3a:	2800      	cmp	r0, #0
    af3c:	d1db      	bne.n	aef6 <__svfscanf_r+0x3ae>
    af3e:	682b      	ldr	r3, [r5, #0]
    af40:	781a      	ldrb	r2, [r3, #0]
    af42:	3301      	adds	r3, #1
    af44:	f81b 2002 	ldrb.w	r2, [fp, r2]
    af48:	2a00      	cmp	r2, #0
    af4a:	d1e9      	bne.n	af20 <__svfscanf_r+0x3d8>
    af4c:	2f00      	cmp	r7, #0
    af4e:	f43f ae42 	beq.w	abd6 <__svfscanf_r+0x8e>
    af52:	44b9      	add	r9, r7
    af54:	f8dd a01c 	ldr.w	sl, [sp, #28]
    af58:	e7d0      	b.n	aefc <__svfscanf_r+0x3b4>
    af5a:	bf00      	nop
    af5c:	0000f321 	.word	0x0000f321
    af60:	0001d9fc 	.word	0x0001d9fc
    af64:	f8df 9364 	ldr.w	r9, [pc, #868]	; b2cc <__svfscanf_r+0x784>
    af68:	f427 6738 	bic.w	r7, r7, #2944	; 0xb80
    af6c:	f939 6016 	ldrsh.w	r6, [r9, r6, lsl #1]
    af70:	686a      	ldr	r2, [r5, #4]
    af72:	f88a 1000 	strb.w	r1, [sl]
    af76:	3a01      	subs	r2, #1
    af78:	2a00      	cmp	r2, #0
    af7a:	f10a 0a01 	add.w	sl, sl, #1
    af7e:	606a      	str	r2, [r5, #4]
    af80:	dd37      	ble.n	aff2 <__svfscanf_r+0x4aa>
    af82:	3001      	adds	r0, #1
    af84:	6028      	str	r0, [r5, #0]
    af86:	3c01      	subs	r4, #1
    af88:	f47f af17 	bne.w	adba <__svfscanf_r+0x272>
    af8c:	05f9      	lsls	r1, r7, #23
    af8e:	960c      	str	r6, [sp, #48]	; 0x30
    af90:	46e1      	mov	r9, ip
    af92:	465e      	mov	r6, fp
    af94:	469b      	mov	fp, r3
    af96:	d508      	bpl.n	afaa <__svfscanf_r+0x462>
    af98:	9c05      	ldr	r4, [sp, #20]
    af9a:	45a2      	cmp	sl, r4
    af9c:	f200 8409 	bhi.w	b7b2 <__svfscanf_r+0xc6a>
    afa0:	f8dd c014 	ldr.w	ip, [sp, #20]
    afa4:	45e2      	cmp	sl, ip
    afa6:	f43f ae16 	beq.w	abd6 <__svfscanf_r+0x8e>
    afaa:	f017 0410 	ands.w	r4, r7, #16
    afae:	f000 8371 	beq.w	b694 <__svfscanf_r+0xb4c>
    afb2:	f8dd c014 	ldr.w	ip, [sp, #20]
    afb6:	ebcc 0a0a 	rsb	sl, ip, sl
    afba:	44d3      	add	fp, sl
    afbc:	f8dd a01c 	ldr.w	sl, [sp, #28]
    afc0:	44d9      	add	r9, fp
    afc2:	4652      	mov	r2, sl
    afc4:	e601      	b.n	abca <__svfscanf_r+0x82>
    afc6:	053a      	lsls	r2, r7, #20
    afc8:	d5d2      	bpl.n	af70 <__svfscanf_r+0x428>
    afca:	b916      	cbnz	r6, afd2 <__svfscanf_r+0x48a>
    afcc:	f447 7700 	orr.w	r7, r7, #512	; 0x200
    afd0:	2608      	movs	r6, #8
    afd2:	057a      	lsls	r2, r7, #21
    afd4:	f100 837c 	bmi.w	b6d0 <__svfscanf_r+0xb88>
    afd8:	9a08      	ldr	r2, [sp, #32]
    afda:	f427 7760 	bic.w	r7, r7, #896	; 0x380
    afde:	b112      	cbz	r2, afe6 <__svfscanf_r+0x49e>
    afe0:	3a01      	subs	r2, #1
    afe2:	9208      	str	r2, [sp, #32]
    afe4:	3401      	adds	r4, #1
    afe6:	686a      	ldr	r2, [r5, #4]
    afe8:	3301      	adds	r3, #1
    afea:	3a01      	subs	r2, #1
    afec:	2a00      	cmp	r2, #0
    afee:	606a      	str	r2, [r5, #4]
    aff0:	dcc7      	bgt.n	af82 <__svfscanf_r+0x43a>
    aff2:	4658      	mov	r0, fp
    aff4:	4629      	mov	r1, r5
    aff6:	9303      	str	r3, [sp, #12]
    aff8:	f8cd c010 	str.w	ip, [sp, #16]
    affc:	f002 ff5a 	bl	deb4 <__srefill_r>
    b000:	9b03      	ldr	r3, [sp, #12]
    b002:	f8dd c010 	ldr.w	ip, [sp, #16]
    b006:	2800      	cmp	r0, #0
    b008:	d0bd      	beq.n	af86 <__svfscanf_r+0x43e>
    b00a:	e7bf      	b.n	af8c <__svfscanf_r+0x444>
    b00c:	2e0a      	cmp	r6, #10
    b00e:	ddbd      	ble.n	af8c <__svfscanf_r+0x444>
    b010:	f427 6738 	bic.w	r7, r7, #2944	; 0xb80
    b014:	e7ac      	b.n	af70 <__svfscanf_r+0x428>
    b016:	063a      	lsls	r2, r7, #24
    b018:	d5b8      	bpl.n	af8c <__svfscanf_r+0x444>
    b01a:	f027 0780 	bic.w	r7, r7, #128	; 0x80
    b01e:	e7a7      	b.n	af70 <__svfscanf_r+0x428>
    b020:	f407 62c0 	and.w	r2, r7, #1536	; 0x600
    b024:	f5b2 7f00 	cmp.w	r2, #512	; 0x200
    b028:	d1b0      	bne.n	af8c <__svfscanf_r+0x444>
    b02a:	f427 7700 	bic.w	r7, r7, #512	; 0x200
    b02e:	f447 67a0 	orr.w	r7, r7, #1280	; 0x500
    b032:	2610      	movs	r6, #16
    b034:	e79c      	b.n	af70 <__svfscanf_r+0x428>
    b036:	4aa5      	ldr	r2, [pc, #660]	; (b2cc <__svfscanf_r+0x784>)
    b038:	f932 6016 	ldrsh.w	r6, [r2, r6, lsl #1]
    b03c:	2e08      	cmp	r6, #8
    b03e:	dce7      	bgt.n	b010 <__svfscanf_r+0x4c8>
    b040:	e7a4      	b.n	af8c <__svfscanf_r+0x444>
    b042:	f89a 3001 	ldrb.w	r3, [sl, #1]
    b046:	f047 0710 	orr.w	r7, r7, #16
    b04a:	4692      	mov	sl, r2
    b04c:	e5cd      	b.n	abea <__svfscanf_r+0xa2>
    b04e:	9207      	str	r2, [sp, #28]
    b050:	f047 0701 	orr.w	r7, r7, #1
    b054:	686b      	ldr	r3, [r5, #4]
    b056:	489e      	ldr	r0, [pc, #632]	; (b2d0 <__svfscanf_r+0x788>)
    b058:	210a      	movs	r1, #10
    b05a:	2b00      	cmp	r3, #0
    b05c:	9009      	str	r0, [sp, #36]	; 0x24
    b05e:	910c      	str	r1, [sp, #48]	; 0x30
    b060:	f04f 0a03 	mov.w	sl, #3
    b064:	f73f ae68 	bgt.w	ad38 <__svfscanf_r+0x1f0>
    b068:	4630      	mov	r0, r6
    b06a:	4629      	mov	r1, r5
    b06c:	f002 ff22 	bl	deb4 <__srefill_r>
    b070:	2800      	cmp	r0, #0
    b072:	f43f ae61 	beq.w	ad38 <__svfscanf_r+0x1f0>
    b076:	9c0b      	ldr	r4, [sp, #44]	; 0x2c
    b078:	2c00      	cmp	r4, #0
    b07a:	f43f ae4c 	beq.w	ad16 <__svfscanf_r+0x1ce>
    b07e:	89ab      	ldrh	r3, [r5, #12]
    b080:	4620      	mov	r0, r4
    b082:	f013 0f40 	tst.w	r3, #64	; 0x40
    b086:	bf18      	it	ne
    b088:	f04f 30ff 	movne.w	r0, #4294967295
    b08c:	f50d 7d2f 	add.w	sp, sp, #700	; 0x2bc
    b090:	e8bd 8ff0 	ldmia.w	sp!, {r4, r5, r6, r7, r8, r9, sl, fp, pc}
    b094:	eb04 0484 	add.w	r4, r4, r4, lsl #2
    b098:	eb03 0344 	add.w	r3, r3, r4, lsl #1
    b09c:	f1a3 0430 	sub.w	r4, r3, #48	; 0x30
    b0a0:	f89a 3001 	ldrb.w	r3, [sl, #1]
    b0a4:	4692      	mov	sl, r2
    b0a6:	e5a0      	b.n	abea <__svfscanf_r+0xa2>
    b0a8:	9207      	str	r2, [sp, #28]
    b0aa:	4a8a      	ldr	r2, [pc, #552]	; (b2d4 <__svfscanf_r+0x78c>)
    b0ac:	2310      	movs	r3, #16
    b0ae:	f447 7700 	orr.w	r7, r7, #512	; 0x200
    b0b2:	9209      	str	r2, [sp, #36]	; 0x24
    b0b4:	930c      	str	r3, [sp, #48]	; 0x30
    b0b6:	f04f 0a03 	mov.w	sl, #3
    b0ba:	e639      	b.n	ad30 <__svfscanf_r+0x1e8>
    b0bc:	9207      	str	r2, [sp, #28]
    b0be:	f047 0701 	orr.w	r7, r7, #1
    b0c2:	4a84      	ldr	r2, [pc, #528]	; (b2d4 <__svfscanf_r+0x78c>)
    b0c4:	2308      	movs	r3, #8
    b0c6:	9209      	str	r2, [sp, #36]	; 0x24
    b0c8:	930c      	str	r3, [sp, #48]	; 0x30
    b0ca:	f04f 0a03 	mov.w	sl, #3
    b0ce:	e62f      	b.n	ad30 <__svfscanf_r+0x1e8>
    b0d0:	f89a 3001 	ldrb.w	r3, [sl, #1]
    b0d4:	f047 0702 	orr.w	r7, r7, #2
    b0d8:	4692      	mov	sl, r2
    b0da:	e586      	b.n	abea <__svfscanf_r+0xa2>
    b0dc:	9207      	str	r2, [sp, #28]
    b0de:	f04f 0a04 	mov.w	sl, #4
    b0e2:	e625      	b.n	ad30 <__svfscanf_r+0x1e8>
    b0e4:	9207      	str	r2, [sp, #28]
    b0e6:	e7ec      	b.n	b0c2 <__svfscanf_r+0x57a>
    b0e8:	06f9      	lsls	r1, r7, #27
    b0ea:	9207      	str	r2, [sp, #28]
    b0ec:	d462      	bmi.n	b1b4 <__svfscanf_r+0x66c>
    b0ee:	077b      	lsls	r3, r7, #29
    b0f0:	f140 8381 	bpl.w	b7f6 <__svfscanf_r+0xcae>
    b0f4:	9c06      	ldr	r4, [sp, #24]
    b0f6:	4692      	mov	sl, r2
    b0f8:	6823      	ldr	r3, [r4, #0]
    b0fa:	3404      	adds	r4, #4
    b0fc:	f8a3 9000 	strh.w	r9, [r3]
    b100:	9406      	str	r4, [sp, #24]
    b102:	e561      	b.n	abc8 <__svfscanf_r+0x80>
    b104:	f89a 3001 	ldrb.w	r3, [sl, #1]
    b108:	f047 0704 	orr.w	r7, r7, #4
    b10c:	4692      	mov	sl, r2
    b10e:	e56c      	b.n	abea <__svfscanf_r+0xa2>
    b110:	9207      	str	r2, [sp, #28]
    b112:	f047 0740 	orr.w	r7, r7, #64	; 0x40
    b116:	f04f 0a00 	mov.w	sl, #0
    b11a:	e609      	b.n	ad30 <__svfscanf_r+0x1e8>
    b11c:	4611      	mov	r1, r2
    b11e:	a816      	add	r0, sp, #88	; 0x58
    b120:	9207      	str	r2, [sp, #28]
    b122:	f002 ff79 	bl	e018 <__sccl>
    b126:	f047 0740 	orr.w	r7, r7, #64	; 0x40
    b12a:	9007      	str	r0, [sp, #28]
    b12c:	f04f 0a01 	mov.w	sl, #1
    b130:	e5fe      	b.n	ad30 <__svfscanf_r+0x1e8>
    b132:	9207      	str	r2, [sp, #28]
    b134:	e78e      	b.n	b054 <__svfscanf_r+0x50c>
    b136:	4867      	ldr	r0, [pc, #412]	; (b2d4 <__svfscanf_r+0x78c>)
    b138:	210a      	movs	r1, #10
    b13a:	9207      	str	r2, [sp, #28]
    b13c:	9009      	str	r0, [sp, #36]	; 0x24
    b13e:	910c      	str	r1, [sp, #48]	; 0x30
    b140:	f04f 0a03 	mov.w	sl, #3
    b144:	e5f4      	b.n	ad30 <__svfscanf_r+0x1e8>
    b146:	9207      	str	r2, [sp, #28]
    b148:	f04f 0a02 	mov.w	sl, #2
    b14c:	e5f0      	b.n	ad30 <__svfscanf_r+0x1e8>
    b14e:	4861      	ldr	r0, [pc, #388]	; (b2d4 <__svfscanf_r+0x78c>)
    b150:	2110      	movs	r1, #16
    b152:	9207      	str	r2, [sp, #28]
    b154:	f447 7708 	orr.w	r7, r7, #544	; 0x220
    b158:	9009      	str	r0, [sp, #36]	; 0x24
    b15a:	910c      	str	r1, [sp, #48]	; 0x30
    b15c:	f04f 0a03 	mov.w	sl, #3
    b160:	e5e6      	b.n	ad30 <__svfscanf_r+0x1e8>
    b162:	f89a 3001 	ldrb.w	r3, [sl, #1]
    b166:	2b6c      	cmp	r3, #108	; 0x6c
    b168:	f000 8336 	beq.w	b7d8 <__svfscanf_r+0xc90>
    b16c:	f047 0701 	orr.w	r7, r7, #1
    b170:	4692      	mov	sl, r2
    b172:	e53a      	b.n	abea <__svfscanf_r+0xa2>
    b174:	a814      	add	r0, sp, #80	; 0x50
    b176:	2100      	movs	r1, #0
    b178:	2208      	movs	r2, #8
    b17a:	900a      	str	r0, [sp, #40]	; 0x28
    b17c:	f7fd f822 	bl	81c4 <memset>
    b180:	f017 0b10 	ands.w	fp, r7, #16
    b184:	f000 82bd 	beq.w	b702 <__svfscanf_r+0xbba>
    b188:	f10d 0a4c 	add.w	sl, sp, #76	; 0x4c
    b18c:	2200      	movs	r2, #0
    b18e:	6829      	ldr	r1, [r5, #0]
    b190:	f8d8 3000 	ldr.w	r3, [r8]
    b194:	7809      	ldrb	r1, [r1, #0]
    b196:	440b      	add	r3, r1
    b198:	785b      	ldrb	r3, [r3, #1]
    b19a:	0718      	lsls	r0, r3, #28
    b19c:	d402      	bmi.n	b1a4 <__svfscanf_r+0x65c>
    b19e:	2c00      	cmp	r4, #0
    b1a0:	f040 8372 	bne.w	b888 <__svfscanf_r+0xd40>
    b1a4:	f1bb 0f00 	cmp.w	fp, #0
    b1a8:	d104      	bne.n	b1b4 <__svfscanf_r+0x66c>
    b1aa:	f8ca b000 	str.w	fp, [sl]
    b1ae:	9c0b      	ldr	r4, [sp, #44]	; 0x2c
    b1b0:	3401      	adds	r4, #1
    b1b2:	940b      	str	r4, [sp, #44]	; 0x2c
    b1b4:	f8dd a01c 	ldr.w	sl, [sp, #28]
    b1b8:	4652      	mov	r2, sl
    b1ba:	e506      	b.n	abca <__svfscanf_r+0x82>
    b1bc:	440b      	add	r3, r1
    b1be:	785b      	ldrb	r3, [r3, #1]
    b1c0:	9207      	str	r2, [sp, #28]
    b1c2:	f003 0303 	and.w	r3, r3, #3
    b1c6:	2b01      	cmp	r3, #1
    b1c8:	f47f af44 	bne.w	b054 <__svfscanf_r+0x50c>
    b1cc:	f047 0701 	orr.w	r7, r7, #1
    b1d0:	e740      	b.n	b054 <__svfscanf_r+0x50c>
    b1d2:	4630      	mov	r0, r6
    b1d4:	f001 ffb2 	bl	d13c <_localeconv_r>
    b1d8:	1e63      	subs	r3, r4, #1
    b1da:	6800      	ldr	r0, [r0, #0]
    b1dc:	f5b3 7fae 	cmp.w	r3, #348	; 0x15c
    b1e0:	900f      	str	r0, [sp, #60]	; 0x3c
    b1e2:	f240 81a5 	bls.w	b530 <__svfscanf_r+0x9e8>
    b1e6:	f46f 70ae 	mvn.w	r0, #348	; 0x15c
    b1ea:	4404      	add	r4, r0
    b1ec:	940d      	str	r4, [sp, #52]	; 0x34
    b1ee:	f240 145d 	movw	r4, #349	; 0x15d
    b1f2:	f04f 0a00 	mov.w	sl, #0
    b1f6:	f50d 7cac 	add.w	ip, sp, #344	; 0x158
    b1fa:	960e      	str	r6, [sp, #56]	; 0x38
    b1fc:	f8cd c014 	str.w	ip, [sp, #20]
    b200:	f447 67f0 	orr.w	r7, r7, #1920	; 0x780
    b204:	4653      	mov	r3, sl
    b206:	f8cd a044 	str.w	sl, [sp, #68]	; 0x44
    b20a:	f8cd a040 	str.w	sl, [sp, #64]	; 0x40
    b20e:	f8cd a020 	str.w	sl, [sp, #32]
    b212:	f8cd a028 	str.w	sl, [sp, #40]	; 0x28
    b216:	46e3      	mov	fp, ip
    b218:	4656      	mov	r6, sl
    b21a:	6828      	ldr	r0, [r5, #0]
    b21c:	7802      	ldrb	r2, [r0, #0]
    b21e:	f1a2 012b 	sub.w	r1, r2, #43	; 0x2b
    b222:	294e      	cmp	r1, #78	; 0x4e
    b224:	f200 8156 	bhi.w	b4d4 <__svfscanf_r+0x98c>
    b228:	e8df f011 	tbh	[pc, r1, lsl #1]
    b22c:	0154007e 	.word	0x0154007e
    b230:	0154007e 	.word	0x0154007e
    b234:	00720154 	.word	0x00720154
    b238:	00560056 	.word	0x00560056
    b23c:	00560056 	.word	0x00560056
    b240:	00560056 	.word	0x00560056
    b244:	00560056 	.word	0x00560056
    b248:	01540056 	.word	0x01540056
    b24c:	01540154 	.word	0x01540154
    b250:	01540154 	.word	0x01540154
    b254:	01540154 	.word	0x01540154
    b258:	0154014f 	.word	0x0154014f
    b25c:	01540154 	.word	0x01540154
    b260:	012e0135 	.word	0x012e0135
    b264:	01540154 	.word	0x01540154
    b268:	015400a4 	.word	0x015400a4
    b26c:	01540154 	.word	0x01540154
    b270:	008f0154 	.word	0x008f0154
    b274:	01540154 	.word	0x01540154
    b278:	01540154 	.word	0x01540154
    b27c:	00890154 	.word	0x00890154
    b280:	01540154 	.word	0x01540154
    b284:	01540154 	.word	0x01540154
    b288:	01540083 	.word	0x01540083
    b28c:	01540154 	.word	0x01540154
    b290:	01540154 	.word	0x01540154
    b294:	01540154 	.word	0x01540154
    b298:	0154014f 	.word	0x0154014f
    b29c:	01540154 	.word	0x01540154
    b2a0:	012e0135 	.word	0x012e0135
    b2a4:	01540154 	.word	0x01540154
    b2a8:	015400a4 	.word	0x015400a4
    b2ac:	01540154 	.word	0x01540154
    b2b0:	008f0154 	.word	0x008f0154
    b2b4:	01540154 	.word	0x01540154
    b2b8:	01540154 	.word	0x01540154
    b2bc:	00890154 	.word	0x00890154
    b2c0:	01540154 	.word	0x01540154
    b2c4:	01540154 	.word	0x01540154
    b2c8:	0083      	.short	0x0083
    b2ca:	bf00      	nop
    b2cc:	00014c5c 	.word	0x00014c5c
    b2d0:	0000f321 	.word	0x0000f321
    b2d4:	0000f5e9 	.word	0x0000f5e9
    b2d8:	eb03 010a 	add.w	r1, r3, sl
    b2dc:	b991      	cbnz	r1, b304 <__svfscanf_r+0x7bc>
    b2de:	f427 77c0 	bic.w	r7, r7, #384	; 0x180
    b2e2:	f88b 2000 	strb.w	r2, [fp]
    b2e6:	f10b 0b01 	add.w	fp, fp, #1
    b2ea:	686a      	ldr	r2, [r5, #4]
    b2ec:	3c01      	subs	r4, #1
    b2ee:	3a01      	subs	r2, #1
    b2f0:	2a00      	cmp	r2, #0
    b2f2:	f109 0901 	add.w	r9, r9, #1
    b2f6:	606a      	str	r2, [r5, #4]
    b2f8:	f340 80fa 	ble.w	b4f0 <__svfscanf_r+0x9a8>
    b2fc:	3001      	adds	r0, #1
    b2fe:	6028      	str	r0, [r5, #0]
    b300:	2c00      	cmp	r4, #0
    b302:	d18a      	bne.n	b21a <__svfscanf_r+0x6d2>
    b304:	9608      	str	r6, [sp, #32]
    b306:	9c08      	ldr	r4, [sp, #32]
    b308:	9e0e      	ldr	r6, [sp, #56]	; 0x38
    b30a:	2c00      	cmp	r4, #0
    b30c:	d041      	beq.n	b392 <__svfscanf_r+0x84a>
    b30e:	e10c      	b.n	b52a <__svfscanf_r+0x9e2>
    b310:	05f9      	lsls	r1, r7, #23
    b312:	d5e1      	bpl.n	b2d8 <__svfscanf_r+0x790>
    b314:	9a0d      	ldr	r2, [sp, #52]	; 0x34
    b316:	f027 0780 	bic.w	r7, r7, #128	; 0x80
    b31a:	3601      	adds	r6, #1
    b31c:	2a00      	cmp	r2, #0
    b31e:	d0e4      	beq.n	b2ea <__svfscanf_r+0x7a2>
    b320:	3a01      	subs	r2, #1
    b322:	920d      	str	r2, [sp, #52]	; 0x34
    b324:	3401      	adds	r4, #1
    b326:	e7e0      	b.n	b2ea <__svfscanf_r+0x7a2>
    b328:	0639      	lsls	r1, r7, #24
    b32a:	d5eb      	bpl.n	b304 <__svfscanf_r+0x7bc>
    b32c:	f027 0780 	bic.w	r7, r7, #128	; 0x80
    b330:	e7d7      	b.n	b2e2 <__svfscanf_r+0x79a>
    b332:	f1ba 0f07 	cmp.w	sl, #7
    b336:	d1e5      	bne.n	b304 <__svfscanf_r+0x7bc>
    b338:	f04f 0a08 	mov.w	sl, #8
    b33c:	e7d1      	b.n	b2e2 <__svfscanf_r+0x79a>
    b33e:	f1ba 0f06 	cmp.w	sl, #6
    b342:	d1df      	bne.n	b304 <__svfscanf_r+0x7bc>
    b344:	f04f 0a07 	mov.w	sl, #7
    b348:	e7cb      	b.n	b2e2 <__svfscanf_r+0x79a>
    b34a:	2b00      	cmp	r3, #0
    b34c:	f040 80e6 	bne.w	b51c <__svfscanf_r+0x9d4>
    b350:	b92e      	cbnz	r6, b35e <__svfscanf_r+0x816>
    b352:	f407 61e0 	and.w	r1, r7, #1792	; 0x700
    b356:	f5b1 6fe0 	cmp.w	r1, #1792	; 0x700
    b35a:	f000 8239 	beq.w	b7d0 <__svfscanf_r+0xc88>
    b35e:	f1ba 0f01 	cmp.w	sl, #1
    b362:	d002      	beq.n	b36a <__svfscanf_r+0x822>
    b364:	f1ba 0f04 	cmp.w	sl, #4
    b368:	d1cc      	bne.n	b304 <__svfscanf_r+0x7bc>
    b36a:	f10a 0a01 	add.w	sl, sl, #1
    b36e:	fa5f fa8a 	uxtb.w	sl, sl
    b372:	e7b6      	b.n	b2e2 <__svfscanf_r+0x79a>
    b374:	f1ba 0f00 	cmp.w	sl, #0
    b378:	f040 80c7 	bne.w	b50a <__svfscanf_r+0x9c2>
    b37c:	2e00      	cmp	r6, #0
    b37e:	f040 80d2 	bne.w	b526 <__svfscanf_r+0x9de>
    b382:	f407 61e0 	and.w	r1, r7, #1792	; 0x700
    b386:	f5b1 6fe0 	cmp.w	r1, #1792	; 0x700
    b38a:	f000 821c 	beq.w	b7c6 <__svfscanf_r+0xc7e>
    b38e:	9608      	str	r6, [sp, #32]
    b390:	9e0e      	ldr	r6, [sp, #56]	; 0x38
    b392:	f103 3cff 	add.w	ip, r3, #4294967295
    b396:	f1bc 0f01 	cmp.w	ip, #1
    b39a:	f240 82dc 	bls.w	b956 <__svfscanf_r+0xe0e>
    b39e:	f10a 32ff 	add.w	r2, sl, #4294967295
    b3a2:	2a06      	cmp	r2, #6
    b3a4:	d822      	bhi.n	b3ec <__svfscanf_r+0x8a4>
    b3a6:	f1ba 0f02 	cmp.w	sl, #2
    b3aa:	f240 82ad 	bls.w	b908 <__svfscanf_r+0xdc0>
    b3ae:	f1ba 0f03 	cmp.w	sl, #3
    b3b2:	d01b      	beq.n	b3ec <__svfscanf_r+0x8a4>
    b3b4:	f1aa 0a04 	sub.w	sl, sl, #4
    b3b8:	fa5f fa8a 	uxtb.w	sl, sl
    b3bc:	f10b 34ff 	add.w	r4, fp, #4294967295
    b3c0:	f8cd a034 	str.w	sl, [sp, #52]	; 0x34
    b3c4:	ebca 0404 	rsb	r4, sl, r4
    b3c8:	46da      	mov	sl, fp
    b3ca:	f81a 1d01 	ldrb.w	r1, [sl, #-1]!
    b3ce:	4630      	mov	r0, r6
    b3d0:	462a      	mov	r2, r5
    b3d2:	f005 fd23 	bl	10e1c <_ungetc_r>
    b3d6:	45a2      	cmp	sl, r4
    b3d8:	d1f7      	bne.n	b3ca <__svfscanf_r+0x882>
    b3da:	f8dd c034 	ldr.w	ip, [sp, #52]	; 0x34
    b3de:	f109 39ff 	add.w	r9, r9, #4294967295
    b3e2:	ea6f 020c 	mvn.w	r2, ip
    b3e6:	ebcc 0909 	rsb	r9, ip, r9
    b3ea:	4493      	add	fp, r2
    b3ec:	05f8      	lsls	r0, r7, #23
    b3ee:	d51c      	bpl.n	b42a <__svfscanf_r+0x8e2>
    b3f0:	0579      	lsls	r1, r7, #21
    b3f2:	f100 829b 	bmi.w	b92c <__svfscanf_r+0xde4>
    b3f6:	f81b 1c01 	ldrb.w	r1, [fp, #-1]
    b3fa:	f10b 34ff 	add.w	r4, fp, #4294967295
    b3fe:	2965      	cmp	r1, #101	; 0x65
    b400:	f109 3aff 	add.w	sl, r9, #4294967295
    b404:	d00b      	beq.n	b41e <__svfscanf_r+0x8d6>
    b406:	2945      	cmp	r1, #69	; 0x45
    b408:	d009      	beq.n	b41e <__svfscanf_r+0x8d6>
    b40a:	4630      	mov	r0, r6
    b40c:	462a      	mov	r2, r5
    b40e:	f005 fd05 	bl	10e1c <_ungetc_r>
    b412:	f81b 1c02 	ldrb.w	r1, [fp, #-2]
    b416:	f1a9 0a02 	sub.w	sl, r9, #2
    b41a:	f1ab 0402 	sub.w	r4, fp, #2
    b41e:	4630      	mov	r0, r6
    b420:	462a      	mov	r2, r5
    b422:	f005 fcfb 	bl	10e1c <_ungetc_r>
    b426:	46d1      	mov	r9, sl
    b428:	46a3      	mov	fp, r4
    b42a:	f017 0210 	ands.w	r2, r7, #16
    b42e:	f47f aec1 	bne.w	b1b4 <__svfscanf_r+0x66c>
    b432:	f407 61c0 	and.w	r1, r7, #1536	; 0x600
    b436:	f5b1 6f80 	cmp.w	r1, #1024	; 0x400
    b43a:	f88b 2000 	strb.w	r2, [fp]
    b43e:	f000 81d3 	beq.w	b7e8 <__svfscanf_r+0xca0>
    b442:	9c10      	ldr	r4, [sp, #64]	; 0x40
    b444:	2c00      	cmp	r4, #0
    b446:	f040 816e 	bne.w	b726 <__svfscanf_r+0xbde>
    b44a:	2200      	movs	r2, #0
    b44c:	9905      	ldr	r1, [sp, #20]
    b44e:	4630      	mov	r0, r6
    b450:	f002 ffa6 	bl	e3a0 <_strtod_r>
    b454:	07fa      	lsls	r2, r7, #31
    b456:	4682      	mov	sl, r0
    b458:	468b      	mov	fp, r1
    b45a:	f100 8132 	bmi.w	b6c2 <__svfscanf_r+0xb7a>
    b45e:	07bb      	lsls	r3, r7, #30
    b460:	f140 81e8 	bpl.w	b834 <__svfscanf_r+0xcec>
    b464:	f8dd c018 	ldr.w	ip, [sp, #24]
    b468:	f8dc 3000 	ldr.w	r3, [ip]
    b46c:	f10c 0c04 	add.w	ip, ip, #4
    b470:	f8cd c018 	str.w	ip, [sp, #24]
    b474:	e9c3 ab00 	strd	sl, fp, [r3]
    b478:	9c0b      	ldr	r4, [sp, #44]	; 0x2c
    b47a:	f8dd a01c 	ldr.w	sl, [sp, #28]
    b47e:	3401      	adds	r4, #1
    b480:	940b      	str	r4, [sp, #44]	; 0x2c
    b482:	4652      	mov	r2, sl
    b484:	f7ff bba1 	b.w	abca <__svfscanf_r+0x82>
    b488:	f1ba 0f02 	cmp.w	sl, #2
    b48c:	f47f af3a 	bne.w	b304 <__svfscanf_r+0x7bc>
    b490:	f04f 0a03 	mov.w	sl, #3
    b494:	e725      	b.n	b2e2 <__svfscanf_r+0x79a>
    b496:	f407 61a0 	and.w	r1, r7, #1280	; 0x500
    b49a:	f5b1 6f80 	cmp.w	r1, #1024	; 0x400
    b49e:	d005      	beq.n	b4ac <__svfscanf_r+0x964>
    b4a0:	0579      	lsls	r1, r7, #21
    b4a2:	f57f af2f 	bpl.w	b304 <__svfscanf_r+0x7bc>
    b4a6:	2e00      	cmp	r6, #0
    b4a8:	f43f af71 	beq.w	b38e <__svfscanf_r+0x846>
    b4ac:	05b9      	lsls	r1, r7, #22
    b4ae:	d406      	bmi.n	b4be <__svfscanf_r+0x976>
    b4b0:	f8dd c028 	ldr.w	ip, [sp, #40]	; 0x28
    b4b4:	f8cd b044 	str.w	fp, [sp, #68]	; 0x44
    b4b8:	ebcc 0606 	rsb	r6, ip, r6
    b4bc:	9610      	str	r6, [sp, #64]	; 0x40
    b4be:	f427 67f0 	bic.w	r7, r7, #1920	; 0x780
    b4c2:	f447 77c0 	orr.w	r7, r7, #384	; 0x180
    b4c6:	2600      	movs	r6, #0
    b4c8:	e70b      	b.n	b2e2 <__svfscanf_r+0x79a>
    b4ca:	2b01      	cmp	r3, #1
    b4cc:	f47f af1a 	bne.w	b304 <__svfscanf_r+0x7bc>
    b4d0:	2302      	movs	r3, #2
    b4d2:	e706      	b.n	b2e2 <__svfscanf_r+0x79a>
    b4d4:	f8dd c03c 	ldr.w	ip, [sp, #60]	; 0x3c
    b4d8:	f89c 1000 	ldrb.w	r1, [ip]
    b4dc:	4291      	cmp	r1, r2
    b4de:	f47f af11 	bne.w	b304 <__svfscanf_r+0x7bc>
    b4e2:	05b9      	lsls	r1, r7, #22
    b4e4:	f57f af0e 	bpl.w	b304 <__svfscanf_r+0x7bc>
    b4e8:	f427 7720 	bic.w	r7, r7, #640	; 0x280
    b4ec:	960a      	str	r6, [sp, #40]	; 0x28
    b4ee:	e6f8      	b.n	b2e2 <__svfscanf_r+0x79a>
    b4f0:	980e      	ldr	r0, [sp, #56]	; 0x38
    b4f2:	4629      	mov	r1, r5
    b4f4:	9303      	str	r3, [sp, #12]
    b4f6:	f002 fcdd 	bl	deb4 <__srefill_r>
    b4fa:	9b03      	ldr	r3, [sp, #12]
    b4fc:	2800      	cmp	r0, #0
    b4fe:	f47f af01 	bne.w	b304 <__svfscanf_r+0x7bc>
    b502:	2c00      	cmp	r4, #0
    b504:	f47f ae89 	bne.w	b21a <__svfscanf_r+0x6d2>
    b508:	e6fc      	b.n	b304 <__svfscanf_r+0x7bc>
    b50a:	f1ba 0f03 	cmp.w	sl, #3
    b50e:	f43f af2c 	beq.w	b36a <__svfscanf_r+0x822>
    b512:	f1ba 0f05 	cmp.w	sl, #5
    b516:	f43f af28 	beq.w	b36a <__svfscanf_r+0x822>
    b51a:	e6f3      	b.n	b304 <__svfscanf_r+0x7bc>
    b51c:	2b02      	cmp	r3, #2
    b51e:	f47f af1e 	bne.w	b35e <__svfscanf_r+0x816>
    b522:	2303      	movs	r3, #3
    b524:	e6dd      	b.n	b2e2 <__svfscanf_r+0x79a>
    b526:	9608      	str	r6, [sp, #32]
    b528:	9e0e      	ldr	r6, [sp, #56]	; 0x38
    b52a:	f427 7780 	bic.w	r7, r7, #256	; 0x100
    b52e:	e730      	b.n	b392 <__svfscanf_r+0x84a>
    b530:	2200      	movs	r2, #0
    b532:	920d      	str	r2, [sp, #52]	; 0x34
    b534:	e65d      	b.n	b1f2 <__svfscanf_r+0x6aa>
    b536:	f8dd c018 	ldr.w	ip, [sp, #24]
    b53a:	f10d 0b58 	add.w	fp, sp, #88	; 0x58
    b53e:	f8dc 7000 	ldr.w	r7, [ip]
    b542:	f10c 0204 	add.w	r2, ip, #4
    b546:	9206      	str	r2, [sp, #24]
    b548:	46ba      	mov	sl, r7
    b54a:	682b      	ldr	r3, [r5, #0]
    b54c:	781a      	ldrb	r2, [r3, #0]
    b54e:	1c59      	adds	r1, r3, #1
    b550:	f81b 2002 	ldrb.w	r2, [fp, r2]
    b554:	b1a2      	cbz	r2, b580 <__svfscanf_r+0xa38>
    b556:	686a      	ldr	r2, [r5, #4]
    b558:	6029      	str	r1, [r5, #0]
    b55a:	3a01      	subs	r2, #1
    b55c:	606a      	str	r2, [r5, #4]
    b55e:	781b      	ldrb	r3, [r3, #0]
    b560:	3c01      	subs	r4, #1
    b562:	f80a 3b01 	strb.w	r3, [sl], #1
    b566:	d00b      	beq.n	b580 <__svfscanf_r+0xa38>
    b568:	686b      	ldr	r3, [r5, #4]
    b56a:	2b00      	cmp	r3, #0
    b56c:	dced      	bgt.n	b54a <__svfscanf_r+0xa02>
    b56e:	4630      	mov	r0, r6
    b570:	4629      	mov	r1, r5
    b572:	f002 fc9f 	bl	deb4 <__srefill_r>
    b576:	2800      	cmp	r0, #0
    b578:	d0e7      	beq.n	b54a <__svfscanf_r+0xa02>
    b57a:	4557      	cmp	r7, sl
    b57c:	f43f ad7b 	beq.w	b076 <__svfscanf_r+0x52e>
    b580:	ebba 0707 	subs.w	r7, sl, r7
    b584:	f43f ab27 	beq.w	abd6 <__svfscanf_r+0x8e>
    b588:	9c0b      	ldr	r4, [sp, #44]	; 0x2c
    b58a:	2300      	movs	r3, #0
    b58c:	3401      	adds	r4, #1
    b58e:	f88a 3000 	strb.w	r3, [sl]
    b592:	940b      	str	r4, [sp, #44]	; 0x2c
    b594:	44b9      	add	r9, r7
    b596:	f8dd a01c 	ldr.w	sl, [sp, #28]
    b59a:	e4af      	b.n	aefc <__svfscanf_r+0x3b4>
    b59c:	f8dd c018 	ldr.w	ip, [sp, #24]
    b5a0:	f8dc 7000 	ldr.w	r7, [ip]
    b5a4:	f10c 0a04 	add.w	sl, ip, #4
    b5a8:	46bb      	mov	fp, r7
    b5aa:	682b      	ldr	r3, [r5, #0]
    b5ac:	f8d8 2000 	ldr.w	r2, [r8]
    b5b0:	7818      	ldrb	r0, [r3, #0]
    b5b2:	1c59      	adds	r1, r3, #1
    b5b4:	4402      	add	r2, r0
    b5b6:	7852      	ldrb	r2, [r2, #1]
    b5b8:	0710      	lsls	r0, r2, #28
    b5ba:	d411      	bmi.n	b5e0 <__svfscanf_r+0xa98>
    b5bc:	686a      	ldr	r2, [r5, #4]
    b5be:	6029      	str	r1, [r5, #0]
    b5c0:	3a01      	subs	r2, #1
    b5c2:	606a      	str	r2, [r5, #4]
    b5c4:	781b      	ldrb	r3, [r3, #0]
    b5c6:	3c01      	subs	r4, #1
    b5c8:	f80b 3b01 	strb.w	r3, [fp], #1
    b5cc:	d008      	beq.n	b5e0 <__svfscanf_r+0xa98>
    b5ce:	686b      	ldr	r3, [r5, #4]
    b5d0:	2b00      	cmp	r3, #0
    b5d2:	dcea      	bgt.n	b5aa <__svfscanf_r+0xa62>
    b5d4:	4630      	mov	r0, r6
    b5d6:	4629      	mov	r1, r5
    b5d8:	f002 fc6c 	bl	deb4 <__srefill_r>
    b5dc:	2800      	cmp	r0, #0
    b5de:	d0e4      	beq.n	b5aa <__svfscanf_r+0xa62>
    b5e0:	9c0b      	ldr	r4, [sp, #44]	; 0x2c
    b5e2:	f8cd a018 	str.w	sl, [sp, #24]
    b5e6:	f8dd a01c 	ldr.w	sl, [sp, #28]
    b5ea:	ebc7 070b 	rsb	r7, r7, fp
    b5ee:	2300      	movs	r3, #0
    b5f0:	3401      	adds	r4, #1
    b5f2:	44b9      	add	r9, r7
    b5f4:	940b      	str	r4, [sp, #44]	; 0x2c
    b5f6:	f88b 3000 	strb.w	r3, [fp]
    b5fa:	4652      	mov	r2, sl
    b5fc:	f7ff bae5 	b.w	abca <__svfscanf_r+0x82>
    b600:	ab14      	add	r3, sp, #80	; 0x50
    b602:	4618      	mov	r0, r3
    b604:	2100      	movs	r1, #0
    b606:	2208      	movs	r2, #8
    b608:	930a      	str	r3, [sp, #40]	; 0x28
    b60a:	f7fc fddb 	bl	81c4 <memset>
    b60e:	f017 0710 	ands.w	r7, r7, #16
    b612:	970d      	str	r7, [sp, #52]	; 0x34
    b614:	d06c      	beq.n	b6f0 <__svfscanf_r+0xba8>
    b616:	f04f 0a00 	mov.w	sl, #0
    b61a:	9608      	str	r6, [sp, #32]
    b61c:	9e0d      	ldr	r6, [sp, #52]	; 0x34
    b61e:	f04f 0b00 	mov.w	fp, #0
    b622:	af56      	add	r7, sp, #344	; 0x158
    b624:	f8cd 9014 	str.w	r9, [sp, #20]
    b628:	f001 fd7c 	bl	d124 <__locale_mb_cur_max>
    b62c:	4558      	cmp	r0, fp
    b62e:	f43f ad22 	beq.w	b076 <__svfscanf_r+0x52e>
    b632:	682b      	ldr	r3, [r5, #0]
    b634:	6869      	ldr	r1, [r5, #4]
    b636:	f813 eb01 	ldrb.w	lr, [r3], #1
    b63a:	980a      	ldr	r0, [sp, #40]	; 0x28
    b63c:	3901      	subs	r1, #1
    b63e:	f10b 0901 	add.w	r9, fp, #1
    b642:	602b      	str	r3, [r5, #0]
    b644:	463a      	mov	r2, r7
    b646:	9000      	str	r0, [sp, #0]
    b648:	464b      	mov	r3, r9
    b64a:	6069      	str	r1, [r5, #4]
    b64c:	9808      	ldr	r0, [sp, #32]
    b64e:	4651      	mov	r1, sl
    b650:	f807 e00b 	strb.w	lr, [r7, fp]
    b654:	f001 fe06 	bl	d264 <_mbrtowc_r>
    b658:	1c43      	adds	r3, r0, #1
    b65a:	f43f ad0c 	beq.w	b076 <__svfscanf_r+0x52e>
    b65e:	2800      	cmp	r0, #0
    b660:	d177      	bne.n	b752 <__svfscanf_r+0xc0a>
    b662:	b90e      	cbnz	r6, b668 <__svfscanf_r+0xb20>
    b664:	f8ca 6000 	str.w	r6, [sl]
    b668:	9905      	ldr	r1, [sp, #20]
    b66a:	3c01      	subs	r4, #1
    b66c:	4449      	add	r1, r9
    b66e:	9105      	str	r1, [sp, #20]
    b670:	2e00      	cmp	r6, #0
    b672:	d172      	bne.n	b75a <__svfscanf_r+0xc12>
    b674:	f10a 0a04 	add.w	sl, sl, #4
    b678:	46b3      	mov	fp, r6
    b67a:	686b      	ldr	r3, [r5, #4]
    b67c:	2b00      	cmp	r3, #0
    b67e:	dd2a      	ble.n	b6d6 <__svfscanf_r+0xb8e>
    b680:	2c00      	cmp	r4, #0
    b682:	d1d1      	bne.n	b628 <__svfscanf_r+0xae0>
    b684:	f8dd 9014 	ldr.w	r9, [sp, #20]
    b688:	9e08      	ldr	r6, [sp, #32]
    b68a:	9c0d      	ldr	r4, [sp, #52]	; 0x34
    b68c:	2c00      	cmp	r4, #0
    b68e:	f43f ad8e 	beq.w	b1ae <__svfscanf_r+0x666>
    b692:	e58f      	b.n	b1b4 <__svfscanf_r+0x66c>
    b694:	4622      	mov	r2, r4
    b696:	f88a 4000 	strb.w	r4, [sl]
    b69a:	4630      	mov	r0, r6
    b69c:	9905      	ldr	r1, [sp, #20]
    b69e:	9b0c      	ldr	r3, [sp, #48]	; 0x30
    b6a0:	9c09      	ldr	r4, [sp, #36]	; 0x24
    b6a2:	47a0      	blx	r4
    b6a4:	06ba      	lsls	r2, r7, #26
    b6a6:	d535      	bpl.n	b714 <__svfscanf_r+0xbcc>
    b6a8:	f8dd c018 	ldr.w	ip, [sp, #24]
    b6ac:	f8dc 3000 	ldr.w	r3, [ip]
    b6b0:	f10c 0c04 	add.w	ip, ip, #4
    b6b4:	f8cd c018 	str.w	ip, [sp, #24]
    b6b8:	6018      	str	r0, [r3, #0]
    b6ba:	9c0b      	ldr	r4, [sp, #44]	; 0x2c
    b6bc:	3401      	adds	r4, #1
    b6be:	940b      	str	r4, [sp, #44]	; 0x2c
    b6c0:	e477      	b.n	afb2 <__svfscanf_r+0x46a>
    b6c2:	9c06      	ldr	r4, [sp, #24]
    b6c4:	6823      	ldr	r3, [r4, #0]
    b6c6:	3404      	adds	r4, #4
    b6c8:	9406      	str	r4, [sp, #24]
    b6ca:	e9c3 ab00 	strd	sl, fp, [r3]
    b6ce:	e6d3      	b.n	b478 <__svfscanf_r+0x930>
    b6d0:	f427 67b0 	bic.w	r7, r7, #1408	; 0x580
    b6d4:	e44c      	b.n	af70 <__svfscanf_r+0x428>
    b6d6:	9808      	ldr	r0, [sp, #32]
    b6d8:	4629      	mov	r1, r5
    b6da:	f002 fbeb 	bl	deb4 <__srefill_r>
    b6de:	2800      	cmp	r0, #0
    b6e0:	d0ce      	beq.n	b680 <__svfscanf_r+0xb38>
    b6e2:	f8dd 9014 	ldr.w	r9, [sp, #20]
    b6e6:	9e08      	ldr	r6, [sp, #32]
    b6e8:	f1bb 0f00 	cmp.w	fp, #0
    b6ec:	d0cd      	beq.n	b68a <__svfscanf_r+0xb42>
    b6ee:	e4c2      	b.n	b076 <__svfscanf_r+0x52e>
    b6f0:	f8dd c018 	ldr.w	ip, [sp, #24]
    b6f4:	f8dc a000 	ldr.w	sl, [ip]
    b6f8:	f10c 0c04 	add.w	ip, ip, #4
    b6fc:	f8cd c018 	str.w	ip, [sp, #24]
    b700:	e78b      	b.n	b61a <__svfscanf_r+0xad2>
    b702:	f8dd c018 	ldr.w	ip, [sp, #24]
    b706:	f8dc a000 	ldr.w	sl, [ip]
    b70a:	f10c 0c04 	add.w	ip, ip, #4
    b70e:	f8cd c018 	str.w	ip, [sp, #24]
    b712:	e53b      	b.n	b18c <__svfscanf_r+0x644>
    b714:	077b      	lsls	r3, r7, #29
    b716:	f140 809b 	bpl.w	b850 <__svfscanf_r+0xd08>
    b71a:	9c06      	ldr	r4, [sp, #24]
    b71c:	6823      	ldr	r3, [r4, #0]
    b71e:	3404      	adds	r4, #4
    b720:	9406      	str	r4, [sp, #24]
    b722:	8018      	strh	r0, [r3, #0]
    b724:	e7c9      	b.n	b6ba <__svfscanf_r+0xb72>
    b726:	f8dd c044 	ldr.w	ip, [sp, #68]	; 0x44
    b72a:	4630      	mov	r0, r6
    b72c:	f10c 0101 	add.w	r1, ip, #1
    b730:	230a      	movs	r3, #10
    b732:	f003 fdf5 	bl	f320 <_strtol_r>
    b736:	f8dd b044 	ldr.w	fp, [sp, #68]	; 0x44
    b73a:	1b02      	subs	r2, r0, r4
    b73c:	f20d 21ab 	addw	r1, sp, #683	; 0x2ab
    b740:	458b      	cmp	fp, r1
    b742:	bf28      	it	cs
    b744:	f20d 2baa 	addwcs	fp, sp, #682	; 0x2aa
    b748:	4658      	mov	r0, fp
    b74a:	499b      	ldr	r1, [pc, #620]	; (b9b8 <__svfscanf_r+0xe70>)
    b74c:	f002 fcc2 	bl	e0d4 <sprintf>
    b750:	e67b      	b.n	b44a <__svfscanf_r+0x902>
    b752:	3002      	adds	r0, #2
    b754:	d188      	bne.n	b668 <__svfscanf_r+0xb20>
    b756:	46cb      	mov	fp, r9
    b758:	e78f      	b.n	b67a <__svfscanf_r+0xb32>
    b75a:	f04f 0b00 	mov.w	fp, #0
    b75e:	e78c      	b.n	b67a <__svfscanf_r+0xb32>
    b760:	2f00      	cmp	r7, #0
    b762:	f43f ac88 	beq.w	b076 <__svfscanf_r+0x52e>
    b766:	44b9      	add	r9, r7
    b768:	f8dd a01c 	ldr.w	sl, [sp, #28]
    b76c:	f7ff bbc6 	b.w	aefc <__svfscanf_r+0x3b4>
    b770:	f8dd c018 	ldr.w	ip, [sp, #24]
    b774:	4623      	mov	r3, r4
    b776:	f8dc 1000 	ldr.w	r1, [ip]
    b77a:	4630      	mov	r0, r6
    b77c:	9500      	str	r5, [sp, #0]
    b77e:	2201      	movs	r2, #1
    b780:	f001 faaa 	bl	ccd8 <_fread_r>
    b784:	9c06      	ldr	r4, [sp, #24]
    b786:	1d23      	adds	r3, r4, #4
    b788:	2800      	cmp	r0, #0
    b78a:	f43f ac74 	beq.w	b076 <__svfscanf_r+0x52e>
    b78e:	9c0b      	ldr	r4, [sp, #44]	; 0x2c
    b790:	f8dd a01c 	ldr.w	sl, [sp, #28]
    b794:	3401      	adds	r4, #1
    b796:	4481      	add	r9, r0
    b798:	940b      	str	r4, [sp, #44]	; 0x2c
    b79a:	9306      	str	r3, [sp, #24]
    b79c:	4652      	mov	r2, sl
    b79e:	f7ff ba14 	b.w	abca <__svfscanf_r+0x82>
    b7a2:	4630      	mov	r0, r6
    b7a4:	4629      	mov	r1, r5
    b7a6:	f002 fb85 	bl	deb4 <__srefill_r>
    b7aa:	2800      	cmp	r0, #0
    b7ac:	f43f aaa3 	beq.w	acf6 <__svfscanf_r+0x1ae>
    b7b0:	e461      	b.n	b076 <__svfscanf_r+0x52e>
    b7b2:	f81a 1c01 	ldrb.w	r1, [sl, #-1]
    b7b6:	4630      	mov	r0, r6
    b7b8:	462a      	mov	r2, r5
    b7ba:	f005 fb2f 	bl	10e1c <_ungetc_r>
    b7be:	f10a 3aff 	add.w	sl, sl, #4294967295
    b7c2:	f7ff bbed 	b.w	afa0 <__svfscanf_r+0x458>
    b7c6:	f427 67f0 	bic.w	r7, r7, #1920	; 0x780
    b7ca:	f04f 0a01 	mov.w	sl, #1
    b7ce:	e588      	b.n	b2e2 <__svfscanf_r+0x79a>
    b7d0:	f427 67f0 	bic.w	r7, r7, #1920	; 0x780
    b7d4:	2301      	movs	r3, #1
    b7d6:	e584      	b.n	b2e2 <__svfscanf_r+0x79a>
    b7d8:	f89a 3002 	ldrb.w	r3, [sl, #2]
    b7dc:	f047 0702 	orr.w	r7, r7, #2
    b7e0:	f10a 0a02 	add.w	sl, sl, #2
    b7e4:	f7ff ba01 	b.w	abea <__svfscanf_r+0xa2>
    b7e8:	9b08      	ldr	r3, [sp, #32]
    b7ea:	9c0a      	ldr	r4, [sp, #40]	; 0x28
    b7ec:	1b19      	subs	r1, r3, r4
    b7ee:	424a      	negs	r2, r1
    b7f0:	2900      	cmp	r1, #0
    b7f2:	d1a3      	bne.n	b73c <__svfscanf_r+0xbf4>
    b7f4:	e629      	b.n	b44a <__svfscanf_r+0x902>
    b7f6:	07fc      	lsls	r4, r7, #31
    b7f8:	d40e      	bmi.n	b818 <__svfscanf_r+0xcd0>
    b7fa:	07b8      	lsls	r0, r7, #30
    b7fc:	d50c      	bpl.n	b818 <__svfscanf_r+0xcd0>
    b7fe:	9c06      	ldr	r4, [sp, #24]
    b800:	464a      	mov	r2, r9
    b802:	6821      	ldr	r1, [r4, #0]
    b804:	ea4f 73e9 	mov.w	r3, r9, asr #31
    b808:	3404      	adds	r4, #4
    b80a:	f8dd a01c 	ldr.w	sl, [sp, #28]
    b80e:	9406      	str	r4, [sp, #24]
    b810:	e9c1 2300 	strd	r2, r3, [r1]
    b814:	f7ff b9d8 	b.w	abc8 <__svfscanf_r+0x80>
    b818:	f8dd c018 	ldr.w	ip, [sp, #24]
    b81c:	f8dd a01c 	ldr.w	sl, [sp, #28]
    b820:	f8dc 3000 	ldr.w	r3, [ip]
    b824:	f10c 0c04 	add.w	ip, ip, #4
    b828:	f8c3 9000 	str.w	r9, [r3]
    b82c:	f8cd c018 	str.w	ip, [sp, #24]
    b830:	f7ff b9ca 	b.w	abc8 <__svfscanf_r+0x80>
    b834:	9c06      	ldr	r4, [sp, #24]
    b836:	1d27      	adds	r7, r4, #4
    b838:	6824      	ldr	r4, [r4, #0]
    b83a:	f002 fbc5 	bl	dfc8 <__fpclassifyd>
    b83e:	2800      	cmp	r0, #0
    b840:	d056      	beq.n	b8f0 <__svfscanf_r+0xda8>
    b842:	4650      	mov	r0, sl
    b844:	4659      	mov	r1, fp
    b846:	f008 fe4b 	bl	144e0 <__aeabi_d2f>
    b84a:	9706      	str	r7, [sp, #24]
    b84c:	6020      	str	r0, [r4, #0]
    b84e:	e613      	b.n	b478 <__svfscanf_r+0x930>
    b850:	f017 0201 	ands.w	r2, r7, #1
    b854:	f47f af28 	bne.w	b6a8 <__svfscanf_r+0xb60>
    b858:	07bc      	lsls	r4, r7, #30
    b85a:	f140 8097 	bpl.w	b98c <__svfscanf_r+0xe44>
    b85e:	4b57      	ldr	r3, [pc, #348]	; (b9bc <__svfscanf_r+0xe74>)
    b860:	9c09      	ldr	r4, [sp, #36]	; 0x24
    b862:	4630      	mov	r0, r6
    b864:	429c      	cmp	r4, r3
    b866:	9905      	ldr	r1, [sp, #20]
    b868:	9b0c      	ldr	r3, [sp, #48]	; 0x30
    b86a:	f000 80a2 	beq.w	b9b2 <__svfscanf_r+0xe6a>
    b86e:	f003 fded 	bl	f44c <_strtoll_r>
    b872:	f8dd c018 	ldr.w	ip, [sp, #24]
    b876:	f8dc 3000 	ldr.w	r3, [ip]
    b87a:	f10c 0c04 	add.w	ip, ip, #4
    b87e:	f8cd c018 	str.w	ip, [sp, #24]
    b882:	e9c3 0100 	strd	r0, r1, [r3]
    b886:	e718      	b.n	b6ba <__svfscanf_r+0xb72>
    b888:	9204      	str	r2, [sp, #16]
    b88a:	f001 fc4b 	bl	d124 <__locale_mb_cur_max>
    b88e:	9a04      	ldr	r2, [sp, #16]
    b890:	4290      	cmp	r0, r2
    b892:	f43f abf0 	beq.w	b076 <__svfscanf_r+0x52e>
    b896:	682b      	ldr	r3, [r5, #0]
    b898:	6869      	ldr	r1, [r5, #4]
    b89a:	f813 eb01 	ldrb.w	lr, [r3], #1
    b89e:	980a      	ldr	r0, [sp, #40]	; 0x28
    b8a0:	f50d 7cac 	add.w	ip, sp, #344	; 0x158
    b8a4:	1c57      	adds	r7, r2, #1
    b8a6:	3901      	subs	r1, #1
    b8a8:	602b      	str	r3, [r5, #0]
    b8aa:	9000      	str	r0, [sp, #0]
    b8ac:	463b      	mov	r3, r7
    b8ae:	6069      	str	r1, [r5, #4]
    b8b0:	f80c e002 	strb.w	lr, [ip, r2]
    b8b4:	4630      	mov	r0, r6
    b8b6:	4651      	mov	r1, sl
    b8b8:	4662      	mov	r2, ip
    b8ba:	f001 fcd3 	bl	d264 <_mbrtowc_r>
    b8be:	1c43      	adds	r3, r0, #1
    b8c0:	f43f abd9 	beq.w	b076 <__svfscanf_r+0x52e>
    b8c4:	b9c8      	cbnz	r0, b8fa <__svfscanf_r+0xdb2>
    b8c6:	f8ca 0000 	str.w	r0, [sl]
    b8ca:	f001 fbf9 	bl	d0c0 <iswspace>
    b8ce:	2800      	cmp	r0, #0
    b8d0:	d053      	beq.n	b97a <__svfscanf_r+0xe32>
    b8d2:	2f00      	cmp	r7, #0
    b8d4:	f43f ac66 	beq.w	b1a4 <__svfscanf_r+0x65c>
    b8d8:	ac56      	add	r4, sp, #344	; 0x158
    b8da:	443c      	add	r4, r7
    b8dc:	3f01      	subs	r7, #1
    b8de:	4630      	mov	r0, r6
    b8e0:	f814 1d01 	ldrb.w	r1, [r4, #-1]!
    b8e4:	462a      	mov	r2, r5
    b8e6:	f005 fa99 	bl	10e1c <_ungetc_r>
    b8ea:	2f00      	cmp	r7, #0
    b8ec:	d1f6      	bne.n	b8dc <__svfscanf_r+0xd94>
    b8ee:	e459      	b.n	b1a4 <__svfscanf_r+0x65c>
    b8f0:	f002 fbca 	bl	e088 <nanf>
    b8f4:	9706      	str	r7, [sp, #24]
    b8f6:	6020      	str	r0, [r4, #0]
    b8f8:	e5be      	b.n	b478 <__svfscanf_r+0x930>
    b8fa:	3002      	adds	r0, #2
    b8fc:	d128      	bne.n	b950 <__svfscanf_r+0xe08>
    b8fe:	686b      	ldr	r3, [r5, #4]
    b900:	2b00      	cmp	r3, #0
    b902:	dd4b      	ble.n	b99c <__svfscanf_r+0xe54>
    b904:	463a      	mov	r2, r7
    b906:	e442      	b.n	b18e <__svfscanf_r+0x646>
    b908:	9c05      	ldr	r4, [sp, #20]
    b90a:	45a3      	cmp	fp, r4
    b90c:	bf88      	it	hi
    b90e:	465c      	movhi	r4, fp
    b910:	f67f a961 	bls.w	abd6 <__svfscanf_r+0x8e>
    b914:	f814 1d01 	ldrb.w	r1, [r4, #-1]!
    b918:	980e      	ldr	r0, [sp, #56]	; 0x38
    b91a:	462a      	mov	r2, r5
    b91c:	f005 fa7e 	bl	10e1c <_ungetc_r>
    b920:	f8dd 9014 	ldr.w	r9, [sp, #20]
    b924:	454c      	cmp	r4, r9
    b926:	d1f5      	bne.n	b914 <__svfscanf_r+0xdcc>
    b928:	f7ff b955 	b.w	abd6 <__svfscanf_r+0x8e>
    b92c:	f8dd c014 	ldr.w	ip, [sp, #20]
    b930:	45e3      	cmp	fp, ip
    b932:	f67f a950 	bls.w	abd6 <__svfscanf_r+0x8e>
    b936:	465c      	mov	r4, fp
    b938:	f814 1d01 	ldrb.w	r1, [r4, #-1]!
    b93c:	980e      	ldr	r0, [sp, #56]	; 0x38
    b93e:	462a      	mov	r2, r5
    b940:	f005 fa6c 	bl	10e1c <_ungetc_r>
    b944:	f8dd 9014 	ldr.w	r9, [sp, #20]
    b948:	454c      	cmp	r4, r9
    b94a:	d1f5      	bne.n	b938 <__svfscanf_r+0xdf0>
    b94c:	f7ff b943 	b.w	abd6 <__svfscanf_r+0x8e>
    b950:	f8da 0000 	ldr.w	r0, [sl]
    b954:	e7b9      	b.n	b8ca <__svfscanf_r+0xd82>
    b956:	f8dd 9014 	ldr.w	r9, [sp, #20]
    b95a:	45cb      	cmp	fp, r9
    b95c:	f67f a93b 	bls.w	abd6 <__svfscanf_r+0x8e>
    b960:	465c      	mov	r4, fp
    b962:	f814 1d01 	ldrb.w	r1, [r4, #-1]!
    b966:	980e      	ldr	r0, [sp, #56]	; 0x38
    b968:	462a      	mov	r2, r5
    b96a:	f005 fa57 	bl	10e1c <_ungetc_r>
    b96e:	f8dd c014 	ldr.w	ip, [sp, #20]
    b972:	4564      	cmp	r4, ip
    b974:	d1f5      	bne.n	b962 <__svfscanf_r+0xe1a>
    b976:	f7ff b92e 	b.w	abd6 <__svfscanf_r+0x8e>
    b97a:	44b9      	add	r9, r7
    b97c:	3c01      	subs	r4, #1
    b97e:	f1bb 0f00 	cmp.w	fp, #0
    b982:	d109      	bne.n	b998 <__svfscanf_r+0xe50>
    b984:	f10a 0a04 	add.w	sl, sl, #4
    b988:	465f      	mov	r7, fp
    b98a:	e7b8      	b.n	b8fe <__svfscanf_r+0xdb6>
    b98c:	9c06      	ldr	r4, [sp, #24]
    b98e:	6823      	ldr	r3, [r4, #0]
    b990:	3404      	adds	r4, #4
    b992:	9406      	str	r4, [sp, #24]
    b994:	6018      	str	r0, [r3, #0]
    b996:	e690      	b.n	b6ba <__svfscanf_r+0xb72>
    b998:	4607      	mov	r7, r0
    b99a:	e7b0      	b.n	b8fe <__svfscanf_r+0xdb6>
    b99c:	4630      	mov	r0, r6
    b99e:	4629      	mov	r1, r5
    b9a0:	f002 fa88 	bl	deb4 <__srefill_r>
    b9a4:	2800      	cmp	r0, #0
    b9a6:	d0ad      	beq.n	b904 <__svfscanf_r+0xdbc>
    b9a8:	2f00      	cmp	r7, #0
    b9aa:	f47f ab64 	bne.w	b076 <__svfscanf_r+0x52e>
    b9ae:	f7ff bbf9 	b.w	b1a4 <__svfscanf_r+0x65c>
    b9b2:	f003 febd 	bl	f730 <_strtoull_r>
    b9b6:	e75c      	b.n	b872 <__svfscanf_r+0xd2a>
    b9b8:	00014c54 	.word	0x00014c54
    b9bc:	0000f5e9 	.word	0x0000f5e9

0000b9c0 <vfscanf>:
    b9c0:	4b0a      	ldr	r3, [pc, #40]	; (b9ec <vfscanf+0x2c>)
    b9c2:	e92d 41f0 	stmdb	sp!, {r4, r5, r6, r7, r8, lr}
    b9c6:	681c      	ldr	r4, [r3, #0]
    b9c8:	4607      	mov	r7, r0
    b9ca:	460e      	mov	r6, r1
    b9cc:	4615      	mov	r5, r2
    b9ce:	b124      	cbz	r4, b9da <vfscanf+0x1a>
    b9d0:	6ba3      	ldr	r3, [r4, #56]	; 0x38
    b9d2:	b913      	cbnz	r3, b9da <vfscanf+0x1a>
    b9d4:	4620      	mov	r0, r4
    b9d6:	f7fd f947 	bl	8c68 <__sinit>
    b9da:	4620      	mov	r0, r4
    b9dc:	4639      	mov	r1, r7
    b9de:	4632      	mov	r2, r6
    b9e0:	462b      	mov	r3, r5
    b9e2:	e8bd 41f0 	ldmia.w	sp!, {r4, r5, r6, r7, r8, lr}
    b9e6:	f7ff b8af 	b.w	ab48 <__svfscanf_r>
    b9ea:	bf00      	nop
    b9ec:	0001d5e8 	.word	0x0001d5e8

0000b9f0 <__svfscanf>:
    b9f0:	b430      	push	{r4, r5}
    b9f2:	4c04      	ldr	r4, [pc, #16]	; (ba04 <__svfscanf+0x14>)
    b9f4:	460d      	mov	r5, r1
    b9f6:	4613      	mov	r3, r2
    b9f8:	4601      	mov	r1, r0
    b9fa:	462a      	mov	r2, r5
    b9fc:	6820      	ldr	r0, [r4, #0]
    b9fe:	bc30      	pop	{r4, r5}
    ba00:	f7ff b8a2 	b.w	ab48 <__svfscanf_r>
    ba04:	0001d5e8 	.word	0x0001d5e8

0000ba08 <_vfscanf_r>:
    ba08:	b530      	push	{r4, r5, lr}
    ba0a:	4604      	mov	r4, r0
    ba0c:	b085      	sub	sp, #20
    ba0e:	b148      	cbz	r0, ba24 <_vfscanf_r+0x1c>
    ba10:	6b85      	ldr	r5, [r0, #56]	; 0x38
    ba12:	b93d      	cbnz	r5, ba24 <_vfscanf_r+0x1c>
    ba14:	9103      	str	r1, [sp, #12]
    ba16:	9202      	str	r2, [sp, #8]
    ba18:	9301      	str	r3, [sp, #4]
    ba1a:	f7fd f925 	bl	8c68 <__sinit>
    ba1e:	9b01      	ldr	r3, [sp, #4]
    ba20:	9a02      	ldr	r2, [sp, #8]
    ba22:	9903      	ldr	r1, [sp, #12]
    ba24:	4620      	mov	r0, r4
    ba26:	b005      	add	sp, #20
    ba28:	e8bd 4030 	ldmia.w	sp!, {r4, r5, lr}
    ba2c:	f7ff b88c 	b.w	ab48 <__svfscanf_r>

0000ba30 <_write_r>:
    ba30:	b570      	push	{r4, r5, r6, lr}
    ba32:	4c08      	ldr	r4, [pc, #32]	; (ba54 <_write_r+0x24>)
    ba34:	4606      	mov	r6, r0
    ba36:	2500      	movs	r5, #0
    ba38:	4608      	mov	r0, r1
    ba3a:	4611      	mov	r1, r2
    ba3c:	461a      	mov	r2, r3
    ba3e:	6025      	str	r5, [r4, #0]
    ba40:	f7fc fe00 	bl	8644 <_write>
    ba44:	1c43      	adds	r3, r0, #1
    ba46:	d000      	beq.n	ba4a <_write_r+0x1a>
    ba48:	bd70      	pop	{r4, r5, r6, pc}
    ba4a:	6823      	ldr	r3, [r4, #0]
    ba4c:	2b00      	cmp	r3, #0
    ba4e:	d0fb      	beq.n	ba48 <_write_r+0x18>
    ba50:	6033      	str	r3, [r6, #0]
    ba52:	bd70      	pop	{r4, r5, r6, pc}
    ba54:	0001db90 	.word	0x0001db90

0000ba58 <__swsetup_r>:
    ba58:	4b2f      	ldr	r3, [pc, #188]	; (bb18 <__swsetup_r+0xc0>)
    ba5a:	b570      	push	{r4, r5, r6, lr}
    ba5c:	4606      	mov	r6, r0
    ba5e:	6818      	ldr	r0, [r3, #0]
    ba60:	460c      	mov	r4, r1
    ba62:	b110      	cbz	r0, ba6a <__swsetup_r+0x12>
    ba64:	6b82      	ldr	r2, [r0, #56]	; 0x38
    ba66:	2a00      	cmp	r2, #0
    ba68:	d036      	beq.n	bad8 <__swsetup_r+0x80>
    ba6a:	89a5      	ldrh	r5, [r4, #12]
    ba6c:	b2ab      	uxth	r3, r5
    ba6e:	0719      	lsls	r1, r3, #28
    ba70:	d50c      	bpl.n	ba8c <__swsetup_r+0x34>
    ba72:	6922      	ldr	r2, [r4, #16]
    ba74:	b1aa      	cbz	r2, baa2 <__swsetup_r+0x4a>
    ba76:	f013 0101 	ands.w	r1, r3, #1
    ba7a:	d01e      	beq.n	baba <__swsetup_r+0x62>
    ba7c:	6963      	ldr	r3, [r4, #20]
    ba7e:	2100      	movs	r1, #0
    ba80:	425b      	negs	r3, r3
    ba82:	61a3      	str	r3, [r4, #24]
    ba84:	60a1      	str	r1, [r4, #8]
    ba86:	b1f2      	cbz	r2, bac6 <__swsetup_r+0x6e>
    ba88:	2000      	movs	r0, #0
    ba8a:	bd70      	pop	{r4, r5, r6, pc}
    ba8c:	06da      	lsls	r2, r3, #27
    ba8e:	d53a      	bpl.n	bb06 <__swsetup_r+0xae>
    ba90:	075b      	lsls	r3, r3, #29
    ba92:	d424      	bmi.n	bade <__swsetup_r+0x86>
    ba94:	6922      	ldr	r2, [r4, #16]
    ba96:	f045 0308 	orr.w	r3, r5, #8
    ba9a:	81a3      	strh	r3, [r4, #12]
    ba9c:	b29b      	uxth	r3, r3
    ba9e:	2a00      	cmp	r2, #0
    baa0:	d1e9      	bne.n	ba76 <__swsetup_r+0x1e>
    baa2:	f403 7120 	and.w	r1, r3, #640	; 0x280
    baa6:	f5b1 7f00 	cmp.w	r1, #512	; 0x200
    baaa:	d0e4      	beq.n	ba76 <__swsetup_r+0x1e>
    baac:	4630      	mov	r0, r6
    baae:	4621      	mov	r1, r4
    bab0:	f001 fb68 	bl	d184 <__smakebuf_r>
    bab4:	89a3      	ldrh	r3, [r4, #12]
    bab6:	6922      	ldr	r2, [r4, #16]
    bab8:	e7dd      	b.n	ba76 <__swsetup_r+0x1e>
    baba:	0798      	lsls	r0, r3, #30
    babc:	bf58      	it	pl
    babe:	6961      	ldrpl	r1, [r4, #20]
    bac0:	60a1      	str	r1, [r4, #8]
    bac2:	2a00      	cmp	r2, #0
    bac4:	d1e0      	bne.n	ba88 <__swsetup_r+0x30>
    bac6:	89a3      	ldrh	r3, [r4, #12]
    bac8:	061a      	lsls	r2, r3, #24
    baca:	d5dd      	bpl.n	ba88 <__swsetup_r+0x30>
    bacc:	f043 0340 	orr.w	r3, r3, #64	; 0x40
    bad0:	81a3      	strh	r3, [r4, #12]
    bad2:	f04f 30ff 	mov.w	r0, #4294967295
    bad6:	bd70      	pop	{r4, r5, r6, pc}
    bad8:	f7fd f8c6 	bl	8c68 <__sinit>
    badc:	e7c5      	b.n	ba6a <__swsetup_r+0x12>
    bade:	6b21      	ldr	r1, [r4, #48]	; 0x30
    bae0:	b149      	cbz	r1, baf6 <__swsetup_r+0x9e>
    bae2:	f104 0340 	add.w	r3, r4, #64	; 0x40
    bae6:	4299      	cmp	r1, r3
    bae8:	d003      	beq.n	baf2 <__swsetup_r+0x9a>
    baea:	4630      	mov	r0, r6
    baec:	f001 fa1c 	bl	cf28 <_free_r>
    baf0:	89a5      	ldrh	r5, [r4, #12]
    baf2:	2300      	movs	r3, #0
    baf4:	6323      	str	r3, [r4, #48]	; 0x30
    baf6:	6922      	ldr	r2, [r4, #16]
    baf8:	f025 0524 	bic.w	r5, r5, #36	; 0x24
    bafc:	2100      	movs	r1, #0
    bafe:	b2ad      	uxth	r5, r5
    bb00:	6022      	str	r2, [r4, #0]
    bb02:	6061      	str	r1, [r4, #4]
    bb04:	e7c7      	b.n	ba96 <__swsetup_r+0x3e>
    bb06:	f045 0540 	orr.w	r5, r5, #64	; 0x40
    bb0a:	2309      	movs	r3, #9
    bb0c:	6033      	str	r3, [r6, #0]
    bb0e:	f04f 30ff 	mov.w	r0, #4294967295
    bb12:	81a5      	strh	r5, [r4, #12]
    bb14:	bd70      	pop	{r4, r5, r6, pc}
    bb16:	bf00      	nop
    bb18:	0001d5e8 	.word	0x0001d5e8

0000bb1c <_close_r>:
    bb1c:	b538      	push	{r3, r4, r5, lr}
    bb1e:	4c07      	ldr	r4, [pc, #28]	; (bb3c <_close_r+0x20>)
    bb20:	2300      	movs	r3, #0
    bb22:	4605      	mov	r5, r0
    bb24:	4608      	mov	r0, r1
    bb26:	6023      	str	r3, [r4, #0]
    bb28:	f7fc fdcc 	bl	86c4 <_close>
    bb2c:	1c43      	adds	r3, r0, #1
    bb2e:	d000      	beq.n	bb32 <_close_r+0x16>
    bb30:	bd38      	pop	{r3, r4, r5, pc}
    bb32:	6823      	ldr	r3, [r4, #0]
    bb34:	2b00      	cmp	r3, #0
    bb36:	d0fb      	beq.n	bb30 <_close_r+0x14>
    bb38:	602b      	str	r3, [r5, #0]
    bb3a:	bd38      	pop	{r3, r4, r5, pc}
    bb3c:	0001db90 	.word	0x0001db90

0000bb40 <quorem>:
    bb40:	e92d 4ff0 	stmdb	sp!, {r4, r5, r6, r7, r8, r9, sl, fp, lr}
    bb44:	6903      	ldr	r3, [r0, #16]
    bb46:	690d      	ldr	r5, [r1, #16]
    bb48:	b083      	sub	sp, #12
    bb4a:	429d      	cmp	r5, r3
    bb4c:	4683      	mov	fp, r0
    bb4e:	f300 808c 	bgt.w	bc6a <quorem+0x12a>
    bb52:	3d01      	subs	r5, #1
    bb54:	f101 0414 	add.w	r4, r1, #20
    bb58:	f100 0a14 	add.w	sl, r0, #20
    bb5c:	f854 2025 	ldr.w	r2, [r4, r5, lsl #2]
    bb60:	f85a 3025 	ldr.w	r3, [sl, r5, lsl #2]
    bb64:	3201      	adds	r2, #1
    bb66:	fbb3 f8f2 	udiv	r8, r3, r2
    bb6a:	00aa      	lsls	r2, r5, #2
    bb6c:	4691      	mov	r9, r2
    bb6e:	9200      	str	r2, [sp, #0]
    bb70:	4452      	add	r2, sl
    bb72:	44a1      	add	r9, r4
    bb74:	9201      	str	r2, [sp, #4]
    bb76:	f1b8 0f00 	cmp.w	r8, #0
    bb7a:	d03e      	beq.n	bbfa <quorem+0xba>
    bb7c:	2600      	movs	r6, #0
    bb7e:	4630      	mov	r0, r6
    bb80:	4622      	mov	r2, r4
    bb82:	4653      	mov	r3, sl
    bb84:	468c      	mov	ip, r1
    bb86:	f852 7b04 	ldr.w	r7, [r2], #4
    bb8a:	6819      	ldr	r1, [r3, #0]
    bb8c:	fa1f fe87 	uxth.w	lr, r7
    bb90:	0c3f      	lsrs	r7, r7, #16
    bb92:	fb0e 6e08 	mla	lr, lr, r8, r6
    bb96:	fb07 f608 	mul.w	r6, r7, r8
    bb9a:	eb06 461e 	add.w	r6, r6, lr, lsr #16
    bb9e:	fa1f fe8e 	uxth.w	lr, lr
    bba2:	ebce 0e00 	rsb	lr, lr, r0
    bba6:	b28f      	uxth	r7, r1
    bba8:	b2b0      	uxth	r0, r6
    bbaa:	4477      	add	r7, lr
    bbac:	ebc0 4011 	rsb	r0, r0, r1, lsr #16
    bbb0:	eb00 4027 	add.w	r0, r0, r7, asr #16
    bbb4:	b2bf      	uxth	r7, r7
    bbb6:	ea47 4700 	orr.w	r7, r7, r0, lsl #16
    bbba:	4591      	cmp	r9, r2
    bbbc:	f843 7b04 	str.w	r7, [r3], #4
    bbc0:	ea4f 4020 	mov.w	r0, r0, asr #16
    bbc4:	ea4f 4616 	mov.w	r6, r6, lsr #16
    bbc8:	d2dd      	bcs.n	bb86 <quorem+0x46>
    bbca:	9a00      	ldr	r2, [sp, #0]
    bbcc:	4661      	mov	r1, ip
    bbce:	f85a 3002 	ldr.w	r3, [sl, r2]
    bbd2:	b993      	cbnz	r3, bbfa <quorem+0xba>
    bbd4:	9a01      	ldr	r2, [sp, #4]
    bbd6:	1f13      	subs	r3, r2, #4
    bbd8:	459a      	cmp	sl, r3
    bbda:	d20c      	bcs.n	bbf6 <quorem+0xb6>
    bbdc:	f852 3c04 	ldr.w	r3, [r2, #-4]
    bbe0:	b94b      	cbnz	r3, bbf6 <quorem+0xb6>
    bbe2:	f1a2 0308 	sub.w	r3, r2, #8
    bbe6:	e002      	b.n	bbee <quorem+0xae>
    bbe8:	681a      	ldr	r2, [r3, #0]
    bbea:	3b04      	subs	r3, #4
    bbec:	b91a      	cbnz	r2, bbf6 <quorem+0xb6>
    bbee:	459a      	cmp	sl, r3
    bbf0:	f105 35ff 	add.w	r5, r5, #4294967295
    bbf4:	d3f8      	bcc.n	bbe8 <quorem+0xa8>
    bbf6:	f8cb 5010 	str.w	r5, [fp, #16]
    bbfa:	4658      	mov	r0, fp
    bbfc:	f001 fee6 	bl	d9cc <__mcmp>
    bc00:	2800      	cmp	r0, #0
    bc02:	db2e      	blt.n	bc62 <quorem+0x122>
    bc04:	f108 0801 	add.w	r8, r8, #1
    bc08:	4653      	mov	r3, sl
    bc0a:	2200      	movs	r2, #0
    bc0c:	f854 6b04 	ldr.w	r6, [r4], #4
    bc10:	6818      	ldr	r0, [r3, #0]
    bc12:	b2b1      	uxth	r1, r6
    bc14:	1a51      	subs	r1, r2, r1
    bc16:	b287      	uxth	r7, r0
    bc18:	0c36      	lsrs	r6, r6, #16
    bc1a:	4439      	add	r1, r7
    bc1c:	ebc6 4010 	rsb	r0, r6, r0, lsr #16
    bc20:	eb00 4221 	add.w	r2, r0, r1, asr #16
    bc24:	b289      	uxth	r1, r1
    bc26:	ea41 4102 	orr.w	r1, r1, r2, lsl #16
    bc2a:	45a1      	cmp	r9, r4
    bc2c:	f843 1b04 	str.w	r1, [r3], #4
    bc30:	ea4f 4222 	mov.w	r2, r2, asr #16
    bc34:	d2ea      	bcs.n	bc0c <quorem+0xcc>
    bc36:	f85a 2025 	ldr.w	r2, [sl, r5, lsl #2]
    bc3a:	eb0a 0385 	add.w	r3, sl, r5, lsl #2
    bc3e:	b982      	cbnz	r2, bc62 <quorem+0x122>
    bc40:	1f1a      	subs	r2, r3, #4
    bc42:	4592      	cmp	sl, r2
    bc44:	d20b      	bcs.n	bc5e <quorem+0x11e>
    bc46:	f853 2c04 	ldr.w	r2, [r3, #-4]
    bc4a:	b942      	cbnz	r2, bc5e <quorem+0x11e>
    bc4c:	3b08      	subs	r3, #8
    bc4e:	e002      	b.n	bc56 <quorem+0x116>
    bc50:	681a      	ldr	r2, [r3, #0]
    bc52:	3b04      	subs	r3, #4
    bc54:	b91a      	cbnz	r2, bc5e <quorem+0x11e>
    bc56:	459a      	cmp	sl, r3
    bc58:	f105 35ff 	add.w	r5, r5, #4294967295
    bc5c:	d3f8      	bcc.n	bc50 <quorem+0x110>
    bc5e:	f8cb 5010 	str.w	r5, [fp, #16]
    bc62:	4640      	mov	r0, r8
    bc64:	b003      	add	sp, #12
    bc66:	e8bd 8ff0 	ldmia.w	sp!, {r4, r5, r6, r7, r8, r9, sl, fp, pc}
    bc6a:	2000      	movs	r0, #0
    bc6c:	b003      	add	sp, #12
    bc6e:	e8bd 8ff0 	ldmia.w	sp!, {r4, r5, r6, r7, r8, r9, sl, fp, pc}
    bc72:	bf00      	nop
    bc74:	0000      	movs	r0, r0
	...

0000bc78 <_dtoa_r>:
    bc78:	e92d 4ff0 	stmdb	sp!, {r4, r5, r6, r7, r8, r9, sl, fp, lr}
    bc7c:	6c01      	ldr	r1, [r0, #64]	; 0x40
    bc7e:	b09b      	sub	sp, #108	; 0x6c
    bc80:	4604      	mov	r4, r0
    bc82:	4692      	mov	sl, r2
    bc84:	469b      	mov	fp, r3
    bc86:	9d27      	ldr	r5, [sp, #156]	; 0x9c
    bc88:	b141      	cbz	r1, bc9c <_dtoa_r+0x24>
    bc8a:	6c43      	ldr	r3, [r0, #68]	; 0x44
    bc8c:	2201      	movs	r2, #1
    bc8e:	409a      	lsls	r2, r3
    bc90:	604b      	str	r3, [r1, #4]
    bc92:	608a      	str	r2, [r1, #8]
    bc94:	f001 fc58 	bl	d548 <_Bfree>
    bc98:	2300      	movs	r3, #0
    bc9a:	6423      	str	r3, [r4, #64]	; 0x40
    bc9c:	f1bb 0f00 	cmp.w	fp, #0
    bca0:	46d9      	mov	r9, fp
    bca2:	db33      	blt.n	bd0c <_dtoa_r+0x94>
    bca4:	2300      	movs	r3, #0
    bca6:	602b      	str	r3, [r5, #0]
    bca8:	4ba5      	ldr	r3, [pc, #660]	; (bf40 <_dtoa_r+0x2c8>)
    bcaa:	461a      	mov	r2, r3
    bcac:	ea09 0303 	and.w	r3, r9, r3
    bcb0:	4293      	cmp	r3, r2
    bcb2:	d014      	beq.n	bcde <_dtoa_r+0x66>
    bcb4:	4650      	mov	r0, sl
    bcb6:	4659      	mov	r1, fp
    bcb8:	2200      	movs	r2, #0
    bcba:	2300      	movs	r3, #0
    bcbc:	f008 fb96 	bl	143ec <__aeabi_dcmpeq>
    bcc0:	4680      	mov	r8, r0
    bcc2:	b348      	cbz	r0, bd18 <_dtoa_r+0xa0>
    bcc4:	9e26      	ldr	r6, [sp, #152]	; 0x98
    bcc6:	9d28      	ldr	r5, [sp, #160]	; 0xa0
    bcc8:	2301      	movs	r3, #1
    bcca:	6033      	str	r3, [r6, #0]
    bccc:	2d00      	cmp	r5, #0
    bcce:	f000 80ca 	beq.w	be66 <_dtoa_r+0x1ee>
    bcd2:	489c      	ldr	r0, [pc, #624]	; (bf44 <_dtoa_r+0x2cc>)
    bcd4:	6028      	str	r0, [r5, #0]
    bcd6:	3801      	subs	r0, #1
    bcd8:	b01b      	add	sp, #108	; 0x6c
    bcda:	e8bd 8ff0 	ldmia.w	sp!, {r4, r5, r6, r7, r8, r9, sl, fp, pc}
    bcde:	9d26      	ldr	r5, [sp, #152]	; 0x98
    bce0:	f242 730f 	movw	r3, #9999	; 0x270f
    bce4:	602b      	str	r3, [r5, #0]
    bce6:	f1ba 0f00 	cmp.w	sl, #0
    bcea:	f000 80a5 	beq.w	be38 <_dtoa_r+0x1c0>
    bcee:	4896      	ldr	r0, [pc, #600]	; (bf48 <_dtoa_r+0x2d0>)
    bcf0:	9e28      	ldr	r6, [sp, #160]	; 0xa0
    bcf2:	2e00      	cmp	r6, #0
    bcf4:	d0f0      	beq.n	bcd8 <_dtoa_r+0x60>
    bcf6:	78c3      	ldrb	r3, [r0, #3]
    bcf8:	2b00      	cmp	r3, #0
    bcfa:	f000 80b6 	beq.w	be6a <_dtoa_r+0x1f2>
    bcfe:	f100 0308 	add.w	r3, r0, #8
    bd02:	9d28      	ldr	r5, [sp, #160]	; 0xa0
    bd04:	602b      	str	r3, [r5, #0]
    bd06:	b01b      	add	sp, #108	; 0x6c
    bd08:	e8bd 8ff0 	ldmia.w	sp!, {r4, r5, r6, r7, r8, r9, sl, fp, pc}
    bd0c:	2301      	movs	r3, #1
    bd0e:	f02b 4900 	bic.w	r9, fp, #2147483648	; 0x80000000
    bd12:	602b      	str	r3, [r5, #0]
    bd14:	46cb      	mov	fp, r9
    bd16:	e7c7      	b.n	bca8 <_dtoa_r+0x30>
    bd18:	aa19      	add	r2, sp, #100	; 0x64
    bd1a:	ab18      	add	r3, sp, #96	; 0x60
    bd1c:	e88d 000c 	stmia.w	sp, {r2, r3}
    bd20:	4620      	mov	r0, r4
    bd22:	4652      	mov	r2, sl
    bd24:	465b      	mov	r3, fp
    bd26:	f001 ff5d 	bl	dbe4 <__d2b>
    bd2a:	ea5f 5519 	movs.w	r5, r9, lsr #20
    bd2e:	900a      	str	r0, [sp, #40]	; 0x28
    bd30:	f040 808b 	bne.w	be4a <_dtoa_r+0x1d2>
    bd34:	9f18      	ldr	r7, [sp, #96]	; 0x60
    bd36:	9d19      	ldr	r5, [sp, #100]	; 0x64
    bd38:	f46f 6382 	mvn.w	r3, #1040	; 0x410
    bd3c:	443d      	add	r5, r7
    bd3e:	429d      	cmp	r5, r3
    bd40:	f2c0 8295 	blt.w	c26e <_dtoa_r+0x5f6>
    bd44:	331f      	adds	r3, #31
    bd46:	f205 4212 	addw	r2, r5, #1042	; 0x412
    bd4a:	1b5b      	subs	r3, r3, r5
    bd4c:	fa09 f303 	lsl.w	r3, r9, r3
    bd50:	fa2a f202 	lsr.w	r2, sl, r2
    bd54:	ea43 0002 	orr.w	r0, r3, r2
    bd58:	f008 f86a 	bl	13e30 <__aeabi_ui2d>
    bd5c:	2601      	movs	r6, #1
    bd5e:	3d01      	subs	r5, #1
    bd60:	46b8      	mov	r8, r7
    bd62:	f1a1 71f8 	sub.w	r1, r1, #32505856	; 0x1f00000
    bd66:	9616      	str	r6, [sp, #88]	; 0x58
    bd68:	2200      	movs	r2, #0
    bd6a:	4b78      	ldr	r3, [pc, #480]	; (bf4c <_dtoa_r+0x2d4>)
    bd6c:	f007 ff22 	bl	13bb4 <__aeabi_dsub>
    bd70:	a36d      	add	r3, pc, #436	; (adr r3, bf28 <_dtoa_r+0x2b0>)
    bd72:	e9d3 2300 	ldrd	r2, r3, [r3]
    bd76:	f008 f8d1 	bl	13f1c <__aeabi_dmul>
    bd7a:	a36d      	add	r3, pc, #436	; (adr r3, bf30 <_dtoa_r+0x2b8>)
    bd7c:	e9d3 2300 	ldrd	r2, r3, [r3]
    bd80:	f007 ff1a 	bl	13bb8 <__adddf3>
    bd84:	4606      	mov	r6, r0
    bd86:	4628      	mov	r0, r5
    bd88:	460f      	mov	r7, r1
    bd8a:	f008 f861 	bl	13e50 <__aeabi_i2d>
    bd8e:	a36a      	add	r3, pc, #424	; (adr r3, bf38 <_dtoa_r+0x2c0>)
    bd90:	e9d3 2300 	ldrd	r2, r3, [r3]
    bd94:	f008 f8c2 	bl	13f1c <__aeabi_dmul>
    bd98:	4602      	mov	r2, r0
    bd9a:	460b      	mov	r3, r1
    bd9c:	4630      	mov	r0, r6
    bd9e:	4639      	mov	r1, r7
    bda0:	f007 ff0a 	bl	13bb8 <__adddf3>
    bda4:	4606      	mov	r6, r0
    bda6:	460f      	mov	r7, r1
    bda8:	f008 fb52 	bl	14450 <__aeabi_d2iz>
    bdac:	4639      	mov	r1, r7
    bdae:	9007      	str	r0, [sp, #28]
    bdb0:	2200      	movs	r2, #0
    bdb2:	4630      	mov	r0, r6
    bdb4:	2300      	movs	r3, #0
    bdb6:	f008 fb23 	bl	14400 <__aeabi_dcmplt>
    bdba:	2800      	cmp	r0, #0
    bdbc:	f040 8229 	bne.w	c212 <_dtoa_r+0x59a>
    bdc0:	9e07      	ldr	r6, [sp, #28]
    bdc2:	2e16      	cmp	r6, #22
    bdc4:	f200 8222 	bhi.w	c20c <_dtoa_r+0x594>
    bdc8:	4961      	ldr	r1, [pc, #388]	; (bf50 <_dtoa_r+0x2d8>)
    bdca:	4652      	mov	r2, sl
    bdcc:	eb01 01c6 	add.w	r1, r1, r6, lsl #3
    bdd0:	465b      	mov	r3, fp
    bdd2:	e9d1 0100 	ldrd	r0, r1, [r1]
    bdd6:	f008 fb31 	bl	1443c <__aeabi_dcmpgt>
    bdda:	2800      	cmp	r0, #0
    bddc:	f000 824c 	beq.w	c278 <_dtoa_r+0x600>
    bde0:	3e01      	subs	r6, #1
    bde2:	9607      	str	r6, [sp, #28]
    bde4:	2600      	movs	r6, #0
    bde6:	960e      	str	r6, [sp, #56]	; 0x38
    bde8:	ebc5 0508 	rsb	r5, r5, r8
    bdec:	3d01      	subs	r5, #1
    bdee:	9506      	str	r5, [sp, #24]
    bdf0:	f100 8226 	bmi.w	c240 <_dtoa_r+0x5c8>
    bdf4:	2500      	movs	r5, #0
    bdf6:	9508      	str	r5, [sp, #32]
    bdf8:	9e07      	ldr	r6, [sp, #28]
    bdfa:	2e00      	cmp	r6, #0
    bdfc:	f2c0 8217 	blt.w	c22e <_dtoa_r+0x5b6>
    be00:	9d06      	ldr	r5, [sp, #24]
    be02:	960d      	str	r6, [sp, #52]	; 0x34
    be04:	4435      	add	r5, r6
    be06:	2600      	movs	r6, #0
    be08:	9506      	str	r5, [sp, #24]
    be0a:	960c      	str	r6, [sp, #48]	; 0x30
    be0c:	9d24      	ldr	r5, [sp, #144]	; 0x90
    be0e:	2d09      	cmp	r5, #9
    be10:	d82d      	bhi.n	be6e <_dtoa_r+0x1f6>
    be12:	2d05      	cmp	r5, #5
    be14:	bfc4      	itt	gt
    be16:	3d04      	subgt	r5, #4
    be18:	9524      	strgt	r5, [sp, #144]	; 0x90
    be1a:	9e24      	ldr	r6, [sp, #144]	; 0x90
    be1c:	bfc8      	it	gt
    be1e:	2500      	movgt	r5, #0
    be20:	f1a6 0302 	sub.w	r3, r6, #2
    be24:	bfd8      	it	le
    be26:	2501      	movle	r5, #1
    be28:	2b03      	cmp	r3, #3
    be2a:	d822      	bhi.n	be72 <_dtoa_r+0x1fa>
    be2c:	e8df f013 	tbh	[pc, r3, lsl #1]
    be30:	029e03b7 	.word	0x029e03b7
    be34:	049a03c0 	.word	0x049a03c0
    be38:	4a46      	ldr	r2, [pc, #280]	; (bf54 <_dtoa_r+0x2dc>)
    be3a:	4b43      	ldr	r3, [pc, #268]	; (bf48 <_dtoa_r+0x2d0>)
    be3c:	f3c9 0013 	ubfx	r0, r9, #0, #20
    be40:	2800      	cmp	r0, #0
    be42:	bf0c      	ite	eq
    be44:	4610      	moveq	r0, r2
    be46:	4618      	movne	r0, r3
    be48:	e752      	b.n	bcf0 <_dtoa_r+0x78>
    be4a:	f3cb 0313 	ubfx	r3, fp, #0, #20
    be4e:	f043 517f 	orr.w	r1, r3, #1069547520	; 0x3fc00000
    be52:	f8cd 8058 	str.w	r8, [sp, #88]	; 0x58
    be56:	4650      	mov	r0, sl
    be58:	f2a5 35ff 	subw	r5, r5, #1023	; 0x3ff
    be5c:	f441 1140 	orr.w	r1, r1, #3145728	; 0x300000
    be60:	f8dd 8060 	ldr.w	r8, [sp, #96]	; 0x60
    be64:	e780      	b.n	bd68 <_dtoa_r+0xf0>
    be66:	483c      	ldr	r0, [pc, #240]	; (bf58 <_dtoa_r+0x2e0>)
    be68:	e736      	b.n	bcd8 <_dtoa_r+0x60>
    be6a:	1cc3      	adds	r3, r0, #3
    be6c:	e749      	b.n	bd02 <_dtoa_r+0x8a>
    be6e:	2500      	movs	r5, #0
    be70:	9524      	str	r5, [sp, #144]	; 0x90
    be72:	2500      	movs	r5, #0
    be74:	6465      	str	r5, [r4, #68]	; 0x44
    be76:	4629      	mov	r1, r5
    be78:	4620      	mov	r0, r4
    be7a:	f001 fb3f 	bl	d4fc <_Balloc>
    be7e:	f04f 39ff 	mov.w	r9, #4294967295
    be82:	2601      	movs	r6, #1
    be84:	9009      	str	r0, [sp, #36]	; 0x24
    be86:	9525      	str	r5, [sp, #148]	; 0x94
    be88:	6420      	str	r0, [r4, #64]	; 0x40
    be8a:	f8cd 903c 	str.w	r9, [sp, #60]	; 0x3c
    be8e:	960b      	str	r6, [sp, #44]	; 0x2c
    be90:	9b19      	ldr	r3, [sp, #100]	; 0x64
    be92:	2b00      	cmp	r3, #0
    be94:	f2c0 80d2 	blt.w	c03c <_dtoa_r+0x3c4>
    be98:	9e07      	ldr	r6, [sp, #28]
    be9a:	2e0e      	cmp	r6, #14
    be9c:	f300 80ce 	bgt.w	c03c <_dtoa_r+0x3c4>
    bea0:	4b2b      	ldr	r3, [pc, #172]	; (bf50 <_dtoa_r+0x2d8>)
    bea2:	eb03 03c6 	add.w	r3, r3, r6, lsl #3
    bea6:	e9d3 0100 	ldrd	r0, r1, [r3]
    beaa:	e9cd 0104 	strd	r0, r1, [sp, #16]
    beae:	9925      	ldr	r1, [sp, #148]	; 0x94
    beb0:	2900      	cmp	r1, #0
    beb2:	f2c0 8380 	blt.w	c5b6 <_dtoa_r+0x93e>
    beb6:	e9dd 2304 	ldrd	r2, r3, [sp, #16]
    beba:	4659      	mov	r1, fp
    bebc:	4650      	mov	r0, sl
    bebe:	f008 f957 	bl	14170 <__aeabi_ddiv>
    bec2:	f008 fac5 	bl	14450 <__aeabi_d2iz>
    bec6:	4605      	mov	r5, r0
    bec8:	f007 ffc2 	bl	13e50 <__aeabi_i2d>
    becc:	e9dd 2304 	ldrd	r2, r3, [sp, #16]
    bed0:	f008 f824 	bl	13f1c <__aeabi_dmul>
    bed4:	4602      	mov	r2, r0
    bed6:	460b      	mov	r3, r1
    bed8:	4650      	mov	r0, sl
    beda:	4659      	mov	r1, fp
    bedc:	f007 fe6a 	bl	13bb4 <__aeabi_dsub>
    bee0:	9a09      	ldr	r2, [sp, #36]	; 0x24
    bee2:	f105 0330 	add.w	r3, r5, #48	; 0x30
    bee6:	f1b9 0f01 	cmp.w	r9, #1
    beea:	4606      	mov	r6, r0
    beec:	460f      	mov	r7, r1
    beee:	7013      	strb	r3, [r2, #0]
    bef0:	f102 0b01 	add.w	fp, r2, #1
    bef4:	d064      	beq.n	bfc0 <_dtoa_r+0x348>
    bef6:	2200      	movs	r2, #0
    bef8:	4b18      	ldr	r3, [pc, #96]	; (bf5c <_dtoa_r+0x2e4>)
    befa:	f008 f80f 	bl	13f1c <__aeabi_dmul>
    befe:	2200      	movs	r2, #0
    bf00:	2300      	movs	r3, #0
    bf02:	4606      	mov	r6, r0
    bf04:	460f      	mov	r7, r1
    bf06:	f008 fa71 	bl	143ec <__aeabi_dcmpeq>
    bf0a:	2800      	cmp	r0, #0
    bf0c:	f040 8081 	bne.w	c012 <_dtoa_r+0x39a>
    bf10:	f8dd 8024 	ldr.w	r8, [sp, #36]	; 0x24
    bf14:	9d09      	ldr	r5, [sp, #36]	; 0x24
    bf16:	44c8      	add	r8, r9
    bf18:	e9dd ab04 	ldrd	sl, fp, [sp, #16]
    bf1c:	f105 0902 	add.w	r9, r5, #2
    bf20:	9403      	str	r4, [sp, #12]
    bf22:	e028      	b.n	bf76 <_dtoa_r+0x2fe>
    bf24:	f3af 8000 	nop.w
    bf28:	636f4361 	.word	0x636f4361
    bf2c:	3fd287a7 	.word	0x3fd287a7
    bf30:	8b60c8b3 	.word	0x8b60c8b3
    bf34:	3fc68a28 	.word	0x3fc68a28
    bf38:	509f79fb 	.word	0x509f79fb
    bf3c:	3fd34413 	.word	0x3fd34413
    bf40:	7ff00000 	.word	0x7ff00000
    bf44:	00014c41 	.word	0x00014c41
    bf48:	00014d90 	.word	0x00014d90
    bf4c:	3ff80000 	.word	0x3ff80000
    bf50:	00014da0 	.word	0x00014da0
    bf54:	00014d84 	.word	0x00014d84
    bf58:	00014c40 	.word	0x00014c40
    bf5c:	40240000 	.word	0x40240000
    bf60:	f007 ffdc 	bl	13f1c <__aeabi_dmul>
    bf64:	2200      	movs	r2, #0
    bf66:	2300      	movs	r3, #0
    bf68:	4606      	mov	r6, r0
    bf6a:	460f      	mov	r7, r1
    bf6c:	f008 fa3e 	bl	143ec <__aeabi_dcmpeq>
    bf70:	2800      	cmp	r0, #0
    bf72:	f040 83c1 	bne.w	c6f8 <_dtoa_r+0xa80>
    bf76:	4652      	mov	r2, sl
    bf78:	465b      	mov	r3, fp
    bf7a:	4630      	mov	r0, r6
    bf7c:	4639      	mov	r1, r7
    bf7e:	f008 f8f7 	bl	14170 <__aeabi_ddiv>
    bf82:	f008 fa65 	bl	14450 <__aeabi_d2iz>
    bf86:	4605      	mov	r5, r0
    bf88:	f007 ff62 	bl	13e50 <__aeabi_i2d>
    bf8c:	4652      	mov	r2, sl
    bf8e:	465b      	mov	r3, fp
    bf90:	f007 ffc4 	bl	13f1c <__aeabi_dmul>
    bf94:	4602      	mov	r2, r0
    bf96:	460b      	mov	r3, r1
    bf98:	4630      	mov	r0, r6
    bf9a:	4639      	mov	r1, r7
    bf9c:	f007 fe0a 	bl	13bb4 <__aeabi_dsub>
    bfa0:	f105 0e30 	add.w	lr, r5, #48	; 0x30
    bfa4:	45c1      	cmp	r9, r8
    bfa6:	f809 ec01 	strb.w	lr, [r9, #-1]
    bfaa:	464c      	mov	r4, r9
    bfac:	4606      	mov	r6, r0
    bfae:	460f      	mov	r7, r1
    bfb0:	f04f 0200 	mov.w	r2, #0
    bfb4:	4ba7      	ldr	r3, [pc, #668]	; (c254 <_dtoa_r+0x5dc>)
    bfb6:	f109 0901 	add.w	r9, r9, #1
    bfba:	d1d1      	bne.n	bf60 <_dtoa_r+0x2e8>
    bfbc:	46a3      	mov	fp, r4
    bfbe:	9c03      	ldr	r4, [sp, #12]
    bfc0:	4632      	mov	r2, r6
    bfc2:	463b      	mov	r3, r7
    bfc4:	4630      	mov	r0, r6
    bfc6:	4639      	mov	r1, r7
    bfc8:	f007 fdf6 	bl	13bb8 <__adddf3>
    bfcc:	4606      	mov	r6, r0
    bfce:	460f      	mov	r7, r1
    bfd0:	4632      	mov	r2, r6
    bfd2:	e9dd 0104 	ldrd	r0, r1, [sp, #16]
    bfd6:	463b      	mov	r3, r7
    bfd8:	f008 fa12 	bl	14400 <__aeabi_dcmplt>
    bfdc:	b940      	cbnz	r0, bff0 <_dtoa_r+0x378>
    bfde:	e9dd 0104 	ldrd	r0, r1, [sp, #16]
    bfe2:	4632      	mov	r2, r6
    bfe4:	463b      	mov	r3, r7
    bfe6:	f008 fa01 	bl	143ec <__aeabi_dcmpeq>
    bfea:	b190      	cbz	r0, c012 <_dtoa_r+0x39a>
    bfec:	07eb      	lsls	r3, r5, #31
    bfee:	d510      	bpl.n	c012 <_dtoa_r+0x39a>
    bff0:	f81b 5c01 	ldrb.w	r5, [fp, #-1]
    bff4:	9a09      	ldr	r2, [sp, #36]	; 0x24
    bff6:	e005      	b.n	c004 <_dtoa_r+0x38c>
    bff8:	429a      	cmp	r2, r3
    bffa:	f000 8429 	beq.w	c850 <_dtoa_r+0xbd8>
    bffe:	f813 5c01 	ldrb.w	r5, [r3, #-1]
    c002:	469b      	mov	fp, r3
    c004:	2d39      	cmp	r5, #57	; 0x39
    c006:	f10b 33ff 	add.w	r3, fp, #4294967295
    c00a:	d0f5      	beq.n	bff8 <_dtoa_r+0x380>
    c00c:	1c6a      	adds	r2, r5, #1
    c00e:	b2d2      	uxtb	r2, r2
    c010:	701a      	strb	r2, [r3, #0]
    c012:	4620      	mov	r0, r4
    c014:	990a      	ldr	r1, [sp, #40]	; 0x28
    c016:	f001 fa97 	bl	d548 <_Bfree>
    c01a:	9e07      	ldr	r6, [sp, #28]
    c01c:	9d26      	ldr	r5, [sp, #152]	; 0x98
    c01e:	1c73      	adds	r3, r6, #1
    c020:	9e28      	ldr	r6, [sp, #160]	; 0xa0
    c022:	2200      	movs	r2, #0
    c024:	f88b 2000 	strb.w	r2, [fp]
    c028:	602b      	str	r3, [r5, #0]
    c02a:	2e00      	cmp	r6, #0
    c02c:	f000 8325 	beq.w	c67a <_dtoa_r+0xa02>
    c030:	9809      	ldr	r0, [sp, #36]	; 0x24
    c032:	f8c6 b000 	str.w	fp, [r6]
    c036:	b01b      	add	sp, #108	; 0x6c
    c038:	e8bd 8ff0 	ldmia.w	sp!, {r4, r5, r6, r7, r8, r9, sl, fp, pc}
    c03c:	9d0b      	ldr	r5, [sp, #44]	; 0x2c
    c03e:	2d00      	cmp	r5, #0
    c040:	f000 8103 	beq.w	c24a <_dtoa_r+0x5d2>
    c044:	9e24      	ldr	r6, [sp, #144]	; 0x90
    c046:	2e01      	cmp	r6, #1
    c048:	f340 82dc 	ble.w	c604 <_dtoa_r+0x98c>
    c04c:	9e0c      	ldr	r6, [sp, #48]	; 0x30
    c04e:	f109 37ff 	add.w	r7, r9, #4294967295
    c052:	42be      	cmp	r6, r7
    c054:	f2c0 8389 	blt.w	c76a <_dtoa_r+0xaf2>
    c058:	1bf7      	subs	r7, r6, r7
    c05a:	f1b9 0f00 	cmp.w	r9, #0
    c05e:	f2c0 8487 	blt.w	c970 <_dtoa_r+0xcf8>
    c062:	9d08      	ldr	r5, [sp, #32]
    c064:	464b      	mov	r3, r9
    c066:	9e08      	ldr	r6, [sp, #32]
    c068:	4620      	mov	r0, r4
    c06a:	441e      	add	r6, r3
    c06c:	9608      	str	r6, [sp, #32]
    c06e:	9e06      	ldr	r6, [sp, #24]
    c070:	2101      	movs	r1, #1
    c072:	441e      	add	r6, r3
    c074:	9606      	str	r6, [sp, #24]
    c076:	f001 fb55 	bl	d724 <__i2b>
    c07a:	4606      	mov	r6, r0
    c07c:	b165      	cbz	r5, c098 <_dtoa_r+0x420>
    c07e:	9806      	ldr	r0, [sp, #24]
    c080:	2800      	cmp	r0, #0
    c082:	dd09      	ble.n	c098 <_dtoa_r+0x420>
    c084:	4603      	mov	r3, r0
    c086:	9908      	ldr	r1, [sp, #32]
    c088:	42ab      	cmp	r3, r5
    c08a:	bfa8      	it	ge
    c08c:	462b      	movge	r3, r5
    c08e:	1ac9      	subs	r1, r1, r3
    c090:	1ac0      	subs	r0, r0, r3
    c092:	9108      	str	r1, [sp, #32]
    c094:	1aed      	subs	r5, r5, r3
    c096:	9006      	str	r0, [sp, #24]
    c098:	9a0c      	ldr	r2, [sp, #48]	; 0x30
    c09a:	2a00      	cmp	r2, #0
    c09c:	dd1d      	ble.n	c0da <_dtoa_r+0x462>
    c09e:	9b0b      	ldr	r3, [sp, #44]	; 0x2c
    c0a0:	2b00      	cmp	r3, #0
    c0a2:	f000 8358 	beq.w	c756 <_dtoa_r+0xade>
    c0a6:	2f00      	cmp	r7, #0
    c0a8:	dd11      	ble.n	c0ce <_dtoa_r+0x456>
    c0aa:	4631      	mov	r1, r6
    c0ac:	463a      	mov	r2, r7
    c0ae:	4620      	mov	r0, r4
    c0b0:	f001 fbe0 	bl	d874 <__pow5mult>
    c0b4:	4606      	mov	r6, r0
    c0b6:	4631      	mov	r1, r6
    c0b8:	9a0a      	ldr	r2, [sp, #40]	; 0x28
    c0ba:	4620      	mov	r0, r4
    c0bc:	f001 fb3c 	bl	d738 <__multiply>
    c0c0:	990a      	ldr	r1, [sp, #40]	; 0x28
    c0c2:	4680      	mov	r8, r0
    c0c4:	4620      	mov	r0, r4
    c0c6:	f001 fa3f 	bl	d548 <_Bfree>
    c0ca:	f8cd 8028 	str.w	r8, [sp, #40]	; 0x28
    c0ce:	f8dd e030 	ldr.w	lr, [sp, #48]	; 0x30
    c0d2:	ebbe 0207 	subs.w	r2, lr, r7
    c0d6:	f040 828f 	bne.w	c5f8 <_dtoa_r+0x980>
    c0da:	4620      	mov	r0, r4
    c0dc:	2101      	movs	r1, #1
    c0de:	f001 fb21 	bl	d724 <__i2b>
    c0e2:	4680      	mov	r8, r0
    c0e4:	980d      	ldr	r0, [sp, #52]	; 0x34
    c0e6:	2800      	cmp	r0, #0
    c0e8:	dd05      	ble.n	c0f6 <_dtoa_r+0x47e>
    c0ea:	4641      	mov	r1, r8
    c0ec:	4620      	mov	r0, r4
    c0ee:	9a0d      	ldr	r2, [sp, #52]	; 0x34
    c0f0:	f001 fbc0 	bl	d874 <__pow5mult>
    c0f4:	4680      	mov	r8, r0
    c0f6:	9924      	ldr	r1, [sp, #144]	; 0x90
    c0f8:	2901      	cmp	r1, #1
    c0fa:	f340 82c1 	ble.w	c680 <_dtoa_r+0xa08>
    c0fe:	2700      	movs	r7, #0
    c100:	980d      	ldr	r0, [sp, #52]	; 0x34
    c102:	2800      	cmp	r0, #0
    c104:	f040 82af 	bne.w	c666 <_dtoa_r+0x9ee>
    c108:	2001      	movs	r0, #1
    c10a:	9b06      	ldr	r3, [sp, #24]
    c10c:	4403      	add	r3, r0
    c10e:	f013 031f 	ands.w	r3, r3, #31
    c112:	f000 80a1 	beq.w	c258 <_dtoa_r+0x5e0>
    c116:	f1c3 0220 	rsb	r2, r3, #32
    c11a:	2a04      	cmp	r2, #4
    c11c:	f340 84b7 	ble.w	ca8e <_dtoa_r+0xe16>
    c120:	9908      	ldr	r1, [sp, #32]
    c122:	9a06      	ldr	r2, [sp, #24]
    c124:	f1c3 031c 	rsb	r3, r3, #28
    c128:	4419      	add	r1, r3
    c12a:	441a      	add	r2, r3
    c12c:	9108      	str	r1, [sp, #32]
    c12e:	441d      	add	r5, r3
    c130:	9206      	str	r2, [sp, #24]
    c132:	9908      	ldr	r1, [sp, #32]
    c134:	2900      	cmp	r1, #0
    c136:	dd05      	ble.n	c144 <_dtoa_r+0x4cc>
    c138:	990a      	ldr	r1, [sp, #40]	; 0x28
    c13a:	9a08      	ldr	r2, [sp, #32]
    c13c:	4620      	mov	r0, r4
    c13e:	f001 fbe7 	bl	d910 <__lshift>
    c142:	900a      	str	r0, [sp, #40]	; 0x28
    c144:	9a06      	ldr	r2, [sp, #24]
    c146:	2a00      	cmp	r2, #0
    c148:	dd04      	ble.n	c154 <_dtoa_r+0x4dc>
    c14a:	4641      	mov	r1, r8
    c14c:	4620      	mov	r0, r4
    c14e:	f001 fbdf 	bl	d910 <__lshift>
    c152:	4680      	mov	r8, r0
    c154:	9b0e      	ldr	r3, [sp, #56]	; 0x38
    c156:	2b00      	cmp	r3, #0
    c158:	f040 826a 	bne.w	c630 <_dtoa_r+0x9b8>
    c15c:	f1b9 0f00 	cmp.w	r9, #0
    c160:	f340 82a6 	ble.w	c6b0 <_dtoa_r+0xa38>
    c164:	980b      	ldr	r0, [sp, #44]	; 0x2c
    c166:	2800      	cmp	r0, #0
    c168:	f040 8088 	bne.w	c27c <_dtoa_r+0x604>
    c16c:	9d0b      	ldr	r5, [sp, #44]	; 0x2c
    c16e:	9f0a      	ldr	r7, [sp, #40]	; 0x28
    c170:	f8dd b024 	ldr.w	fp, [sp, #36]	; 0x24
    c174:	e006      	b.n	c184 <_dtoa_r+0x50c>
    c176:	4639      	mov	r1, r7
    c178:	4620      	mov	r0, r4
    c17a:	220a      	movs	r2, #10
    c17c:	2300      	movs	r3, #0
    c17e:	f001 f9ed 	bl	d55c <__multadd>
    c182:	4607      	mov	r7, r0
    c184:	4638      	mov	r0, r7
    c186:	4641      	mov	r1, r8
    c188:	f7ff fcda 	bl	bb40 <quorem>
    c18c:	3030      	adds	r0, #48	; 0x30
    c18e:	f80b 0005 	strb.w	r0, [fp, r5]
    c192:	3501      	adds	r5, #1
    c194:	45a9      	cmp	r9, r5
    c196:	dcee      	bgt.n	c176 <_dtoa_r+0x4fe>
    c198:	f8dd b024 	ldr.w	fp, [sp, #36]	; 0x24
    c19c:	4682      	mov	sl, r0
    c19e:	970a      	str	r7, [sp, #40]	; 0x28
    c1a0:	f1b9 0f01 	cmp.w	r9, #1
    c1a4:	bfac      	ite	ge
    c1a6:	44cb      	addge	fp, r9
    c1a8:	f10b 0b01 	addlt.w	fp, fp, #1
    c1ac:	2500      	movs	r5, #0
    c1ae:	990a      	ldr	r1, [sp, #40]	; 0x28
    c1b0:	2201      	movs	r2, #1
    c1b2:	4620      	mov	r0, r4
    c1b4:	f001 fbac 	bl	d910 <__lshift>
    c1b8:	4641      	mov	r1, r8
    c1ba:	900a      	str	r0, [sp, #40]	; 0x28
    c1bc:	f001 fc06 	bl	d9cc <__mcmp>
    c1c0:	2800      	cmp	r0, #0
    c1c2:	f340 8309 	ble.w	c7d8 <_dtoa_r+0xb60>
    c1c6:	f81b 2c01 	ldrb.w	r2, [fp, #-1]
    c1ca:	9909      	ldr	r1, [sp, #36]	; 0x24
    c1cc:	e005      	b.n	c1da <_dtoa_r+0x562>
    c1ce:	4299      	cmp	r1, r3
    c1d0:	f000 828b 	beq.w	c6ea <_dtoa_r+0xa72>
    c1d4:	f813 2c01 	ldrb.w	r2, [r3, #-1]
    c1d8:	469b      	mov	fp, r3
    c1da:	2a39      	cmp	r2, #57	; 0x39
    c1dc:	f10b 33ff 	add.w	r3, fp, #4294967295
    c1e0:	d0f5      	beq.n	c1ce <_dtoa_r+0x556>
    c1e2:	3201      	adds	r2, #1
    c1e4:	701a      	strb	r2, [r3, #0]
    c1e6:	4641      	mov	r1, r8
    c1e8:	4620      	mov	r0, r4
    c1ea:	f001 f9ad 	bl	d548 <_Bfree>
    c1ee:	2e00      	cmp	r6, #0
    c1f0:	f43f af0f 	beq.w	c012 <_dtoa_r+0x39a>
    c1f4:	b12d      	cbz	r5, c202 <_dtoa_r+0x58a>
    c1f6:	42b5      	cmp	r5, r6
    c1f8:	d003      	beq.n	c202 <_dtoa_r+0x58a>
    c1fa:	4629      	mov	r1, r5
    c1fc:	4620      	mov	r0, r4
    c1fe:	f001 f9a3 	bl	d548 <_Bfree>
    c202:	4631      	mov	r1, r6
    c204:	4620      	mov	r0, r4
    c206:	f001 f99f 	bl	d548 <_Bfree>
    c20a:	e702      	b.n	c012 <_dtoa_r+0x39a>
    c20c:	2601      	movs	r6, #1
    c20e:	960e      	str	r6, [sp, #56]	; 0x38
    c210:	e5ea      	b.n	bde8 <_dtoa_r+0x170>
    c212:	9807      	ldr	r0, [sp, #28]
    c214:	f007 fe1c 	bl	13e50 <__aeabi_i2d>
    c218:	4632      	mov	r2, r6
    c21a:	463b      	mov	r3, r7
    c21c:	f008 f8e6 	bl	143ec <__aeabi_dcmpeq>
    c220:	2800      	cmp	r0, #0
    c222:	f47f adcd 	bne.w	bdc0 <_dtoa_r+0x148>
    c226:	9e07      	ldr	r6, [sp, #28]
    c228:	3e01      	subs	r6, #1
    c22a:	9607      	str	r6, [sp, #28]
    c22c:	e5c8      	b.n	bdc0 <_dtoa_r+0x148>
    c22e:	9e07      	ldr	r6, [sp, #28]
    c230:	9d08      	ldr	r5, [sp, #32]
    c232:	1bad      	subs	r5, r5, r6
    c234:	9508      	str	r5, [sp, #32]
    c236:	4275      	negs	r5, r6
    c238:	2600      	movs	r6, #0
    c23a:	950c      	str	r5, [sp, #48]	; 0x30
    c23c:	960d      	str	r6, [sp, #52]	; 0x34
    c23e:	e5e5      	b.n	be0c <_dtoa_r+0x194>
    c240:	426d      	negs	r5, r5
    c242:	2600      	movs	r6, #0
    c244:	9508      	str	r5, [sp, #32]
    c246:	9606      	str	r6, [sp, #24]
    c248:	e5d6      	b.n	bdf8 <_dtoa_r+0x180>
    c24a:	9f0c      	ldr	r7, [sp, #48]	; 0x30
    c24c:	9d08      	ldr	r5, [sp, #32]
    c24e:	9e0b      	ldr	r6, [sp, #44]	; 0x2c
    c250:	e714      	b.n	c07c <_dtoa_r+0x404>
    c252:	bf00      	nop
    c254:	40240000 	.word	0x40240000
    c258:	231c      	movs	r3, #28
    c25a:	f8dd e020 	ldr.w	lr, [sp, #32]
    c25e:	9806      	ldr	r0, [sp, #24]
    c260:	449e      	add	lr, r3
    c262:	4418      	add	r0, r3
    c264:	f8cd e020 	str.w	lr, [sp, #32]
    c268:	441d      	add	r5, r3
    c26a:	9006      	str	r0, [sp, #24]
    c26c:	e761      	b.n	c132 <_dtoa_r+0x4ba>
    c26e:	48a7      	ldr	r0, [pc, #668]	; (c50c <_dtoa_r+0x894>)
    c270:	1b40      	subs	r0, r0, r5
    c272:	fa0a f000 	lsl.w	r0, sl, r0
    c276:	e56f      	b.n	bd58 <_dtoa_r+0xe0>
    c278:	900e      	str	r0, [sp, #56]	; 0x38
    c27a:	e5b5      	b.n	bde8 <_dtoa_r+0x170>
    c27c:	2d00      	cmp	r5, #0
    c27e:	dd05      	ble.n	c28c <_dtoa_r+0x614>
    c280:	4631      	mov	r1, r6
    c282:	462a      	mov	r2, r5
    c284:	4620      	mov	r0, r4
    c286:	f001 fb43 	bl	d910 <__lshift>
    c28a:	4606      	mov	r6, r0
    c28c:	2f00      	cmp	r7, #0
    c28e:	f040 82e9 	bne.w	c864 <_dtoa_r+0xbec>
    c292:	4637      	mov	r7, r6
    c294:	9d09      	ldr	r5, [sp, #36]	; 0x24
    c296:	9809      	ldr	r0, [sp, #36]	; 0x24
    c298:	444d      	add	r5, r9
    c29a:	9508      	str	r5, [sp, #32]
    c29c:	f00a 0501 	and.w	r5, sl, #1
    c2a0:	950b      	str	r5, [sp, #44]	; 0x2c
    c2a2:	f8dd 9028 	ldr.w	r9, [sp, #40]	; 0x28
    c2a6:	1c45      	adds	r5, r0, #1
    c2a8:	e00a      	b.n	c2c0 <_dtoa_r+0x648>
    c2aa:	f001 f957 	bl	d55c <__multadd>
    c2ae:	4639      	mov	r1, r7
    c2b0:	4606      	mov	r6, r0
    c2b2:	220a      	movs	r2, #10
    c2b4:	4620      	mov	r0, r4
    c2b6:	2300      	movs	r3, #0
    c2b8:	f001 f950 	bl	d55c <__multadd>
    c2bc:	4607      	mov	r7, r0
    c2be:	3501      	adds	r5, #1
    c2c0:	4641      	mov	r1, r8
    c2c2:	4648      	mov	r0, r9
    c2c4:	f7ff fc3c 	bl	bb40 <quorem>
    c2c8:	4631      	mov	r1, r6
    c2ca:	4683      	mov	fp, r0
    c2cc:	4648      	mov	r0, r9
    c2ce:	f001 fb7d 	bl	d9cc <__mcmp>
    c2d2:	4641      	mov	r1, r8
    c2d4:	9003      	str	r0, [sp, #12]
    c2d6:	463a      	mov	r2, r7
    c2d8:	4620      	mov	r0, r4
    c2da:	f001 fb9b 	bl	da14 <__mdiff>
    c2de:	68c2      	ldr	r2, [r0, #12]
    c2e0:	1e69      	subs	r1, r5, #1
    c2e2:	4603      	mov	r3, r0
    c2e4:	f10b 0a30 	add.w	sl, fp, #48	; 0x30
    c2e8:	9106      	str	r1, [sp, #24]
    c2ea:	2a00      	cmp	r2, #0
    c2ec:	f040 8193 	bne.w	c616 <_dtoa_r+0x99e>
    c2f0:	4619      	mov	r1, r3
    c2f2:	4648      	mov	r0, r9
    c2f4:	9302      	str	r3, [sp, #8]
    c2f6:	f001 fb69 	bl	d9cc <__mcmp>
    c2fa:	9b02      	ldr	r3, [sp, #8]
    c2fc:	4602      	mov	r2, r0
    c2fe:	4619      	mov	r1, r3
    c300:	4620      	mov	r0, r4
    c302:	9202      	str	r2, [sp, #8]
    c304:	f001 f920 	bl	d548 <_Bfree>
    c308:	9a02      	ldr	r2, [sp, #8]
    c30a:	b92a      	cbnz	r2, c318 <_dtoa_r+0x6a0>
    c30c:	9b24      	ldr	r3, [sp, #144]	; 0x90
    c30e:	b91b      	cbnz	r3, c318 <_dtoa_r+0x6a0>
    c310:	980b      	ldr	r0, [sp, #44]	; 0x2c
    c312:	2800      	cmp	r0, #0
    c314:	f000 8393 	beq.w	ca3e <_dtoa_r+0xdc6>
    c318:	9b03      	ldr	r3, [sp, #12]
    c31a:	2b00      	cmp	r3, #0
    c31c:	f2c0 8234 	blt.w	c788 <_dtoa_r+0xb10>
    c320:	d105      	bne.n	c32e <_dtoa_r+0x6b6>
    c322:	9824      	ldr	r0, [sp, #144]	; 0x90
    c324:	b918      	cbnz	r0, c32e <_dtoa_r+0x6b6>
    c326:	990b      	ldr	r1, [sp, #44]	; 0x2c
    c328:	2900      	cmp	r1, #0
    c32a:	f000 822d 	beq.w	c788 <_dtoa_r+0xb10>
    c32e:	2a00      	cmp	r2, #0
    c330:	f300 82ac 	bgt.w	c88c <_dtoa_r+0xc14>
    c334:	f8dd e020 	ldr.w	lr, [sp, #32]
    c338:	f805 ac01 	strb.w	sl, [r5, #-1]
    c33c:	4575      	cmp	r5, lr
    c33e:	46ab      	mov	fp, r5
    c340:	f000 82b4 	beq.w	c8ac <_dtoa_r+0xc34>
    c344:	4649      	mov	r1, r9
    c346:	220a      	movs	r2, #10
    c348:	2300      	movs	r3, #0
    c34a:	4620      	mov	r0, r4
    c34c:	f001 f906 	bl	d55c <__multadd>
    c350:	42be      	cmp	r6, r7
    c352:	4681      	mov	r9, r0
    c354:	4631      	mov	r1, r6
    c356:	4620      	mov	r0, r4
    c358:	f04f 020a 	mov.w	r2, #10
    c35c:	f04f 0300 	mov.w	r3, #0
    c360:	d1a3      	bne.n	c2aa <_dtoa_r+0x632>
    c362:	f001 f8fb 	bl	d55c <__multadd>
    c366:	4606      	mov	r6, r0
    c368:	4607      	mov	r7, r0
    c36a:	e7a8      	b.n	c2be <_dtoa_r+0x646>
    c36c:	2600      	movs	r6, #0
    c36e:	960b      	str	r6, [sp, #44]	; 0x2c
    c370:	9e07      	ldr	r6, [sp, #28]
    c372:	f8dd e094 	ldr.w	lr, [sp, #148]	; 0x94
    c376:	44b6      	add	lr, r6
    c378:	f10e 0901 	add.w	r9, lr, #1
    c37c:	f1b9 0f00 	cmp.w	r9, #0
    c380:	f8cd e03c 	str.w	lr, [sp, #60]	; 0x3c
    c384:	464e      	mov	r6, r9
    c386:	f340 8150 	ble.w	c62a <_dtoa_r+0x9b2>
    c38a:	2100      	movs	r1, #0
    c38c:	2e17      	cmp	r6, #23
    c38e:	6461      	str	r1, [r4, #68]	; 0x44
    c390:	d90a      	bls.n	c3a8 <_dtoa_r+0x730>
    c392:	2201      	movs	r2, #1
    c394:	2304      	movs	r3, #4
    c396:	005b      	lsls	r3, r3, #1
    c398:	f103 0014 	add.w	r0, r3, #20
    c39c:	42b0      	cmp	r0, r6
    c39e:	4611      	mov	r1, r2
    c3a0:	f102 0201 	add.w	r2, r2, #1
    c3a4:	d9f7      	bls.n	c396 <_dtoa_r+0x71e>
    c3a6:	6461      	str	r1, [r4, #68]	; 0x44
    c3a8:	4620      	mov	r0, r4
    c3aa:	f001 f8a7 	bl	d4fc <_Balloc>
    c3ae:	2e0e      	cmp	r6, #14
    c3b0:	9009      	str	r0, [sp, #36]	; 0x24
    c3b2:	6420      	str	r0, [r4, #64]	; 0x40
    c3b4:	f63f ad6c 	bhi.w	be90 <_dtoa_r+0x218>
    c3b8:	2d00      	cmp	r5, #0
    c3ba:	f43f ad69 	beq.w	be90 <_dtoa_r+0x218>
    c3be:	9d07      	ldr	r5, [sp, #28]
    c3c0:	e9cd ab12 	strd	sl, fp, [sp, #72]	; 0x48
    c3c4:	2d00      	cmp	r5, #0
    c3c6:	f340 821c 	ble.w	c802 <_dtoa_r+0xb8a>
    c3ca:	4b51      	ldr	r3, [pc, #324]	; (c510 <_dtoa_r+0x898>)
    c3cc:	f005 020f 	and.w	r2, r5, #15
    c3d0:	eb03 03c2 	add.w	r3, r3, r2, lsl #3
    c3d4:	112d      	asrs	r5, r5, #4
    c3d6:	e9d3 6700 	ldrd	r6, r7, [r3]
    c3da:	06eb      	lsls	r3, r5, #27
    c3dc:	f140 81cd 	bpl.w	c77a <_dtoa_r+0xb02>
    c3e0:	4b4c      	ldr	r3, [pc, #304]	; (c514 <_dtoa_r+0x89c>)
    c3e2:	4650      	mov	r0, sl
    c3e4:	4659      	mov	r1, fp
    c3e6:	e9d3 2308 	ldrd	r2, r3, [r3, #32]
    c3ea:	f007 fec1 	bl	14170 <__aeabi_ddiv>
    c3ee:	e9cd 0110 	strd	r0, r1, [sp, #64]	; 0x40
    c3f2:	f005 050f 	and.w	r5, r5, #15
    c3f6:	f04f 0803 	mov.w	r8, #3
    c3fa:	b18d      	cbz	r5, c420 <_dtoa_r+0x7a8>
    c3fc:	f8df a114 	ldr.w	sl, [pc, #276]	; c514 <_dtoa_r+0x89c>
    c400:	4630      	mov	r0, r6
    c402:	4639      	mov	r1, r7
    c404:	07ee      	lsls	r6, r5, #31
    c406:	d505      	bpl.n	c414 <_dtoa_r+0x79c>
    c408:	e9da 2300 	ldrd	r2, r3, [sl]
    c40c:	f108 0801 	add.w	r8, r8, #1
    c410:	f007 fd84 	bl	13f1c <__aeabi_dmul>
    c414:	106d      	asrs	r5, r5, #1
    c416:	f10a 0a08 	add.w	sl, sl, #8
    c41a:	d1f3      	bne.n	c404 <_dtoa_r+0x78c>
    c41c:	4606      	mov	r6, r0
    c41e:	460f      	mov	r7, r1
    c420:	e9dd 0110 	ldrd	r0, r1, [sp, #64]	; 0x40
    c424:	4632      	mov	r2, r6
    c426:	463b      	mov	r3, r7
    c428:	f007 fea2 	bl	14170 <__aeabi_ddiv>
    c42c:	4682      	mov	sl, r0
    c42e:	468b      	mov	fp, r1
    c430:	9d0e      	ldr	r5, [sp, #56]	; 0x38
    c432:	b145      	cbz	r5, c446 <_dtoa_r+0x7ce>
    c434:	4650      	mov	r0, sl
    c436:	4659      	mov	r1, fp
    c438:	2200      	movs	r2, #0
    c43a:	4b37      	ldr	r3, [pc, #220]	; (c518 <_dtoa_r+0x8a0>)
    c43c:	f007 ffe0 	bl	14400 <__aeabi_dcmplt>
    c440:	2800      	cmp	r0, #0
    c442:	f040 82aa 	bne.w	c99a <_dtoa_r+0xd22>
    c446:	4640      	mov	r0, r8
    c448:	f007 fd02 	bl	13e50 <__aeabi_i2d>
    c44c:	4652      	mov	r2, sl
    c44e:	465b      	mov	r3, fp
    c450:	f007 fd64 	bl	13f1c <__aeabi_dmul>
    c454:	2200      	movs	r2, #0
    c456:	4b31      	ldr	r3, [pc, #196]	; (c51c <_dtoa_r+0x8a4>)
    c458:	f007 fbae 	bl	13bb8 <__adddf3>
    c45c:	4606      	mov	r6, r0
    c45e:	f1a1 7750 	sub.w	r7, r1, #54525952	; 0x3400000
    c462:	f1b9 0f00 	cmp.w	r9, #0
    c466:	f000 815a 	beq.w	c71e <_dtoa_r+0xaa6>
    c46a:	9d07      	ldr	r5, [sp, #28]
    c46c:	46c8      	mov	r8, r9
    c46e:	9517      	str	r5, [sp, #92]	; 0x5c
    c470:	9d0b      	ldr	r5, [sp, #44]	; 0x2c
    c472:	2d00      	cmp	r5, #0
    c474:	f000 8223 	beq.w	c8be <_dtoa_r+0xc46>
    c478:	4b25      	ldr	r3, [pc, #148]	; (c510 <_dtoa_r+0x898>)
    c47a:	2000      	movs	r0, #0
    c47c:	eb03 03c8 	add.w	r3, r3, r8, lsl #3
    c480:	e953 2302 	ldrd	r2, r3, [r3, #-8]
    c484:	4926      	ldr	r1, [pc, #152]	; (c520 <_dtoa_r+0x8a8>)
    c486:	f007 fe73 	bl	14170 <__aeabi_ddiv>
    c48a:	4632      	mov	r2, r6
    c48c:	463b      	mov	r3, r7
    c48e:	f007 fb91 	bl	13bb4 <__aeabi_dsub>
    c492:	e9cd 0110 	strd	r0, r1, [sp, #64]	; 0x40
    c496:	4659      	mov	r1, fp
    c498:	4650      	mov	r0, sl
    c49a:	f007 ffd9 	bl	14450 <__aeabi_d2iz>
    c49e:	4605      	mov	r5, r0
    c4a0:	f007 fcd6 	bl	13e50 <__aeabi_i2d>
    c4a4:	4602      	mov	r2, r0
    c4a6:	460b      	mov	r3, r1
    c4a8:	4650      	mov	r0, sl
    c4aa:	4659      	mov	r1, fp
    c4ac:	f007 fb82 	bl	13bb4 <__aeabi_dsub>
    c4b0:	3530      	adds	r5, #48	; 0x30
    c4b2:	9e09      	ldr	r6, [sp, #36]	; 0x24
    c4b4:	e9cd 0104 	strd	r0, r1, [sp, #16]
    c4b8:	e9dd 2304 	ldrd	r2, r3, [sp, #16]
    c4bc:	e9dd 0110 	ldrd	r0, r1, [sp, #64]	; 0x40
    c4c0:	b2ed      	uxtb	r5, r5
    c4c2:	7035      	strb	r5, [r6, #0]
    c4c4:	f106 0b01 	add.w	fp, r6, #1
    c4c8:	f007 ffb8 	bl	1443c <__aeabi_dcmpgt>
    c4cc:	2800      	cmp	r0, #0
    c4ce:	f040 82ab 	bne.w	ca28 <_dtoa_r+0xdb0>
    c4d2:	e9dd 2304 	ldrd	r2, r3, [sp, #16]
    c4d6:	2000      	movs	r0, #0
    c4d8:	490f      	ldr	r1, [pc, #60]	; (c518 <_dtoa_r+0x8a0>)
    c4da:	f007 fb6b 	bl	13bb4 <__aeabi_dsub>
    c4de:	4602      	mov	r2, r0
    c4e0:	460b      	mov	r3, r1
    c4e2:	e9dd 0110 	ldrd	r0, r1, [sp, #64]	; 0x40
    c4e6:	f007 ffa9 	bl	1443c <__aeabi_dcmpgt>
    c4ea:	2800      	cmp	r0, #0
    c4ec:	f040 82a2 	bne.w	ca34 <_dtoa_r+0xdbc>
    c4f0:	f1b8 0f01 	cmp.w	r8, #1
    c4f4:	f340 8181 	ble.w	c7fa <_dtoa_r+0xb82>
    c4f8:	44b0      	add	r8, r6
    c4fa:	f8cd 9050 	str.w	r9, [sp, #80]	; 0x50
    c4fe:	46a2      	mov	sl, r4
    c500:	46c1      	mov	r9, r8
    c502:	e9dd 6704 	ldrd	r6, r7, [sp, #16]
    c506:	e9dd 4510 	ldrd	r4, r5, [sp, #64]	; 0x40
    c50a:	e019      	b.n	c540 <_dtoa_r+0x8c8>
    c50c:	fffffbee 	.word	0xfffffbee
    c510:	00014da0 	.word	0x00014da0
    c514:	00014e68 	.word	0x00014e68
    c518:	3ff00000 	.word	0x3ff00000
    c51c:	401c0000 	.word	0x401c0000
    c520:	3fe00000 	.word	0x3fe00000
    c524:	2000      	movs	r0, #0
    c526:	49a8      	ldr	r1, [pc, #672]	; (c7c8 <_dtoa_r+0xb50>)
    c528:	f007 fb44 	bl	13bb4 <__aeabi_dsub>
    c52c:	4622      	mov	r2, r4
    c52e:	462b      	mov	r3, r5
    c530:	f007 ff66 	bl	14400 <__aeabi_dcmplt>
    c534:	2800      	cmp	r0, #0
    c536:	f040 827b 	bne.w	ca30 <_dtoa_r+0xdb8>
    c53a:	45cb      	cmp	fp, r9
    c53c:	f000 815a 	beq.w	c7f4 <_dtoa_r+0xb7c>
    c540:	4620      	mov	r0, r4
    c542:	4629      	mov	r1, r5
    c544:	2200      	movs	r2, #0
    c546:	4ba1      	ldr	r3, [pc, #644]	; (c7cc <_dtoa_r+0xb54>)
    c548:	f007 fce8 	bl	13f1c <__aeabi_dmul>
    c54c:	2200      	movs	r2, #0
    c54e:	4b9f      	ldr	r3, [pc, #636]	; (c7cc <_dtoa_r+0xb54>)
    c550:	4604      	mov	r4, r0
    c552:	460d      	mov	r5, r1
    c554:	4630      	mov	r0, r6
    c556:	4639      	mov	r1, r7
    c558:	f007 fce0 	bl	13f1c <__aeabi_dmul>
    c55c:	460f      	mov	r7, r1
    c55e:	4606      	mov	r6, r0
    c560:	f007 ff76 	bl	14450 <__aeabi_d2iz>
    c564:	4680      	mov	r8, r0
    c566:	f007 fc73 	bl	13e50 <__aeabi_i2d>
    c56a:	4602      	mov	r2, r0
    c56c:	460b      	mov	r3, r1
    c56e:	4630      	mov	r0, r6
    c570:	4639      	mov	r1, r7
    c572:	f007 fb1f 	bl	13bb4 <__aeabi_dsub>
    c576:	f108 0830 	add.w	r8, r8, #48	; 0x30
    c57a:	fa5f f888 	uxtb.w	r8, r8
    c57e:	4622      	mov	r2, r4
    c580:	462b      	mov	r3, r5
    c582:	f80b 8b01 	strb.w	r8, [fp], #1
    c586:	4606      	mov	r6, r0
    c588:	460f      	mov	r7, r1
    c58a:	f007 ff39 	bl	14400 <__aeabi_dcmplt>
    c58e:	4632      	mov	r2, r6
    c590:	463b      	mov	r3, r7
    c592:	2800      	cmp	r0, #0
    c594:	d0c6      	beq.n	c524 <_dtoa_r+0x8ac>
    c596:	9e17      	ldr	r6, [sp, #92]	; 0x5c
    c598:	4654      	mov	r4, sl
    c59a:	9607      	str	r6, [sp, #28]
    c59c:	e539      	b.n	c012 <_dtoa_r+0x39a>
    c59e:	2600      	movs	r6, #0
    c5a0:	960b      	str	r6, [sp, #44]	; 0x2c
    c5a2:	9825      	ldr	r0, [sp, #148]	; 0x94
    c5a4:	2800      	cmp	r0, #0
    c5a6:	dd3c      	ble.n	c622 <_dtoa_r+0x9aa>
    c5a8:	4606      	mov	r6, r0
    c5aa:	900f      	str	r0, [sp, #60]	; 0x3c
    c5ac:	4681      	mov	r9, r0
    c5ae:	e6ec      	b.n	c38a <_dtoa_r+0x712>
    c5b0:	2601      	movs	r6, #1
    c5b2:	960b      	str	r6, [sp, #44]	; 0x2c
    c5b4:	e7f5      	b.n	c5a2 <_dtoa_r+0x92a>
    c5b6:	f1b9 0f00 	cmp.w	r9, #0
    c5ba:	f73f ac7c 	bgt.w	beb6 <_dtoa_r+0x23e>
    c5be:	f040 80c6 	bne.w	c74e <_dtoa_r+0xad6>
    c5c2:	e9dd 0104 	ldrd	r0, r1, [sp, #16]
    c5c6:	2200      	movs	r2, #0
    c5c8:	4b81      	ldr	r3, [pc, #516]	; (c7d0 <_dtoa_r+0xb58>)
    c5ca:	f007 fca7 	bl	13f1c <__aeabi_dmul>
    c5ce:	4652      	mov	r2, sl
    c5d0:	465b      	mov	r3, fp
    c5d2:	f007 ff29 	bl	14428 <__aeabi_dcmpge>
    c5d6:	46c8      	mov	r8, r9
    c5d8:	464e      	mov	r6, r9
    c5da:	2800      	cmp	r0, #0
    c5dc:	d07c      	beq.n	c6d8 <_dtoa_r+0xa60>
    c5de:	9d25      	ldr	r5, [sp, #148]	; 0x94
    c5e0:	f8dd b024 	ldr.w	fp, [sp, #36]	; 0x24
    c5e4:	43ed      	mvns	r5, r5
    c5e6:	9507      	str	r5, [sp, #28]
    c5e8:	4641      	mov	r1, r8
    c5ea:	4620      	mov	r0, r4
    c5ec:	f000 ffac 	bl	d548 <_Bfree>
    c5f0:	2e00      	cmp	r6, #0
    c5f2:	f47f ae06 	bne.w	c202 <_dtoa_r+0x58a>
    c5f6:	e50c      	b.n	c012 <_dtoa_r+0x39a>
    c5f8:	990a      	ldr	r1, [sp, #40]	; 0x28
    c5fa:	4620      	mov	r0, r4
    c5fc:	f001 f93a 	bl	d874 <__pow5mult>
    c600:	900a      	str	r0, [sp, #40]	; 0x28
    c602:	e56a      	b.n	c0da <_dtoa_r+0x462>
    c604:	9d16      	ldr	r5, [sp, #88]	; 0x58
    c606:	2d00      	cmp	r5, #0
    c608:	f000 81b8 	beq.w	c97c <_dtoa_r+0xd04>
    c60c:	f203 4333 	addw	r3, r3, #1075	; 0x433
    c610:	9f0c      	ldr	r7, [sp, #48]	; 0x30
    c612:	9d08      	ldr	r5, [sp, #32]
    c614:	e527      	b.n	c066 <_dtoa_r+0x3ee>
    c616:	4601      	mov	r1, r0
    c618:	4620      	mov	r0, r4
    c61a:	f000 ff95 	bl	d548 <_Bfree>
    c61e:	2201      	movs	r2, #1
    c620:	e67a      	b.n	c318 <_dtoa_r+0x6a0>
    c622:	2601      	movs	r6, #1
    c624:	9625      	str	r6, [sp, #148]	; 0x94
    c626:	960f      	str	r6, [sp, #60]	; 0x3c
    c628:	46b1      	mov	r9, r6
    c62a:	2100      	movs	r1, #0
    c62c:	6461      	str	r1, [r4, #68]	; 0x44
    c62e:	e6bb      	b.n	c3a8 <_dtoa_r+0x730>
    c630:	980a      	ldr	r0, [sp, #40]	; 0x28
    c632:	4641      	mov	r1, r8
    c634:	f001 f9ca 	bl	d9cc <__mcmp>
    c638:	2800      	cmp	r0, #0
    c63a:	f6bf ad8f 	bge.w	c15c <_dtoa_r+0x4e4>
    c63e:	f8dd e01c 	ldr.w	lr, [sp, #28]
    c642:	990a      	ldr	r1, [sp, #40]	; 0x28
    c644:	f10e 3eff 	add.w	lr, lr, #4294967295
    c648:	4620      	mov	r0, r4
    c64a:	220a      	movs	r2, #10
    c64c:	2300      	movs	r3, #0
    c64e:	f8cd e01c 	str.w	lr, [sp, #28]
    c652:	f000 ff83 	bl	d55c <__multadd>
    c656:	900a      	str	r0, [sp, #40]	; 0x28
    c658:	980b      	ldr	r0, [sp, #44]	; 0x2c
    c65a:	2800      	cmp	r0, #0
    c65c:	f040 8209 	bne.w	ca72 <_dtoa_r+0xdfa>
    c660:	f8dd 903c 	ldr.w	r9, [sp, #60]	; 0x3c
    c664:	e57a      	b.n	c15c <_dtoa_r+0x4e4>
    c666:	f8d8 3010 	ldr.w	r3, [r8, #16]
    c66a:	eb08 0383 	add.w	r3, r8, r3, lsl #2
    c66e:	6918      	ldr	r0, [r3, #16]
    c670:	f001 f80a 	bl	d688 <__hi0bits>
    c674:	f1c0 0020 	rsb	r0, r0, #32
    c678:	e547      	b.n	c10a <_dtoa_r+0x492>
    c67a:	9809      	ldr	r0, [sp, #36]	; 0x24
    c67c:	f7ff bb2c 	b.w	bcd8 <_dtoa_r+0x60>
    c680:	f1ba 0f00 	cmp.w	sl, #0
    c684:	f47f ad3b 	bne.w	c0fe <_dtoa_r+0x486>
    c688:	f3cb 0313 	ubfx	r3, fp, #0, #20
    c68c:	2b00      	cmp	r3, #0
    c68e:	f040 817c 	bne.w	c98a <_dtoa_r+0xd12>
    c692:	f02b 4700 	bic.w	r7, fp, #2147483648	; 0x80000000
    c696:	0d3f      	lsrs	r7, r7, #20
    c698:	053f      	lsls	r7, r7, #20
    c69a:	2f00      	cmp	r7, #0
    c69c:	f43f ad30 	beq.w	c100 <_dtoa_r+0x488>
    c6a0:	9a08      	ldr	r2, [sp, #32]
    c6a2:	9b06      	ldr	r3, [sp, #24]
    c6a4:	3201      	adds	r2, #1
    c6a6:	3301      	adds	r3, #1
    c6a8:	9208      	str	r2, [sp, #32]
    c6aa:	9306      	str	r3, [sp, #24]
    c6ac:	2701      	movs	r7, #1
    c6ae:	e527      	b.n	c100 <_dtoa_r+0x488>
    c6b0:	9924      	ldr	r1, [sp, #144]	; 0x90
    c6b2:	2902      	cmp	r1, #2
    c6b4:	f77f ad56 	ble.w	c164 <_dtoa_r+0x4ec>
    c6b8:	f1b9 0f00 	cmp.w	r9, #0
    c6bc:	d18f      	bne.n	c5de <_dtoa_r+0x966>
    c6be:	4641      	mov	r1, r8
    c6c0:	464b      	mov	r3, r9
    c6c2:	2205      	movs	r2, #5
    c6c4:	4620      	mov	r0, r4
    c6c6:	f000 ff49 	bl	d55c <__multadd>
    c6ca:	4680      	mov	r8, r0
    c6cc:	4641      	mov	r1, r8
    c6ce:	980a      	ldr	r0, [sp, #40]	; 0x28
    c6d0:	f001 f97c 	bl	d9cc <__mcmp>
    c6d4:	2800      	cmp	r0, #0
    c6d6:	dd82      	ble.n	c5de <_dtoa_r+0x966>
    c6d8:	9d07      	ldr	r5, [sp, #28]
    c6da:	2331      	movs	r3, #49	; 0x31
    c6dc:	3501      	adds	r5, #1
    c6de:	9507      	str	r5, [sp, #28]
    c6e0:	9d09      	ldr	r5, [sp, #36]	; 0x24
    c6e2:	702b      	strb	r3, [r5, #0]
    c6e4:	f105 0b01 	add.w	fp, r5, #1
    c6e8:	e77e      	b.n	c5e8 <_dtoa_r+0x970>
    c6ea:	9807      	ldr	r0, [sp, #28]
    c6ec:	9909      	ldr	r1, [sp, #36]	; 0x24
    c6ee:	2331      	movs	r3, #49	; 0x31
    c6f0:	3001      	adds	r0, #1
    c6f2:	9007      	str	r0, [sp, #28]
    c6f4:	700b      	strb	r3, [r1, #0]
    c6f6:	e576      	b.n	c1e6 <_dtoa_r+0x56e>
    c6f8:	46a3      	mov	fp, r4
    c6fa:	9c03      	ldr	r4, [sp, #12]
    c6fc:	e489      	b.n	c012 <_dtoa_r+0x39a>
    c6fe:	4640      	mov	r0, r8
    c700:	f007 fba6 	bl	13e50 <__aeabi_i2d>
    c704:	4602      	mov	r2, r0
    c706:	460b      	mov	r3, r1
    c708:	4650      	mov	r0, sl
    c70a:	4659      	mov	r1, fp
    c70c:	f007 fc06 	bl	13f1c <__aeabi_dmul>
    c710:	2200      	movs	r2, #0
    c712:	4b30      	ldr	r3, [pc, #192]	; (c7d4 <_dtoa_r+0xb5c>)
    c714:	f007 fa50 	bl	13bb8 <__adddf3>
    c718:	4606      	mov	r6, r0
    c71a:	f1a1 7750 	sub.w	r7, r1, #54525952	; 0x3400000
    c71e:	4650      	mov	r0, sl
    c720:	4659      	mov	r1, fp
    c722:	2200      	movs	r2, #0
    c724:	4b2a      	ldr	r3, [pc, #168]	; (c7d0 <_dtoa_r+0xb58>)
    c726:	f007 fa45 	bl	13bb4 <__aeabi_dsub>
    c72a:	4632      	mov	r2, r6
    c72c:	463b      	mov	r3, r7
    c72e:	4682      	mov	sl, r0
    c730:	468b      	mov	fp, r1
    c732:	f007 fe83 	bl	1443c <__aeabi_dcmpgt>
    c736:	2800      	cmp	r0, #0
    c738:	f040 80bd 	bne.w	c8b6 <_dtoa_r+0xc3e>
    c73c:	4632      	mov	r2, r6
    c73e:	f107 4300 	add.w	r3, r7, #2147483648	; 0x80000000
    c742:	4650      	mov	r0, sl
    c744:	4659      	mov	r1, fp
    c746:	f007 fe5b 	bl	14400 <__aeabi_dcmplt>
    c74a:	2800      	cmp	r0, #0
    c74c:	d055      	beq.n	c7fa <_dtoa_r+0xb82>
    c74e:	f04f 0800 	mov.w	r8, #0
    c752:	4646      	mov	r6, r8
    c754:	e743      	b.n	c5de <_dtoa_r+0x966>
    c756:	990a      	ldr	r1, [sp, #40]	; 0x28
    c758:	9a0c      	ldr	r2, [sp, #48]	; 0x30
    c75a:	4620      	mov	r0, r4
    c75c:	f001 f88a 	bl	d874 <__pow5mult>
    c760:	900a      	str	r0, [sp, #40]	; 0x28
    c762:	e4ba      	b.n	c0da <_dtoa_r+0x462>
    c764:	2601      	movs	r6, #1
    c766:	960b      	str	r6, [sp, #44]	; 0x2c
    c768:	e602      	b.n	c370 <_dtoa_r+0x6f8>
    c76a:	9d0c      	ldr	r5, [sp, #48]	; 0x30
    c76c:	9e0d      	ldr	r6, [sp, #52]	; 0x34
    c76e:	1b7b      	subs	r3, r7, r5
    c770:	441e      	add	r6, r3
    c772:	970c      	str	r7, [sp, #48]	; 0x30
    c774:	960d      	str	r6, [sp, #52]	; 0x34
    c776:	2700      	movs	r7, #0
    c778:	e46f      	b.n	c05a <_dtoa_r+0x3e2>
    c77a:	e9dd 0112 	ldrd	r0, r1, [sp, #72]	; 0x48
    c77e:	f04f 0802 	mov.w	r8, #2
    c782:	e9cd 0110 	strd	r0, r1, [sp, #64]	; 0x40
    c786:	e638      	b.n	c3fa <_dtoa_r+0x782>
    c788:	2a00      	cmp	r2, #0
    c78a:	f8cd 9028 	str.w	r9, [sp, #40]	; 0x28
    c78e:	46d9      	mov	r9, fp
    c790:	dd11      	ble.n	c7b6 <_dtoa_r+0xb3e>
    c792:	990a      	ldr	r1, [sp, #40]	; 0x28
    c794:	2201      	movs	r2, #1
    c796:	4620      	mov	r0, r4
    c798:	f001 f8ba 	bl	d910 <__lshift>
    c79c:	4641      	mov	r1, r8
    c79e:	900a      	str	r0, [sp, #40]	; 0x28
    c7a0:	f001 f914 	bl	d9cc <__mcmp>
    c7a4:	2800      	cmp	r0, #0
    c7a6:	f340 815d 	ble.w	ca64 <_dtoa_r+0xdec>
    c7aa:	f1ba 0f39 	cmp.w	sl, #57	; 0x39
    c7ae:	f000 811b 	beq.w	c9e8 <_dtoa_r+0xd70>
    c7b2:	f109 0a31 	add.w	sl, r9, #49	; 0x31
    c7b6:	9b06      	ldr	r3, [sp, #24]
    c7b8:	4635      	mov	r5, r6
    c7ba:	f883 a000 	strb.w	sl, [r3]
    c7be:	f103 0b01 	add.w	fp, r3, #1
    c7c2:	463e      	mov	r6, r7
    c7c4:	e50f      	b.n	c1e6 <_dtoa_r+0x56e>
    c7c6:	bf00      	nop
    c7c8:	3ff00000 	.word	0x3ff00000
    c7cc:	40240000 	.word	0x40240000
    c7d0:	40140000 	.word	0x40140000
    c7d4:	401c0000 	.word	0x401c0000
    c7d8:	d103      	bne.n	c7e2 <_dtoa_r+0xb6a>
    c7da:	f01a 0f01 	tst.w	sl, #1
    c7de:	f47f acf2 	bne.w	c1c6 <_dtoa_r+0x54e>
    c7e2:	465b      	mov	r3, fp
    c7e4:	f813 2c01 	ldrb.w	r2, [r3, #-1]
    c7e8:	469b      	mov	fp, r3
    c7ea:	2a30      	cmp	r2, #48	; 0x30
    c7ec:	f103 33ff 	add.w	r3, r3, #4294967295
    c7f0:	d0f8      	beq.n	c7e4 <_dtoa_r+0xb6c>
    c7f2:	e4f8      	b.n	c1e6 <_dtoa_r+0x56e>
    c7f4:	f8dd 9050 	ldr.w	r9, [sp, #80]	; 0x50
    c7f8:	4654      	mov	r4, sl
    c7fa:	e9dd ab12 	ldrd	sl, fp, [sp, #72]	; 0x48
    c7fe:	f7ff bb47 	b.w	be90 <_dtoa_r+0x218>
    c802:	9e07      	ldr	r6, [sp, #28]
    c804:	4275      	negs	r5, r6
    c806:	2d00      	cmp	r5, #0
    c808:	f000 80c2 	beq.w	c990 <_dtoa_r+0xd18>
    c80c:	4ba3      	ldr	r3, [pc, #652]	; (ca9c <_dtoa_r+0xe24>)
    c80e:	f005 020f 	and.w	r2, r5, #15
    c812:	eb03 03c2 	add.w	r3, r3, r2, lsl #3
    c816:	e9d3 2300 	ldrd	r2, r3, [r3]
    c81a:	e9dd 0112 	ldrd	r0, r1, [sp, #72]	; 0x48
    c81e:	f007 fb7d 	bl	13f1c <__aeabi_dmul>
    c822:	112d      	asrs	r5, r5, #4
    c824:	4682      	mov	sl, r0
    c826:	468b      	mov	fp, r1
    c828:	f000 812e 	beq.w	ca88 <_dtoa_r+0xe10>
    c82c:	4e9c      	ldr	r6, [pc, #624]	; (caa0 <_dtoa_r+0xe28>)
    c82e:	f04f 0802 	mov.w	r8, #2
    c832:	07ea      	lsls	r2, r5, #31
    c834:	d505      	bpl.n	c842 <_dtoa_r+0xbca>
    c836:	e9d6 2300 	ldrd	r2, r3, [r6]
    c83a:	f108 0801 	add.w	r8, r8, #1
    c83e:	f007 fb6d 	bl	13f1c <__aeabi_dmul>
    c842:	106d      	asrs	r5, r5, #1
    c844:	f106 0608 	add.w	r6, r6, #8
    c848:	d1f3      	bne.n	c832 <_dtoa_r+0xbba>
    c84a:	4682      	mov	sl, r0
    c84c:	468b      	mov	fp, r1
    c84e:	e5ef      	b.n	c430 <_dtoa_r+0x7b8>
    c850:	9e07      	ldr	r6, [sp, #28]
    c852:	9d09      	ldr	r5, [sp, #36]	; 0x24
    c854:	2230      	movs	r2, #48	; 0x30
    c856:	702a      	strb	r2, [r5, #0]
    c858:	3601      	adds	r6, #1
    c85a:	2231      	movs	r2, #49	; 0x31
    c85c:	9607      	str	r6, [sp, #28]
    c85e:	701a      	strb	r2, [r3, #0]
    c860:	f7ff bbd7 	b.w	c012 <_dtoa_r+0x39a>
    c864:	6871      	ldr	r1, [r6, #4]
    c866:	4620      	mov	r0, r4
    c868:	f000 fe48 	bl	d4fc <_Balloc>
    c86c:	6933      	ldr	r3, [r6, #16]
    c86e:	4605      	mov	r5, r0
    c870:	1c9a      	adds	r2, r3, #2
    c872:	0092      	lsls	r2, r2, #2
    c874:	f106 010c 	add.w	r1, r6, #12
    c878:	300c      	adds	r0, #12
    c87a:	f000 fdc9 	bl	d410 <memcpy>
    c87e:	4620      	mov	r0, r4
    c880:	4629      	mov	r1, r5
    c882:	2201      	movs	r2, #1
    c884:	f001 f844 	bl	d910 <__lshift>
    c888:	4607      	mov	r7, r0
    c88a:	e503      	b.n	c294 <_dtoa_r+0x61c>
    c88c:	f1ba 0f39 	cmp.w	sl, #57	; 0x39
    c890:	f8cd 9028 	str.w	r9, [sp, #40]	; 0x28
    c894:	f000 80a8 	beq.w	c9e8 <_dtoa_r+0xd70>
    c898:	9d06      	ldr	r5, [sp, #24]
    c89a:	f10a 0301 	add.w	r3, sl, #1
    c89e:	702b      	strb	r3, [r5, #0]
    c8a0:	4635      	mov	r5, r6
    c8a2:	9e06      	ldr	r6, [sp, #24]
    c8a4:	f106 0b01 	add.w	fp, r6, #1
    c8a8:	463e      	mov	r6, r7
    c8aa:	e49c      	b.n	c1e6 <_dtoa_r+0x56e>
    c8ac:	4635      	mov	r5, r6
    c8ae:	f8cd 9028 	str.w	r9, [sp, #40]	; 0x28
    c8b2:	463e      	mov	r6, r7
    c8b4:	e47b      	b.n	c1ae <_dtoa_r+0x536>
    c8b6:	f04f 0800 	mov.w	r8, #0
    c8ba:	4646      	mov	r6, r8
    c8bc:	e70c      	b.n	c6d8 <_dtoa_r+0xa60>
    c8be:	4977      	ldr	r1, [pc, #476]	; (ca9c <_dtoa_r+0xe24>)
    c8c0:	f108 35ff 	add.w	r5, r8, #4294967295
    c8c4:	eb01 01c5 	add.w	r1, r1, r5, lsl #3
    c8c8:	4632      	mov	r2, r6
    c8ca:	463b      	mov	r3, r7
    c8cc:	e9d1 0100 	ldrd	r0, r1, [r1]
    c8d0:	9510      	str	r5, [sp, #64]	; 0x40
    c8d2:	f007 fb23 	bl	13f1c <__aeabi_dmul>
    c8d6:	e9cd 0114 	strd	r0, r1, [sp, #80]	; 0x50
    c8da:	4659      	mov	r1, fp
    c8dc:	4650      	mov	r0, sl
    c8de:	f007 fdb7 	bl	14450 <__aeabi_d2iz>
    c8e2:	4605      	mov	r5, r0
    c8e4:	f007 fab4 	bl	13e50 <__aeabi_i2d>
    c8e8:	4602      	mov	r2, r0
    c8ea:	460b      	mov	r3, r1
    c8ec:	4650      	mov	r0, sl
    c8ee:	4659      	mov	r1, fp
    c8f0:	f007 f960 	bl	13bb4 <__aeabi_dsub>
    c8f4:	f8dd e024 	ldr.w	lr, [sp, #36]	; 0x24
    c8f8:	3530      	adds	r5, #48	; 0x30
    c8fa:	f1b8 0f01 	cmp.w	r8, #1
    c8fe:	4606      	mov	r6, r0
    c900:	460f      	mov	r7, r1
    c902:	f88e 5000 	strb.w	r5, [lr]
    c906:	f10e 0b01 	add.w	fp, lr, #1
    c90a:	d01e      	beq.n	c94a <_dtoa_r+0xcd2>
    c90c:	9d09      	ldr	r5, [sp, #36]	; 0x24
    c90e:	1e6b      	subs	r3, r5, #1
    c910:	eb03 0a08 	add.w	sl, r3, r8
    c914:	2200      	movs	r2, #0
    c916:	4b63      	ldr	r3, [pc, #396]	; (caa4 <_dtoa_r+0xe2c>)
    c918:	f007 fb00 	bl	13f1c <__aeabi_dmul>
    c91c:	460f      	mov	r7, r1
    c91e:	4606      	mov	r6, r0
    c920:	f007 fd96 	bl	14450 <__aeabi_d2iz>
    c924:	4680      	mov	r8, r0
    c926:	f007 fa93 	bl	13e50 <__aeabi_i2d>
    c92a:	f108 0830 	add.w	r8, r8, #48	; 0x30
    c92e:	4602      	mov	r2, r0
    c930:	460b      	mov	r3, r1
    c932:	4630      	mov	r0, r6
    c934:	4639      	mov	r1, r7
    c936:	f007 f93d 	bl	13bb4 <__aeabi_dsub>
    c93a:	f805 8f01 	strb.w	r8, [r5, #1]!
    c93e:	4555      	cmp	r5, sl
    c940:	d1e8      	bne.n	c914 <_dtoa_r+0xc9c>
    c942:	9d10      	ldr	r5, [sp, #64]	; 0x40
    c944:	4606      	mov	r6, r0
    c946:	460f      	mov	r7, r1
    c948:	44ab      	add	fp, r5
    c94a:	2200      	movs	r2, #0
    c94c:	4b56      	ldr	r3, [pc, #344]	; (caa8 <_dtoa_r+0xe30>)
    c94e:	e9dd 0114 	ldrd	r0, r1, [sp, #80]	; 0x50
    c952:	f007 f931 	bl	13bb8 <__adddf3>
    c956:	4632      	mov	r2, r6
    c958:	463b      	mov	r3, r7
    c95a:	f007 fd51 	bl	14400 <__aeabi_dcmplt>
    c95e:	2800      	cmp	r0, #0
    c960:	d04d      	beq.n	c9fe <_dtoa_r+0xd86>
    c962:	9e17      	ldr	r6, [sp, #92]	; 0x5c
    c964:	9a09      	ldr	r2, [sp, #36]	; 0x24
    c966:	9607      	str	r6, [sp, #28]
    c968:	f81b 5c01 	ldrb.w	r5, [fp, #-1]
    c96c:	f7ff bb4a 	b.w	c004 <_dtoa_r+0x38c>
    c970:	9e08      	ldr	r6, [sp, #32]
    c972:	2300      	movs	r3, #0
    c974:	ebc9 0506 	rsb	r5, r9, r6
    c978:	f7ff bb75 	b.w	c066 <_dtoa_r+0x3ee>
    c97c:	9b18      	ldr	r3, [sp, #96]	; 0x60
    c97e:	9f0c      	ldr	r7, [sp, #48]	; 0x30
    c980:	f1c3 0336 	rsb	r3, r3, #54	; 0x36
    c984:	9d08      	ldr	r5, [sp, #32]
    c986:	f7ff bb6e 	b.w	c066 <_dtoa_r+0x3ee>
    c98a:	4657      	mov	r7, sl
    c98c:	f7ff bbb8 	b.w	c100 <_dtoa_r+0x488>
    c990:	e9dd ab12 	ldrd	sl, fp, [sp, #72]	; 0x48
    c994:	f04f 0802 	mov.w	r8, #2
    c998:	e54a      	b.n	c430 <_dtoa_r+0x7b8>
    c99a:	f1b9 0f00 	cmp.w	r9, #0
    c99e:	f43f aeae 	beq.w	c6fe <_dtoa_r+0xa86>
    c9a2:	9e0f      	ldr	r6, [sp, #60]	; 0x3c
    c9a4:	2e00      	cmp	r6, #0
    c9a6:	f77f af28 	ble.w	c7fa <_dtoa_r+0xb82>
    c9aa:	2200      	movs	r2, #0
    c9ac:	4b3d      	ldr	r3, [pc, #244]	; (caa4 <_dtoa_r+0xe2c>)
    c9ae:	4650      	mov	r0, sl
    c9b0:	4659      	mov	r1, fp
    c9b2:	f007 fab3 	bl	13f1c <__aeabi_dmul>
    c9b6:	4682      	mov	sl, r0
    c9b8:	f108 0001 	add.w	r0, r8, #1
    c9bc:	468b      	mov	fp, r1
    c9be:	f007 fa47 	bl	13e50 <__aeabi_i2d>
    c9c2:	4602      	mov	r2, r0
    c9c4:	460b      	mov	r3, r1
    c9c6:	4650      	mov	r0, sl
    c9c8:	4659      	mov	r1, fp
    c9ca:	f007 faa7 	bl	13f1c <__aeabi_dmul>
    c9ce:	2200      	movs	r2, #0
    c9d0:	4b36      	ldr	r3, [pc, #216]	; (caac <_dtoa_r+0xe34>)
    c9d2:	f007 f8f1 	bl	13bb8 <__adddf3>
    c9d6:	9d07      	ldr	r5, [sp, #28]
    c9d8:	4606      	mov	r6, r0
    c9da:	3d01      	subs	r5, #1
    c9dc:	f1a1 7750 	sub.w	r7, r1, #54525952	; 0x3400000
    c9e0:	9517      	str	r5, [sp, #92]	; 0x5c
    c9e2:	f8dd 803c 	ldr.w	r8, [sp, #60]	; 0x3c
    c9e6:	e543      	b.n	c470 <_dtoa_r+0x7f8>
    c9e8:	4635      	mov	r5, r6
    c9ea:	9b06      	ldr	r3, [sp, #24]
    c9ec:	9e06      	ldr	r6, [sp, #24]
    c9ee:	2239      	movs	r2, #57	; 0x39
    c9f0:	7032      	strb	r2, [r6, #0]
    c9f2:	f103 0b01 	add.w	fp, r3, #1
    c9f6:	463e      	mov	r6, r7
    c9f8:	9909      	ldr	r1, [sp, #36]	; 0x24
    c9fa:	f7ff bbee 	b.w	c1da <_dtoa_r+0x562>
    c9fe:	e9dd 2314 	ldrd	r2, r3, [sp, #80]	; 0x50
    ca02:	2000      	movs	r0, #0
    ca04:	4928      	ldr	r1, [pc, #160]	; (caa8 <_dtoa_r+0xe30>)
    ca06:	f007 f8d5 	bl	13bb4 <__aeabi_dsub>
    ca0a:	4632      	mov	r2, r6
    ca0c:	463b      	mov	r3, r7
    ca0e:	f007 fd15 	bl	1443c <__aeabi_dcmpgt>
    ca12:	2800      	cmp	r0, #0
    ca14:	f43f aef1 	beq.w	c7fa <_dtoa_r+0xb82>
    ca18:	465b      	mov	r3, fp
    ca1a:	f813 2c01 	ldrb.w	r2, [r3, #-1]
    ca1e:	469b      	mov	fp, r3
    ca20:	2a30      	cmp	r2, #48	; 0x30
    ca22:	f103 33ff 	add.w	r3, r3, #4294967295
    ca26:	d0f8      	beq.n	ca1a <_dtoa_r+0xda2>
    ca28:	9d17      	ldr	r5, [sp, #92]	; 0x5c
    ca2a:	9507      	str	r5, [sp, #28]
    ca2c:	f7ff baf1 	b.w	c012 <_dtoa_r+0x39a>
    ca30:	4645      	mov	r5, r8
    ca32:	4654      	mov	r4, sl
    ca34:	9e17      	ldr	r6, [sp, #92]	; 0x5c
    ca36:	9a09      	ldr	r2, [sp, #36]	; 0x24
    ca38:	9607      	str	r6, [sp, #28]
    ca3a:	f7ff bae3 	b.w	c004 <_dtoa_r+0x38c>
    ca3e:	f1ba 0f39 	cmp.w	sl, #57	; 0x39
    ca42:	f8cd 9028 	str.w	r9, [sp, #40]	; 0x28
    ca46:	d0cf      	beq.n	c9e8 <_dtoa_r+0xd70>
    ca48:	9b03      	ldr	r3, [sp, #12]
    ca4a:	4635      	mov	r5, r6
    ca4c:	2b00      	cmp	r3, #0
    ca4e:	9e06      	ldr	r6, [sp, #24]
    ca50:	bfc8      	it	gt
    ca52:	f10b 0a31 	addgt.w	sl, fp, #49	; 0x31
    ca56:	f886 a000 	strb.w	sl, [r6]
    ca5a:	f106 0b01 	add.w	fp, r6, #1
    ca5e:	463e      	mov	r6, r7
    ca60:	f7ff bbc1 	b.w	c1e6 <_dtoa_r+0x56e>
    ca64:	f47f aea7 	bne.w	c7b6 <_dtoa_r+0xb3e>
    ca68:	f01a 0f01 	tst.w	sl, #1
    ca6c:	f43f aea3 	beq.w	c7b6 <_dtoa_r+0xb3e>
    ca70:	e69b      	b.n	c7aa <_dtoa_r+0xb32>
    ca72:	4631      	mov	r1, r6
    ca74:	4620      	mov	r0, r4
    ca76:	220a      	movs	r2, #10
    ca78:	2300      	movs	r3, #0
    ca7a:	f8dd 903c 	ldr.w	r9, [sp, #60]	; 0x3c
    ca7e:	f000 fd6d 	bl	d55c <__multadd>
    ca82:	4606      	mov	r6, r0
    ca84:	f7ff bb6a 	b.w	c15c <_dtoa_r+0x4e4>
    ca88:	f04f 0802 	mov.w	r8, #2
    ca8c:	e4d0      	b.n	c430 <_dtoa_r+0x7b8>
    ca8e:	f43f ab50 	beq.w	c132 <_dtoa_r+0x4ba>
    ca92:	f1c3 033c 	rsb	r3, r3, #60	; 0x3c
    ca96:	f7ff bbe0 	b.w	c25a <_dtoa_r+0x5e2>
    ca9a:	bf00      	nop
    ca9c:	00014da0 	.word	0x00014da0
    caa0:	00014e68 	.word	0x00014e68
    caa4:	40240000 	.word	0x40240000
    caa8:	3fe00000 	.word	0x3fe00000
    caac:	401c0000 	.word	0x401c0000

0000cab0 <_fclose_r>:
    cab0:	b570      	push	{r4, r5, r6, lr}
    cab2:	460c      	mov	r4, r1
    cab4:	4605      	mov	r5, r0
    cab6:	b131      	cbz	r1, cac6 <_fclose_r+0x16>
    cab8:	b110      	cbz	r0, cac0 <_fclose_r+0x10>
    caba:	6b83      	ldr	r3, [r0, #56]	; 0x38
    cabc:	2b00      	cmp	r3, #0
    cabe:	d02f      	beq.n	cb20 <_fclose_r+0x70>
    cac0:	f9b4 300c 	ldrsh.w	r3, [r4, #12]
    cac4:	b90b      	cbnz	r3, caca <_fclose_r+0x1a>
    cac6:	2000      	movs	r0, #0
    cac8:	bd70      	pop	{r4, r5, r6, pc}
    caca:	4628      	mov	r0, r5
    cacc:	4621      	mov	r1, r4
    cace:	f000 f8db 	bl	cc88 <_fflush_r>
    cad2:	6ae3      	ldr	r3, [r4, #44]	; 0x2c
    cad4:	4606      	mov	r6, r0
    cad6:	b133      	cbz	r3, cae6 <_fclose_r+0x36>
    cad8:	4628      	mov	r0, r5
    cada:	69e1      	ldr	r1, [r4, #28]
    cadc:	4798      	blx	r3
    cade:	2800      	cmp	r0, #0
    cae0:	bfb8      	it	lt
    cae2:	f04f 36ff 	movlt.w	r6, #4294967295
    cae6:	89a3      	ldrh	r3, [r4, #12]
    cae8:	061b      	lsls	r3, r3, #24
    caea:	d41c      	bmi.n	cb26 <_fclose_r+0x76>
    caec:	6b21      	ldr	r1, [r4, #48]	; 0x30
    caee:	b141      	cbz	r1, cb02 <_fclose_r+0x52>
    caf0:	f104 0340 	add.w	r3, r4, #64	; 0x40
    caf4:	4299      	cmp	r1, r3
    caf6:	d002      	beq.n	cafe <_fclose_r+0x4e>
    caf8:	4628      	mov	r0, r5
    cafa:	f000 fa15 	bl	cf28 <_free_r>
    cafe:	2300      	movs	r3, #0
    cb00:	6323      	str	r3, [r4, #48]	; 0x30
    cb02:	6c61      	ldr	r1, [r4, #68]	; 0x44
    cb04:	b121      	cbz	r1, cb10 <_fclose_r+0x60>
    cb06:	4628      	mov	r0, r5
    cb08:	f000 fa0e 	bl	cf28 <_free_r>
    cb0c:	2300      	movs	r3, #0
    cb0e:	6463      	str	r3, [r4, #68]	; 0x44
    cb10:	f7fc f96a 	bl	8de8 <__sfp_lock_acquire>
    cb14:	2300      	movs	r3, #0
    cb16:	81a3      	strh	r3, [r4, #12]
    cb18:	f7fc f968 	bl	8dec <__sfp_lock_release>
    cb1c:	4630      	mov	r0, r6
    cb1e:	bd70      	pop	{r4, r5, r6, pc}
    cb20:	f7fc f8a2 	bl	8c68 <__sinit>
    cb24:	e7cc      	b.n	cac0 <_fclose_r+0x10>
    cb26:	4628      	mov	r0, r5
    cb28:	6921      	ldr	r1, [r4, #16]
    cb2a:	f000 f9fd 	bl	cf28 <_free_r>
    cb2e:	e7dd      	b.n	caec <_fclose_r+0x3c>

0000cb30 <fclose>:
    cb30:	4b02      	ldr	r3, [pc, #8]	; (cb3c <fclose+0xc>)
    cb32:	4601      	mov	r1, r0
    cb34:	6818      	ldr	r0, [r3, #0]
    cb36:	f7ff bfbb 	b.w	cab0 <_fclose_r>
    cb3a:	bf00      	nop
    cb3c:	0001d5e8 	.word	0x0001d5e8

0000cb40 <__sflush_r>:
    cb40:	898b      	ldrh	r3, [r1, #12]
    cb42:	e92d 41f0 	stmdb	sp!, {r4, r5, r6, r7, r8, lr}
    cb46:	b29a      	uxth	r2, r3
    cb48:	460d      	mov	r5, r1
    cb4a:	0711      	lsls	r1, r2, #28
    cb4c:	4680      	mov	r8, r0
    cb4e:	d43c      	bmi.n	cbca <__sflush_r+0x8a>
    cb50:	686a      	ldr	r2, [r5, #4]
    cb52:	f443 6300 	orr.w	r3, r3, #2048	; 0x800
    cb56:	2a00      	cmp	r2, #0
    cb58:	81ab      	strh	r3, [r5, #12]
    cb5a:	dd59      	ble.n	cc10 <__sflush_r+0xd0>
    cb5c:	6aac      	ldr	r4, [r5, #40]	; 0x28
    cb5e:	2c00      	cmp	r4, #0
    cb60:	d04b      	beq.n	cbfa <__sflush_r+0xba>
    cb62:	b29b      	uxth	r3, r3
    cb64:	f403 5280 	and.w	r2, r3, #4096	; 0x1000
    cb68:	2100      	movs	r1, #0
    cb6a:	b292      	uxth	r2, r2
    cb6c:	f8d8 6000 	ldr.w	r6, [r8]
    cb70:	f8c8 1000 	str.w	r1, [r8]
    cb74:	2a00      	cmp	r2, #0
    cb76:	d04f      	beq.n	cc18 <__sflush_r+0xd8>
    cb78:	6d2a      	ldr	r2, [r5, #80]	; 0x50
    cb7a:	075f      	lsls	r7, r3, #29
    cb7c:	d505      	bpl.n	cb8a <__sflush_r+0x4a>
    cb7e:	6869      	ldr	r1, [r5, #4]
    cb80:	6b2b      	ldr	r3, [r5, #48]	; 0x30
    cb82:	1a52      	subs	r2, r2, r1
    cb84:	b10b      	cbz	r3, cb8a <__sflush_r+0x4a>
    cb86:	6beb      	ldr	r3, [r5, #60]	; 0x3c
    cb88:	1ad2      	subs	r2, r2, r3
    cb8a:	4640      	mov	r0, r8
    cb8c:	69e9      	ldr	r1, [r5, #28]
    cb8e:	2300      	movs	r3, #0
    cb90:	47a0      	blx	r4
    cb92:	1c44      	adds	r4, r0, #1
    cb94:	d04a      	beq.n	cc2c <__sflush_r+0xec>
    cb96:	89ab      	ldrh	r3, [r5, #12]
    cb98:	692a      	ldr	r2, [r5, #16]
    cb9a:	f423 6300 	bic.w	r3, r3, #2048	; 0x800
    cb9e:	b29b      	uxth	r3, r3
    cba0:	2100      	movs	r1, #0
    cba2:	602a      	str	r2, [r5, #0]
    cba4:	04da      	lsls	r2, r3, #19
    cba6:	81ab      	strh	r3, [r5, #12]
    cba8:	6069      	str	r1, [r5, #4]
    cbaa:	d44c      	bmi.n	cc46 <__sflush_r+0x106>
    cbac:	6b29      	ldr	r1, [r5, #48]	; 0x30
    cbae:	f8c8 6000 	str.w	r6, [r8]
    cbb2:	b311      	cbz	r1, cbfa <__sflush_r+0xba>
    cbb4:	f105 0340 	add.w	r3, r5, #64	; 0x40
    cbb8:	4299      	cmp	r1, r3
    cbba:	d002      	beq.n	cbc2 <__sflush_r+0x82>
    cbbc:	4640      	mov	r0, r8
    cbbe:	f000 f9b3 	bl	cf28 <_free_r>
    cbc2:	2000      	movs	r0, #0
    cbc4:	6328      	str	r0, [r5, #48]	; 0x30
    cbc6:	e8bd 81f0 	ldmia.w	sp!, {r4, r5, r6, r7, r8, pc}
    cbca:	692e      	ldr	r6, [r5, #16]
    cbcc:	b1ae      	cbz	r6, cbfa <__sflush_r+0xba>
    cbce:	0791      	lsls	r1, r2, #30
    cbd0:	682c      	ldr	r4, [r5, #0]
    cbd2:	bf0c      	ite	eq
    cbd4:	696b      	ldreq	r3, [r5, #20]
    cbd6:	2300      	movne	r3, #0
    cbd8:	602e      	str	r6, [r5, #0]
    cbda:	1ba4      	subs	r4, r4, r6
    cbdc:	60ab      	str	r3, [r5, #8]
    cbde:	e00a      	b.n	cbf6 <__sflush_r+0xb6>
    cbe0:	4632      	mov	r2, r6
    cbe2:	4623      	mov	r3, r4
    cbe4:	6a6f      	ldr	r7, [r5, #36]	; 0x24
    cbe6:	4640      	mov	r0, r8
    cbe8:	69e9      	ldr	r1, [r5, #28]
    cbea:	47b8      	blx	r7
    cbec:	2800      	cmp	r0, #0
    cbee:	ebc0 0404 	rsb	r4, r0, r4
    cbf2:	4406      	add	r6, r0
    cbf4:	dd04      	ble.n	cc00 <__sflush_r+0xc0>
    cbf6:	2c00      	cmp	r4, #0
    cbf8:	dcf2      	bgt.n	cbe0 <__sflush_r+0xa0>
    cbfa:	2000      	movs	r0, #0
    cbfc:	e8bd 81f0 	ldmia.w	sp!, {r4, r5, r6, r7, r8, pc}
    cc00:	89ab      	ldrh	r3, [r5, #12]
    cc02:	f04f 30ff 	mov.w	r0, #4294967295
    cc06:	f043 0340 	orr.w	r3, r3, #64	; 0x40
    cc0a:	81ab      	strh	r3, [r5, #12]
    cc0c:	e8bd 81f0 	ldmia.w	sp!, {r4, r5, r6, r7, r8, pc}
    cc10:	6bea      	ldr	r2, [r5, #60]	; 0x3c
    cc12:	2a00      	cmp	r2, #0
    cc14:	dca2      	bgt.n	cb5c <__sflush_r+0x1c>
    cc16:	e7f0      	b.n	cbfa <__sflush_r+0xba>
    cc18:	2301      	movs	r3, #1
    cc1a:	4640      	mov	r0, r8
    cc1c:	69e9      	ldr	r1, [r5, #28]
    cc1e:	47a0      	blx	r4
    cc20:	1c43      	adds	r3, r0, #1
    cc22:	4602      	mov	r2, r0
    cc24:	d01e      	beq.n	cc64 <__sflush_r+0x124>
    cc26:	89ab      	ldrh	r3, [r5, #12]
    cc28:	6aac      	ldr	r4, [r5, #40]	; 0x28
    cc2a:	e7a6      	b.n	cb7a <__sflush_r+0x3a>
    cc2c:	f8d8 3000 	ldr.w	r3, [r8]
    cc30:	b95b      	cbnz	r3, cc4a <__sflush_r+0x10a>
    cc32:	89aa      	ldrh	r2, [r5, #12]
    cc34:	6929      	ldr	r1, [r5, #16]
    cc36:	f422 6200 	bic.w	r2, r2, #2048	; 0x800
    cc3a:	b292      	uxth	r2, r2
    cc3c:	606b      	str	r3, [r5, #4]
    cc3e:	04d3      	lsls	r3, r2, #19
    cc40:	81aa      	strh	r2, [r5, #12]
    cc42:	6029      	str	r1, [r5, #0]
    cc44:	d5b2      	bpl.n	cbac <__sflush_r+0x6c>
    cc46:	6528      	str	r0, [r5, #80]	; 0x50
    cc48:	e7b0      	b.n	cbac <__sflush_r+0x6c>
    cc4a:	2b1d      	cmp	r3, #29
    cc4c:	d001      	beq.n	cc52 <__sflush_r+0x112>
    cc4e:	2b16      	cmp	r3, #22
    cc50:	d113      	bne.n	cc7a <__sflush_r+0x13a>
    cc52:	89a9      	ldrh	r1, [r5, #12]
    cc54:	692b      	ldr	r3, [r5, #16]
    cc56:	f421 6100 	bic.w	r1, r1, #2048	; 0x800
    cc5a:	2200      	movs	r2, #0
    cc5c:	81a9      	strh	r1, [r5, #12]
    cc5e:	602b      	str	r3, [r5, #0]
    cc60:	606a      	str	r2, [r5, #4]
    cc62:	e7a3      	b.n	cbac <__sflush_r+0x6c>
    cc64:	f8d8 3000 	ldr.w	r3, [r8]
    cc68:	2b00      	cmp	r3, #0
    cc6a:	d0dc      	beq.n	cc26 <__sflush_r+0xe6>
    cc6c:	2b1d      	cmp	r3, #29
    cc6e:	d001      	beq.n	cc74 <__sflush_r+0x134>
    cc70:	2b16      	cmp	r3, #22
    cc72:	d1c5      	bne.n	cc00 <__sflush_r+0xc0>
    cc74:	f8c8 6000 	str.w	r6, [r8]
    cc78:	e7bf      	b.n	cbfa <__sflush_r+0xba>
    cc7a:	89ab      	ldrh	r3, [r5, #12]
    cc7c:	f043 0340 	orr.w	r3, r3, #64	; 0x40
    cc80:	81ab      	strh	r3, [r5, #12]
    cc82:	e8bd 81f0 	ldmia.w	sp!, {r4, r5, r6, r7, r8, pc}
    cc86:	bf00      	nop

0000cc88 <_fflush_r>:
    cc88:	b510      	push	{r4, lr}
    cc8a:	4604      	mov	r4, r0
    cc8c:	b082      	sub	sp, #8
    cc8e:	b108      	cbz	r0, cc94 <_fflush_r+0xc>
    cc90:	6b83      	ldr	r3, [r0, #56]	; 0x38
    cc92:	b153      	cbz	r3, ccaa <_fflush_r+0x22>
    cc94:	f9b1 000c 	ldrsh.w	r0, [r1, #12]
    cc98:	b908      	cbnz	r0, cc9e <_fflush_r+0x16>
    cc9a:	b002      	add	sp, #8
    cc9c:	bd10      	pop	{r4, pc}
    cc9e:	4620      	mov	r0, r4
    cca0:	b002      	add	sp, #8
    cca2:	e8bd 4010 	ldmia.w	sp!, {r4, lr}
    cca6:	f7ff bf4b 	b.w	cb40 <__sflush_r>
    ccaa:	9101      	str	r1, [sp, #4]
    ccac:	f7fb ffdc 	bl	8c68 <__sinit>
    ccb0:	9901      	ldr	r1, [sp, #4]
    ccb2:	e7ef      	b.n	cc94 <_fflush_r+0xc>

0000ccb4 <fflush>:
    ccb4:	b120      	cbz	r0, ccc0 <fflush+0xc>
    ccb6:	4b05      	ldr	r3, [pc, #20]	; (cccc <fflush+0x18>)
    ccb8:	4601      	mov	r1, r0
    ccba:	6818      	ldr	r0, [r3, #0]
    ccbc:	f7ff bfe4 	b.w	cc88 <_fflush_r>
    ccc0:	4b03      	ldr	r3, [pc, #12]	; (ccd0 <fflush+0x1c>)
    ccc2:	4904      	ldr	r1, [pc, #16]	; (ccd4 <fflush+0x20>)
    ccc4:	6818      	ldr	r0, [r3, #0]
    ccc6:	f7fc b8cf 	b.w	8e68 <_fwalk_reent>
    ccca:	bf00      	nop
    cccc:	0001d5e8 	.word	0x0001d5e8
    ccd0:	00014b54 	.word	0x00014b54
    ccd4:	0000cc89 	.word	0x0000cc89

0000ccd8 <_fread_r>:
    ccd8:	e92d 4ff0 	stmdb	sp!, {r4, r5, r6, r7, r8, r9, sl, fp, lr}
    ccdc:	fb02 f503 	mul.w	r5, r2, r3
    cce0:	b085      	sub	sp, #20
    cce2:	4690      	mov	r8, r2
    cce4:	9301      	str	r3, [sp, #4]
    cce6:	4689      	mov	r9, r1
    cce8:	4604      	mov	r4, r0
    ccea:	f8dd b038 	ldr.w	fp, [sp, #56]	; 0x38
    ccee:	2d00      	cmp	r5, #0
    ccf0:	d046      	beq.n	cd80 <_fread_r+0xa8>
    ccf2:	b118      	cbz	r0, ccfc <_fread_r+0x24>
    ccf4:	6b82      	ldr	r2, [r0, #56]	; 0x38
    ccf6:	2a00      	cmp	r2, #0
    ccf8:	f000 80a7 	beq.w	ce4a <_fread_r+0x172>
    ccfc:	f8bb 200c 	ldrh.w	r2, [fp, #12]
    cd00:	b291      	uxth	r1, r2
    cd02:	0488      	lsls	r0, r1, #18
    cd04:	d40a      	bmi.n	cd1c <_fread_r+0x44>
    cd06:	f8db 1064 	ldr.w	r1, [fp, #100]	; 0x64
    cd0a:	f442 5200 	orr.w	r2, r2, #8192	; 0x2000
    cd0e:	f421 5000 	bic.w	r0, r1, #8192	; 0x2000
    cd12:	f8ab 200c 	strh.w	r2, [fp, #12]
    cd16:	b291      	uxth	r1, r2
    cd18:	f8cb 0064 	str.w	r0, [fp, #100]	; 0x64
    cd1c:	f8db 7004 	ldr.w	r7, [fp, #4]
    cd20:	2f00      	cmp	r7, #0
    cd22:	db38      	blt.n	cd96 <_fread_r+0xbe>
    cd24:	078b      	lsls	r3, r1, #30
    cd26:	46ba      	mov	sl, r7
    cd28:	d43c      	bmi.n	cda4 <_fread_r+0xcc>
    cd2a:	46aa      	mov	sl, r5
    cd2c:	e010      	b.n	cd50 <_fread_r+0x78>
    cd2e:	f000 fb6f 	bl	d410 <memcpy>
    cd32:	f8db 2000 	ldr.w	r2, [fp]
    cd36:	4620      	mov	r0, r4
    cd38:	443a      	add	r2, r7
    cd3a:	f8cb 2000 	str.w	r2, [fp]
    cd3e:	4659      	mov	r1, fp
    cd40:	44b9      	add	r9, r7
    cd42:	ebc7 0a0a 	rsb	sl, r7, sl
    cd46:	f001 f8b5 	bl	deb4 <__srefill_r>
    cd4a:	b9e8      	cbnz	r0, cd88 <_fread_r+0xb0>
    cd4c:	f8db 7004 	ldr.w	r7, [fp, #4]
    cd50:	45ba      	cmp	sl, r7
    cd52:	463a      	mov	r2, r7
    cd54:	4648      	mov	r0, r9
    cd56:	f8db 1000 	ldr.w	r1, [fp]
    cd5a:	d8e8      	bhi.n	cd2e <_fread_r+0x56>
    cd5c:	4652      	mov	r2, sl
    cd5e:	f000 fb57 	bl	d410 <memcpy>
    cd62:	f8db 1004 	ldr.w	r1, [fp, #4]
    cd66:	f8db 2000 	ldr.w	r2, [fp]
    cd6a:	ebca 0101 	rsb	r1, sl, r1
    cd6e:	4452      	add	r2, sl
    cd70:	9801      	ldr	r0, [sp, #4]
    cd72:	f8cb 1004 	str.w	r1, [fp, #4]
    cd76:	f8cb 2000 	str.w	r2, [fp]
    cd7a:	b005      	add	sp, #20
    cd7c:	e8bd 8ff0 	ldmia.w	sp!, {r4, r5, r6, r7, r8, r9, sl, fp, pc}
    cd80:	4628      	mov	r0, r5
    cd82:	b005      	add	sp, #20
    cd84:	e8bd 8ff0 	ldmia.w	sp!, {r4, r5, r6, r7, r8, r9, sl, fp, pc}
    cd88:	ebca 0505 	rsb	r5, sl, r5
    cd8c:	fbb5 f0f8 	udiv	r0, r5, r8
    cd90:	b005      	add	sp, #20
    cd92:	e8bd 8ff0 	ldmia.w	sp!, {r4, r5, r6, r7, r8, r9, sl, fp, pc}
    cd96:	2200      	movs	r2, #0
    cd98:	078b      	lsls	r3, r1, #30
    cd9a:	4692      	mov	sl, r2
    cd9c:	f8cb 2004 	str.w	r2, [fp, #4]
    cda0:	4617      	mov	r7, r2
    cda2:	d5c2      	bpl.n	cd2a <_fread_r+0x52>
    cda4:	45aa      	cmp	sl, r5
    cda6:	bf28      	it	cs
    cda8:	46aa      	movcs	sl, r5
    cdaa:	4652      	mov	r2, sl
    cdac:	f8db 1000 	ldr.w	r1, [fp]
    cdb0:	4648      	mov	r0, r9
    cdb2:	f000 fb2d 	bl	d410 <memcpy>
    cdb6:	f8db 7000 	ldr.w	r7, [fp]
    cdba:	f8db 2004 	ldr.w	r2, [fp, #4]
    cdbe:	f8db 1030 	ldr.w	r1, [fp, #48]	; 0x30
    cdc2:	4457      	add	r7, sl
    cdc4:	ebca 0202 	rsb	r2, sl, r2
    cdc8:	9702      	str	r7, [sp, #8]
    cdca:	f8cb 7000 	str.w	r7, [fp]
    cdce:	eb09 060a 	add.w	r6, r9, sl
    cdd2:	f8cb 2004 	str.w	r2, [fp, #4]
    cdd6:	ebca 0705 	rsb	r7, sl, r5
    cdda:	2900      	cmp	r1, #0
    cddc:	d03e      	beq.n	ce5c <_fread_r+0x184>
    cdde:	2f00      	cmp	r7, #0
    cde0:	d03e      	beq.n	ce60 <_fread_r+0x188>
    cde2:	f10b 0040 	add.w	r0, fp, #64	; 0x40
    cde6:	4281      	cmp	r1, r0
    cde8:	d005      	beq.n	cdf6 <_fread_r+0x11e>
    cdea:	4620      	mov	r0, r4
    cdec:	f000 f89c 	bl	cf28 <_free_r>
    cdf0:	f8db 3000 	ldr.w	r3, [fp]
    cdf4:	9302      	str	r3, [sp, #8]
    cdf6:	2100      	movs	r1, #0
    cdf8:	f8cb 1030 	str.w	r1, [fp, #48]	; 0x30
    cdfc:	f8db 3010 	ldr.w	r3, [fp, #16]
    ce00:	f8db a014 	ldr.w	sl, [fp, #20]
    ce04:	9303      	str	r3, [sp, #12]
    ce06:	f04f 0900 	mov.w	r9, #0
    ce0a:	e000      	b.n	ce0e <_fread_r+0x136>
    ce0c:	b347      	cbz	r7, ce60 <_fread_r+0x188>
    ce0e:	f8cb 6010 	str.w	r6, [fp, #16]
    ce12:	f8cb 7014 	str.w	r7, [fp, #20]
    ce16:	f8cb 6000 	str.w	r6, [fp]
    ce1a:	4659      	mov	r1, fp
    ce1c:	4620      	mov	r0, r4
    ce1e:	f001 f849 	bl	deb4 <__srefill_r>
    ce22:	9b03      	ldr	r3, [sp, #12]
    ce24:	f8db 1004 	ldr.w	r1, [fp, #4]
    ce28:	f8cb 3010 	str.w	r3, [fp, #16]
    ce2c:	9b02      	ldr	r3, [sp, #8]
    ce2e:	f8cb a014 	str.w	sl, [fp, #20]
    ce32:	f8cb 3000 	str.w	r3, [fp]
    ce36:	1a7f      	subs	r7, r7, r1
    ce38:	440e      	add	r6, r1
    ce3a:	f8cb 9004 	str.w	r9, [fp, #4]
    ce3e:	2800      	cmp	r0, #0
    ce40:	d0e4      	beq.n	ce0c <_fread_r+0x134>
    ce42:	1bed      	subs	r5, r5, r7
    ce44:	fbb5 f0f8 	udiv	r0, r5, r8
    ce48:	e797      	b.n	cd7a <_fread_r+0xa2>
    ce4a:	f7fb ff0d 	bl	8c68 <__sinit>
    ce4e:	f8bb 200c 	ldrh.w	r2, [fp, #12]
    ce52:	b291      	uxth	r1, r2
    ce54:	0488      	lsls	r0, r1, #18
    ce56:	f53f af61 	bmi.w	cd1c <_fread_r+0x44>
    ce5a:	e754      	b.n	cd06 <_fread_r+0x2e>
    ce5c:	2f00      	cmp	r7, #0
    ce5e:	d1cd      	bne.n	cdfc <_fread_r+0x124>
    ce60:	9801      	ldr	r0, [sp, #4]
    ce62:	b005      	add	sp, #20
    ce64:	e8bd 8ff0 	ldmia.w	sp!, {r4, r5, r6, r7, r8, r9, sl, fp, pc}

0000ce68 <fread>:
    ce68:	b570      	push	{r4, r5, r6, lr}
    ce6a:	4c07      	ldr	r4, [pc, #28]	; (ce88 <fread+0x20>)
    ce6c:	b082      	sub	sp, #8
    ce6e:	4606      	mov	r6, r0
    ce70:	460d      	mov	r5, r1
    ce72:	6820      	ldr	r0, [r4, #0]
    ce74:	4614      	mov	r4, r2
    ce76:	9300      	str	r3, [sp, #0]
    ce78:	4631      	mov	r1, r6
    ce7a:	462a      	mov	r2, r5
    ce7c:	4623      	mov	r3, r4
    ce7e:	f7ff ff2b 	bl	ccd8 <_fread_r>
    ce82:	b002      	add	sp, #8
    ce84:	bd70      	pop	{r4, r5, r6, pc}
    ce86:	bf00      	nop
    ce88:	0001d5e8 	.word	0x0001d5e8

0000ce8c <_malloc_trim_r>:
    ce8c:	b5f8      	push	{r3, r4, r5, r6, r7, lr}
    ce8e:	4d23      	ldr	r5, [pc, #140]	; (cf1c <_malloc_trim_r+0x90>)
    ce90:	460f      	mov	r7, r1
    ce92:	4604      	mov	r4, r0
    ce94:	f7fc faaa 	bl	93ec <__malloc_lock>
    ce98:	68ab      	ldr	r3, [r5, #8]
    ce9a:	685e      	ldr	r6, [r3, #4]
    ce9c:	f026 0603 	bic.w	r6, r6, #3
    cea0:	1bf1      	subs	r1, r6, r7
    cea2:	f601 71ef 	addw	r1, r1, #4079	; 0xfef
    cea6:	f421 617f 	bic.w	r1, r1, #4080	; 0xff0
    ceaa:	f021 010f 	bic.w	r1, r1, #15
    ceae:	f5a1 5780 	sub.w	r7, r1, #4096	; 0x1000
    ceb2:	f5b7 5f80 	cmp.w	r7, #4096	; 0x1000
    ceb6:	db07      	blt.n	cec8 <_malloc_trim_r+0x3c>
    ceb8:	4620      	mov	r0, r4
    ceba:	2100      	movs	r1, #0
    cebc:	f7fc fabe 	bl	943c <_sbrk_r>
    cec0:	68ab      	ldr	r3, [r5, #8]
    cec2:	4433      	add	r3, r6
    cec4:	4298      	cmp	r0, r3
    cec6:	d004      	beq.n	ced2 <_malloc_trim_r+0x46>
    cec8:	4620      	mov	r0, r4
    ceca:	f7fc fa91 	bl	93f0 <__malloc_unlock>
    cece:	2000      	movs	r0, #0
    ced0:	bdf8      	pop	{r3, r4, r5, r6, r7, pc}
    ced2:	4620      	mov	r0, r4
    ced4:	4279      	negs	r1, r7
    ced6:	f7fc fab1 	bl	943c <_sbrk_r>
    ceda:	3001      	adds	r0, #1
    cedc:	d00d      	beq.n	cefa <_malloc_trim_r+0x6e>
    cede:	4b10      	ldr	r3, [pc, #64]	; (cf20 <_malloc_trim_r+0x94>)
    cee0:	68aa      	ldr	r2, [r5, #8]
    cee2:	6819      	ldr	r1, [r3, #0]
    cee4:	1bf6      	subs	r6, r6, r7
    cee6:	f046 0601 	orr.w	r6, r6, #1
    ceea:	4620      	mov	r0, r4
    ceec:	1bc9      	subs	r1, r1, r7
    ceee:	6056      	str	r6, [r2, #4]
    cef0:	6019      	str	r1, [r3, #0]
    cef2:	f7fc fa7d 	bl	93f0 <__malloc_unlock>
    cef6:	2001      	movs	r0, #1
    cef8:	bdf8      	pop	{r3, r4, r5, r6, r7, pc}
    cefa:	4620      	mov	r0, r4
    cefc:	2100      	movs	r1, #0
    cefe:	f7fc fa9d 	bl	943c <_sbrk_r>
    cf02:	68ab      	ldr	r3, [r5, #8]
    cf04:	1ac2      	subs	r2, r0, r3
    cf06:	2a0f      	cmp	r2, #15
    cf08:	ddde      	ble.n	cec8 <_malloc_trim_r+0x3c>
    cf0a:	4d06      	ldr	r5, [pc, #24]	; (cf24 <_malloc_trim_r+0x98>)
    cf0c:	4904      	ldr	r1, [pc, #16]	; (cf20 <_malloc_trim_r+0x94>)
    cf0e:	682d      	ldr	r5, [r5, #0]
    cf10:	f042 0201 	orr.w	r2, r2, #1
    cf14:	1b40      	subs	r0, r0, r5
    cf16:	605a      	str	r2, [r3, #4]
    cf18:	6008      	str	r0, [r1, #0]
    cf1a:	e7d5      	b.n	cec8 <_malloc_trim_r+0x3c>
    cf1c:	0001d5ec 	.word	0x0001d5ec
    cf20:	0001db5c 	.word	0x0001db5c
    cf24:	0001d9f8 	.word	0x0001d9f8

0000cf28 <_free_r>:
    cf28:	e92d 41f0 	stmdb	sp!, {r4, r5, r6, r7, r8, lr}
    cf2c:	460d      	mov	r5, r1
    cf2e:	4606      	mov	r6, r0
    cf30:	2900      	cmp	r1, #0
    cf32:	d055      	beq.n	cfe0 <_free_r+0xb8>
    cf34:	f7fc fa5a 	bl	93ec <__malloc_lock>
    cf38:	f855 1c04 	ldr.w	r1, [r5, #-4]
    cf3c:	f8df c170 	ldr.w	ip, [pc, #368]	; d0b0 <_free_r+0x188>
    cf40:	f1a5 0408 	sub.w	r4, r5, #8
    cf44:	f021 0301 	bic.w	r3, r1, #1
    cf48:	18e2      	adds	r2, r4, r3
    cf4a:	f8dc 0008 	ldr.w	r0, [ip, #8]
    cf4e:	6857      	ldr	r7, [r2, #4]
    cf50:	4290      	cmp	r0, r2
    cf52:	f027 0703 	bic.w	r7, r7, #3
    cf56:	d068      	beq.n	d02a <_free_r+0x102>
    cf58:	f011 0101 	ands.w	r1, r1, #1
    cf5c:	6057      	str	r7, [r2, #4]
    cf5e:	d032      	beq.n	cfc6 <_free_r+0x9e>
    cf60:	2100      	movs	r1, #0
    cf62:	19d0      	adds	r0, r2, r7
    cf64:	6840      	ldr	r0, [r0, #4]
    cf66:	07c0      	lsls	r0, r0, #31
    cf68:	d406      	bmi.n	cf78 <_free_r+0x50>
    cf6a:	443b      	add	r3, r7
    cf6c:	6890      	ldr	r0, [r2, #8]
    cf6e:	2900      	cmp	r1, #0
    cf70:	d04d      	beq.n	d00e <_free_r+0xe6>
    cf72:	68d2      	ldr	r2, [r2, #12]
    cf74:	60c2      	str	r2, [r0, #12]
    cf76:	6090      	str	r0, [r2, #8]
    cf78:	f043 0201 	orr.w	r2, r3, #1
    cf7c:	6062      	str	r2, [r4, #4]
    cf7e:	50e3      	str	r3, [r4, r3]
    cf80:	b9e1      	cbnz	r1, cfbc <_free_r+0x94>
    cf82:	f5b3 7f00 	cmp.w	r3, #512	; 0x200
    cf86:	d32d      	bcc.n	cfe4 <_free_r+0xbc>
    cf88:	0a5a      	lsrs	r2, r3, #9
    cf8a:	2a04      	cmp	r2, #4
    cf8c:	d869      	bhi.n	d062 <_free_r+0x13a>
    cf8e:	0998      	lsrs	r0, r3, #6
    cf90:	3038      	adds	r0, #56	; 0x38
    cf92:	0041      	lsls	r1, r0, #1
    cf94:	eb0c 0c81 	add.w	ip, ip, r1, lsl #2
    cf98:	f8dc 2008 	ldr.w	r2, [ip, #8]
    cf9c:	4944      	ldr	r1, [pc, #272]	; (d0b0 <_free_r+0x188>)
    cf9e:	4562      	cmp	r2, ip
    cfa0:	d065      	beq.n	d06e <_free_r+0x146>
    cfa2:	6851      	ldr	r1, [r2, #4]
    cfa4:	f021 0103 	bic.w	r1, r1, #3
    cfa8:	428b      	cmp	r3, r1
    cfaa:	d202      	bcs.n	cfb2 <_free_r+0x8a>
    cfac:	6892      	ldr	r2, [r2, #8]
    cfae:	4594      	cmp	ip, r2
    cfb0:	d1f7      	bne.n	cfa2 <_free_r+0x7a>
    cfb2:	68d3      	ldr	r3, [r2, #12]
    cfb4:	60e3      	str	r3, [r4, #12]
    cfb6:	60a2      	str	r2, [r4, #8]
    cfb8:	609c      	str	r4, [r3, #8]
    cfba:	60d4      	str	r4, [r2, #12]
    cfbc:	4630      	mov	r0, r6
    cfbe:	e8bd 41f0 	ldmia.w	sp!, {r4, r5, r6, r7, r8, lr}
    cfc2:	f7fc ba15 	b.w	93f0 <__malloc_unlock>
    cfc6:	f855 5c08 	ldr.w	r5, [r5, #-8]
    cfca:	f10c 0808 	add.w	r8, ip, #8
    cfce:	1b64      	subs	r4, r4, r5
    cfd0:	68a0      	ldr	r0, [r4, #8]
    cfd2:	442b      	add	r3, r5
    cfd4:	4540      	cmp	r0, r8
    cfd6:	d042      	beq.n	d05e <_free_r+0x136>
    cfd8:	68e5      	ldr	r5, [r4, #12]
    cfda:	60c5      	str	r5, [r0, #12]
    cfdc:	60a8      	str	r0, [r5, #8]
    cfde:	e7c0      	b.n	cf62 <_free_r+0x3a>
    cfe0:	e8bd 81f0 	ldmia.w	sp!, {r4, r5, r6, r7, r8, pc}
    cfe4:	08db      	lsrs	r3, r3, #3
    cfe6:	109a      	asrs	r2, r3, #2
    cfe8:	2001      	movs	r0, #1
    cfea:	4090      	lsls	r0, r2
    cfec:	f8dc 1004 	ldr.w	r1, [ip, #4]
    cff0:	eb0c 03c3 	add.w	r3, ip, r3, lsl #3
    cff4:	689a      	ldr	r2, [r3, #8]
    cff6:	4301      	orrs	r1, r0
    cff8:	60a2      	str	r2, [r4, #8]
    cffa:	60e3      	str	r3, [r4, #12]
    cffc:	f8cc 1004 	str.w	r1, [ip, #4]
    d000:	4630      	mov	r0, r6
    d002:	609c      	str	r4, [r3, #8]
    d004:	60d4      	str	r4, [r2, #12]
    d006:	e8bd 41f0 	ldmia.w	sp!, {r4, r5, r6, r7, r8, lr}
    d00a:	f7fc b9f1 	b.w	93f0 <__malloc_unlock>
    d00e:	4d29      	ldr	r5, [pc, #164]	; (d0b4 <_free_r+0x18c>)
    d010:	42a8      	cmp	r0, r5
    d012:	d1ae      	bne.n	cf72 <_free_r+0x4a>
    d014:	f043 0201 	orr.w	r2, r3, #1
    d018:	f8cc 4014 	str.w	r4, [ip, #20]
    d01c:	f8cc 4010 	str.w	r4, [ip, #16]
    d020:	60e0      	str	r0, [r4, #12]
    d022:	60a0      	str	r0, [r4, #8]
    d024:	6062      	str	r2, [r4, #4]
    d026:	50e3      	str	r3, [r4, r3]
    d028:	e7c8      	b.n	cfbc <_free_r+0x94>
    d02a:	441f      	add	r7, r3
    d02c:	07cb      	lsls	r3, r1, #31
    d02e:	d407      	bmi.n	d040 <_free_r+0x118>
    d030:	f855 1c08 	ldr.w	r1, [r5, #-8]
    d034:	1a64      	subs	r4, r4, r1
    d036:	68e3      	ldr	r3, [r4, #12]
    d038:	68a2      	ldr	r2, [r4, #8]
    d03a:	440f      	add	r7, r1
    d03c:	60d3      	str	r3, [r2, #12]
    d03e:	609a      	str	r2, [r3, #8]
    d040:	4b1d      	ldr	r3, [pc, #116]	; (d0b8 <_free_r+0x190>)
    d042:	f047 0201 	orr.w	r2, r7, #1
    d046:	681b      	ldr	r3, [r3, #0]
    d048:	6062      	str	r2, [r4, #4]
    d04a:	429f      	cmp	r7, r3
    d04c:	f8cc 4008 	str.w	r4, [ip, #8]
    d050:	d3b4      	bcc.n	cfbc <_free_r+0x94>
    d052:	4b1a      	ldr	r3, [pc, #104]	; (d0bc <_free_r+0x194>)
    d054:	4630      	mov	r0, r6
    d056:	6819      	ldr	r1, [r3, #0]
    d058:	f7ff ff18 	bl	ce8c <_malloc_trim_r>
    d05c:	e7ae      	b.n	cfbc <_free_r+0x94>
    d05e:	2101      	movs	r1, #1
    d060:	e77f      	b.n	cf62 <_free_r+0x3a>
    d062:	2a14      	cmp	r2, #20
    d064:	d80b      	bhi.n	d07e <_free_r+0x156>
    d066:	f102 005b 	add.w	r0, r2, #91	; 0x5b
    d06a:	0041      	lsls	r1, r0, #1
    d06c:	e792      	b.n	cf94 <_free_r+0x6c>
    d06e:	1080      	asrs	r0, r0, #2
    d070:	2501      	movs	r5, #1
    d072:	4085      	lsls	r5, r0
    d074:	6848      	ldr	r0, [r1, #4]
    d076:	4613      	mov	r3, r2
    d078:	4328      	orrs	r0, r5
    d07a:	6048      	str	r0, [r1, #4]
    d07c:	e79a      	b.n	cfb4 <_free_r+0x8c>
    d07e:	2a54      	cmp	r2, #84	; 0x54
    d080:	d803      	bhi.n	d08a <_free_r+0x162>
    d082:	0b18      	lsrs	r0, r3, #12
    d084:	306e      	adds	r0, #110	; 0x6e
    d086:	0041      	lsls	r1, r0, #1
    d088:	e784      	b.n	cf94 <_free_r+0x6c>
    d08a:	f5b2 7faa 	cmp.w	r2, #340	; 0x154
    d08e:	d803      	bhi.n	d098 <_free_r+0x170>
    d090:	0bd8      	lsrs	r0, r3, #15
    d092:	3077      	adds	r0, #119	; 0x77
    d094:	0041      	lsls	r1, r0, #1
    d096:	e77d      	b.n	cf94 <_free_r+0x6c>
    d098:	f240 5154 	movw	r1, #1364	; 0x554
    d09c:	428a      	cmp	r2, r1
    d09e:	d803      	bhi.n	d0a8 <_free_r+0x180>
    d0a0:	0c98      	lsrs	r0, r3, #18
    d0a2:	307c      	adds	r0, #124	; 0x7c
    d0a4:	0041      	lsls	r1, r0, #1
    d0a6:	e775      	b.n	cf94 <_free_r+0x6c>
    d0a8:	21fc      	movs	r1, #252	; 0xfc
    d0aa:	207e      	movs	r0, #126	; 0x7e
    d0ac:	e772      	b.n	cf94 <_free_r+0x6c>
    d0ae:	bf00      	nop
    d0b0:	0001d5ec 	.word	0x0001d5ec
    d0b4:	0001d5f4 	.word	0x0001d5f4
    d0b8:	0001d9f4 	.word	0x0001d9f4
    d0bc:	0001db58 	.word	0x0001db58

0000d0c0 <iswspace>:
    d0c0:	28ff      	cmp	r0, #255	; 0xff
    d0c2:	d807      	bhi.n	d0d4 <iswspace+0x14>
    d0c4:	4b04      	ldr	r3, [pc, #16]	; (d0d8 <iswspace+0x18>)
    d0c6:	681b      	ldr	r3, [r3, #0]
    d0c8:	4418      	add	r0, r3
    d0ca:	7840      	ldrb	r0, [r0, #1]
    d0cc:	f000 0008 	and.w	r0, r0, #8
    d0d0:	b2c0      	uxtb	r0, r0
    d0d2:	4770      	bx	lr
    d0d4:	2000      	movs	r0, #0
    d0d6:	4770      	bx	lr
    d0d8:	0001d9fc 	.word	0x0001d9fc

0000d0dc <_setlocale_r>:
    d0dc:	b510      	push	{r4, lr}
    d0de:	4614      	mov	r4, r2
    d0e0:	b122      	cbz	r2, d0ec <_setlocale_r+0x10>
    d0e2:	4610      	mov	r0, r2
    d0e4:	490a      	ldr	r1, [pc, #40]	; (d110 <_setlocale_r+0x34>)
    d0e6:	f001 f81b 	bl	e120 <strcmp>
    d0ea:	b908      	cbnz	r0, d0f0 <_setlocale_r+0x14>
    d0ec:	4809      	ldr	r0, [pc, #36]	; (d114 <_setlocale_r+0x38>)
    d0ee:	bd10      	pop	{r4, pc}
    d0f0:	4620      	mov	r0, r4
    d0f2:	4908      	ldr	r1, [pc, #32]	; (d114 <_setlocale_r+0x38>)
    d0f4:	f001 f814 	bl	e120 <strcmp>
    d0f8:	2800      	cmp	r0, #0
    d0fa:	d0f7      	beq.n	d0ec <_setlocale_r+0x10>
    d0fc:	4620      	mov	r0, r4
    d0fe:	4906      	ldr	r1, [pc, #24]	; (d118 <_setlocale_r+0x3c>)
    d100:	f001 f80e 	bl	e120 <strcmp>
    d104:	4b03      	ldr	r3, [pc, #12]	; (d114 <_setlocale_r+0x38>)
    d106:	2800      	cmp	r0, #0
    d108:	bf0c      	ite	eq
    d10a:	4618      	moveq	r0, r3
    d10c:	2000      	movne	r0, #0
    d10e:	bd10      	pop	{r4, pc}
    d110:	00014d94 	.word	0x00014d94
    d114:	00014b50 	.word	0x00014b50
    d118:	00014c20 	.word	0x00014c20

0000d11c <__locale_charset>:
    d11c:	4800      	ldr	r0, [pc, #0]	; (d120 <__locale_charset+0x4>)
    d11e:	4770      	bx	lr
    d120:	0001da58 	.word	0x0001da58

0000d124 <__locale_mb_cur_max>:
    d124:	4b01      	ldr	r3, [pc, #4]	; (d12c <__locale_mb_cur_max+0x8>)
    d126:	6818      	ldr	r0, [r3, #0]
    d128:	4770      	bx	lr
    d12a:	bf00      	nop
    d12c:	0001da78 	.word	0x0001da78

0000d130 <__locale_msgcharset>:
    d130:	4800      	ldr	r0, [pc, #0]	; (d134 <__locale_msgcharset+0x4>)
    d132:	4770      	bx	lr
    d134:	0001da00 	.word	0x0001da00

0000d138 <__locale_cjk_lang>:
    d138:	2000      	movs	r0, #0
    d13a:	4770      	bx	lr

0000d13c <_localeconv_r>:
    d13c:	4800      	ldr	r0, [pc, #0]	; (d140 <_localeconv_r+0x4>)
    d13e:	4770      	bx	lr
    d140:	0001da20 	.word	0x0001da20

0000d144 <setlocale>:
    d144:	4b02      	ldr	r3, [pc, #8]	; (d150 <setlocale+0xc>)
    d146:	460a      	mov	r2, r1
    d148:	4601      	mov	r1, r0
    d14a:	6818      	ldr	r0, [r3, #0]
    d14c:	f7ff bfc6 	b.w	d0dc <_setlocale_r>
    d150:	0001d5e8 	.word	0x0001d5e8

0000d154 <localeconv>:
    d154:	4800      	ldr	r0, [pc, #0]	; (d158 <localeconv+0x4>)
    d156:	4770      	bx	lr
    d158:	0001da20 	.word	0x0001da20

0000d15c <_lseek_r>:
    d15c:	b570      	push	{r4, r5, r6, lr}
    d15e:	4c08      	ldr	r4, [pc, #32]	; (d180 <_lseek_r+0x24>)
    d160:	4606      	mov	r6, r0
    d162:	2500      	movs	r5, #0
    d164:	4608      	mov	r0, r1
    d166:	4611      	mov	r1, r2
    d168:	461a      	mov	r2, r3
    d16a:	6025      	str	r5, [r4, #0]
    d16c:	f7fb fa54 	bl	8618 <_lseek>
    d170:	1c43      	adds	r3, r0, #1
    d172:	d000      	beq.n	d176 <_lseek_r+0x1a>
    d174:	bd70      	pop	{r4, r5, r6, pc}
    d176:	6823      	ldr	r3, [r4, #0]
    d178:	2b00      	cmp	r3, #0
    d17a:	d0fb      	beq.n	d174 <_lseek_r+0x18>
    d17c:	6033      	str	r3, [r6, #0]
    d17e:	bd70      	pop	{r4, r5, r6, pc}
    d180:	0001db90 	.word	0x0001db90

0000d184 <__smakebuf_r>:
    d184:	b5f0      	push	{r4, r5, r6, r7, lr}
    d186:	898b      	ldrh	r3, [r1, #12]
    d188:	b091      	sub	sp, #68	; 0x44
    d18a:	b29a      	uxth	r2, r3
    d18c:	0796      	lsls	r6, r2, #30
    d18e:	460c      	mov	r4, r1
    d190:	4605      	mov	r5, r0
    d192:	d437      	bmi.n	d204 <__smakebuf_r+0x80>
    d194:	f9b1 100e 	ldrsh.w	r1, [r1, #14]
    d198:	2900      	cmp	r1, #0
    d19a:	db17      	blt.n	d1cc <__smakebuf_r+0x48>
    d19c:	aa01      	add	r2, sp, #4
    d19e:	f004 fe0f 	bl	11dc0 <_fstat_r>
    d1a2:	2800      	cmp	r0, #0
    d1a4:	db10      	blt.n	d1c8 <__smakebuf_r+0x44>
    d1a6:	9b02      	ldr	r3, [sp, #8]
    d1a8:	f403 4370 	and.w	r3, r3, #61440	; 0xf000
    d1ac:	f5b3 5100 	subs.w	r1, r3, #8192	; 0x2000
    d1b0:	424f      	negs	r7, r1
    d1b2:	414f      	adcs	r7, r1
    d1b4:	f5b3 4f00 	cmp.w	r3, #32768	; 0x8000
    d1b8:	d02c      	beq.n	d214 <__smakebuf_r+0x90>
    d1ba:	89a3      	ldrh	r3, [r4, #12]
    d1bc:	f44f 6680 	mov.w	r6, #1024	; 0x400
    d1c0:	f443 6300 	orr.w	r3, r3, #2048	; 0x800
    d1c4:	81a3      	strh	r3, [r4, #12]
    d1c6:	e00b      	b.n	d1e0 <__smakebuf_r+0x5c>
    d1c8:	89a3      	ldrh	r3, [r4, #12]
    d1ca:	b29a      	uxth	r2, r3
    d1cc:	f012 0f80 	tst.w	r2, #128	; 0x80
    d1d0:	f443 6300 	orr.w	r3, r3, #2048	; 0x800
    d1d4:	81a3      	strh	r3, [r4, #12]
    d1d6:	bf14      	ite	ne
    d1d8:	2640      	movne	r6, #64	; 0x40
    d1da:	f44f 6680 	moveq.w	r6, #1024	; 0x400
    d1de:	2700      	movs	r7, #0
    d1e0:	4628      	mov	r0, r5
    d1e2:	4631      	mov	r1, r6
    d1e4:	f7fb fe66 	bl	8eb4 <_malloc_r>
    d1e8:	89a3      	ldrh	r3, [r4, #12]
    d1ea:	2800      	cmp	r0, #0
    d1ec:	d029      	beq.n	d242 <__smakebuf_r+0xbe>
    d1ee:	4a1b      	ldr	r2, [pc, #108]	; (d25c <__smakebuf_r+0xd8>)
    d1f0:	f043 0380 	orr.w	r3, r3, #128	; 0x80
    d1f4:	63ea      	str	r2, [r5, #60]	; 0x3c
    d1f6:	81a3      	strh	r3, [r4, #12]
    d1f8:	6020      	str	r0, [r4, #0]
    d1fa:	6120      	str	r0, [r4, #16]
    d1fc:	6166      	str	r6, [r4, #20]
    d1fe:	b9a7      	cbnz	r7, d22a <__smakebuf_r+0xa6>
    d200:	b011      	add	sp, #68	; 0x44
    d202:	bdf0      	pop	{r4, r5, r6, r7, pc}
    d204:	f101 0343 	add.w	r3, r1, #67	; 0x43
    d208:	2201      	movs	r2, #1
    d20a:	600b      	str	r3, [r1, #0]
    d20c:	610b      	str	r3, [r1, #16]
    d20e:	614a      	str	r2, [r1, #20]
    d210:	b011      	add	sp, #68	; 0x44
    d212:	bdf0      	pop	{r4, r5, r6, r7, pc}
    d214:	4a12      	ldr	r2, [pc, #72]	; (d260 <__smakebuf_r+0xdc>)
    d216:	6aa3      	ldr	r3, [r4, #40]	; 0x28
    d218:	4293      	cmp	r3, r2
    d21a:	d1ce      	bne.n	d1ba <__smakebuf_r+0x36>
    d21c:	89a3      	ldrh	r3, [r4, #12]
    d21e:	f44f 6680 	mov.w	r6, #1024	; 0x400
    d222:	4333      	orrs	r3, r6
    d224:	81a3      	strh	r3, [r4, #12]
    d226:	64e6      	str	r6, [r4, #76]	; 0x4c
    d228:	e7da      	b.n	d1e0 <__smakebuf_r+0x5c>
    d22a:	4628      	mov	r0, r5
    d22c:	f9b4 100e 	ldrsh.w	r1, [r4, #14]
    d230:	f005 fb16 	bl	12860 <_isatty_r>
    d234:	2800      	cmp	r0, #0
    d236:	d0e3      	beq.n	d200 <__smakebuf_r+0x7c>
    d238:	89a3      	ldrh	r3, [r4, #12]
    d23a:	f043 0301 	orr.w	r3, r3, #1
    d23e:	81a3      	strh	r3, [r4, #12]
    d240:	e7de      	b.n	d200 <__smakebuf_r+0x7c>
    d242:	059a      	lsls	r2, r3, #22
    d244:	d4dc      	bmi.n	d200 <__smakebuf_r+0x7c>
    d246:	f104 0243 	add.w	r2, r4, #67	; 0x43
    d24a:	f043 0302 	orr.w	r3, r3, #2
    d24e:	2101      	movs	r1, #1
    d250:	81a3      	strh	r3, [r4, #12]
    d252:	6022      	str	r2, [r4, #0]
    d254:	6122      	str	r2, [r4, #16]
    d256:	6161      	str	r1, [r4, #20]
    d258:	e7d2      	b.n	d200 <__smakebuf_r+0x7c>
    d25a:	bf00      	nop
    d25c:	00008c19 	.word	0x00008c19
    d260:	00009509 	.word	0x00009509

0000d264 <_mbrtowc_r>:
    d264:	e92d 43f0 	stmdb	sp!, {r4, r5, r6, r7, r8, r9, lr}
    d268:	b083      	sub	sp, #12
    d26a:	461f      	mov	r7, r3
    d26c:	4614      	mov	r4, r2
    d26e:	4605      	mov	r5, r0
    d270:	4688      	mov	r8, r1
    d272:	9e0a      	ldr	r6, [sp, #40]	; 0x28
    d274:	4b10      	ldr	r3, [pc, #64]	; (d2b8 <_mbrtowc_r+0x54>)
    d276:	b19a      	cbz	r2, d2a0 <_mbrtowc_r+0x3c>
    d278:	f8d3 9000 	ldr.w	r9, [r3]
    d27c:	f7ff ff4e 	bl	d11c <__locale_charset>
    d280:	4641      	mov	r1, r8
    d282:	e88d 0041 	stmia.w	sp, {r0, r6}
    d286:	4622      	mov	r2, r4
    d288:	463b      	mov	r3, r7
    d28a:	4628      	mov	r0, r5
    d28c:	47c8      	blx	r9
    d28e:	1c43      	adds	r3, r0, #1
    d290:	d103      	bne.n	d29a <_mbrtowc_r+0x36>
    d292:	2200      	movs	r2, #0
    d294:	238a      	movs	r3, #138	; 0x8a
    d296:	6032      	str	r2, [r6, #0]
    d298:	602b      	str	r3, [r5, #0]
    d29a:	b003      	add	sp, #12
    d29c:	e8bd 83f0 	ldmia.w	sp!, {r4, r5, r6, r7, r8, r9, pc}
    d2a0:	681f      	ldr	r7, [r3, #0]
    d2a2:	f7ff ff3b 	bl	d11c <__locale_charset>
    d2a6:	4621      	mov	r1, r4
    d2a8:	e88d 0041 	stmia.w	sp, {r0, r6}
    d2ac:	4a03      	ldr	r2, [pc, #12]	; (d2bc <_mbrtowc_r+0x58>)
    d2ae:	4628      	mov	r0, r5
    d2b0:	2301      	movs	r3, #1
    d2b2:	47b8      	blx	r7
    d2b4:	e7eb      	b.n	d28e <_mbrtowc_r+0x2a>
    d2b6:	bf00      	nop
    d2b8:	0001da7c 	.word	0x0001da7c
    d2bc:	00014c20 	.word	0x00014c20

0000d2c0 <mbrtowc>:
    d2c0:	e92d 43f0 	stmdb	sp!, {r4, r5, r6, r7, r8, r9, lr}
    d2c4:	4d13      	ldr	r5, [pc, #76]	; (d314 <mbrtowc+0x54>)
    d2c6:	461e      	mov	r6, r3
    d2c8:	b083      	sub	sp, #12
    d2ca:	460c      	mov	r4, r1
    d2cc:	4680      	mov	r8, r0
    d2ce:	4617      	mov	r7, r2
    d2d0:	682d      	ldr	r5, [r5, #0]
    d2d2:	4b11      	ldr	r3, [pc, #68]	; (d318 <mbrtowc+0x58>)
    d2d4:	b199      	cbz	r1, d2fe <mbrtowc+0x3e>
    d2d6:	f8d3 9000 	ldr.w	r9, [r3]
    d2da:	f7ff ff1f 	bl	d11c <__locale_charset>
    d2de:	4641      	mov	r1, r8
    d2e0:	e88d 0041 	stmia.w	sp, {r0, r6}
    d2e4:	4622      	mov	r2, r4
    d2e6:	463b      	mov	r3, r7
    d2e8:	4628      	mov	r0, r5
    d2ea:	47c8      	blx	r9
    d2ec:	1c43      	adds	r3, r0, #1
    d2ee:	d103      	bne.n	d2f8 <mbrtowc+0x38>
    d2f0:	2200      	movs	r2, #0
    d2f2:	238a      	movs	r3, #138	; 0x8a
    d2f4:	6032      	str	r2, [r6, #0]
    d2f6:	602b      	str	r3, [r5, #0]
    d2f8:	b003      	add	sp, #12
    d2fa:	e8bd 83f0 	ldmia.w	sp!, {r4, r5, r6, r7, r8, r9, pc}
    d2fe:	681f      	ldr	r7, [r3, #0]
    d300:	f7ff ff0c 	bl	d11c <__locale_charset>
    d304:	4621      	mov	r1, r4
    d306:	e88d 0041 	stmia.w	sp, {r0, r6}
    d30a:	4a04      	ldr	r2, [pc, #16]	; (d31c <mbrtowc+0x5c>)
    d30c:	4628      	mov	r0, r5
    d30e:	2301      	movs	r3, #1
    d310:	47b8      	blx	r7
    d312:	e7eb      	b.n	d2ec <mbrtowc+0x2c>
    d314:	0001d5e8 	.word	0x0001d5e8
    d318:	0001da7c 	.word	0x0001da7c
    d31c:	00014c20 	.word	0x00014c20

0000d320 <__ascii_mbtowc>:
    d320:	b082      	sub	sp, #8
    d322:	b149      	cbz	r1, d338 <__ascii_mbtowc+0x18>
    d324:	b15a      	cbz	r2, d33e <__ascii_mbtowc+0x1e>
    d326:	b16b      	cbz	r3, d344 <__ascii_mbtowc+0x24>
    d328:	7813      	ldrb	r3, [r2, #0]
    d32a:	600b      	str	r3, [r1, #0]
    d32c:	7810      	ldrb	r0, [r2, #0]
    d32e:	3000      	adds	r0, #0
    d330:	bf18      	it	ne
    d332:	2001      	movne	r0, #1
    d334:	b002      	add	sp, #8
    d336:	4770      	bx	lr
    d338:	a901      	add	r1, sp, #4
    d33a:	2a00      	cmp	r2, #0
    d33c:	d1f3      	bne.n	d326 <__ascii_mbtowc+0x6>
    d33e:	4610      	mov	r0, r2
    d340:	b002      	add	sp, #8
    d342:	4770      	bx	lr
    d344:	f06f 0001 	mvn.w	r0, #1
    d348:	e7f4      	b.n	d334 <__ascii_mbtowc+0x14>
    d34a:	bf00      	nop

0000d34c <_mbtowc_r>:
    d34c:	e92d 43f0 	stmdb	sp!, {r4, r5, r6, r7, r8, r9, lr}
    d350:	4c09      	ldr	r4, [pc, #36]	; (d378 <_mbtowc_r+0x2c>)
    d352:	b083      	sub	sp, #12
    d354:	6825      	ldr	r5, [r4, #0]
    d356:	4606      	mov	r6, r0
    d358:	4689      	mov	r9, r1
    d35a:	4690      	mov	r8, r2
    d35c:	461f      	mov	r7, r3
    d35e:	9c0a      	ldr	r4, [sp, #40]	; 0x28
    d360:	f7ff fedc 	bl	d11c <__locale_charset>
    d364:	4649      	mov	r1, r9
    d366:	e88d 0011 	stmia.w	sp, {r0, r4}
    d36a:	4642      	mov	r2, r8
    d36c:	4630      	mov	r0, r6
    d36e:	463b      	mov	r3, r7
    d370:	47a8      	blx	r5
    d372:	b003      	add	sp, #12
    d374:	e8bd 83f0 	ldmia.w	sp!, {r4, r5, r6, r7, r8, r9, pc}
    d378:	0001da7c 	.word	0x0001da7c

0000d37c <memchr>:
    d37c:	0783      	lsls	r3, r0, #30
    d37e:	b470      	push	{r4, r5, r6}
    d380:	b2c9      	uxtb	r1, r1
    d382:	d040      	beq.n	d406 <memchr+0x8a>
    d384:	1e54      	subs	r4, r2, #1
    d386:	b32a      	cbz	r2, d3d4 <memchr+0x58>
    d388:	7803      	ldrb	r3, [r0, #0]
    d38a:	428b      	cmp	r3, r1
    d38c:	d023      	beq.n	d3d6 <memchr+0x5a>
    d38e:	1c43      	adds	r3, r0, #1
    d390:	e004      	b.n	d39c <memchr+0x20>
    d392:	b1fc      	cbz	r4, d3d4 <memchr+0x58>
    d394:	7805      	ldrb	r5, [r0, #0]
    d396:	4614      	mov	r4, r2
    d398:	428d      	cmp	r5, r1
    d39a:	d01c      	beq.n	d3d6 <memchr+0x5a>
    d39c:	f013 0f03 	tst.w	r3, #3
    d3a0:	4618      	mov	r0, r3
    d3a2:	f104 32ff 	add.w	r2, r4, #4294967295
    d3a6:	f103 0301 	add.w	r3, r3, #1
    d3aa:	d1f2      	bne.n	d392 <memchr+0x16>
    d3ac:	2c03      	cmp	r4, #3
    d3ae:	d814      	bhi.n	d3da <memchr+0x5e>
    d3b0:	1e65      	subs	r5, r4, #1
    d3b2:	b354      	cbz	r4, d40a <memchr+0x8e>
    d3b4:	7803      	ldrb	r3, [r0, #0]
    d3b6:	428b      	cmp	r3, r1
    d3b8:	d00d      	beq.n	d3d6 <memchr+0x5a>
    d3ba:	1c42      	adds	r2, r0, #1
    d3bc:	2300      	movs	r3, #0
    d3be:	e002      	b.n	d3c6 <memchr+0x4a>
    d3c0:	7804      	ldrb	r4, [r0, #0]
    d3c2:	428c      	cmp	r4, r1
    d3c4:	d007      	beq.n	d3d6 <memchr+0x5a>
    d3c6:	42ab      	cmp	r3, r5
    d3c8:	4610      	mov	r0, r2
    d3ca:	f103 0301 	add.w	r3, r3, #1
    d3ce:	f102 0201 	add.w	r2, r2, #1
    d3d2:	d1f5      	bne.n	d3c0 <memchr+0x44>
    d3d4:	2000      	movs	r0, #0
    d3d6:	bc70      	pop	{r4, r5, r6}
    d3d8:	4770      	bx	lr
    d3da:	ea41 2601 	orr.w	r6, r1, r1, lsl #8
    d3de:	4603      	mov	r3, r0
    d3e0:	ea46 4606 	orr.w	r6, r6, r6, lsl #16
    d3e4:	681a      	ldr	r2, [r3, #0]
    d3e6:	4618      	mov	r0, r3
    d3e8:	4072      	eors	r2, r6
    d3ea:	f1a2 3501 	sub.w	r5, r2, #16843009	; 0x1010101
    d3ee:	ea25 0202 	bic.w	r2, r5, r2
    d3f2:	f012 3f80 	tst.w	r2, #2155905152	; 0x80808080
    d3f6:	f103 0304 	add.w	r3, r3, #4
    d3fa:	d1d9      	bne.n	d3b0 <memchr+0x34>
    d3fc:	3c04      	subs	r4, #4
    d3fe:	2c03      	cmp	r4, #3
    d400:	4618      	mov	r0, r3
    d402:	d8ef      	bhi.n	d3e4 <memchr+0x68>
    d404:	e7d4      	b.n	d3b0 <memchr+0x34>
    d406:	4614      	mov	r4, r2
    d408:	e7d0      	b.n	d3ac <memchr+0x30>
    d40a:	4620      	mov	r0, r4
    d40c:	e7e3      	b.n	d3d6 <memchr+0x5a>
    d40e:	bf00      	nop

0000d410 <memcpy>:
    d410:	4684      	mov	ip, r0
    d412:	ea41 0300 	orr.w	r3, r1, r0
    d416:	f013 0303 	ands.w	r3, r3, #3
    d41a:	d149      	bne.n	d4b0 <memcpy+0xa0>
    d41c:	3a40      	subs	r2, #64	; 0x40
    d41e:	d323      	bcc.n	d468 <memcpy+0x58>
    d420:	680b      	ldr	r3, [r1, #0]
    d422:	6003      	str	r3, [r0, #0]
    d424:	684b      	ldr	r3, [r1, #4]
    d426:	6043      	str	r3, [r0, #4]
    d428:	688b      	ldr	r3, [r1, #8]
    d42a:	6083      	str	r3, [r0, #8]
    d42c:	68cb      	ldr	r3, [r1, #12]
    d42e:	60c3      	str	r3, [r0, #12]
    d430:	690b      	ldr	r3, [r1, #16]
    d432:	6103      	str	r3, [r0, #16]
    d434:	694b      	ldr	r3, [r1, #20]
    d436:	6143      	str	r3, [r0, #20]
    d438:	698b      	ldr	r3, [r1, #24]
    d43a:	6183      	str	r3, [r0, #24]
    d43c:	69cb      	ldr	r3, [r1, #28]
    d43e:	61c3      	str	r3, [r0, #28]
    d440:	6a0b      	ldr	r3, [r1, #32]
    d442:	6203      	str	r3, [r0, #32]
    d444:	6a4b      	ldr	r3, [r1, #36]	; 0x24
    d446:	6243      	str	r3, [r0, #36]	; 0x24
    d448:	6a8b      	ldr	r3, [r1, #40]	; 0x28
    d44a:	6283      	str	r3, [r0, #40]	; 0x28
    d44c:	6acb      	ldr	r3, [r1, #44]	; 0x2c
    d44e:	62c3      	str	r3, [r0, #44]	; 0x2c
    d450:	6b0b      	ldr	r3, [r1, #48]	; 0x30
    d452:	6303      	str	r3, [r0, #48]	; 0x30
    d454:	6b4b      	ldr	r3, [r1, #52]	; 0x34
    d456:	6343      	str	r3, [r0, #52]	; 0x34
    d458:	6b8b      	ldr	r3, [r1, #56]	; 0x38
    d45a:	6383      	str	r3, [r0, #56]	; 0x38
    d45c:	6bcb      	ldr	r3, [r1, #60]	; 0x3c
    d45e:	63c3      	str	r3, [r0, #60]	; 0x3c
    d460:	3040      	adds	r0, #64	; 0x40
    d462:	3140      	adds	r1, #64	; 0x40
    d464:	3a40      	subs	r2, #64	; 0x40
    d466:	d2db      	bcs.n	d420 <memcpy+0x10>
    d468:	3230      	adds	r2, #48	; 0x30
    d46a:	d30b      	bcc.n	d484 <memcpy+0x74>
    d46c:	680b      	ldr	r3, [r1, #0]
    d46e:	6003      	str	r3, [r0, #0]
    d470:	684b      	ldr	r3, [r1, #4]
    d472:	6043      	str	r3, [r0, #4]
    d474:	688b      	ldr	r3, [r1, #8]
    d476:	6083      	str	r3, [r0, #8]
    d478:	68cb      	ldr	r3, [r1, #12]
    d47a:	60c3      	str	r3, [r0, #12]
    d47c:	3010      	adds	r0, #16
    d47e:	3110      	adds	r1, #16
    d480:	3a10      	subs	r2, #16
    d482:	d2f3      	bcs.n	d46c <memcpy+0x5c>
    d484:	320c      	adds	r2, #12
    d486:	d305      	bcc.n	d494 <memcpy+0x84>
    d488:	f851 3b04 	ldr.w	r3, [r1], #4
    d48c:	f840 3b04 	str.w	r3, [r0], #4
    d490:	3a04      	subs	r2, #4
    d492:	d2f9      	bcs.n	d488 <memcpy+0x78>
    d494:	3204      	adds	r2, #4
    d496:	d008      	beq.n	d4aa <memcpy+0x9a>
    d498:	07d2      	lsls	r2, r2, #31
    d49a:	bf1c      	itt	ne
    d49c:	f811 3b01 	ldrbne.w	r3, [r1], #1
    d4a0:	f800 3b01 	strbne.w	r3, [r0], #1
    d4a4:	d301      	bcc.n	d4aa <memcpy+0x9a>
    d4a6:	880b      	ldrh	r3, [r1, #0]
    d4a8:	8003      	strh	r3, [r0, #0]
    d4aa:	4660      	mov	r0, ip
    d4ac:	4770      	bx	lr
    d4ae:	bf00      	nop
    d4b0:	2a08      	cmp	r2, #8
    d4b2:	d313      	bcc.n	d4dc <memcpy+0xcc>
    d4b4:	078b      	lsls	r3, r1, #30
    d4b6:	d0b1      	beq.n	d41c <memcpy+0xc>
    d4b8:	f010 0303 	ands.w	r3, r0, #3
    d4bc:	d0ae      	beq.n	d41c <memcpy+0xc>
    d4be:	f1c3 0304 	rsb	r3, r3, #4
    d4c2:	1ad2      	subs	r2, r2, r3
    d4c4:	07db      	lsls	r3, r3, #31
    d4c6:	bf1c      	itt	ne
    d4c8:	f811 3b01 	ldrbne.w	r3, [r1], #1
    d4cc:	f800 3b01 	strbne.w	r3, [r0], #1
    d4d0:	d3a4      	bcc.n	d41c <memcpy+0xc>
    d4d2:	f831 3b02 	ldrh.w	r3, [r1], #2
    d4d6:	f820 3b02 	strh.w	r3, [r0], #2
    d4da:	e79f      	b.n	d41c <memcpy+0xc>
    d4dc:	3a04      	subs	r2, #4
    d4de:	d3d9      	bcc.n	d494 <memcpy+0x84>
    d4e0:	3a01      	subs	r2, #1
    d4e2:	f811 3b01 	ldrb.w	r3, [r1], #1
    d4e6:	f800 3b01 	strb.w	r3, [r0], #1
    d4ea:	d2f9      	bcs.n	d4e0 <memcpy+0xd0>
    d4ec:	780b      	ldrb	r3, [r1, #0]
    d4ee:	7003      	strb	r3, [r0, #0]
    d4f0:	784b      	ldrb	r3, [r1, #1]
    d4f2:	7043      	strb	r3, [r0, #1]
    d4f4:	788b      	ldrb	r3, [r1, #2]
    d4f6:	7083      	strb	r3, [r0, #2]
    d4f8:	4660      	mov	r0, ip
    d4fa:	4770      	bx	lr

0000d4fc <_Balloc>:
    d4fc:	6cc2      	ldr	r2, [r0, #76]	; 0x4c
    d4fe:	b570      	push	{r4, r5, r6, lr}
    d500:	4605      	mov	r5, r0
    d502:	460c      	mov	r4, r1
    d504:	b14a      	cbz	r2, d51a <_Balloc+0x1e>
    d506:	f852 0024 	ldr.w	r0, [r2, r4, lsl #2]
    d50a:	b180      	cbz	r0, d52e <_Balloc+0x32>
    d50c:	6801      	ldr	r1, [r0, #0]
    d50e:	f842 1024 	str.w	r1, [r2, r4, lsl #2]
    d512:	2200      	movs	r2, #0
    d514:	6102      	str	r2, [r0, #16]
    d516:	60c2      	str	r2, [r0, #12]
    d518:	bd70      	pop	{r4, r5, r6, pc}
    d51a:	2221      	movs	r2, #33	; 0x21
    d51c:	2104      	movs	r1, #4
    d51e:	f004 fbab 	bl	11c78 <_calloc_r>
    d522:	64e8      	str	r0, [r5, #76]	; 0x4c
    d524:	4602      	mov	r2, r0
    d526:	2800      	cmp	r0, #0
    d528:	d1ed      	bne.n	d506 <_Balloc+0xa>
    d52a:	2000      	movs	r0, #0
    d52c:	bd70      	pop	{r4, r5, r6, pc}
    d52e:	2101      	movs	r1, #1
    d530:	fa01 f604 	lsl.w	r6, r1, r4
    d534:	1d72      	adds	r2, r6, #5
    d536:	4628      	mov	r0, r5
    d538:	0092      	lsls	r2, r2, #2
    d53a:	f004 fb9d 	bl	11c78 <_calloc_r>
    d53e:	2800      	cmp	r0, #0
    d540:	d0f3      	beq.n	d52a <_Balloc+0x2e>
    d542:	6044      	str	r4, [r0, #4]
    d544:	6086      	str	r6, [r0, #8]
    d546:	e7e4      	b.n	d512 <_Balloc+0x16>

0000d548 <_Bfree>:
    d548:	b131      	cbz	r1, d558 <_Bfree+0x10>
    d54a:	6cc3      	ldr	r3, [r0, #76]	; 0x4c
    d54c:	684a      	ldr	r2, [r1, #4]
    d54e:	f853 0022 	ldr.w	r0, [r3, r2, lsl #2]
    d552:	6008      	str	r0, [r1, #0]
    d554:	f843 1022 	str.w	r1, [r3, r2, lsl #2]
    d558:	4770      	bx	lr
    d55a:	bf00      	nop

0000d55c <__multadd>:
    d55c:	e92d 43f0 	stmdb	sp!, {r4, r5, r6, r7, r8, r9, lr}
    d560:	690f      	ldr	r7, [r1, #16]
    d562:	b083      	sub	sp, #12
    d564:	4688      	mov	r8, r1
    d566:	4681      	mov	r9, r0
    d568:	f101 0514 	add.w	r5, r1, #20
    d56c:	2400      	movs	r4, #0
    d56e:	682e      	ldr	r6, [r5, #0]
    d570:	3401      	adds	r4, #1
    d572:	b2b1      	uxth	r1, r6
    d574:	0c36      	lsrs	r6, r6, #16
    d576:	fb02 3301 	mla	r3, r2, r1, r3
    d57a:	fb02 f606 	mul.w	r6, r2, r6
    d57e:	b299      	uxth	r1, r3
    d580:	eb06 4313 	add.w	r3, r6, r3, lsr #16
    d584:	eb01 4103 	add.w	r1, r1, r3, lsl #16
    d588:	42a7      	cmp	r7, r4
    d58a:	f845 1b04 	str.w	r1, [r5], #4
    d58e:	ea4f 4313 	mov.w	r3, r3, lsr #16
    d592:	dcec      	bgt.n	d56e <__multadd+0x12>
    d594:	b14b      	cbz	r3, d5aa <__multadd+0x4e>
    d596:	f8d8 2008 	ldr.w	r2, [r8, #8]
    d59a:	4297      	cmp	r7, r2
    d59c:	da09      	bge.n	d5b2 <__multadd+0x56>
    d59e:	eb08 0287 	add.w	r2, r8, r7, lsl #2
    d5a2:	3701      	adds	r7, #1
    d5a4:	6153      	str	r3, [r2, #20]
    d5a6:	f8c8 7010 	str.w	r7, [r8, #16]
    d5aa:	4640      	mov	r0, r8
    d5ac:	b003      	add	sp, #12
    d5ae:	e8bd 83f0 	ldmia.w	sp!, {r4, r5, r6, r7, r8, r9, pc}
    d5b2:	f8d8 1004 	ldr.w	r1, [r8, #4]
    d5b6:	4648      	mov	r0, r9
    d5b8:	3101      	adds	r1, #1
    d5ba:	9301      	str	r3, [sp, #4]
    d5bc:	f7ff ff9e 	bl	d4fc <_Balloc>
    d5c0:	f8d8 2010 	ldr.w	r2, [r8, #16]
    d5c4:	f108 010c 	add.w	r1, r8, #12
    d5c8:	3202      	adds	r2, #2
    d5ca:	4604      	mov	r4, r0
    d5cc:	0092      	lsls	r2, r2, #2
    d5ce:	300c      	adds	r0, #12
    d5d0:	f7ff ff1e 	bl	d410 <memcpy>
    d5d4:	f8d9 204c 	ldr.w	r2, [r9, #76]	; 0x4c
    d5d8:	f8d8 1004 	ldr.w	r1, [r8, #4]
    d5dc:	9b01      	ldr	r3, [sp, #4]
    d5de:	f852 0021 	ldr.w	r0, [r2, r1, lsl #2]
    d5e2:	f8c8 0000 	str.w	r0, [r8]
    d5e6:	f842 8021 	str.w	r8, [r2, r1, lsl #2]
    d5ea:	46a0      	mov	r8, r4
    d5ec:	e7d7      	b.n	d59e <__multadd+0x42>
    d5ee:	bf00      	nop

0000d5f0 <__s2b>:
    d5f0:	e92d 43f8 	stmdb	sp!, {r3, r4, r5, r6, r7, r8, r9, lr}
    d5f4:	4699      	mov	r9, r3
    d5f6:	4b23      	ldr	r3, [pc, #140]	; (d684 <__s2b+0x94>)
    d5f8:	f109 0408 	add.w	r4, r9, #8
    d5fc:	fb83 5304 	smull	r5, r3, r3, r4
    d600:	17e4      	asrs	r4, r4, #31
    d602:	ebc4 0363 	rsb	r3, r4, r3, asr #1
    d606:	2b01      	cmp	r3, #1
    d608:	4607      	mov	r7, r0
    d60a:	460c      	mov	r4, r1
    d60c:	4690      	mov	r8, r2
    d60e:	9e08      	ldr	r6, [sp, #32]
    d610:	dd35      	ble.n	d67e <__s2b+0x8e>
    d612:	2501      	movs	r5, #1
    d614:	2100      	movs	r1, #0
    d616:	006d      	lsls	r5, r5, #1
    d618:	42ab      	cmp	r3, r5
    d61a:	f101 0101 	add.w	r1, r1, #1
    d61e:	dcfa      	bgt.n	d616 <__s2b+0x26>
    d620:	4638      	mov	r0, r7
    d622:	f7ff ff6b 	bl	d4fc <_Balloc>
    d626:	2301      	movs	r3, #1
    d628:	f1b8 0f09 	cmp.w	r8, #9
    d62c:	6146      	str	r6, [r0, #20]
    d62e:	6103      	str	r3, [r0, #16]
    d630:	dd21      	ble.n	d676 <__s2b+0x86>
    d632:	f104 0609 	add.w	r6, r4, #9
    d636:	4635      	mov	r5, r6
    d638:	4444      	add	r4, r8
    d63a:	f815 3b01 	ldrb.w	r3, [r5], #1
    d63e:	4601      	mov	r1, r0
    d640:	3b30      	subs	r3, #48	; 0x30
    d642:	4638      	mov	r0, r7
    d644:	220a      	movs	r2, #10
    d646:	f7ff ff89 	bl	d55c <__multadd>
    d64a:	42a5      	cmp	r5, r4
    d64c:	d1f5      	bne.n	d63a <__s2b+0x4a>
    d64e:	eb06 0408 	add.w	r4, r6, r8
    d652:	3c08      	subs	r4, #8
    d654:	45c1      	cmp	r9, r8
    d656:	dd0c      	ble.n	d672 <__s2b+0x82>
    d658:	ebc8 0809 	rsb	r8, r8, r9
    d65c:	44a0      	add	r8, r4
    d65e:	f814 3b01 	ldrb.w	r3, [r4], #1
    d662:	4601      	mov	r1, r0
    d664:	3b30      	subs	r3, #48	; 0x30
    d666:	4638      	mov	r0, r7
    d668:	220a      	movs	r2, #10
    d66a:	f7ff ff77 	bl	d55c <__multadd>
    d66e:	4544      	cmp	r4, r8
    d670:	d1f5      	bne.n	d65e <__s2b+0x6e>
    d672:	e8bd 83f8 	ldmia.w	sp!, {r3, r4, r5, r6, r7, r8, r9, pc}
    d676:	340a      	adds	r4, #10
    d678:	f04f 0809 	mov.w	r8, #9
    d67c:	e7ea      	b.n	d654 <__s2b+0x64>
    d67e:	2100      	movs	r1, #0
    d680:	e7ce      	b.n	d620 <__s2b+0x30>
    d682:	bf00      	nop
    d684:	38e38e39 	.word	0x38e38e39

0000d688 <__hi0bits>:
    d688:	0c03      	lsrs	r3, r0, #16
    d68a:	041b      	lsls	r3, r3, #16
    d68c:	b9b3      	cbnz	r3, d6bc <__hi0bits+0x34>
    d68e:	0400      	lsls	r0, r0, #16
    d690:	2310      	movs	r3, #16
    d692:	f010 4f7f 	tst.w	r0, #4278190080	; 0xff000000
    d696:	bf04      	itt	eq
    d698:	0200      	lsleq	r0, r0, #8
    d69a:	3308      	addeq	r3, #8
    d69c:	f010 4f70 	tst.w	r0, #4026531840	; 0xf0000000
    d6a0:	bf04      	itt	eq
    d6a2:	0100      	lsleq	r0, r0, #4
    d6a4:	3304      	addeq	r3, #4
    d6a6:	f010 4f40 	tst.w	r0, #3221225472	; 0xc0000000
    d6aa:	bf04      	itt	eq
    d6ac:	0080      	lsleq	r0, r0, #2
    d6ae:	3302      	addeq	r3, #2
    d6b0:	2800      	cmp	r0, #0
    d6b2:	db07      	blt.n	d6c4 <__hi0bits+0x3c>
    d6b4:	0042      	lsls	r2, r0, #1
    d6b6:	d403      	bmi.n	d6c0 <__hi0bits+0x38>
    d6b8:	2020      	movs	r0, #32
    d6ba:	4770      	bx	lr
    d6bc:	2300      	movs	r3, #0
    d6be:	e7e8      	b.n	d692 <__hi0bits+0xa>
    d6c0:	1c58      	adds	r0, r3, #1
    d6c2:	4770      	bx	lr
    d6c4:	4618      	mov	r0, r3
    d6c6:	4770      	bx	lr

0000d6c8 <__lo0bits>:
    d6c8:	6803      	ldr	r3, [r0, #0]
    d6ca:	f013 0207 	ands.w	r2, r3, #7
    d6ce:	d007      	beq.n	d6e0 <__lo0bits+0x18>
    d6d0:	07d9      	lsls	r1, r3, #31
    d6d2:	d420      	bmi.n	d716 <__lo0bits+0x4e>
    d6d4:	079a      	lsls	r2, r3, #30
    d6d6:	d420      	bmi.n	d71a <__lo0bits+0x52>
    d6d8:	089b      	lsrs	r3, r3, #2
    d6da:	6003      	str	r3, [r0, #0]
    d6dc:	2002      	movs	r0, #2
    d6de:	4770      	bx	lr
    d6e0:	b299      	uxth	r1, r3
    d6e2:	b909      	cbnz	r1, d6e8 <__lo0bits+0x20>
    d6e4:	0c1b      	lsrs	r3, r3, #16
    d6e6:	2210      	movs	r2, #16
    d6e8:	f013 0fff 	tst.w	r3, #255	; 0xff
    d6ec:	bf04      	itt	eq
    d6ee:	0a1b      	lsreq	r3, r3, #8
    d6f0:	3208      	addeq	r2, #8
    d6f2:	0719      	lsls	r1, r3, #28
    d6f4:	bf04      	itt	eq
    d6f6:	091b      	lsreq	r3, r3, #4
    d6f8:	3204      	addeq	r2, #4
    d6fa:	0799      	lsls	r1, r3, #30
    d6fc:	bf04      	itt	eq
    d6fe:	089b      	lsreq	r3, r3, #2
    d700:	3202      	addeq	r2, #2
    d702:	07d9      	lsls	r1, r3, #31
    d704:	d404      	bmi.n	d710 <__lo0bits+0x48>
    d706:	085b      	lsrs	r3, r3, #1
    d708:	d101      	bne.n	d70e <__lo0bits+0x46>
    d70a:	2020      	movs	r0, #32
    d70c:	4770      	bx	lr
    d70e:	3201      	adds	r2, #1
    d710:	6003      	str	r3, [r0, #0]
    d712:	4610      	mov	r0, r2
    d714:	4770      	bx	lr
    d716:	2000      	movs	r0, #0
    d718:	4770      	bx	lr
    d71a:	085b      	lsrs	r3, r3, #1
    d71c:	6003      	str	r3, [r0, #0]
    d71e:	2001      	movs	r0, #1
    d720:	4770      	bx	lr
    d722:	bf00      	nop

0000d724 <__i2b>:
    d724:	b510      	push	{r4, lr}
    d726:	460c      	mov	r4, r1
    d728:	2101      	movs	r1, #1
    d72a:	f7ff fee7 	bl	d4fc <_Balloc>
    d72e:	2201      	movs	r2, #1
    d730:	6144      	str	r4, [r0, #20]
    d732:	6102      	str	r2, [r0, #16]
    d734:	bd10      	pop	{r4, pc}
    d736:	bf00      	nop

0000d738 <__multiply>:
    d738:	e92d 4ff0 	stmdb	sp!, {r4, r5, r6, r7, r8, r9, sl, fp, lr}
    d73c:	690d      	ldr	r5, [r1, #16]
    d73e:	f8d2 9010 	ldr.w	r9, [r2, #16]
    d742:	b085      	sub	sp, #20
    d744:	454d      	cmp	r5, r9
    d746:	460c      	mov	r4, r1
    d748:	4692      	mov	sl, r2
    d74a:	da04      	bge.n	d756 <__multiply+0x1e>
    d74c:	462a      	mov	r2, r5
    d74e:	4654      	mov	r4, sl
    d750:	464d      	mov	r5, r9
    d752:	468a      	mov	sl, r1
    d754:	4691      	mov	r9, r2
    d756:	68a3      	ldr	r3, [r4, #8]
    d758:	eb05 0709 	add.w	r7, r5, r9
    d75c:	6861      	ldr	r1, [r4, #4]
    d75e:	429f      	cmp	r7, r3
    d760:	bfc8      	it	gt
    d762:	3101      	addgt	r1, #1
    d764:	f7ff feca 	bl	d4fc <_Balloc>
    d768:	f100 0614 	add.w	r6, r0, #20
    d76c:	eb06 0887 	add.w	r8, r6, r7, lsl #2
    d770:	4546      	cmp	r6, r8
    d772:	9001      	str	r0, [sp, #4]
    d774:	d205      	bcs.n	d782 <__multiply+0x4a>
    d776:	4633      	mov	r3, r6
    d778:	2000      	movs	r0, #0
    d77a:	f843 0b04 	str.w	r0, [r3], #4
    d77e:	4598      	cmp	r8, r3
    d780:	d8fb      	bhi.n	d77a <__multiply+0x42>
    d782:	f10a 0c14 	add.w	ip, sl, #20
    d786:	eb0c 0989 	add.w	r9, ip, r9, lsl #2
    d78a:	3414      	adds	r4, #20
    d78c:	45cc      	cmp	ip, r9
    d78e:	9400      	str	r4, [sp, #0]
    d790:	eb04 0585 	add.w	r5, r4, r5, lsl #2
    d794:	d25b      	bcs.n	d84e <__multiply+0x116>
    d796:	f8cd 8008 	str.w	r8, [sp, #8]
    d79a:	9703      	str	r7, [sp, #12]
    d79c:	46c8      	mov	r8, r9
    d79e:	f85c 3b04 	ldr.w	r3, [ip], #4
    d7a2:	b29c      	uxth	r4, r3
    d7a4:	b324      	cbz	r4, d7f0 <__multiply+0xb8>
    d7a6:	9a00      	ldr	r2, [sp, #0]
    d7a8:	4633      	mov	r3, r6
    d7aa:	f04f 0900 	mov.w	r9, #0
    d7ae:	e000      	b.n	d7b2 <__multiply+0x7a>
    d7b0:	460b      	mov	r3, r1
    d7b2:	f852 7b04 	ldr.w	r7, [r2], #4
    d7b6:	6819      	ldr	r1, [r3, #0]
    d7b8:	fa1f fb87 	uxth.w	fp, r7
    d7bc:	fa1f fa81 	uxth.w	sl, r1
    d7c0:	0c38      	lsrs	r0, r7, #16
    d7c2:	0c09      	lsrs	r1, r1, #16
    d7c4:	fb04 aa0b 	mla	sl, r4, fp, sl
    d7c8:	fb04 1000 	mla	r0, r4, r0, r1
    d7cc:	44d1      	add	r9, sl
    d7ce:	eb00 4019 	add.w	r0, r0, r9, lsr #16
    d7d2:	fa1f f989 	uxth.w	r9, r9
    d7d6:	ea49 4700 	orr.w	r7, r9, r0, lsl #16
    d7da:	4619      	mov	r1, r3
    d7dc:	4295      	cmp	r5, r2
    d7de:	ea4f 4910 	mov.w	r9, r0, lsr #16
    d7e2:	f841 7b04 	str.w	r7, [r1], #4
    d7e6:	d8e3      	bhi.n	d7b0 <__multiply+0x78>
    d7e8:	f8c3 9004 	str.w	r9, [r3, #4]
    d7ec:	f85c 3c04 	ldr.w	r3, [ip, #-4]
    d7f0:	ea5f 4913 	movs.w	r9, r3, lsr #16
    d7f4:	d024      	beq.n	d840 <__multiply+0x108>
    d7f6:	f8d6 a000 	ldr.w	sl, [r6]
    d7fa:	9b00      	ldr	r3, [sp, #0]
    d7fc:	4650      	mov	r0, sl
    d7fe:	4631      	mov	r1, r6
    d800:	f04f 0b00 	mov.w	fp, #0
    d804:	e000      	b.n	d808 <__multiply+0xd0>
    d806:	4611      	mov	r1, r2
    d808:	881a      	ldrh	r2, [r3, #0]
    d80a:	0c00      	lsrs	r0, r0, #16
    d80c:	fb09 0002 	mla	r0, r9, r2, r0
    d810:	fa1f fa8a 	uxth.w	sl, sl
    d814:	4483      	add	fp, r0
    d816:	ea4a 400b 	orr.w	r0, sl, fp, lsl #16
    d81a:	460a      	mov	r2, r1
    d81c:	f842 0b04 	str.w	r0, [r2], #4
    d820:	f853 7b04 	ldr.w	r7, [r3], #4
    d824:	6848      	ldr	r0, [r1, #4]
    d826:	ea4f 4a17 	mov.w	sl, r7, lsr #16
    d82a:	b284      	uxth	r4, r0
    d82c:	fb09 4a0a 	mla	sl, r9, sl, r4
    d830:	429d      	cmp	r5, r3
    d832:	eb0a 4a1b 	add.w	sl, sl, fp, lsr #16
    d836:	ea4f 4b1a 	mov.w	fp, sl, lsr #16
    d83a:	d8e4      	bhi.n	d806 <__multiply+0xce>
    d83c:	f8c1 a004 	str.w	sl, [r1, #4]
    d840:	45e0      	cmp	r8, ip
    d842:	f106 0604 	add.w	r6, r6, #4
    d846:	d8aa      	bhi.n	d79e <__multiply+0x66>
    d848:	f8dd 8008 	ldr.w	r8, [sp, #8]
    d84c:	9f03      	ldr	r7, [sp, #12]
    d84e:	2f00      	cmp	r7, #0
    d850:	dd0a      	ble.n	d868 <__multiply+0x130>
    d852:	f858 3c04 	ldr.w	r3, [r8, #-4]
    d856:	f1a8 0804 	sub.w	r8, r8, #4
    d85a:	b11b      	cbz	r3, d864 <__multiply+0x12c>
    d85c:	e004      	b.n	d868 <__multiply+0x130>
    d85e:	f858 3d04 	ldr.w	r3, [r8, #-4]!
    d862:	b90b      	cbnz	r3, d868 <__multiply+0x130>
    d864:	3f01      	subs	r7, #1
    d866:	d1fa      	bne.n	d85e <__multiply+0x126>
    d868:	9b01      	ldr	r3, [sp, #4]
    d86a:	4618      	mov	r0, r3
    d86c:	611f      	str	r7, [r3, #16]
    d86e:	b005      	add	sp, #20
    d870:	e8bd 8ff0 	ldmia.w	sp!, {r4, r5, r6, r7, r8, r9, sl, fp, pc}

0000d874 <__pow5mult>:
    d874:	f012 0303 	ands.w	r3, r2, #3
    d878:	e92d 41f0 	stmdb	sp!, {r4, r5, r6, r7, r8, lr}
    d87c:	4614      	mov	r4, r2
    d87e:	4607      	mov	r7, r0
    d880:	460e      	mov	r6, r1
    d882:	d12c      	bne.n	d8de <__pow5mult+0x6a>
    d884:	10a4      	asrs	r4, r4, #2
    d886:	d01c      	beq.n	d8c2 <__pow5mult+0x4e>
    d888:	6cbd      	ldr	r5, [r7, #72]	; 0x48
    d88a:	2d00      	cmp	r5, #0
    d88c:	d030      	beq.n	d8f0 <__pow5mult+0x7c>
    d88e:	f04f 0800 	mov.w	r8, #0
    d892:	e004      	b.n	d89e <__pow5mult+0x2a>
    d894:	1064      	asrs	r4, r4, #1
    d896:	d014      	beq.n	d8c2 <__pow5mult+0x4e>
    d898:	6828      	ldr	r0, [r5, #0]
    d89a:	b1a8      	cbz	r0, d8c8 <__pow5mult+0x54>
    d89c:	4605      	mov	r5, r0
    d89e:	07e3      	lsls	r3, r4, #31
    d8a0:	d5f8      	bpl.n	d894 <__pow5mult+0x20>
    d8a2:	4638      	mov	r0, r7
    d8a4:	4631      	mov	r1, r6
    d8a6:	462a      	mov	r2, r5
    d8a8:	f7ff ff46 	bl	d738 <__multiply>
    d8ac:	b1ae      	cbz	r6, d8da <__pow5mult+0x66>
    d8ae:	6872      	ldr	r2, [r6, #4]
    d8b0:	6cfb      	ldr	r3, [r7, #76]	; 0x4c
    d8b2:	1064      	asrs	r4, r4, #1
    d8b4:	f853 1022 	ldr.w	r1, [r3, r2, lsl #2]
    d8b8:	6031      	str	r1, [r6, #0]
    d8ba:	f843 6022 	str.w	r6, [r3, r2, lsl #2]
    d8be:	4606      	mov	r6, r0
    d8c0:	d1ea      	bne.n	d898 <__pow5mult+0x24>
    d8c2:	4630      	mov	r0, r6
    d8c4:	e8bd 81f0 	ldmia.w	sp!, {r4, r5, r6, r7, r8, pc}
    d8c8:	4638      	mov	r0, r7
    d8ca:	4629      	mov	r1, r5
    d8cc:	462a      	mov	r2, r5
    d8ce:	f7ff ff33 	bl	d738 <__multiply>
    d8d2:	6028      	str	r0, [r5, #0]
    d8d4:	f8c0 8000 	str.w	r8, [r0]
    d8d8:	e7e0      	b.n	d89c <__pow5mult+0x28>
    d8da:	4606      	mov	r6, r0
    d8dc:	e7da      	b.n	d894 <__pow5mult+0x20>
    d8de:	4a0b      	ldr	r2, [pc, #44]	; (d90c <__pow5mult+0x98>)
    d8e0:	3b01      	subs	r3, #1
    d8e2:	f852 2023 	ldr.w	r2, [r2, r3, lsl #2]
    d8e6:	2300      	movs	r3, #0
    d8e8:	f7ff fe38 	bl	d55c <__multadd>
    d8ec:	4606      	mov	r6, r0
    d8ee:	e7c9      	b.n	d884 <__pow5mult+0x10>
    d8f0:	2101      	movs	r1, #1
    d8f2:	4638      	mov	r0, r7
    d8f4:	f7ff fe02 	bl	d4fc <_Balloc>
    d8f8:	f240 2171 	movw	r1, #625	; 0x271
    d8fc:	2201      	movs	r2, #1
    d8fe:	2300      	movs	r3, #0
    d900:	6141      	str	r1, [r0, #20]
    d902:	6102      	str	r2, [r0, #16]
    d904:	4605      	mov	r5, r0
    d906:	64b8      	str	r0, [r7, #72]	; 0x48
    d908:	6003      	str	r3, [r0, #0]
    d90a:	e7c0      	b.n	d88e <__pow5mult+0x1a>
    d90c:	00014eb8 	.word	0x00014eb8

0000d910 <__lshift>:
    d910:	e92d 4ff8 	stmdb	sp!, {r3, r4, r5, r6, r7, r8, r9, sl, fp, lr}
    d914:	690b      	ldr	r3, [r1, #16]
    d916:	ea4f 1a62 	mov.w	sl, r2, asr #5
    d91a:	eb0a 0903 	add.w	r9, sl, r3
    d91e:	688b      	ldr	r3, [r1, #8]
    d920:	f109 0601 	add.w	r6, r9, #1
    d924:	429e      	cmp	r6, r3
    d926:	460f      	mov	r7, r1
    d928:	4693      	mov	fp, r2
    d92a:	4680      	mov	r8, r0
    d92c:	6849      	ldr	r1, [r1, #4]
    d92e:	dd04      	ble.n	d93a <__lshift+0x2a>
    d930:	005b      	lsls	r3, r3, #1
    d932:	429e      	cmp	r6, r3
    d934:	f101 0101 	add.w	r1, r1, #1
    d938:	dcfa      	bgt.n	d930 <__lshift+0x20>
    d93a:	4640      	mov	r0, r8
    d93c:	f7ff fdde 	bl	d4fc <_Balloc>
    d940:	f1ba 0f00 	cmp.w	sl, #0
    d944:	f100 0414 	add.w	r4, r0, #20
    d948:	dd09      	ble.n	d95e <__lshift+0x4e>
    d94a:	2300      	movs	r3, #0
    d94c:	461a      	mov	r2, r3
    d94e:	4625      	mov	r5, r4
    d950:	3301      	adds	r3, #1
    d952:	4553      	cmp	r3, sl
    d954:	f845 2b04 	str.w	r2, [r5], #4
    d958:	d1fa      	bne.n	d950 <__lshift+0x40>
    d95a:	eb04 0483 	add.w	r4, r4, r3, lsl #2
    d95e:	693a      	ldr	r2, [r7, #16]
    d960:	f107 0314 	add.w	r3, r7, #20
    d964:	f01b 0b1f 	ands.w	fp, fp, #31
    d968:	eb03 0c82 	add.w	ip, r3, r2, lsl #2
    d96c:	d021      	beq.n	d9b2 <__lshift+0xa2>
    d96e:	f1cb 0a20 	rsb	sl, fp, #32
    d972:	2200      	movs	r2, #0
    d974:	e000      	b.n	d978 <__lshift+0x68>
    d976:	462c      	mov	r4, r5
    d978:	6819      	ldr	r1, [r3, #0]
    d97a:	4625      	mov	r5, r4
    d97c:	fa01 f10b 	lsl.w	r1, r1, fp
    d980:	430a      	orrs	r2, r1
    d982:	f845 2b04 	str.w	r2, [r5], #4
    d986:	f853 2b04 	ldr.w	r2, [r3], #4
    d98a:	4563      	cmp	r3, ip
    d98c:	fa22 f20a 	lsr.w	r2, r2, sl
    d990:	d3f1      	bcc.n	d976 <__lshift+0x66>
    d992:	6062      	str	r2, [r4, #4]
    d994:	b10a      	cbz	r2, d99a <__lshift+0x8a>
    d996:	f109 0602 	add.w	r6, r9, #2
    d99a:	f8d8 304c 	ldr.w	r3, [r8, #76]	; 0x4c
    d99e:	687a      	ldr	r2, [r7, #4]
    d9a0:	3e01      	subs	r6, #1
    d9a2:	f853 1022 	ldr.w	r1, [r3, r2, lsl #2]
    d9a6:	6106      	str	r6, [r0, #16]
    d9a8:	6039      	str	r1, [r7, #0]
    d9aa:	f843 7022 	str.w	r7, [r3, r2, lsl #2]
    d9ae:	e8bd 8ff8 	ldmia.w	sp!, {r3, r4, r5, r6, r7, r8, r9, sl, fp, pc}
    d9b2:	f853 2b04 	ldr.w	r2, [r3], #4
    d9b6:	459c      	cmp	ip, r3
    d9b8:	f844 2b04 	str.w	r2, [r4], #4
    d9bc:	d9ed      	bls.n	d99a <__lshift+0x8a>
    d9be:	f853 2b04 	ldr.w	r2, [r3], #4
    d9c2:	459c      	cmp	ip, r3
    d9c4:	f844 2b04 	str.w	r2, [r4], #4
    d9c8:	d8f3      	bhi.n	d9b2 <__lshift+0xa2>
    d9ca:	e7e6      	b.n	d99a <__lshift+0x8a>

0000d9cc <__mcmp>:
    d9cc:	6902      	ldr	r2, [r0, #16]
    d9ce:	690b      	ldr	r3, [r1, #16]
    d9d0:	b410      	push	{r4}
    d9d2:	1ad2      	subs	r2, r2, r3
    d9d4:	d115      	bne.n	da02 <__mcmp+0x36>
    d9d6:	009b      	lsls	r3, r3, #2
    d9d8:	3014      	adds	r0, #20
    d9da:	3114      	adds	r1, #20
    d9dc:	4419      	add	r1, r3
    d9de:	4403      	add	r3, r0
    d9e0:	e001      	b.n	d9e6 <__mcmp+0x1a>
    d9e2:	4298      	cmp	r0, r3
    d9e4:	d211      	bcs.n	da0a <__mcmp+0x3e>
    d9e6:	f853 2d04 	ldr.w	r2, [r3, #-4]!
    d9ea:	f851 4d04 	ldr.w	r4, [r1, #-4]!
    d9ee:	42a2      	cmp	r2, r4
    d9f0:	d0f7      	beq.n	d9e2 <__mcmp+0x16>
    d9f2:	4294      	cmp	r4, r2
    d9f4:	bf94      	ite	ls
    d9f6:	2001      	movls	r0, #1
    d9f8:	f04f 30ff 	movhi.w	r0, #4294967295
    d9fc:	f85d 4b04 	ldr.w	r4, [sp], #4
    da00:	4770      	bx	lr
    da02:	4610      	mov	r0, r2
    da04:	f85d 4b04 	ldr.w	r4, [sp], #4
    da08:	4770      	bx	lr
    da0a:	2000      	movs	r0, #0
    da0c:	f85d 4b04 	ldr.w	r4, [sp], #4
    da10:	4770      	bx	lr
    da12:	bf00      	nop

0000da14 <__mdiff>:
    da14:	e92d 47f0 	stmdb	sp!, {r4, r5, r6, r7, r8, r9, sl, lr}
    da18:	460d      	mov	r5, r1
    da1a:	4604      	mov	r4, r0
    da1c:	4611      	mov	r1, r2
    da1e:	4628      	mov	r0, r5
    da20:	4616      	mov	r6, r2
    da22:	f7ff ffd3 	bl	d9cc <__mcmp>
    da26:	1e07      	subs	r7, r0, #0
    da28:	d056      	beq.n	dad8 <__mdiff+0xc4>
    da2a:	db4f      	blt.n	dacc <__mdiff+0xb8>
    da2c:	f04f 0900 	mov.w	r9, #0
    da30:	6869      	ldr	r1, [r5, #4]
    da32:	4620      	mov	r0, r4
    da34:	f7ff fd62 	bl	d4fc <_Balloc>
    da38:	692f      	ldr	r7, [r5, #16]
    da3a:	6932      	ldr	r2, [r6, #16]
    da3c:	3514      	adds	r5, #20
    da3e:	3614      	adds	r6, #20
    da40:	f8c0 900c 	str.w	r9, [r0, #12]
    da44:	f100 0314 	add.w	r3, r0, #20
    da48:	eb05 0c87 	add.w	ip, r5, r7, lsl #2
    da4c:	eb06 0882 	add.w	r8, r6, r2, lsl #2
    da50:	2100      	movs	r1, #0
    da52:	f855 4b04 	ldr.w	r4, [r5], #4
    da56:	f856 2b04 	ldr.w	r2, [r6], #4
    da5a:	fa1f fa84 	uxth.w	sl, r4
    da5e:	448a      	add	sl, r1
    da60:	fa1f f982 	uxth.w	r9, r2
    da64:	0c11      	lsrs	r1, r2, #16
    da66:	ebc1 4114 	rsb	r1, r1, r4, lsr #16
    da6a:	ebc9 020a 	rsb	r2, r9, sl
    da6e:	eb01 4122 	add.w	r1, r1, r2, asr #16
    da72:	b292      	uxth	r2, r2
    da74:	ea42 4201 	orr.w	r2, r2, r1, lsl #16
    da78:	45b0      	cmp	r8, r6
    da7a:	f843 2b04 	str.w	r2, [r3], #4
    da7e:	ea4f 4121 	mov.w	r1, r1, asr #16
    da82:	462c      	mov	r4, r5
    da84:	d8e5      	bhi.n	da52 <__mdiff+0x3e>
    da86:	45ac      	cmp	ip, r5
    da88:	4698      	mov	r8, r3
    da8a:	d915      	bls.n	dab8 <__mdiff+0xa4>
    da8c:	f854 6b04 	ldr.w	r6, [r4], #4
    da90:	b2b2      	uxth	r2, r6
    da92:	4411      	add	r1, r2
    da94:	0c36      	lsrs	r6, r6, #16
    da96:	eb06 4621 	add.w	r6, r6, r1, asr #16
    da9a:	b289      	uxth	r1, r1
    da9c:	ea41 4206 	orr.w	r2, r1, r6, lsl #16
    daa0:	45a4      	cmp	ip, r4
    daa2:	f843 2b04 	str.w	r2, [r3], #4
    daa6:	ea4f 4126 	mov.w	r1, r6, asr #16
    daaa:	d8ef      	bhi.n	da8c <__mdiff+0x78>
    daac:	43eb      	mvns	r3, r5
    daae:	4463      	add	r3, ip
    dab0:	f023 0303 	bic.w	r3, r3, #3
    dab4:	3304      	adds	r3, #4
    dab6:	4443      	add	r3, r8
    dab8:	3b04      	subs	r3, #4
    daba:	b922      	cbnz	r2, dac6 <__mdiff+0xb2>
    dabc:	f853 2d04 	ldr.w	r2, [r3, #-4]!
    dac0:	3f01      	subs	r7, #1
    dac2:	2a00      	cmp	r2, #0
    dac4:	d0fa      	beq.n	dabc <__mdiff+0xa8>
    dac6:	6107      	str	r7, [r0, #16]
    dac8:	e8bd 87f0 	ldmia.w	sp!, {r4, r5, r6, r7, r8, r9, sl, pc}
    dacc:	462b      	mov	r3, r5
    dace:	f04f 0901 	mov.w	r9, #1
    dad2:	4635      	mov	r5, r6
    dad4:	461e      	mov	r6, r3
    dad6:	e7ab      	b.n	da30 <__mdiff+0x1c>
    dad8:	4620      	mov	r0, r4
    dada:	4639      	mov	r1, r7
    dadc:	f7ff fd0e 	bl	d4fc <_Balloc>
    dae0:	2301      	movs	r3, #1
    dae2:	6147      	str	r7, [r0, #20]
    dae4:	6103      	str	r3, [r0, #16]
    dae6:	e8bd 87f0 	ldmia.w	sp!, {r4, r5, r6, r7, r8, r9, sl, pc}
    daea:	bf00      	nop

0000daec <__ulp>:
    daec:	4b0e      	ldr	r3, [pc, #56]	; (db28 <__ulp+0x3c>)
    daee:	400b      	ands	r3, r1
    daf0:	f1a3 7350 	sub.w	r3, r3, #54525952	; 0x3400000
    daf4:	2b00      	cmp	r3, #0
    daf6:	dd02      	ble.n	dafe <__ulp+0x12>
    daf8:	4619      	mov	r1, r3
    dafa:	2000      	movs	r0, #0
    dafc:	4770      	bx	lr
    dafe:	425b      	negs	r3, r3
    db00:	151b      	asrs	r3, r3, #20
    db02:	2b13      	cmp	r3, #19
    db04:	dd0a      	ble.n	db1c <__ulp+0x30>
    db06:	2b32      	cmp	r3, #50	; 0x32
    db08:	bfdd      	ittte	le
    db0a:	f1c3 0333 	rsble	r3, r3, #51	; 0x33
    db0e:	2201      	movle	r2, #1
    db10:	fa02 f303 	lslle.w	r3, r2, r3
    db14:	2301      	movgt	r3, #1
    db16:	2100      	movs	r1, #0
    db18:	4618      	mov	r0, r3
    db1a:	4770      	bx	lr
    db1c:	f44f 2200 	mov.w	r2, #524288	; 0x80000
    db20:	fa42 f103 	asr.w	r1, r2, r3
    db24:	2000      	movs	r0, #0
    db26:	4770      	bx	lr
    db28:	7ff00000 	.word	0x7ff00000

0000db2c <__b2d>:
    db2c:	b5f8      	push	{r3, r4, r5, r6, r7, lr}
    db2e:	6904      	ldr	r4, [r0, #16]
    db30:	f100 0614 	add.w	r6, r0, #20
    db34:	eb06 0484 	add.w	r4, r6, r4, lsl #2
    db38:	f854 5c04 	ldr.w	r5, [r4, #-4]
    db3c:	460f      	mov	r7, r1
    db3e:	4628      	mov	r0, r5
    db40:	f7ff fda2 	bl	d688 <__hi0bits>
    db44:	f1c0 0320 	rsb	r3, r0, #32
    db48:	280a      	cmp	r0, #10
    db4a:	603b      	str	r3, [r7, #0]
    db4c:	f1a4 0104 	sub.w	r1, r4, #4
    db50:	dc19      	bgt.n	db86 <__b2d+0x5a>
    db52:	428e      	cmp	r6, r1
    db54:	f1c0 070b 	rsb	r7, r0, #11
    db58:	bf38      	it	cc
    db5a:	f854 1c08 	ldrcc.w	r1, [r4, #-8]
    db5e:	fa25 fc07 	lsr.w	ip, r5, r7
    db62:	f100 0015 	add.w	r0, r0, #21
    db66:	bf38      	it	cc
    db68:	fa21 f707 	lsrcc.w	r7, r1, r7
    db6c:	fa05 f500 	lsl.w	r5, r5, r0
    db70:	f04c 537f 	orr.w	r3, ip, #1069547520	; 0x3fc00000
    db74:	bf28      	it	cs
    db76:	2700      	movcs	r7, #0
    db78:	f443 1340 	orr.w	r3, r3, #3145728	; 0x300000
    db7c:	ea47 0205 	orr.w	r2, r7, r5
    db80:	4610      	mov	r0, r2
    db82:	4619      	mov	r1, r3
    db84:	bdf8      	pop	{r3, r4, r5, r6, r7, pc}
    db86:	428e      	cmp	r6, r1
    db88:	bf36      	itet	cc
    db8a:	f1a4 0108 	subcc.w	r1, r4, #8
    db8e:	2400      	movcs	r4, #0
    db90:	f854 4c08 	ldrcc.w	r4, [r4, #-8]
    db94:	f1b0 070b 	subs.w	r7, r0, #11
    db98:	d01b      	beq.n	dbd2 <__b2d+0xa6>
    db9a:	42b1      	cmp	r1, r6
    db9c:	bf88      	it	hi
    db9e:	f851 1c04 	ldrhi.w	r1, [r1, #-4]
    dba2:	fa05 f507 	lsl.w	r5, r5, r7
    dba6:	f1c0 002b 	rsb	r0, r0, #43	; 0x2b
    dbaa:	fa24 fc00 	lsr.w	ip, r4, r0
    dbae:	bf88      	it	hi
    dbb0:	fa21 f000 	lsrhi.w	r0, r1, r0
    dbb4:	fa04 f407 	lsl.w	r4, r4, r7
    dbb8:	f045 557f 	orr.w	r5, r5, #1069547520	; 0x3fc00000
    dbbc:	bf98      	it	ls
    dbbe:	2000      	movls	r0, #0
    dbc0:	f445 1540 	orr.w	r5, r5, #3145728	; 0x300000
    dbc4:	ea45 030c 	orr.w	r3, r5, ip
    dbc8:	ea40 0204 	orr.w	r2, r0, r4
    dbcc:	4610      	mov	r0, r2
    dbce:	4619      	mov	r1, r3
    dbd0:	bdf8      	pop	{r3, r4, r5, r6, r7, pc}
    dbd2:	f045 537f 	orr.w	r3, r5, #1069547520	; 0x3fc00000
    dbd6:	f443 1340 	orr.w	r3, r3, #3145728	; 0x300000
    dbda:	4622      	mov	r2, r4
    dbdc:	4610      	mov	r0, r2
    dbde:	4619      	mov	r1, r3
    dbe0:	bdf8      	pop	{r3, r4, r5, r6, r7, pc}
    dbe2:	bf00      	nop

0000dbe4 <__d2b>:
    dbe4:	e92d 43f0 	stmdb	sp!, {r4, r5, r6, r7, r8, r9, lr}
    dbe8:	2101      	movs	r1, #1
    dbea:	b083      	sub	sp, #12
    dbec:	461d      	mov	r5, r3
    dbee:	f3c3 560a 	ubfx	r6, r3, #20, #11
    dbf2:	4614      	mov	r4, r2
    dbf4:	9f0a      	ldr	r7, [sp, #40]	; 0x28
    dbf6:	f7ff fc81 	bl	d4fc <_Balloc>
    dbfa:	f3c5 0313 	ubfx	r3, r5, #0, #20
    dbfe:	4680      	mov	r8, r0
    dc00:	b10e      	cbz	r6, dc06 <__d2b+0x22>
    dc02:	f443 1380 	orr.w	r3, r3, #1048576	; 0x100000
    dc06:	9301      	str	r3, [sp, #4]
    dc08:	b324      	cbz	r4, dc54 <__d2b+0x70>
    dc0a:	a802      	add	r0, sp, #8
    dc0c:	f840 4d08 	str.w	r4, [r0, #-8]!
    dc10:	4668      	mov	r0, sp
    dc12:	f7ff fd59 	bl	d6c8 <__lo0bits>
    dc16:	2800      	cmp	r0, #0
    dc18:	d135      	bne.n	dc86 <__d2b+0xa2>
    dc1a:	e89d 000c 	ldmia.w	sp, {r2, r3}
    dc1e:	f8c8 2014 	str.w	r2, [r8, #20]
    dc22:	2b00      	cmp	r3, #0
    dc24:	bf0c      	ite	eq
    dc26:	2401      	moveq	r4, #1
    dc28:	2402      	movne	r4, #2
    dc2a:	f8c8 3018 	str.w	r3, [r8, #24]
    dc2e:	f8c8 4010 	str.w	r4, [r8, #16]
    dc32:	b9de      	cbnz	r6, dc6c <__d2b+0x88>
    dc34:	eb08 0384 	add.w	r3, r8, r4, lsl #2
    dc38:	f2a0 4032 	subw	r0, r0, #1074	; 0x432
    dc3c:	6038      	str	r0, [r7, #0]
    dc3e:	6918      	ldr	r0, [r3, #16]
    dc40:	f7ff fd22 	bl	d688 <__hi0bits>
    dc44:	9b0b      	ldr	r3, [sp, #44]	; 0x2c
    dc46:	ebc0 1044 	rsb	r0, r0, r4, lsl #5
    dc4a:	6018      	str	r0, [r3, #0]
    dc4c:	4640      	mov	r0, r8
    dc4e:	b003      	add	sp, #12
    dc50:	e8bd 83f0 	ldmia.w	sp!, {r4, r5, r6, r7, r8, r9, pc}
    dc54:	a801      	add	r0, sp, #4
    dc56:	f7ff fd37 	bl	d6c8 <__lo0bits>
    dc5a:	9b01      	ldr	r3, [sp, #4]
    dc5c:	2401      	movs	r4, #1
    dc5e:	3020      	adds	r0, #32
    dc60:	f8c8 3014 	str.w	r3, [r8, #20]
    dc64:	f8c8 4010 	str.w	r4, [r8, #16]
    dc68:	2e00      	cmp	r6, #0
    dc6a:	d0e3      	beq.n	dc34 <__d2b+0x50>
    dc6c:	f2a6 4933 	subw	r9, r6, #1075	; 0x433
    dc70:	eb09 0300 	add.w	r3, r9, r0
    dc74:	603b      	str	r3, [r7, #0]
    dc76:	9b0b      	ldr	r3, [sp, #44]	; 0x2c
    dc78:	f1c0 0035 	rsb	r0, r0, #53	; 0x35
    dc7c:	6018      	str	r0, [r3, #0]
    dc7e:	4640      	mov	r0, r8
    dc80:	b003      	add	sp, #12
    dc82:	e8bd 83f0 	ldmia.w	sp!, {r4, r5, r6, r7, r8, r9, pc}
    dc86:	9b01      	ldr	r3, [sp, #4]
    dc88:	f1c0 0120 	rsb	r1, r0, #32
    dc8c:	fa03 f101 	lsl.w	r1, r3, r1
    dc90:	40c3      	lsrs	r3, r0
    dc92:	9a00      	ldr	r2, [sp, #0]
    dc94:	9301      	str	r3, [sp, #4]
    dc96:	430a      	orrs	r2, r1
    dc98:	f8c8 2014 	str.w	r2, [r8, #20]
    dc9c:	e7c1      	b.n	dc22 <__d2b+0x3e>
    dc9e:	bf00      	nop

0000dca0 <__ratio>:
    dca0:	b5f0      	push	{r4, r5, r6, r7, lr}
    dca2:	b083      	sub	sp, #12
    dca4:	460e      	mov	r6, r1
    dca6:	4669      	mov	r1, sp
    dca8:	4607      	mov	r7, r0
    dcaa:	f7ff ff3f 	bl	db2c <__b2d>
    dcae:	4604      	mov	r4, r0
    dcb0:	460d      	mov	r5, r1
    dcb2:	4630      	mov	r0, r6
    dcb4:	a901      	add	r1, sp, #4
    dcb6:	f7ff ff39 	bl	db2c <__b2d>
    dcba:	693f      	ldr	r7, [r7, #16]
    dcbc:	6936      	ldr	r6, [r6, #16]
    dcbe:	4602      	mov	r2, r0
    dcc0:	460b      	mov	r3, r1
    dcc2:	ebc6 0e07 	rsb	lr, r6, r7
    dcc6:	e89d 0003 	ldmia.w	sp, {r0, r1}
    dcca:	1a41      	subs	r1, r0, r1
    dccc:	eb01 1e4e 	add.w	lr, r1, lr, lsl #5
    dcd0:	f1be 0f00 	cmp.w	lr, #0
    dcd4:	dd08      	ble.n	dce8 <__ratio+0x48>
    dcd6:	eb05 510e 	add.w	r1, r5, lr, lsl #20
    dcda:	460d      	mov	r5, r1
    dcdc:	4620      	mov	r0, r4
    dcde:	4629      	mov	r1, r5
    dce0:	f006 fa46 	bl	14170 <__aeabi_ddiv>
    dce4:	b003      	add	sp, #12
    dce6:	bdf0      	pop	{r4, r5, r6, r7, pc}
    dce8:	eba3 570e 	sub.w	r7, r3, lr, lsl #20
    dcec:	463b      	mov	r3, r7
    dcee:	e7f5      	b.n	dcdc <__ratio+0x3c>

0000dcf0 <_mprec_log10>:
    dcf0:	2817      	cmp	r0, #23
    dcf2:	b510      	push	{r4, lr}
    dcf4:	4604      	mov	r4, r0
    dcf6:	dd08      	ble.n	dd0a <_mprec_log10+0x1a>
    dcf8:	4907      	ldr	r1, [pc, #28]	; (dd18 <_mprec_log10+0x28>)
    dcfa:	2000      	movs	r0, #0
    dcfc:	2200      	movs	r2, #0
    dcfe:	4b07      	ldr	r3, [pc, #28]	; (dd1c <_mprec_log10+0x2c>)
    dd00:	f006 f90c 	bl	13f1c <__aeabi_dmul>
    dd04:	3c01      	subs	r4, #1
    dd06:	d1f9      	bne.n	dcfc <_mprec_log10+0xc>
    dd08:	bd10      	pop	{r4, pc}
    dd0a:	4b05      	ldr	r3, [pc, #20]	; (dd20 <_mprec_log10+0x30>)
    dd0c:	eb03 04c0 	add.w	r4, r3, r0, lsl #3
    dd10:	e9d4 0100 	ldrd	r0, r1, [r4]
    dd14:	bd10      	pop	{r4, pc}
    dd16:	bf00      	nop
    dd18:	3ff00000 	.word	0x3ff00000
    dd1c:	40240000 	.word	0x40240000
    dd20:	00014da0 	.word	0x00014da0

0000dd24 <__copybits>:
    dd24:	b470      	push	{r4, r5, r6}
    dd26:	6915      	ldr	r5, [r2, #16]
    dd28:	f102 0314 	add.w	r3, r2, #20
    dd2c:	3901      	subs	r1, #1
    dd2e:	114e      	asrs	r6, r1, #5
    dd30:	eb03 0585 	add.w	r5, r3, r5, lsl #2
    dd34:	3601      	adds	r6, #1
    dd36:	42ab      	cmp	r3, r5
    dd38:	eb00 0686 	add.w	r6, r0, r6, lsl #2
    dd3c:	d20c      	bcs.n	dd58 <__copybits+0x34>
    dd3e:	4601      	mov	r1, r0
    dd40:	f853 4b04 	ldr.w	r4, [r3], #4
    dd44:	429d      	cmp	r5, r3
    dd46:	f841 4b04 	str.w	r4, [r1], #4
    dd4a:	d8f9      	bhi.n	dd40 <__copybits+0x1c>
    dd4c:	1aab      	subs	r3, r5, r2
    dd4e:	3b15      	subs	r3, #21
    dd50:	f023 0303 	bic.w	r3, r3, #3
    dd54:	3304      	adds	r3, #4
    dd56:	4418      	add	r0, r3
    dd58:	4286      	cmp	r6, r0
    dd5a:	d904      	bls.n	dd66 <__copybits+0x42>
    dd5c:	2300      	movs	r3, #0
    dd5e:	f840 3b04 	str.w	r3, [r0], #4
    dd62:	4286      	cmp	r6, r0
    dd64:	d8fb      	bhi.n	dd5e <__copybits+0x3a>
    dd66:	bc70      	pop	{r4, r5, r6}
    dd68:	4770      	bx	lr
    dd6a:	bf00      	nop

0000dd6c <__any_on>:
    dd6c:	6903      	ldr	r3, [r0, #16]
    dd6e:	114a      	asrs	r2, r1, #5
    dd70:	4293      	cmp	r3, r2
    dd72:	b410      	push	{r4}
    dd74:	f100 0414 	add.w	r4, r0, #20
    dd78:	da10      	bge.n	dd9c <__any_on+0x30>
    dd7a:	eb04 0383 	add.w	r3, r4, r3, lsl #2
    dd7e:	429c      	cmp	r4, r3
    dd80:	d221      	bcs.n	ddc6 <__any_on+0x5a>
    dd82:	f853 0c04 	ldr.w	r0, [r3, #-4]
    dd86:	3b04      	subs	r3, #4
    dd88:	b118      	cbz	r0, dd92 <__any_on+0x26>
    dd8a:	e015      	b.n	ddb8 <__any_on+0x4c>
    dd8c:	f853 2d04 	ldr.w	r2, [r3, #-4]!
    dd90:	b992      	cbnz	r2, ddb8 <__any_on+0x4c>
    dd92:	429c      	cmp	r4, r3
    dd94:	d3fa      	bcc.n	dd8c <__any_on+0x20>
    dd96:	f85d 4b04 	ldr.w	r4, [sp], #4
    dd9a:	4770      	bx	lr
    dd9c:	dd10      	ble.n	ddc0 <__any_on+0x54>
    dd9e:	f011 011f 	ands.w	r1, r1, #31
    dda2:	d00d      	beq.n	ddc0 <__any_on+0x54>
    dda4:	f854 0022 	ldr.w	r0, [r4, r2, lsl #2]
    dda8:	eb04 0382 	add.w	r3, r4, r2, lsl #2
    ddac:	fa20 f201 	lsr.w	r2, r0, r1
    ddb0:	fa02 f101 	lsl.w	r1, r2, r1
    ddb4:	4281      	cmp	r1, r0
    ddb6:	d0e2      	beq.n	dd7e <__any_on+0x12>
    ddb8:	2001      	movs	r0, #1
    ddba:	f85d 4b04 	ldr.w	r4, [sp], #4
    ddbe:	4770      	bx	lr
    ddc0:	eb04 0382 	add.w	r3, r4, r2, lsl #2
    ddc4:	e7db      	b.n	dd7e <__any_on+0x12>
    ddc6:	2000      	movs	r0, #0
    ddc8:	e7e5      	b.n	dd96 <__any_on+0x2a>
    ddca:	bf00      	nop

0000ddcc <_read_r>:
    ddcc:	b570      	push	{r4, r5, r6, lr}
    ddce:	4c08      	ldr	r4, [pc, #32]	; (ddf0 <_read_r+0x24>)
    ddd0:	4606      	mov	r6, r0
    ddd2:	2500      	movs	r5, #0
    ddd4:	4608      	mov	r0, r1
    ddd6:	4611      	mov	r1, r2
    ddd8:	461a      	mov	r2, r3
    ddda:	6025      	str	r5, [r4, #0]
    dddc:	f7fa fbb8 	bl	8550 <_read>
    dde0:	1c43      	adds	r3, r0, #1
    dde2:	d000      	beq.n	dde6 <_read_r+0x1a>
    dde4:	bd70      	pop	{r4, r5, r6, pc}
    dde6:	6823      	ldr	r3, [r4, #0]
    dde8:	2b00      	cmp	r3, #0
    ddea:	d0fb      	beq.n	dde4 <_read_r+0x18>
    ddec:	6033      	str	r3, [r6, #0]
    ddee:	bd70      	pop	{r4, r5, r6, pc}
    ddf0:	0001db90 	.word	0x0001db90

0000ddf4 <cleanup_glue>:
    ddf4:	b538      	push	{r3, r4, r5, lr}
    ddf6:	460c      	mov	r4, r1
    ddf8:	6809      	ldr	r1, [r1, #0]
    ddfa:	4605      	mov	r5, r0
    ddfc:	b109      	cbz	r1, de02 <cleanup_glue+0xe>
    ddfe:	f7ff fff9 	bl	ddf4 <cleanup_glue>
    de02:	4628      	mov	r0, r5
    de04:	4621      	mov	r1, r4
    de06:	e8bd 4038 	ldmia.w	sp!, {r3, r4, r5, lr}
    de0a:	f7ff b88d 	b.w	cf28 <_free_r>
    de0e:	bf00      	nop

0000de10 <_reclaim_reent>:
    de10:	4b22      	ldr	r3, [pc, #136]	; (de9c <_reclaim_reent+0x8c>)
    de12:	b570      	push	{r4, r5, r6, lr}
    de14:	681b      	ldr	r3, [r3, #0]
    de16:	4605      	mov	r5, r0
    de18:	4298      	cmp	r0, r3
    de1a:	d032      	beq.n	de82 <_reclaim_reent+0x72>
    de1c:	6cc2      	ldr	r2, [r0, #76]	; 0x4c
    de1e:	b1aa      	cbz	r2, de4c <_reclaim_reent+0x3c>
    de20:	2300      	movs	r3, #0
    de22:	461e      	mov	r6, r3
    de24:	f852 1023 	ldr.w	r1, [r2, r3, lsl #2]
    de28:	b909      	cbnz	r1, de2e <_reclaim_reent+0x1e>
    de2a:	e007      	b.n	de3c <_reclaim_reent+0x2c>
    de2c:	4621      	mov	r1, r4
    de2e:	680c      	ldr	r4, [r1, #0]
    de30:	4628      	mov	r0, r5
    de32:	f7ff f879 	bl	cf28 <_free_r>
    de36:	2c00      	cmp	r4, #0
    de38:	d1f8      	bne.n	de2c <_reclaim_reent+0x1c>
    de3a:	6cea      	ldr	r2, [r5, #76]	; 0x4c
    de3c:	3601      	adds	r6, #1
    de3e:	2e20      	cmp	r6, #32
    de40:	4633      	mov	r3, r6
    de42:	d1ef      	bne.n	de24 <_reclaim_reent+0x14>
    de44:	4611      	mov	r1, r2
    de46:	4628      	mov	r0, r5
    de48:	f7ff f86e 	bl	cf28 <_free_r>
    de4c:	6c29      	ldr	r1, [r5, #64]	; 0x40
    de4e:	b111      	cbz	r1, de56 <_reclaim_reent+0x46>
    de50:	4628      	mov	r0, r5
    de52:	f7ff f869 	bl	cf28 <_free_r>
    de56:	f8d5 1148 	ldr.w	r1, [r5, #328]	; 0x148
    de5a:	b159      	cbz	r1, de74 <_reclaim_reent+0x64>
    de5c:	f505 76a6 	add.w	r6, r5, #332	; 0x14c
    de60:	42b1      	cmp	r1, r6
    de62:	d101      	bne.n	de68 <_reclaim_reent+0x58>
    de64:	e006      	b.n	de74 <_reclaim_reent+0x64>
    de66:	4621      	mov	r1, r4
    de68:	680c      	ldr	r4, [r1, #0]
    de6a:	4628      	mov	r0, r5
    de6c:	f7ff f85c 	bl	cf28 <_free_r>
    de70:	42a6      	cmp	r6, r4
    de72:	d1f8      	bne.n	de66 <_reclaim_reent+0x56>
    de74:	6d69      	ldr	r1, [r5, #84]	; 0x54
    de76:	b111      	cbz	r1, de7e <_reclaim_reent+0x6e>
    de78:	4628      	mov	r0, r5
    de7a:	f7ff f855 	bl	cf28 <_free_r>
    de7e:	6bab      	ldr	r3, [r5, #56]	; 0x38
    de80:	b903      	cbnz	r3, de84 <_reclaim_reent+0x74>
    de82:	bd70      	pop	{r4, r5, r6, pc}
    de84:	6beb      	ldr	r3, [r5, #60]	; 0x3c
    de86:	4628      	mov	r0, r5
    de88:	4798      	blx	r3
    de8a:	f8d5 12e0 	ldr.w	r1, [r5, #736]	; 0x2e0
    de8e:	2900      	cmp	r1, #0
    de90:	d0f7      	beq.n	de82 <_reclaim_reent+0x72>
    de92:	4628      	mov	r0, r5
    de94:	e8bd 4070 	ldmia.w	sp!, {r4, r5, r6, lr}
    de98:	f7ff bfac 	b.w	ddf4 <cleanup_glue>
    de9c:	0001d5e8 	.word	0x0001d5e8

0000dea0 <lflush>:
    dea0:	8983      	ldrh	r3, [r0, #12]
    dea2:	f003 0309 	and.w	r3, r3, #9
    dea6:	2b09      	cmp	r3, #9
    dea8:	d001      	beq.n	deae <lflush+0xe>
    deaa:	2000      	movs	r0, #0
    deac:	4770      	bx	lr
    deae:	f7fe bf01 	b.w	ccb4 <fflush>
    deb2:	bf00      	nop

0000deb4 <__srefill_r>:
    deb4:	b5f8      	push	{r3, r4, r5, r6, r7, lr}
    deb6:	460c      	mov	r4, r1
    deb8:	4605      	mov	r5, r0
    deba:	b110      	cbz	r0, dec2 <__srefill_r+0xe>
    debc:	6b83      	ldr	r3, [r0, #56]	; 0x38
    debe:	2b00      	cmp	r3, #0
    dec0:	d045      	beq.n	df4e <__srefill_r+0x9a>
    dec2:	89a2      	ldrh	r2, [r4, #12]
    dec4:	b293      	uxth	r3, r2
    dec6:	0499      	lsls	r1, r3, #18
    dec8:	d407      	bmi.n	deda <__srefill_r+0x26>
    deca:	6e63      	ldr	r3, [r4, #100]	; 0x64
    decc:	f442 5200 	orr.w	r2, r2, #8192	; 0x2000
    ded0:	f423 5300 	bic.w	r3, r3, #8192	; 0x2000
    ded4:	6663      	str	r3, [r4, #100]	; 0x64
    ded6:	81a2      	strh	r2, [r4, #12]
    ded8:	b293      	uxth	r3, r2
    deda:	2100      	movs	r1, #0
    dedc:	069f      	lsls	r7, r3, #26
    dede:	6061      	str	r1, [r4, #4]
    dee0:	d432      	bmi.n	df48 <__srefill_r+0x94>
    dee2:	075e      	lsls	r6, r3, #29
    dee4:	d521      	bpl.n	df2a <__srefill_r+0x76>
    dee6:	6b21      	ldr	r1, [r4, #48]	; 0x30
    dee8:	b161      	cbz	r1, df04 <__srefill_r+0x50>
    deea:	f104 0340 	add.w	r3, r4, #64	; 0x40
    deee:	4299      	cmp	r1, r3
    def0:	d002      	beq.n	def8 <__srefill_r+0x44>
    def2:	4628      	mov	r0, r5
    def4:	f7ff f818 	bl	cf28 <_free_r>
    def8:	6be3      	ldr	r3, [r4, #60]	; 0x3c
    defa:	2000      	movs	r0, #0
    defc:	6063      	str	r3, [r4, #4]
    defe:	6320      	str	r0, [r4, #48]	; 0x30
    df00:	2b00      	cmp	r3, #0
    df02:	d13f      	bne.n	df84 <__srefill_r+0xd0>
    df04:	6923      	ldr	r3, [r4, #16]
    df06:	2b00      	cmp	r3, #0
    df08:	d04c      	beq.n	dfa4 <__srefill_r+0xf0>
    df0a:	89a6      	ldrh	r6, [r4, #12]
    df0c:	b2b7      	uxth	r7, r6
    df0e:	07bb      	lsls	r3, r7, #30
    df10:	d120      	bne.n	df54 <__srefill_r+0xa0>
    df12:	6922      	ldr	r2, [r4, #16]
    df14:	4628      	mov	r0, r5
    df16:	6022      	str	r2, [r4, #0]
    df18:	6a25      	ldr	r5, [r4, #32]
    df1a:	69e1      	ldr	r1, [r4, #28]
    df1c:	6963      	ldr	r3, [r4, #20]
    df1e:	47a8      	blx	r5
    df20:	2800      	cmp	r0, #0
    df22:	6060      	str	r0, [r4, #4]
    df24:	dd09      	ble.n	df3a <__srefill_r+0x86>
    df26:	2000      	movs	r0, #0
    df28:	bdf8      	pop	{r3, r4, r5, r6, r7, pc}
    df2a:	06d8      	lsls	r0, r3, #27
    df2c:	d53f      	bpl.n	dfae <__srefill_r+0xfa>
    df2e:	0719      	lsls	r1, r3, #28
    df30:	d42b      	bmi.n	df8a <__srefill_r+0xd6>
    df32:	f042 0204 	orr.w	r2, r2, #4
    df36:	81a2      	strh	r2, [r4, #12]
    df38:	e7e4      	b.n	df04 <__srefill_r+0x50>
    df3a:	d01c      	beq.n	df76 <__srefill_r+0xc2>
    df3c:	89a2      	ldrh	r2, [r4, #12]
    df3e:	2300      	movs	r3, #0
    df40:	f042 0240 	orr.w	r2, r2, #64	; 0x40
    df44:	81a2      	strh	r2, [r4, #12]
    df46:	6063      	str	r3, [r4, #4]
    df48:	f04f 30ff 	mov.w	r0, #4294967295
    df4c:	bdf8      	pop	{r3, r4, r5, r6, r7, pc}
    df4e:	f7fa fe8b 	bl	8c68 <__sinit>
    df52:	e7b6      	b.n	dec2 <__srefill_r+0xe>
    df54:	4a1a      	ldr	r2, [pc, #104]	; (dfc0 <__srefill_r+0x10c>)
    df56:	2301      	movs	r3, #1
    df58:	6810      	ldr	r0, [r2, #0]
    df5a:	81a3      	strh	r3, [r4, #12]
    df5c:	4919      	ldr	r1, [pc, #100]	; (dfc4 <__srefill_r+0x110>)
    df5e:	f007 0709 	and.w	r7, r7, #9
    df62:	f7fa ff5d 	bl	8e20 <_fwalk>
    df66:	2f09      	cmp	r7, #9
    df68:	81a6      	strh	r6, [r4, #12]
    df6a:	d1d2      	bne.n	df12 <__srefill_r+0x5e>
    df6c:	4628      	mov	r0, r5
    df6e:	4621      	mov	r1, r4
    df70:	f7fe fde6 	bl	cb40 <__sflush_r>
    df74:	e7cd      	b.n	df12 <__srefill_r+0x5e>
    df76:	89a3      	ldrh	r3, [r4, #12]
    df78:	f04f 30ff 	mov.w	r0, #4294967295
    df7c:	f043 0320 	orr.w	r3, r3, #32
    df80:	81a3      	strh	r3, [r4, #12]
    df82:	bdf8      	pop	{r3, r4, r5, r6, r7, pc}
    df84:	6ba3      	ldr	r3, [r4, #56]	; 0x38
    df86:	6023      	str	r3, [r4, #0]
    df88:	bdf8      	pop	{r3, r4, r5, r6, r7, pc}
    df8a:	4628      	mov	r0, r5
    df8c:	4621      	mov	r1, r4
    df8e:	f7fe fe7b 	bl	cc88 <_fflush_r>
    df92:	2800      	cmp	r0, #0
    df94:	d1d8      	bne.n	df48 <__srefill_r+0x94>
    df96:	89a2      	ldrh	r2, [r4, #12]
    df98:	60a0      	str	r0, [r4, #8]
    df9a:	f022 0208 	bic.w	r2, r2, #8
    df9e:	61a0      	str	r0, [r4, #24]
    dfa0:	b292      	uxth	r2, r2
    dfa2:	e7c6      	b.n	df32 <__srefill_r+0x7e>
    dfa4:	4628      	mov	r0, r5
    dfa6:	4621      	mov	r1, r4
    dfa8:	f7ff f8ec 	bl	d184 <__smakebuf_r>
    dfac:	e7ad      	b.n	df0a <__srefill_r+0x56>
    dfae:	f042 0240 	orr.w	r2, r2, #64	; 0x40
    dfb2:	2309      	movs	r3, #9
    dfb4:	602b      	str	r3, [r5, #0]
    dfb6:	f04f 30ff 	mov.w	r0, #4294967295
    dfba:	81a2      	strh	r2, [r4, #12]
    dfbc:	bdf8      	pop	{r3, r4, r5, r6, r7, pc}
    dfbe:	bf00      	nop
    dfc0:	00014b54 	.word	0x00014b54
    dfc4:	0000dea1 	.word	0x0000dea1

0000dfc8 <__fpclassifyd>:
    dfc8:	f031 4300 	bics.w	r3, r1, #2147483648	; 0x80000000
    dfcc:	b410      	push	{r4}
    dfce:	d008      	beq.n	dfe2 <__fpclassifyd+0x1a>
    dfd0:	4a0f      	ldr	r2, [pc, #60]	; (e010 <__fpclassifyd+0x48>)
    dfd2:	f5a3 1480 	sub.w	r4, r3, #1048576	; 0x100000
    dfd6:	4294      	cmp	r4, r2
    dfd8:	d80a      	bhi.n	dff0 <__fpclassifyd+0x28>
    dfda:	2004      	movs	r0, #4
    dfdc:	f85d 4b04 	ldr.w	r4, [sp], #4
    dfe0:	4770      	bx	lr
    dfe2:	2800      	cmp	r0, #0
    dfe4:	bf0c      	ite	eq
    dfe6:	2002      	moveq	r0, #2
    dfe8:	2003      	movne	r0, #3
    dfea:	f85d 4b04 	ldr.w	r4, [sp], #4
    dfee:	4770      	bx	lr
    dff0:	f5b3 1f80 	cmp.w	r3, #1048576	; 0x100000
    dff4:	d201      	bcs.n	dffa <__fpclassifyd+0x32>
    dff6:	2003      	movs	r0, #3
    dff8:	e7f7      	b.n	dfea <__fpclassifyd+0x22>
    dffa:	4a06      	ldr	r2, [pc, #24]	; (e014 <__fpclassifyd+0x4c>)
    dffc:	4293      	cmp	r3, r2
    dffe:	d001      	beq.n	e004 <__fpclassifyd+0x3c>
    e000:	2000      	movs	r0, #0
    e002:	e7f2      	b.n	dfea <__fpclassifyd+0x22>
    e004:	f1d0 0001 	rsbs	r0, r0, #1
    e008:	bf38      	it	cc
    e00a:	2000      	movcc	r0, #0
    e00c:	e7ed      	b.n	dfea <__fpclassifyd+0x22>
    e00e:	bf00      	nop
    e010:	7fdfffff 	.word	0x7fdfffff
    e014:	7ff00000 	.word	0x7ff00000

0000e018 <__sccl>:
    e018:	b470      	push	{r4, r5, r6}
    e01a:	780c      	ldrb	r4, [r1, #0]
    e01c:	2c5e      	cmp	r4, #94	; 0x5e
    e01e:	d02e      	beq.n	e07e <__sccl+0x66>
    e020:	2200      	movs	r2, #0
    e022:	1c4d      	adds	r5, r1, #1
    e024:	4616      	mov	r6, r2
    e026:	2300      	movs	r3, #0
    e028:	54c2      	strb	r2, [r0, r3]
    e02a:	3301      	adds	r3, #1
    e02c:	f5b3 7f80 	cmp.w	r3, #256	; 0x100
    e030:	d1fa      	bne.n	e028 <__sccl+0x10>
    e032:	b184      	cbz	r4, e056 <__sccl+0x3e>
    e034:	f086 0201 	eor.w	r2, r6, #1
    e038:	5502      	strb	r2, [r0, r4]
    e03a:	1c6e      	adds	r6, r5, #1
    e03c:	f816 3c01 	ldrb.w	r3, [r6, #-1]
    e040:	2b2d      	cmp	r3, #45	; 0x2d
    e042:	d00e      	beq.n	e062 <__sccl+0x4a>
    e044:	2b5d      	cmp	r3, #93	; 0x5d
    e046:	d009      	beq.n	e05c <__sccl+0x44>
    e048:	b113      	cbz	r3, e050 <__sccl+0x38>
    e04a:	461c      	mov	r4, r3
    e04c:	4635      	mov	r5, r6
    e04e:	e7f3      	b.n	e038 <__sccl+0x20>
    e050:	4628      	mov	r0, r5
    e052:	bc70      	pop	{r4, r5, r6}
    e054:	4770      	bx	lr
    e056:	1e68      	subs	r0, r5, #1
    e058:	bc70      	pop	{r4, r5, r6}
    e05a:	4770      	bx	lr
    e05c:	4630      	mov	r0, r6
    e05e:	bc70      	pop	{r4, r5, r6}
    e060:	4770      	bx	lr
    e062:	7869      	ldrb	r1, [r5, #1]
    e064:	295d      	cmp	r1, #93	; 0x5d
    e066:	d0f0      	beq.n	e04a <__sccl+0x32>
    e068:	428c      	cmp	r4, r1
    e06a:	dcee      	bgt.n	e04a <__sccl+0x32>
    e06c:	3502      	adds	r5, #2
    e06e:	1903      	adds	r3, r0, r4
    e070:	3401      	adds	r4, #1
    e072:	42a1      	cmp	r1, r4
    e074:	f803 2f01 	strb.w	r2, [r3, #1]!
    e078:	dcfa      	bgt.n	e070 <__sccl+0x58>
    e07a:	3602      	adds	r6, #2
    e07c:	e7de      	b.n	e03c <__sccl+0x24>
    e07e:	2201      	movs	r2, #1
    e080:	784c      	ldrb	r4, [r1, #1]
    e082:	4616      	mov	r6, r2
    e084:	1c8d      	adds	r5, r1, #2
    e086:	e7ce      	b.n	e026 <__sccl+0xe>

0000e088 <nanf>:
    e088:	4800      	ldr	r0, [pc, #0]	; (e08c <nanf+0x4>)
    e08a:	4770      	bx	lr
    e08c:	7fc00000 	.word	0x7fc00000

0000e090 <_sprintf_r>:
    e090:	b40c      	push	{r2, r3}
    e092:	b5f0      	push	{r4, r5, r6, r7, lr}
    e094:	b09d      	sub	sp, #116	; 0x74
    e096:	ac22      	add	r4, sp, #136	; 0x88
    e098:	f854 2b04 	ldr.w	r2, [r4], #4
    e09c:	460e      	mov	r6, r1
    e09e:	4623      	mov	r3, r4
    e0a0:	f44f 7e02 	mov.w	lr, #520	; 0x208
    e0a4:	f06f 4500 	mvn.w	r5, #2147483648	; 0x80000000
    e0a8:	f64f 77ff 	movw	r7, #65535	; 0xffff
    e0ac:	a902      	add	r1, sp, #8
    e0ae:	9602      	str	r6, [sp, #8]
    e0b0:	9606      	str	r6, [sp, #24]
    e0b2:	9401      	str	r4, [sp, #4]
    e0b4:	f8ad e014 	strh.w	lr, [sp, #20]
    e0b8:	9504      	str	r5, [sp, #16]
    e0ba:	9507      	str	r5, [sp, #28]
    e0bc:	f8ad 7016 	strh.w	r7, [sp, #22]
    e0c0:	f001 fbfe 	bl	f8c0 <_svfprintf_r>
    e0c4:	9b02      	ldr	r3, [sp, #8]
    e0c6:	2200      	movs	r2, #0
    e0c8:	701a      	strb	r2, [r3, #0]
    e0ca:	b01d      	add	sp, #116	; 0x74
    e0cc:	e8bd 40f0 	ldmia.w	sp!, {r4, r5, r6, r7, lr}
    e0d0:	b002      	add	sp, #8
    e0d2:	4770      	bx	lr

0000e0d4 <sprintf>:
    e0d4:	b40e      	push	{r1, r2, r3}
    e0d6:	b5f0      	push	{r4, r5, r6, r7, lr}
    e0d8:	b09c      	sub	sp, #112	; 0x70
    e0da:	ac21      	add	r4, sp, #132	; 0x84
    e0dc:	f854 2b04 	ldr.w	r2, [r4], #4
    e0e0:	490e      	ldr	r1, [pc, #56]	; (e11c <sprintf+0x48>)
    e0e2:	4606      	mov	r6, r0
    e0e4:	4623      	mov	r3, r4
    e0e6:	f44f 7e02 	mov.w	lr, #520	; 0x208
    e0ea:	f06f 4500 	mvn.w	r5, #2147483648	; 0x80000000
    e0ee:	6808      	ldr	r0, [r1, #0]
    e0f0:	f64f 77ff 	movw	r7, #65535	; 0xffff
    e0f4:	a902      	add	r1, sp, #8
    e0f6:	9602      	str	r6, [sp, #8]
    e0f8:	9606      	str	r6, [sp, #24]
    e0fa:	9401      	str	r4, [sp, #4]
    e0fc:	f8ad e014 	strh.w	lr, [sp, #20]
    e100:	9504      	str	r5, [sp, #16]
    e102:	9507      	str	r5, [sp, #28]
    e104:	f8ad 7016 	strh.w	r7, [sp, #22]
    e108:	f001 fbda 	bl	f8c0 <_svfprintf_r>
    e10c:	9b02      	ldr	r3, [sp, #8]
    e10e:	2200      	movs	r2, #0
    e110:	701a      	strb	r2, [r3, #0]
    e112:	b01c      	add	sp, #112	; 0x70
    e114:	e8bd 40f0 	ldmia.w	sp!, {r4, r5, r6, r7, lr}
    e118:	b003      	add	sp, #12
    e11a:	4770      	bx	lr
    e11c:	0001d5e8 	.word	0x0001d5e8

0000e120 <strcmp>:
    e120:	ea40 0c01 	orr.w	ip, r0, r1
    e124:	f01c 0f07 	tst.w	ip, #7
    e128:	d127      	bne.n	e17a <strcmp+0x5a>
    e12a:	f1bd 0d10 	subs.w	sp, sp, #16
    e12e:	e9cd 4502 	strd	r4, r5, [sp, #8]
    e132:	e9cd 6700 	strd	r6, r7, [sp]
    e136:	f06f 0600 	mvn.w	r6, #0
    e13a:	f04f 0700 	mov.w	r7, #0
    e13e:	bf00      	nop
    e140:	e8f0 2302 	ldrd	r2, r3, [r0], #8
    e144:	e8f1 4502 	ldrd	r4, r5, [r1], #8
    e148:	42a2      	cmp	r2, r4
    e14a:	f1a2 3c01 	sub.w	ip, r2, #16843009	; 0x1010101
    e14e:	ea2c 0c02 	bic.w	ip, ip, r2
    e152:	f00c 3c80 	and.w	ip, ip, #2155905152	; 0x80808080
    e156:	bf08      	it	eq
    e158:	f1bc 0f00 	cmpeq.w	ip, #0
    e15c:	f040 80e5 	bne.w	e32a <strcmp+0x20a>
    e160:	42ab      	cmp	r3, r5
    e162:	f1a3 3c01 	sub.w	ip, r3, #16843009	; 0x1010101
    e166:	ea2c 0c03 	bic.w	ip, ip, r3
    e16a:	f00c 3c80 	and.w	ip, ip, #2155905152	; 0x80808080
    e16e:	bf08      	it	eq
    e170:	f1bc 0f00 	cmpeq.w	ip, #0
    e174:	f040 80d6 	bne.w	e324 <strcmp+0x204>
    e178:	e7e2      	b.n	e140 <strcmp+0x20>
    e17a:	f010 0c03 	ands.w	ip, r0, #3
    e17e:	d021      	beq.n	e1c4 <strcmp+0xa4>
    e180:	f020 0003 	bic.w	r0, r0, #3
    e184:	f850 2b04 	ldr.w	r2, [r0], #4
    e188:	ea5f 7ccc 	movs.w	ip, ip, lsl #31
    e18c:	d008      	beq.n	e1a0 <strcmp+0x80>
    e18e:	d20f      	bcs.n	e1b0 <strcmp+0x90>
    e190:	f811 cb01 	ldrb.w	ip, [r1], #1
    e194:	fa5f f392 	uxtb.w	r3, r2, ror #8
    e198:	ebb3 0c0c 	subs.w	ip, r3, ip
    e19c:	d110      	bne.n	e1c0 <strcmp+0xa0>
    e19e:	b17b      	cbz	r3, e1c0 <strcmp+0xa0>
    e1a0:	f811 cb01 	ldrb.w	ip, [r1], #1
    e1a4:	fa5f f3a2 	uxtb.w	r3, r2, ror #16
    e1a8:	ebb3 0c0c 	subs.w	ip, r3, ip
    e1ac:	d108      	bne.n	e1c0 <strcmp+0xa0>
    e1ae:	b13b      	cbz	r3, e1c0 <strcmp+0xa0>
    e1b0:	f811 cb01 	ldrb.w	ip, [r1], #1
    e1b4:	fa5f f3b2 	uxtb.w	r3, r2, ror #24
    e1b8:	ebb3 0c0c 	subs.w	ip, r3, ip
    e1bc:	d100      	bne.n	e1c0 <strcmp+0xa0>
    e1be:	b90b      	cbnz	r3, e1c4 <strcmp+0xa4>
    e1c0:	4660      	mov	r0, ip
    e1c2:	4770      	bx	lr
    e1c4:	f1bd 0d10 	subs.w	sp, sp, #16
    e1c8:	e9cd 4502 	strd	r4, r5, [sp, #8]
    e1cc:	e9cd 6700 	strd	r6, r7, [sp]
    e1d0:	f06f 0600 	mvn.w	r6, #0
    e1d4:	f04f 0700 	mov.w	r7, #0
    e1d8:	f011 0c03 	ands.w	ip, r1, #3
    e1dc:	d133      	bne.n	e246 <strcmp+0x126>
    e1de:	f010 0f04 	tst.w	r0, #4
    e1e2:	d00f      	beq.n	e204 <strcmp+0xe4>
    e1e4:	f850 2b04 	ldr.w	r2, [r0], #4
    e1e8:	f851 4b04 	ldr.w	r4, [r1], #4
    e1ec:	42a2      	cmp	r2, r4
    e1ee:	f1a2 3c01 	sub.w	ip, r2, #16843009	; 0x1010101
    e1f2:	ea2c 0c02 	bic.w	ip, ip, r2
    e1f6:	f00c 3c80 	and.w	ip, ip, #2155905152	; 0x80808080
    e1fa:	bf08      	it	eq
    e1fc:	f1bc 0f00 	cmpeq.w	ip, #0
    e200:	f040 8093 	bne.w	e32a <strcmp+0x20a>
    e204:	f011 0f04 	tst.w	r1, #4
    e208:	d099      	beq.n	e13e <strcmp+0x1e>
    e20a:	f851 5b04 	ldr.w	r5, [r1], #4
    e20e:	bf00      	nop
    e210:	e8f0 2302 	ldrd	r2, r3, [r0], #8
    e214:	42aa      	cmp	r2, r5
    e216:	f1a2 3c01 	sub.w	ip, r2, #16843009	; 0x1010101
    e21a:	ea2c 0c02 	bic.w	ip, ip, r2
    e21e:	f00c 3c80 	and.w	ip, ip, #2155905152	; 0x80808080
    e222:	bf08      	it	eq
    e224:	f1bc 0f00 	cmpeq.w	ip, #0
    e228:	d179      	bne.n	e31e <strcmp+0x1fe>
    e22a:	e8f1 4502 	ldrd	r4, r5, [r1], #8
    e22e:	42a3      	cmp	r3, r4
    e230:	f1a3 3c01 	sub.w	ip, r3, #16843009	; 0x1010101
    e234:	ea2c 0c03 	bic.w	ip, ip, r3
    e238:	f00c 3c80 	and.w	ip, ip, #2155905152	; 0x80808080
    e23c:	bf08      	it	eq
    e23e:	f1bc 0f00 	cmpeq.w	ip, #0
    e242:	d169      	bne.n	e318 <strcmp+0x1f8>
    e244:	e7e4      	b.n	e210 <strcmp+0xf0>
    e246:	f021 0103 	bic.w	r1, r1, #3
    e24a:	f1bc 0f02 	cmp.w	ip, #2
    e24e:	d020      	beq.n	e292 <strcmp+0x172>
    e250:	da3f      	bge.n	e2d2 <strcmp+0x1b2>
    e252:	f851 5b04 	ldr.w	r5, [r1], #4
    e256:	bf00      	nop
    e258:	f850 3b04 	ldr.w	r3, [r0], #4
    e25c:	ea4f 2515 	mov.w	r5, r5, lsr #8
    e260:	f1a3 3c01 	sub.w	ip, r3, #16843009	; 0x1010101
    e264:	ea2c 0c03 	bic.w	ip, ip, r3
    e268:	f00c 3c80 	and.w	ip, ip, #2155905152	; 0x80808080
    e26c:	ebb7 2f0c 	cmp.w	r7, ip, lsl #8
    e270:	ea03 2216 	and.w	r2, r3, r6, lsr #8
    e274:	bf08      	it	eq
    e276:	42aa      	cmpeq	r2, r5
    e278:	d151      	bne.n	e31e <strcmp+0x1fe>
    e27a:	f851 5b04 	ldr.w	r5, [r1], #4
    e27e:	f1bc 0f00 	cmp.w	ip, #0
    e282:	ea82 0303 	eor.w	r3, r2, r3
    e286:	ea4f 6205 	mov.w	r2, r5, lsl #24
    e28a:	bf08      	it	eq
    e28c:	4293      	cmpeq	r3, r2
    e28e:	d140      	bne.n	e312 <strcmp+0x1f2>
    e290:	e7e2      	b.n	e258 <strcmp+0x138>
    e292:	f851 5b04 	ldr.w	r5, [r1], #4
    e296:	bf00      	nop
    e298:	f850 3b04 	ldr.w	r3, [r0], #4
    e29c:	ea4f 4515 	mov.w	r5, r5, lsr #16
    e2a0:	f1a3 3c01 	sub.w	ip, r3, #16843009	; 0x1010101
    e2a4:	ea2c 0c03 	bic.w	ip, ip, r3
    e2a8:	f00c 3c80 	and.w	ip, ip, #2155905152	; 0x80808080
    e2ac:	ebb7 4f0c 	cmp.w	r7, ip, lsl #16
    e2b0:	ea03 4216 	and.w	r2, r3, r6, lsr #16
    e2b4:	bf08      	it	eq
    e2b6:	42aa      	cmpeq	r2, r5
    e2b8:	d131      	bne.n	e31e <strcmp+0x1fe>
    e2ba:	f851 5b04 	ldr.w	r5, [r1], #4
    e2be:	f1bc 0f00 	cmp.w	ip, #0
    e2c2:	ea82 0303 	eor.w	r3, r2, r3
    e2c6:	ea4f 4205 	mov.w	r2, r5, lsl #16
    e2ca:	bf08      	it	eq
    e2cc:	4293      	cmpeq	r3, r2
    e2ce:	d120      	bne.n	e312 <strcmp+0x1f2>
    e2d0:	e7e2      	b.n	e298 <strcmp+0x178>
    e2d2:	f851 5b04 	ldr.w	r5, [r1], #4
    e2d6:	bf00      	nop
    e2d8:	f850 3b04 	ldr.w	r3, [r0], #4
    e2dc:	ea4f 6515 	mov.w	r5, r5, lsr #24
    e2e0:	f1a3 3c01 	sub.w	ip, r3, #16843009	; 0x1010101
    e2e4:	ea2c 0c03 	bic.w	ip, ip, r3
    e2e8:	f00c 3c80 	and.w	ip, ip, #2155905152	; 0x80808080
    e2ec:	ebb7 6f0c 	cmp.w	r7, ip, lsl #24
    e2f0:	ea03 6216 	and.w	r2, r3, r6, lsr #24
    e2f4:	bf08      	it	eq
    e2f6:	42aa      	cmpeq	r2, r5
    e2f8:	d111      	bne.n	e31e <strcmp+0x1fe>
    e2fa:	f851 5b04 	ldr.w	r5, [r1], #4
    e2fe:	f1bc 0f00 	cmp.w	ip, #0
    e302:	ea82 0303 	eor.w	r3, r2, r3
    e306:	ea4f 2205 	mov.w	r2, r5, lsl #8
    e30a:	bf08      	it	eq
    e30c:	4293      	cmpeq	r3, r2
    e30e:	d100      	bne.n	e312 <strcmp+0x1f2>
    e310:	e7e2      	b.n	e2d8 <strcmp+0x1b8>
    e312:	ba19      	rev	r1, r3
    e314:	ba12      	rev	r2, r2
    e316:	e00a      	b.n	e32e <strcmp+0x20e>
    e318:	ba19      	rev	r1, r3
    e31a:	ba22      	rev	r2, r4
    e31c:	e007      	b.n	e32e <strcmp+0x20e>
    e31e:	ba11      	rev	r1, r2
    e320:	ba2a      	rev	r2, r5
    e322:	e004      	b.n	e32e <strcmp+0x20e>
    e324:	ba19      	rev	r1, r3
    e326:	ba2a      	rev	r2, r5
    e328:	e001      	b.n	e32e <strcmp+0x20e>
    e32a:	ba11      	rev	r1, r2
    e32c:	ba22      	rev	r2, r4
    e32e:	fa9c f08c 	rev.w	r0, ip
    e332:	e9dd 6700 	ldrd	r6, r7, [sp]
    e336:	e9dd 4502 	ldrd	r4, r5, [sp, #8]
    e33a:	f11d 0d10 	adds.w	sp, sp, #16
    e33e:	b138      	cbz	r0, e350 <strcmp+0x230>
    e340:	fab0 f080 	clz	r0, r0
    e344:	f1c0 0018 	rsb	r0, r0, #24
    e348:	fa21 f100 	lsr.w	r1, r1, r0
    e34c:	fa22 f200 	lsr.w	r2, r2, r0
    e350:	2001      	movs	r0, #1
    e352:	4291      	cmp	r1, r2
    e354:	bf98      	it	ls
    e356:	4180      	sbcls	r0, r0
    e358:	4770      	bx	lr
    e35a:	bf00      	nop

0000e35c <sulp>:
    e35c:	e92d 41f0 	stmdb	sp!, {r4, r5, r6, r7, r8, lr}
    e360:	460d      	mov	r5, r1
    e362:	4690      	mov	r8, r2
    e364:	f7ff fbc2 	bl	daec <__ulp>
    e368:	4606      	mov	r6, r0
    e36a:	460f      	mov	r7, r1
    e36c:	f1b8 0f00 	cmp.w	r8, #0
    e370:	d00f      	beq.n	e392 <sulp+0x36>
    e372:	f3c5 530a 	ubfx	r3, r5, #20, #11
    e376:	f1c3 036b 	rsb	r3, r3, #107	; 0x6b
    e37a:	2b00      	cmp	r3, #0
    e37c:	dd09      	ble.n	e392 <sulp+0x36>
    e37e:	051c      	lsls	r4, r3, #20
    e380:	f104 537f 	add.w	r3, r4, #1069547520	; 0x3fc00000
    e384:	f503 1340 	add.w	r3, r3, #3145728	; 0x300000
    e388:	2200      	movs	r2, #0
    e38a:	f005 fdc7 	bl	13f1c <__aeabi_dmul>
    e38e:	e8bd 81f0 	ldmia.w	sp!, {r4, r5, r6, r7, r8, pc}
    e392:	4630      	mov	r0, r6
    e394:	4639      	mov	r1, r7
    e396:	e8bd 81f0 	ldmia.w	sp!, {r4, r5, r6, r7, r8, pc}
    e39a:	bf00      	nop
    e39c:	0000      	movs	r0, r0
	...

0000e3a0 <_strtod_r>:
    e3a0:	e92d 4ff0 	stmdb	sp!, {r4, r5, r6, r7, r8, r9, sl, fp, lr}
    e3a4:	b09f      	sub	sp, #124	; 0x7c
    e3a6:	460d      	mov	r5, r1
    e3a8:	9119      	str	r1, [sp, #100]	; 0x64
    e3aa:	4683      	mov	fp, r0
    e3ac:	9205      	str	r2, [sp, #20]
    e3ae:	2000      	movs	r0, #0
    e3b0:	460a      	mov	r2, r1
    e3b2:	2100      	movs	r1, #0
    e3b4:	e9cd 0102 	strd	r0, r1, [sp, #8]
    e3b8:	2300      	movs	r3, #0
    e3ba:	931a      	str	r3, [sp, #104]	; 0x68
    e3bc:	4616      	mov	r6, r2
    e3be:	f812 4b01 	ldrb.w	r4, [r2], #1
    e3c2:	2c2d      	cmp	r4, #45	; 0x2d
    e3c4:	f200 8158 	bhi.w	e678 <_strtod_r+0x2d8>
    e3c8:	e8df f014 	tbh	[pc, r4, lsl #1]
    e3cc:	01560039 	.word	0x01560039
    e3d0:	01560156 	.word	0x01560156
    e3d4:	01560156 	.word	0x01560156
    e3d8:	01560156 	.word	0x01560156
    e3dc:	007c0156 	.word	0x007c0156
    e3e0:	007c007c 	.word	0x007c007c
    e3e4:	007c007c 	.word	0x007c007c
    e3e8:	01560156 	.word	0x01560156
    e3ec:	01560156 	.word	0x01560156
    e3f0:	01560156 	.word	0x01560156
    e3f4:	01560156 	.word	0x01560156
    e3f8:	01560156 	.word	0x01560156
    e3fc:	01560156 	.word	0x01560156
    e400:	01560156 	.word	0x01560156
    e404:	01560156 	.word	0x01560156
    e408:	01560156 	.word	0x01560156
    e40c:	0156007c 	.word	0x0156007c
    e410:	01560156 	.word	0x01560156
    e414:	01560156 	.word	0x01560156
    e418:	01560156 	.word	0x01560156
    e41c:	01560156 	.word	0x01560156
    e420:	004d0156 	.word	0x004d0156
    e424:	007e0156 	.word	0x007e0156
    e428:	2300      	movs	r3, #0
    e42a:	2101      	movs	r1, #1
    e42c:	469a      	mov	sl, r3
    e42e:	910b      	str	r1, [sp, #44]	; 0x2c
    e430:	2800      	cmp	r0, #0
    e432:	f040 8151 	bne.w	e6d8 <_strtod_r+0x338>
    e436:	9a0a      	ldr	r2, [sp, #40]	; 0x28
    e438:	2a00      	cmp	r2, #0
    e43a:	f040 814d 	bne.w	e6d8 <_strtod_r+0x338>
    e43e:	2000      	movs	r0, #0
    e440:	f04f 0800 	mov.w	r8, #0
    e444:	f04f 0900 	mov.w	r9, #0
    e448:	9519      	str	r5, [sp, #100]	; 0x64
    e44a:	9007      	str	r0, [sp, #28]
    e44c:	9905      	ldr	r1, [sp, #20]
    e44e:	b109      	cbz	r1, e454 <_strtod_r+0xb4>
    e450:	9b19      	ldr	r3, [sp, #100]	; 0x64
    e452:	600b      	str	r3, [r1, #0]
    e454:	9a07      	ldr	r2, [sp, #28]
    e456:	2a00      	cmp	r2, #0
    e458:	f040 809e 	bne.w	e598 <_strtod_r+0x1f8>
    e45c:	4640      	mov	r0, r8
    e45e:	4649      	mov	r1, r9
    e460:	b01f      	add	sp, #124	; 0x7c
    e462:	e8bd 8ff0 	ldmia.w	sp!, {r4, r5, r6, r7, r8, r9, sl, fp, pc}
    e466:	2300      	movs	r3, #0
    e468:	9307      	str	r3, [sp, #28]
    e46a:	1c73      	adds	r3, r6, #1
    e46c:	9319      	str	r3, [sp, #100]	; 0x64
    e46e:	7874      	ldrb	r4, [r6, #1]
    e470:	2c00      	cmp	r4, #0
    e472:	d0e4      	beq.n	e43e <_strtod_r+0x9e>
    e474:	2c30      	cmp	r4, #48	; 0x30
    e476:	461e      	mov	r6, r3
    e478:	f000 8103 	beq.w	e682 <_strtod_r+0x2e2>
    e47c:	2300      	movs	r3, #0
    e47e:	9606      	str	r6, [sp, #24]
    e480:	930a      	str	r3, [sp, #40]	; 0x28
    e482:	f1a4 0330 	sub.w	r3, r4, #48	; 0x30
    e486:	2700      	movs	r7, #0
    e488:	2b09      	cmp	r3, #9
    e48a:	46b9      	mov	r9, r7
    e48c:	463e      	mov	r6, r7
    e48e:	d81e      	bhi.n	e4ce <_strtod_r+0x12e>
    e490:	9806      	ldr	r0, [sp, #24]
    e492:	1c43      	adds	r3, r0, #1
    e494:	e00e      	b.n	e4b4 <_strtod_r+0x114>
    e496:	eb09 0989 	add.w	r9, r9, r9, lsl #2
    e49a:	eb04 0949 	add.w	r9, r4, r9, lsl #1
    e49e:	f1a9 0930 	sub.w	r9, r9, #48	; 0x30
    e4a2:	9319      	str	r3, [sp, #100]	; 0x64
    e4a4:	4698      	mov	r8, r3
    e4a6:	f813 4b01 	ldrb.w	r4, [r3], #1
    e4aa:	3601      	adds	r6, #1
    e4ac:	f1a4 0230 	sub.w	r2, r4, #48	; 0x30
    e4b0:	2a09      	cmp	r2, #9
    e4b2:	d80e      	bhi.n	e4d2 <_strtod_r+0x132>
    e4b4:	2e08      	cmp	r6, #8
    e4b6:	ddee      	ble.n	e496 <_strtod_r+0xf6>
    e4b8:	eb07 0787 	add.w	r7, r7, r7, lsl #2
    e4bc:	eb04 0747 	add.w	r7, r4, r7, lsl #1
    e4c0:	3f30      	subs	r7, #48	; 0x30
    e4c2:	e7ee      	b.n	e4a2 <_strtod_r+0x102>
    e4c4:	9219      	str	r2, [sp, #100]	; 0x64
    e4c6:	e779      	b.n	e3bc <_strtod_r+0x1c>
    e4c8:	2201      	movs	r2, #1
    e4ca:	9207      	str	r2, [sp, #28]
    e4cc:	e7cd      	b.n	e46a <_strtod_r+0xca>
    e4ce:	f8dd 8018 	ldr.w	r8, [sp, #24]
    e4d2:	4658      	mov	r0, fp
    e4d4:	f7fe fe32 	bl	d13c <_localeconv_r>
    e4d8:	f8d0 a000 	ldr.w	sl, [r0]
    e4dc:	4658      	mov	r0, fp
    e4de:	f7fe fe2d 	bl	d13c <_localeconv_r>
    e4e2:	6800      	ldr	r0, [r0, #0]
    e4e4:	f7fb f824 	bl	9530 <strlen>
    e4e8:	4651      	mov	r1, sl
    e4ea:	4602      	mov	r2, r0
    e4ec:	4640      	mov	r0, r8
    e4ee:	f004 fc0f 	bl	12d10 <strncmp>
    e4f2:	4680      	mov	r8, r0
    e4f4:	2800      	cmp	r0, #0
    e4f6:	f000 8146 	beq.w	e786 <_strtod_r+0x3e6>
    e4fa:	2000      	movs	r0, #0
    e4fc:	4603      	mov	r3, r0
    e4fe:	900b      	str	r0, [sp, #44]	; 0x2c
    e500:	46b2      	mov	sl, r6
    e502:	f024 0220 	bic.w	r2, r4, #32
    e506:	2a45      	cmp	r2, #69	; 0x45
    e508:	f000 80e2 	beq.w	e6d0 <_strtod_r+0x330>
    e50c:	2100      	movs	r1, #0
    e50e:	f1ba 0f00 	cmp.w	sl, #0
    e512:	d055      	beq.n	e5c0 <_strtod_r+0x220>
    e514:	1acb      	subs	r3, r1, r3
    e516:	4648      	mov	r0, r9
    e518:	9308      	str	r3, [sp, #32]
    e51a:	f005 fc89 	bl	13e30 <__aeabi_ui2d>
    e51e:	f1ba 0f10 	cmp.w	sl, #16
    e522:	bfb4      	ite	lt
    e524:	46d0      	movlt	r8, sl
    e526:	f04f 0810 	movge.w	r8, #16
    e52a:	2e00      	cmp	r6, #0
    e52c:	bf08      	it	eq
    e52e:	4656      	moveq	r6, sl
    e530:	f1b8 0f09 	cmp.w	r8, #9
    e534:	e9cd 0102 	strd	r0, r1, [sp, #8]
    e538:	dd13      	ble.n	e562 <_strtod_r+0x1c2>
    e53a:	4ba0      	ldr	r3, [pc, #640]	; (e7bc <_strtod_r+0x41c>)
    e53c:	eb03 03c8 	add.w	r3, r3, r8, lsl #3
    e540:	e953 2312 	ldrd	r2, r3, [r3, #-72]	; 0x48
    e544:	f005 fcea 	bl	13f1c <__aeabi_dmul>
    e548:	4604      	mov	r4, r0
    e54a:	4638      	mov	r0, r7
    e54c:	460d      	mov	r5, r1
    e54e:	f005 fc6f 	bl	13e30 <__aeabi_ui2d>
    e552:	4602      	mov	r2, r0
    e554:	460b      	mov	r3, r1
    e556:	4620      	mov	r0, r4
    e558:	4629      	mov	r1, r5
    e55a:	f005 fb2d 	bl	13bb8 <__adddf3>
    e55e:	e9cd 0102 	strd	r0, r1, [sp, #8]
    e562:	f1ba 0f0f 	cmp.w	sl, #15
    e566:	f300 812b 	bgt.w	e7c0 <_strtod_r+0x420>
    e56a:	9908      	ldr	r1, [sp, #32]
    e56c:	2900      	cmp	r1, #0
    e56e:	f000 80ac 	beq.w	e6ca <_strtod_r+0x32a>
    e572:	f340 8581 	ble.w	f078 <_strtod_r+0xcd8>
    e576:	9a08      	ldr	r2, [sp, #32]
    e578:	2a16      	cmp	r2, #22
    e57a:	f300 84f1 	bgt.w	ef60 <_strtod_r+0xbc0>
    e57e:	e9dd 2302 	ldrd	r2, r3, [sp, #8]
    e582:	498e      	ldr	r1, [pc, #568]	; (e7bc <_strtod_r+0x41c>)
    e584:	9808      	ldr	r0, [sp, #32]
    e586:	eb01 0ac0 	add.w	sl, r1, r0, lsl #3
    e58a:	e9da 0100 	ldrd	r0, r1, [sl]
    e58e:	f005 fcc5 	bl	13f1c <__aeabi_dmul>
    e592:	4680      	mov	r8, r0
    e594:	4689      	mov	r9, r1
    e596:	e759      	b.n	e44c <_strtod_r+0xac>
    e598:	4640      	mov	r0, r8
    e59a:	f109 4100 	add.w	r1, r9, #2147483648	; 0x80000000
    e59e:	b01f      	add	sp, #124	; 0x7c
    e5a0:	e8bd 8ff0 	ldmia.w	sp!, {r4, r5, r6, r7, r8, r9, sl, fp, pc}
    e5a4:	4633      	mov	r3, r6
    e5a6:	f1a4 0231 	sub.w	r2, r4, #49	; 0x31
    e5aa:	2a08      	cmp	r2, #8
    e5ac:	f240 833d 	bls.w	ec2a <_strtod_r+0x88a>
    e5b0:	f024 0220 	bic.w	r2, r4, #32
    e5b4:	2a45      	cmp	r2, #69	; 0x45
    e5b6:	4618      	mov	r0, r3
    e5b8:	f43f af36 	beq.w	e428 <_strtod_r+0x88>
    e5bc:	2101      	movs	r1, #1
    e5be:	910b      	str	r1, [sp, #44]	; 0x2c
    e5c0:	2800      	cmp	r0, #0
    e5c2:	d171      	bne.n	e6a8 <_strtod_r+0x308>
    e5c4:	9b0a      	ldr	r3, [sp, #40]	; 0x28
    e5c6:	2b00      	cmp	r3, #0
    e5c8:	d16e      	bne.n	e6a8 <_strtod_r+0x308>
    e5ca:	980b      	ldr	r0, [sp, #44]	; 0x2c
    e5cc:	2800      	cmp	r0, #0
    e5ce:	f47f af36 	bne.w	e43e <_strtod_r+0x9e>
    e5d2:	3c49      	subs	r4, #73	; 0x49
    e5d4:	2c25      	cmp	r4, #37	; 0x25
    e5d6:	f63f af32 	bhi.w	e43e <_strtod_r+0x9e>
    e5da:	a101      	add	r1, pc, #4	; (adr r1, e5e0 <_strtod_r+0x240>)
    e5dc:	f851 f024 	ldr.w	pc, [r1, r4, lsl #2]
    e5e0:	0000eca5 	.word	0x0000eca5
    e5e4:	0000e43f 	.word	0x0000e43f
    e5e8:	0000e43f 	.word	0x0000e43f
    e5ec:	0000e43f 	.word	0x0000e43f
    e5f0:	0000e43f 	.word	0x0000e43f
    e5f4:	0000ec6d 	.word	0x0000ec6d
    e5f8:	0000e43f 	.word	0x0000e43f
    e5fc:	0000e43f 	.word	0x0000e43f
    e600:	0000e43f 	.word	0x0000e43f
    e604:	0000e43f 	.word	0x0000e43f
    e608:	0000e43f 	.word	0x0000e43f
    e60c:	0000e43f 	.word	0x0000e43f
    e610:	0000e43f 	.word	0x0000e43f
    e614:	0000e43f 	.word	0x0000e43f
    e618:	0000e43f 	.word	0x0000e43f
    e61c:	0000e43f 	.word	0x0000e43f
    e620:	0000e43f 	.word	0x0000e43f
    e624:	0000e43f 	.word	0x0000e43f
    e628:	0000e43f 	.word	0x0000e43f
    e62c:	0000e43f 	.word	0x0000e43f
    e630:	0000e43f 	.word	0x0000e43f
    e634:	0000e43f 	.word	0x0000e43f
    e638:	0000e43f 	.word	0x0000e43f
    e63c:	0000e43f 	.word	0x0000e43f
    e640:	0000e43f 	.word	0x0000e43f
    e644:	0000e43f 	.word	0x0000e43f
    e648:	0000e43f 	.word	0x0000e43f
    e64c:	0000e43f 	.word	0x0000e43f
    e650:	0000e43f 	.word	0x0000e43f
    e654:	0000e43f 	.word	0x0000e43f
    e658:	0000e43f 	.word	0x0000e43f
    e65c:	0000e43f 	.word	0x0000e43f
    e660:	0000eca5 	.word	0x0000eca5
    e664:	0000e43f 	.word	0x0000e43f
    e668:	0000e43f 	.word	0x0000e43f
    e66c:	0000e43f 	.word	0x0000e43f
    e670:	0000e43f 	.word	0x0000e43f
    e674:	0000ec6d 	.word	0x0000ec6d
    e678:	2000      	movs	r0, #0
    e67a:	2c30      	cmp	r4, #48	; 0x30
    e67c:	9007      	str	r0, [sp, #28]
    e67e:	f47f aefd 	bne.w	e47c <_strtod_r+0xdc>
    e682:	7873      	ldrb	r3, [r6, #1]
    e684:	2b58      	cmp	r3, #88	; 0x58
    e686:	f000 8337 	beq.w	ecf8 <_strtod_r+0x958>
    e68a:	2b78      	cmp	r3, #120	; 0x78
    e68c:	f000 8334 	beq.w	ecf8 <_strtod_r+0x958>
    e690:	3601      	adds	r6, #1
    e692:	9619      	str	r6, [sp, #100]	; 0x64
    e694:	4633      	mov	r3, r6
    e696:	f816 4b01 	ldrb.w	r4, [r6], #1
    e69a:	2c30      	cmp	r4, #48	; 0x30
    e69c:	d0f9      	beq.n	e692 <_strtod_r+0x2f2>
    e69e:	b11c      	cbz	r4, e6a8 <_strtod_r+0x308>
    e6a0:	9306      	str	r3, [sp, #24]
    e6a2:	2301      	movs	r3, #1
    e6a4:	930a      	str	r3, [sp, #40]	; 0x28
    e6a6:	e6ec      	b.n	e482 <_strtod_r+0xe2>
    e6a8:	f04f 0800 	mov.w	r8, #0
    e6ac:	f04f 0900 	mov.w	r9, #0
    e6b0:	e6cc      	b.n	e44c <_strtod_r+0xac>
    e6b2:	f06f 4300 	mvn.w	r3, #2147483648	; 0x80000000
    e6b6:	f04f 30ff 	mov.w	r0, #4294967295
    e6ba:	9303      	str	r3, [sp, #12]
    e6bc:	9002      	str	r0, [sp, #8]
    e6be:	0722      	lsls	r2, r4, #28
    e6c0:	bf42      	ittt	mi
    e6c2:	9903      	ldrmi	r1, [sp, #12]
    e6c4:	f041 4100 	orrmi.w	r1, r1, #2147483648	; 0x80000000
    e6c8:	9103      	strmi	r1, [sp, #12]
    e6ca:	e9dd 8902 	ldrd	r8, r9, [sp, #8]
    e6ce:	e6bd      	b.n	e44c <_strtod_r+0xac>
    e6d0:	f1ba 0f00 	cmp.w	sl, #0
    e6d4:	f43f aeac 	beq.w	e430 <_strtod_r+0x90>
    e6d8:	9d19      	ldr	r5, [sp, #100]	; 0x64
    e6da:	1c6a      	adds	r2, r5, #1
    e6dc:	9219      	str	r2, [sp, #100]	; 0x64
    e6de:	786c      	ldrb	r4, [r5, #1]
    e6e0:	2c2b      	cmp	r4, #43	; 0x2b
    e6e2:	f000 824b 	beq.w	eb7c <_strtod_r+0x7dc>
    e6e6:	2c2d      	cmp	r4, #45	; 0x2d
    e6e8:	f040 8245 	bne.w	eb76 <_strtod_r+0x7d6>
    e6ec:	2101      	movs	r1, #1
    e6ee:	9108      	str	r1, [sp, #32]
    e6f0:	1caa      	adds	r2, r5, #2
    e6f2:	9219      	str	r2, [sp, #100]	; 0x64
    e6f4:	78ac      	ldrb	r4, [r5, #2]
    e6f6:	f1a4 0230 	sub.w	r2, r4, #48	; 0x30
    e6fa:	2a09      	cmp	r2, #9
    e6fc:	f200 81e5 	bhi.w	eaca <_strtod_r+0x72a>
    e700:	2c30      	cmp	r4, #48	; 0x30
    e702:	d106      	bne.n	e712 <_strtod_r+0x372>
    e704:	9a19      	ldr	r2, [sp, #100]	; 0x64
    e706:	3201      	adds	r2, #1
    e708:	9219      	str	r2, [sp, #100]	; 0x64
    e70a:	f812 4b01 	ldrb.w	r4, [r2], #1
    e70e:	2c30      	cmp	r4, #48	; 0x30
    e710:	d0fa      	beq.n	e708 <_strtod_r+0x368>
    e712:	f1a4 0231 	sub.w	r2, r4, #49	; 0x31
    e716:	2a08      	cmp	r2, #8
    e718:	f63f aef8 	bhi.w	e50c <_strtod_r+0x16c>
    e71c:	9a19      	ldr	r2, [sp, #100]	; 0x64
    e71e:	f1a4 0130 	sub.w	r1, r4, #48	; 0x30
    e722:	f102 0801 	add.w	r8, r2, #1
    e726:	f8cd 8064 	str.w	r8, [sp, #100]	; 0x64
    e72a:	7854      	ldrb	r4, [r2, #1]
    e72c:	920e      	str	r2, [sp, #56]	; 0x38
    e72e:	f1a4 0230 	sub.w	r2, r4, #48	; 0x30
    e732:	2a09      	cmp	r2, #9
    e734:	d811      	bhi.n	e75a <_strtod_r+0x3ba>
    e736:	9a0e      	ldr	r2, [sp, #56]	; 0x38
    e738:	f102 0c02 	add.w	ip, r2, #2
    e73c:	4662      	mov	r2, ip
    e73e:	eb01 0181 	add.w	r1, r1, r1, lsl #2
    e742:	9219      	str	r2, [sp, #100]	; 0x64
    e744:	eb04 0141 	add.w	r1, r4, r1, lsl #1
    e748:	4690      	mov	r8, r2
    e74a:	f812 4b01 	ldrb.w	r4, [r2], #1
    e74e:	3930      	subs	r1, #48	; 0x30
    e750:	f1a4 0c30 	sub.w	ip, r4, #48	; 0x30
    e754:	f1bc 0f09 	cmp.w	ip, #9
    e758:	d9f1      	bls.n	e73e <_strtod_r+0x39e>
    e75a:	9a0e      	ldr	r2, [sp, #56]	; 0x38
    e75c:	ebc2 0808 	rsb	r8, r2, r8
    e760:	f1b8 0f08 	cmp.w	r8, #8
    e764:	f300 83f4 	bgt.w	ef50 <_strtod_r+0xbb0>
    e768:	f644 621f 	movw	r2, #19999	; 0x4e1f
    e76c:	4291      	cmp	r1, r2
    e76e:	bfa8      	it	ge
    e770:	4611      	movge	r1, r2
    e772:	9a08      	ldr	r2, [sp, #32]
    e774:	2a00      	cmp	r2, #0
    e776:	f43f aeca 	beq.w	e50e <_strtod_r+0x16e>
    e77a:	4249      	negs	r1, r1
    e77c:	f1ba 0f00 	cmp.w	sl, #0
    e780:	f47f aec8 	bne.w	e514 <_strtod_r+0x174>
    e784:	e71c      	b.n	e5c0 <_strtod_r+0x220>
    e786:	4658      	mov	r0, fp
    e788:	9c19      	ldr	r4, [sp, #100]	; 0x64
    e78a:	f7fe fcd7 	bl	d13c <_localeconv_r>
    e78e:	6800      	ldr	r0, [r0, #0]
    e790:	f7fa fece 	bl	9530 <strlen>
    e794:	1823      	adds	r3, r4, r0
    e796:	9319      	str	r3, [sp, #100]	; 0x64
    e798:	5c24      	ldrb	r4, [r4, r0]
    e79a:	2e00      	cmp	r6, #0
    e79c:	f040 81c4 	bne.w	eb28 <_strtod_r+0x788>
    e7a0:	2c30      	cmp	r4, #48	; 0x30
    e7a2:	f47f aeff 	bne.w	e5a4 <_strtod_r+0x204>
    e7a6:	461a      	mov	r2, r3
    e7a8:	4633      	mov	r3, r6
    e7aa:	e000      	b.n	e7ae <_strtod_r+0x40e>
    e7ac:	460a      	mov	r2, r1
    e7ae:	1c51      	adds	r1, r2, #1
    e7b0:	9119      	str	r1, [sp, #100]	; 0x64
    e7b2:	7854      	ldrb	r4, [r2, #1]
    e7b4:	3301      	adds	r3, #1
    e7b6:	2c30      	cmp	r4, #48	; 0x30
    e7b8:	d0f8      	beq.n	e7ac <_strtod_r+0x40c>
    e7ba:	e6f4      	b.n	e5a6 <_strtod_r+0x206>
    e7bc:	00014da0 	.word	0x00014da0
    e7c0:	9b08      	ldr	r3, [sp, #32]
    e7c2:	ebc8 080a 	rsb	r8, r8, sl
    e7c6:	4498      	add	r8, r3
    e7c8:	f1b8 0f00 	cmp.w	r8, #0
    e7cc:	f340 836b 	ble.w	eea6 <_strtod_r+0xb06>
    e7d0:	f018 010f 	ands.w	r1, r8, #15
    e7d4:	d00a      	beq.n	e7ec <_strtod_r+0x44c>
    e7d6:	e9dd 2302 	ldrd	r2, r3, [sp, #8]
    e7da:	48a7      	ldr	r0, [pc, #668]	; (ea78 <_strtod_r+0x6d8>)
    e7dc:	eb00 01c1 	add.w	r1, r0, r1, lsl #3
    e7e0:	e9d1 0100 	ldrd	r0, r1, [r1]
    e7e4:	f005 fb9a 	bl	13f1c <__aeabi_dmul>
    e7e8:	e9cd 0102 	strd	r0, r1, [sp, #8]
    e7ec:	f038 040f 	bics.w	r4, r8, #15
    e7f0:	f040 81ca 	bne.w	eb88 <_strtod_r+0x7e8>
    e7f4:	2000      	movs	r0, #0
    e7f6:	900a      	str	r0, [sp, #40]	; 0x28
    e7f8:	f8cd 9000 	str.w	r9, [sp]
    e7fc:	9906      	ldr	r1, [sp, #24]
    e7fe:	4632      	mov	r2, r6
    e800:	4653      	mov	r3, sl
    e802:	4658      	mov	r0, fp
    e804:	f7fe fef4 	bl	d5f0 <__s2b>
    e808:	900b      	str	r0, [sp, #44]	; 0x2c
    e80a:	2800      	cmp	r0, #0
    e80c:	f000 82d7 	beq.w	edbe <_strtod_r+0xa1e>
    e810:	9b08      	ldr	r3, [sp, #32]
    e812:	9908      	ldr	r1, [sp, #32]
    e814:	2000      	movs	r0, #0
    e816:	2b00      	cmp	r3, #0
    e818:	f1c3 0300 	rsb	r3, r3, #0
    e81c:	bfa8      	it	ge
    e81e:	4603      	movge	r3, r0
    e820:	ea21 71e1 	bic.w	r1, r1, r1, asr #31
    e824:	9006      	str	r0, [sp, #24]
    e826:	930e      	str	r3, [sp, #56]	; 0x38
    e828:	910f      	str	r1, [sp, #60]	; 0x3c
    e82a:	4607      	mov	r7, r0
    e82c:	9a0b      	ldr	r2, [sp, #44]	; 0x2c
    e82e:	4658      	mov	r0, fp
    e830:	6851      	ldr	r1, [r2, #4]
    e832:	f7fe fe63 	bl	d4fc <_Balloc>
    e836:	4606      	mov	r6, r0
    e838:	2800      	cmp	r0, #0
    e83a:	f000 82ce 	beq.w	edda <_strtod_r+0xa3a>
    e83e:	980b      	ldr	r0, [sp, #44]	; 0x2c
    e840:	6903      	ldr	r3, [r0, #16]
    e842:	f106 000c 	add.w	r0, r6, #12
    e846:	1c9a      	adds	r2, r3, #2
    e848:	9b0b      	ldr	r3, [sp, #44]	; 0x2c
    e84a:	0092      	lsls	r2, r2, #2
    e84c:	f103 010c 	add.w	r1, r3, #12
    e850:	f7fe fdde 	bl	d410 <memcpy>
    e854:	e9dd 0102 	ldrd	r0, r1, [sp, #8]
    e858:	e9cd 0108 	strd	r0, r1, [sp, #32]
    e85c:	e9dd 2308 	ldrd	r2, r3, [sp, #32]
    e860:	a81b      	add	r0, sp, #108	; 0x6c
    e862:	a91c      	add	r1, sp, #112	; 0x70
    e864:	e88d 0003 	stmia.w	sp, {r0, r1}
    e868:	4658      	mov	r0, fp
    e86a:	f7ff f9bb 	bl	dbe4 <__d2b>
    e86e:	901a      	str	r0, [sp, #104]	; 0x68
    e870:	2800      	cmp	r0, #0
    e872:	f000 8413 	beq.w	f09c <_strtod_r+0xcfc>
    e876:	4658      	mov	r0, fp
    e878:	2101      	movs	r1, #1
    e87a:	f7fe ff53 	bl	d724 <__i2b>
    e87e:	4607      	mov	r7, r0
    e880:	2800      	cmp	r0, #0
    e882:	f000 82aa 	beq.w	edda <_strtod_r+0xa3a>
    e886:	9b1b      	ldr	r3, [sp, #108]	; 0x6c
    e888:	2b00      	cmp	r3, #0
    e88a:	f2c0 8111 	blt.w	eab0 <_strtod_r+0x710>
    e88e:	f8dd 9038 	ldr.w	r9, [sp, #56]	; 0x38
    e892:	9d0f      	ldr	r5, [sp, #60]	; 0x3c
    e894:	4499      	add	r9, r3
    e896:	9a0a      	ldr	r2, [sp, #40]	; 0x28
    e898:	991c      	ldr	r1, [sp, #112]	; 0x70
    e89a:	1a9b      	subs	r3, r3, r2
    e89c:	440b      	add	r3, r1
    e89e:	f46f 727f 	mvn.w	r2, #1020	; 0x3fc
    e8a2:	4293      	cmp	r3, r2
    e8a4:	f1c1 0a36 	rsb	sl, r1, #54	; 0x36
    e8a8:	f280 80da 	bge.w	ea60 <_strtod_r+0x6c0>
    e8ac:	1ad2      	subs	r2, r2, r3
    e8ae:	2a1f      	cmp	r2, #31
    e8b0:	ebc2 0a0a 	rsb	sl, r2, sl
    e8b4:	f300 8101 	bgt.w	eaba <_strtod_r+0x71a>
    e8b8:	f04f 0801 	mov.w	r8, #1
    e8bc:	fa08 f802 	lsl.w	r8, r8, r2
    e8c0:	2300      	movs	r3, #0
    e8c2:	930c      	str	r3, [sp, #48]	; 0x30
    e8c4:	980a      	ldr	r0, [sp, #40]	; 0x28
    e8c6:	4455      	add	r5, sl
    e8c8:	44ca      	add	sl, r9
    e8ca:	45ca      	cmp	sl, r9
    e8cc:	bfb4      	ite	lt
    e8ce:	4653      	movlt	r3, sl
    e8d0:	464b      	movge	r3, r9
    e8d2:	4405      	add	r5, r0
    e8d4:	42ab      	cmp	r3, r5
    e8d6:	bfa8      	it	ge
    e8d8:	462b      	movge	r3, r5
    e8da:	2b00      	cmp	r3, #0
    e8dc:	dd04      	ble.n	e8e8 <_strtod_r+0x548>
    e8de:	ebc3 0a0a 	rsb	sl, r3, sl
    e8e2:	1aed      	subs	r5, r5, r3
    e8e4:	ebc3 0909 	rsb	r9, r3, r9
    e8e8:	990e      	ldr	r1, [sp, #56]	; 0x38
    e8ea:	b1b1      	cbz	r1, e91a <_strtod_r+0x57a>
    e8ec:	4639      	mov	r1, r7
    e8ee:	4658      	mov	r0, fp
    e8f0:	9a0e      	ldr	r2, [sp, #56]	; 0x38
    e8f2:	f7fe ffbf 	bl	d874 <__pow5mult>
    e8f6:	4607      	mov	r7, r0
    e8f8:	2800      	cmp	r0, #0
    e8fa:	f000 826e 	beq.w	edda <_strtod_r+0xa3a>
    e8fe:	4658      	mov	r0, fp
    e900:	4639      	mov	r1, r7
    e902:	9a1a      	ldr	r2, [sp, #104]	; 0x68
    e904:	f7fe ff18 	bl	d738 <__multiply>
    e908:	4604      	mov	r4, r0
    e90a:	2800      	cmp	r0, #0
    e90c:	f000 8265 	beq.w	edda <_strtod_r+0xa3a>
    e910:	4658      	mov	r0, fp
    e912:	991a      	ldr	r1, [sp, #104]	; 0x68
    e914:	f7fe fe18 	bl	d548 <_Bfree>
    e918:	941a      	str	r4, [sp, #104]	; 0x68
    e91a:	f1ba 0f00 	cmp.w	sl, #0
    e91e:	dd08      	ble.n	e932 <_strtod_r+0x592>
    e920:	4652      	mov	r2, sl
    e922:	4658      	mov	r0, fp
    e924:	991a      	ldr	r1, [sp, #104]	; 0x68
    e926:	f7fe fff3 	bl	d910 <__lshift>
    e92a:	901a      	str	r0, [sp, #104]	; 0x68
    e92c:	2800      	cmp	r0, #0
    e92e:	f000 83b5 	beq.w	f09c <_strtod_r+0xcfc>
    e932:	9a0f      	ldr	r2, [sp, #60]	; 0x3c
    e934:	b142      	cbz	r2, e948 <_strtod_r+0x5a8>
    e936:	4631      	mov	r1, r6
    e938:	4658      	mov	r0, fp
    e93a:	9a0f      	ldr	r2, [sp, #60]	; 0x3c
    e93c:	f7fe ff9a 	bl	d874 <__pow5mult>
    e940:	4606      	mov	r6, r0
    e942:	2800      	cmp	r0, #0
    e944:	f000 8249 	beq.w	edda <_strtod_r+0xa3a>
    e948:	2d00      	cmp	r5, #0
    e94a:	dd08      	ble.n	e95e <_strtod_r+0x5be>
    e94c:	4631      	mov	r1, r6
    e94e:	462a      	mov	r2, r5
    e950:	4658      	mov	r0, fp
    e952:	f7fe ffdd 	bl	d910 <__lshift>
    e956:	4606      	mov	r6, r0
    e958:	2800      	cmp	r0, #0
    e95a:	f000 823e 	beq.w	edda <_strtod_r+0xa3a>
    e95e:	f1b9 0f00 	cmp.w	r9, #0
    e962:	dd08      	ble.n	e976 <_strtod_r+0x5d6>
    e964:	4639      	mov	r1, r7
    e966:	464a      	mov	r2, r9
    e968:	4658      	mov	r0, fp
    e96a:	f7fe ffd1 	bl	d910 <__lshift>
    e96e:	4607      	mov	r7, r0
    e970:	2800      	cmp	r0, #0
    e972:	f000 8232 	beq.w	edda <_strtod_r+0xa3a>
    e976:	4658      	mov	r0, fp
    e978:	991a      	ldr	r1, [sp, #104]	; 0x68
    e97a:	4632      	mov	r2, r6
    e97c:	f7ff f84a 	bl	da14 <__mdiff>
    e980:	9006      	str	r0, [sp, #24]
    e982:	2800      	cmp	r0, #0
    e984:	f000 8229 	beq.w	edda <_strtod_r+0xa3a>
    e988:	9906      	ldr	r1, [sp, #24]
    e98a:	2300      	movs	r3, #0
    e98c:	f8d1 a00c 	ldr.w	sl, [r1, #12]
    e990:	60cb      	str	r3, [r1, #12]
    e992:	4639      	mov	r1, r7
    e994:	f7ff f81a 	bl	d9cc <__mcmp>
    e998:	2800      	cmp	r0, #0
    e99a:	f2c0 83cc 	blt.w	f136 <_strtod_r+0xd96>
    e99e:	f000 8389 	beq.w	f0b4 <_strtod_r+0xd14>
    e9a2:	9806      	ldr	r0, [sp, #24]
    e9a4:	4639      	mov	r1, r7
    e9a6:	f7ff f97b 	bl	dca0 <__ratio>
    e9aa:	2200      	movs	r2, #0
    e9ac:	f04f 4380 	mov.w	r3, #1073741824	; 0x40000000
    e9b0:	4604      	mov	r4, r0
    e9b2:	460d      	mov	r5, r1
    e9b4:	f005 fd2e 	bl	14414 <__aeabi_dcmple>
    e9b8:	2800      	cmp	r0, #0
    e9ba:	d065      	beq.n	ea88 <_strtod_r+0x6e8>
    e9bc:	f1ba 0f00 	cmp.w	sl, #0
    e9c0:	f000 808f 	beq.w	eae2 <_strtod_r+0x742>
    e9c4:	4d2d      	ldr	r5, [pc, #180]	; (ea7c <_strtod_r+0x6dc>)
    e9c6:	2400      	movs	r4, #0
    e9c8:	4622      	mov	r2, r4
    e9ca:	462b      	mov	r3, r5
    e9cc:	e9cd 230c 	strd	r2, r3, [sp, #48]	; 0x30
    e9d0:	f8dd 900c 	ldr.w	r9, [sp, #12]
    e9d4:	f8df 80ac 	ldr.w	r8, [pc, #172]	; ea84 <_strtod_r+0x6e4>
    e9d8:	4b29      	ldr	r3, [pc, #164]	; (ea80 <_strtod_r+0x6e0>)
    e9da:	ea09 0808 	and.w	r8, r9, r8
    e9de:	4598      	cmp	r8, r3
    e9e0:	f000 81c0 	beq.w	ed64 <_strtod_r+0x9c4>
    e9e4:	9a0a      	ldr	r2, [sp, #40]	; 0x28
    e9e6:	b182      	cbz	r2, ea0a <_strtod_r+0x66a>
    e9e8:	f1b8 6fd4 	cmp.w	r8, #111149056	; 0x6a00000
    e9ec:	d80d      	bhi.n	ea0a <_strtod_r+0x66a>
    e9ee:	a320      	add	r3, pc, #128	; (adr r3, ea70 <_strtod_r+0x6d0>)
    e9f0:	e9d3 2300 	ldrd	r2, r3, [r3]
    e9f4:	e9dd 010c 	ldrd	r0, r1, [sp, #48]	; 0x30
    e9f8:	f005 fd0c 	bl	14414 <__aeabi_dcmple>
    e9fc:	2800      	cmp	r0, #0
    e9fe:	f040 811d 	bne.w	ec3c <_strtod_r+0x89c>
    ea02:	f105 63d6 	add.w	r3, r5, #112197632	; 0x6b00000
    ea06:	ebc8 0503 	rsb	r5, r8, r3
    ea0a:	e9dd 0108 	ldrd	r0, r1, [sp, #32]
    ea0e:	f7ff f86d 	bl	daec <__ulp>
    ea12:	4602      	mov	r2, r0
    ea14:	460b      	mov	r3, r1
    ea16:	4620      	mov	r0, r4
    ea18:	4629      	mov	r1, r5
    ea1a:	f005 fa7f 	bl	13f1c <__aeabi_dmul>
    ea1e:	4602      	mov	r2, r0
    ea20:	460b      	mov	r3, r1
    ea22:	e9dd 0108 	ldrd	r0, r1, [sp, #32]
    ea26:	f005 f8c7 	bl	13bb8 <__adddf3>
    ea2a:	e9cd 0102 	strd	r0, r1, [sp, #8]
    ea2e:	9c03      	ldr	r4, [sp, #12]
    ea30:	990a      	ldr	r1, [sp, #40]	; 0x28
    ea32:	b921      	cbnz	r1, ea3e <_strtod_r+0x69e>
    ea34:	4b13      	ldr	r3, [pc, #76]	; (ea84 <_strtod_r+0x6e4>)
    ea36:	4023      	ands	r3, r4
    ea38:	4598      	cmp	r8, r3
    ea3a:	f000 81ee 	beq.w	ee1a <_strtod_r+0xa7a>
    ea3e:	4658      	mov	r0, fp
    ea40:	991a      	ldr	r1, [sp, #104]	; 0x68
    ea42:	f7fe fd81 	bl	d548 <_Bfree>
    ea46:	4658      	mov	r0, fp
    ea48:	4631      	mov	r1, r6
    ea4a:	f7fe fd7d 	bl	d548 <_Bfree>
    ea4e:	4658      	mov	r0, fp
    ea50:	4639      	mov	r1, r7
    ea52:	f7fe fd79 	bl	d548 <_Bfree>
    ea56:	4658      	mov	r0, fp
    ea58:	9906      	ldr	r1, [sp, #24]
    ea5a:	f7fe fd75 	bl	d548 <_Bfree>
    ea5e:	e6e5      	b.n	e82c <_strtod_r+0x48c>
    ea60:	2300      	movs	r3, #0
    ea62:	930c      	str	r3, [sp, #48]	; 0x30
    ea64:	f04f 0801 	mov.w	r8, #1
    ea68:	e72c      	b.n	e8c4 <_strtod_r+0x524>
    ea6a:	bf00      	nop
    ea6c:	f3af 8000 	nop.w
    ea70:	ffc00000 	.word	0xffc00000
    ea74:	41dfffff 	.word	0x41dfffff
    ea78:	00014da0 	.word	0x00014da0
    ea7c:	3ff00000 	.word	0x3ff00000
    ea80:	7fe00000 	.word	0x7fe00000
    ea84:	7ff00000 	.word	0x7ff00000
    ea88:	4620      	mov	r0, r4
    ea8a:	4629      	mov	r1, r5
    ea8c:	2200      	movs	r2, #0
    ea8e:	4ba8      	ldr	r3, [pc, #672]	; (ed30 <_strtod_r+0x990>)
    ea90:	f005 fa44 	bl	13f1c <__aeabi_dmul>
    ea94:	e9cd 010c 	strd	r0, r1, [sp, #48]	; 0x30
    ea98:	f1ba 0f00 	cmp.w	sl, #0
    ea9c:	d11c      	bne.n	ead8 <_strtod_r+0x738>
    ea9e:	f101 4100 	add.w	r1, r1, #2147483648	; 0x80000000
    eaa2:	9010      	str	r0, [sp, #64]	; 0x40
    eaa4:	9111      	str	r1, [sp, #68]	; 0x44
    eaa6:	e9dd 4510 	ldrd	r4, r5, [sp, #64]	; 0x40
    eaaa:	f8dd 900c 	ldr.w	r9, [sp, #12]
    eaae:	e791      	b.n	e9d4 <_strtod_r+0x634>
    eab0:	990f      	ldr	r1, [sp, #60]	; 0x3c
    eab2:	f8dd 9038 	ldr.w	r9, [sp, #56]	; 0x38
    eab6:	1acd      	subs	r5, r1, r3
    eab8:	e6ed      	b.n	e896 <_strtod_r+0x4f6>
    eaba:	4c9e      	ldr	r4, [pc, #632]	; (ed34 <_strtod_r+0x994>)
    eabc:	f04f 0801 	mov.w	r8, #1
    eac0:	1ae4      	subs	r4, r4, r3
    eac2:	fa08 f404 	lsl.w	r4, r8, r4
    eac6:	940c      	str	r4, [sp, #48]	; 0x30
    eac8:	e6fc      	b.n	e8c4 <_strtod_r+0x524>
    eaca:	9519      	str	r5, [sp, #100]	; 0x64
    eacc:	2100      	movs	r1, #0
    eace:	f1ba 0f00 	cmp.w	sl, #0
    ead2:	f47f ad1f 	bne.w	e514 <_strtod_r+0x174>
    ead6:	e573      	b.n	e5c0 <_strtod_r+0x220>
    ead8:	e9dd 230c 	ldrd	r2, r3, [sp, #48]	; 0x30
    eadc:	e9cd 2310 	strd	r2, r3, [sp, #64]	; 0x40
    eae0:	e7e1      	b.n	eaa6 <_strtod_r+0x706>
    eae2:	9b02      	ldr	r3, [sp, #8]
    eae4:	2b00      	cmp	r3, #0
    eae6:	f040 8093 	bne.w	ec10 <_strtod_r+0x870>
    eaea:	9803      	ldr	r0, [sp, #12]
    eaec:	f3c0 0313 	ubfx	r3, r0, #0, #20
    eaf0:	4681      	mov	r9, r0
    eaf2:	2b00      	cmp	r3, #0
    eaf4:	f040 8092 	bne.w	ec1c <_strtod_r+0x87c>
    eaf8:	4620      	mov	r0, r4
    eafa:	4629      	mov	r1, r5
    eafc:	2200      	movs	r2, #0
    eafe:	4b8e      	ldr	r3, [pc, #568]	; (ed38 <_strtod_r+0x998>)
    eb00:	f005 fc7e 	bl	14400 <__aeabi_dcmplt>
    eb04:	2800      	cmp	r0, #0
    eb06:	f040 8356 	bne.w	f1b6 <_strtod_r+0xe16>
    eb0a:	4620      	mov	r0, r4
    eb0c:	4629      	mov	r1, r5
    eb0e:	2200      	movs	r2, #0
    eb10:	4b87      	ldr	r3, [pc, #540]	; (ed30 <_strtod_r+0x990>)
    eb12:	f005 fa03 	bl	13f1c <__aeabi_dmul>
    eb16:	e9cd 010c 	strd	r0, r1, [sp, #48]	; 0x30
    eb1a:	f101 4100 	add.w	r1, r1, #2147483648	; 0x80000000
    eb1e:	9016      	str	r0, [sp, #88]	; 0x58
    eb20:	9117      	str	r1, [sp, #92]	; 0x5c
    eb22:	e9dd 4516 	ldrd	r4, r5, [sp, #88]	; 0x58
    eb26:	e755      	b.n	e9d4 <_strtod_r+0x634>
    eb28:	4640      	mov	r0, r8
    eb2a:	4643      	mov	r3, r8
    eb2c:	46b2      	mov	sl, r6
    eb2e:	f1a4 0230 	sub.w	r2, r4, #48	; 0x30
    eb32:	2a09      	cmp	r2, #9
    eb34:	d825      	bhi.n	eb82 <_strtod_r+0x7e2>
    eb36:	9c19      	ldr	r4, [sp, #100]	; 0x64
    eb38:	3001      	adds	r0, #1
    eb3a:	2a00      	cmp	r2, #0
    eb3c:	f000 81af 	beq.w	ee9e <_strtod_r+0xafe>
    eb40:	2801      	cmp	r0, #1
    eb42:	4403      	add	r3, r0
    eb44:	f000 81a0 	beq.w	ee88 <_strtod_r+0xae8>
    eb48:	4450      	add	r0, sl
    eb4a:	3801      	subs	r0, #1
    eb4c:	e006      	b.n	eb5c <_strtod_r+0x7bc>
    eb4e:	eb09 0989 	add.w	r9, r9, r9, lsl #2
    eb52:	ea4f 0949 	mov.w	r9, r9, lsl #1
    eb56:	4582      	cmp	sl, r0
    eb58:	f000 8197 	beq.w	ee8a <_strtod_r+0xaea>
    eb5c:	f10a 0a01 	add.w	sl, sl, #1
    eb60:	f10a 31ff 	add.w	r1, sl, #4294967295
    eb64:	2908      	cmp	r1, #8
    eb66:	ddf2      	ble.n	eb4e <_strtod_r+0x7ae>
    eb68:	f1ba 0f10 	cmp.w	sl, #16
    eb6c:	bfdc      	itt	le
    eb6e:	eb07 0787 	addle.w	r7, r7, r7, lsl #2
    eb72:	007f      	lslle	r7, r7, #1
    eb74:	e7ef      	b.n	eb56 <_strtod_r+0x7b6>
    eb76:	2200      	movs	r2, #0
    eb78:	9208      	str	r2, [sp, #32]
    eb7a:	e5bc      	b.n	e6f6 <_strtod_r+0x356>
    eb7c:	2100      	movs	r1, #0
    eb7e:	9108      	str	r1, [sp, #32]
    eb80:	e5b6      	b.n	e6f0 <_strtod_r+0x350>
    eb82:	2201      	movs	r2, #1
    eb84:	920b      	str	r2, [sp, #44]	; 0x2c
    eb86:	e4bc      	b.n	e502 <_strtod_r+0x162>
    eb88:	f5b4 7f9a 	cmp.w	r4, #308	; 0x134
    eb8c:	f300 8117 	bgt.w	edbe <_strtod_r+0xa1e>
    eb90:	1124      	asrs	r4, r4, #4
    eb92:	2c01      	cmp	r4, #1
    eb94:	f8df 81c8 	ldr.w	r8, [pc, #456]	; ed60 <_strtod_r+0x9c0>
    eb98:	f340 832a 	ble.w	f1f0 <_strtod_r+0xe50>
    eb9c:	e9dd 0102 	ldrd	r0, r1, [sp, #8]
    eba0:	4645      	mov	r5, r8
    eba2:	2700      	movs	r7, #0
    eba4:	f014 0f01 	tst.w	r4, #1
    eba8:	f107 0701 	add.w	r7, r7, #1
    ebac:	ea4f 0464 	mov.w	r4, r4, asr #1
    ebb0:	d003      	beq.n	ebba <_strtod_r+0x81a>
    ebb2:	e9d5 2300 	ldrd	r2, r3, [r5]
    ebb6:	f005 f9b1 	bl	13f1c <__aeabi_dmul>
    ebba:	2c01      	cmp	r4, #1
    ebbc:	f105 0508 	add.w	r5, r5, #8
    ebc0:	dcf0      	bgt.n	eba4 <_strtod_r+0x804>
    ebc2:	e9cd 0102 	strd	r0, r1, [sp, #8]
    ebc6:	9903      	ldr	r1, [sp, #12]
    ebc8:	eb08 07c7 	add.w	r7, r8, r7, lsl #3
    ebcc:	f1a1 7154 	sub.w	r1, r1, #55574528	; 0x3500000
    ebd0:	9103      	str	r1, [sp, #12]
    ebd2:	e9dd 2302 	ldrd	r2, r3, [sp, #8]
    ebd6:	e9d7 0100 	ldrd	r0, r1, [r7]
    ebda:	f005 f99f 	bl	13f1c <__aeabi_dmul>
    ebde:	e9cd 0102 	strd	r0, r1, [sp, #8]
    ebe2:	9a03      	ldr	r2, [sp, #12]
    ebe4:	9903      	ldr	r1, [sp, #12]
    ebe6:	f022 4300 	bic.w	r3, r2, #2147483648	; 0x80000000
    ebea:	0d1b      	lsrs	r3, r3, #20
    ebec:	4a53      	ldr	r2, [pc, #332]	; (ed3c <_strtod_r+0x99c>)
    ebee:	051b      	lsls	r3, r3, #20
    ebf0:	4293      	cmp	r3, r2
    ebf2:	f200 80e4 	bhi.w	edbe <_strtod_r+0xa1e>
    ebf6:	f5a2 1280 	sub.w	r2, r2, #1048576	; 0x100000
    ebfa:	4293      	cmp	r3, r2
    ebfc:	f240 82d4 	bls.w	f1a8 <_strtod_r+0xe08>
    ec00:	4b4f      	ldr	r3, [pc, #316]	; (ed40 <_strtod_r+0x9a0>)
    ec02:	2000      	movs	r0, #0
    ec04:	f04f 31ff 	mov.w	r1, #4294967295
    ec08:	9303      	str	r3, [sp, #12]
    ec0a:	900a      	str	r0, [sp, #40]	; 0x28
    ec0c:	9102      	str	r1, [sp, #8]
    ec0e:	e5f3      	b.n	e7f8 <_strtod_r+0x458>
    ec10:	9902      	ldr	r1, [sp, #8]
    ec12:	f8dd 900c 	ldr.w	r9, [sp, #12]
    ec16:	2901      	cmp	r1, #1
    ec18:	f000 81c9 	beq.w	efae <_strtod_r+0xc0e>
    ec1c:	4946      	ldr	r1, [pc, #280]	; (ed38 <_strtod_r+0x998>)
    ec1e:	2000      	movs	r0, #0
    ec20:	2400      	movs	r4, #0
    ec22:	4d48      	ldr	r5, [pc, #288]	; (ed44 <_strtod_r+0x9a4>)
    ec24:	e9cd 010c 	strd	r0, r1, [sp, #48]	; 0x30
    ec28:	e6d4      	b.n	e9d4 <_strtod_r+0x634>
    ec2a:	9919      	ldr	r1, [sp, #100]	; 0x64
    ec2c:	f1a4 0230 	sub.w	r2, r4, #48	; 0x30
    ec30:	9106      	str	r1, [sp, #24]
    ec32:	460c      	mov	r4, r1
    ec34:	f04f 0a00 	mov.w	sl, #0
    ec38:	2001      	movs	r0, #1
    ec3a:	e77e      	b.n	eb3a <_strtod_r+0x79a>
    ec3c:	e9dd 010c 	ldrd	r0, r1, [sp, #48]	; 0x30
    ec40:	f005 fc2e 	bl	144a0 <__aeabi_d2uiz>
    ec44:	2800      	cmp	r0, #0
    ec46:	f000 81ad 	beq.w	efa4 <_strtod_r+0xc04>
    ec4a:	f005 f8f1 	bl	13e30 <__aeabi_ui2d>
    ec4e:	e9cd 010c 	strd	r0, r1, [sp, #48]	; 0x30
    ec52:	f1ba 0f00 	cmp.w	sl, #0
    ec56:	f040 81a0 	bne.w	ef9a <_strtod_r+0xbfa>
    ec5a:	9a0d      	ldr	r2, [sp, #52]	; 0x34
    ec5c:	990c      	ldr	r1, [sp, #48]	; 0x30
    ec5e:	f102 4200 	add.w	r2, r2, #2147483648	; 0x80000000
    ec62:	9114      	str	r1, [sp, #80]	; 0x50
    ec64:	9215      	str	r2, [sp, #84]	; 0x54
    ec66:	e9dd 4514 	ldrd	r4, r5, [sp, #80]	; 0x50
    ec6a:	e6ca      	b.n	ea02 <_strtod_r+0x662>
    ec6c:	4836      	ldr	r0, [pc, #216]	; (ed48 <_strtod_r+0x9a8>)
    ec6e:	9919      	ldr	r1, [sp, #100]	; 0x64
    ec70:	e009      	b.n	ec86 <_strtod_r+0x8e6>
    ec72:	f811 3f01 	ldrb.w	r3, [r1, #1]!
    ec76:	f1a3 0441 	sub.w	r4, r3, #65	; 0x41
    ec7a:	2c19      	cmp	r4, #25
    ec7c:	bf98      	it	ls
    ec7e:	3320      	addls	r3, #32
    ec80:	4293      	cmp	r3, r2
    ec82:	f47f abdc 	bne.w	e43e <_strtod_r+0x9e>
    ec86:	f810 2f01 	ldrb.w	r2, [r0, #1]!
    ec8a:	2a00      	cmp	r2, #0
    ec8c:	d1f1      	bne.n	ec72 <_strtod_r+0x8d2>
    ec8e:	1c4b      	adds	r3, r1, #1
    ec90:	9319      	str	r3, [sp, #100]	; 0x64
    ec92:	784b      	ldrb	r3, [r1, #1]
    ec94:	2b28      	cmp	r3, #40	; 0x28
    ec96:	f000 82e1 	beq.w	f25c <_strtod_r+0xebc>
    ec9a:	4a2c      	ldr	r2, [pc, #176]	; (ed4c <_strtod_r+0x9ac>)
    ec9c:	2300      	movs	r3, #0
    ec9e:	9203      	str	r2, [sp, #12]
    eca0:	9302      	str	r3, [sp, #8]
    eca2:	e512      	b.n	e6ca <_strtod_r+0x32a>
    eca4:	482a      	ldr	r0, [pc, #168]	; (ed50 <_strtod_r+0x9b0>)
    eca6:	9919      	ldr	r1, [sp, #100]	; 0x64
    eca8:	e009      	b.n	ecbe <_strtod_r+0x91e>
    ecaa:	f811 3f01 	ldrb.w	r3, [r1, #1]!
    ecae:	f1a3 0441 	sub.w	r4, r3, #65	; 0x41
    ecb2:	2c19      	cmp	r4, #25
    ecb4:	bf98      	it	ls
    ecb6:	3320      	addls	r3, #32
    ecb8:	4293      	cmp	r3, r2
    ecba:	f47f abc0 	bne.w	e43e <_strtod_r+0x9e>
    ecbe:	f810 2f01 	ldrb.w	r2, [r0, #1]!
    ecc2:	2a00      	cmp	r2, #0
    ecc4:	d1f1      	bne.n	ecaa <_strtod_r+0x90a>
    ecc6:	9119      	str	r1, [sp, #100]	; 0x64
    ecc8:	4c22      	ldr	r4, [pc, #136]	; (ed54 <_strtod_r+0x9b4>)
    ecca:	4608      	mov	r0, r1
    eccc:	e009      	b.n	ece2 <_strtod_r+0x942>
    ecce:	f810 3f01 	ldrb.w	r3, [r0, #1]!
    ecd2:	f1a3 0541 	sub.w	r5, r3, #65	; 0x41
    ecd6:	2d19      	cmp	r5, #25
    ecd8:	bf98      	it	ls
    ecda:	3320      	addls	r3, #32
    ecdc:	4293      	cmp	r3, r2
    ecde:	f040 8284 	bne.w	f1ea <_strtod_r+0xe4a>
    ece2:	f814 2f01 	ldrb.w	r2, [r4, #1]!
    ece6:	2a00      	cmp	r2, #0
    ece8:	d1f1      	bne.n	ecce <_strtod_r+0x92e>
    ecea:	3001      	adds	r0, #1
    ecec:	9019      	str	r0, [sp, #100]	; 0x64
    ecee:	4a1a      	ldr	r2, [pc, #104]	; (ed58 <_strtod_r+0x9b8>)
    ecf0:	2300      	movs	r3, #0
    ecf2:	9203      	str	r2, [sp, #12]
    ecf4:	9302      	str	r3, [sp, #8]
    ecf6:	e4e8      	b.n	e6ca <_strtod_r+0x32a>
    ecf8:	9907      	ldr	r1, [sp, #28]
    ecfa:	ab1a      	add	r3, sp, #104	; 0x68
    ecfc:	9101      	str	r1, [sp, #4]
    ecfe:	9300      	str	r3, [sp, #0]
    ed00:	4658      	mov	r0, fp
    ed02:	a919      	add	r1, sp, #100	; 0x64
    ed04:	4a15      	ldr	r2, [pc, #84]	; (ed5c <_strtod_r+0x9bc>)
    ed06:	ab1b      	add	r3, sp, #108	; 0x6c
    ed08:	f003 fa4a 	bl	121a0 <__gethex>
    ed0c:	f010 0507 	ands.w	r5, r0, #7
    ed10:	4604      	mov	r4, r0
    ed12:	f43f acc9 	beq.w	e6a8 <_strtod_r+0x308>
    ed16:	2d06      	cmp	r5, #6
    ed18:	f040 8157 	bne.w	efca <_strtod_r+0xc2a>
    ed1c:	3601      	adds	r6, #1
    ed1e:	2200      	movs	r2, #0
    ed20:	9619      	str	r6, [sp, #100]	; 0x64
    ed22:	f04f 0800 	mov.w	r8, #0
    ed26:	f04f 0900 	mov.w	r9, #0
    ed2a:	9207      	str	r2, [sp, #28]
    ed2c:	f7ff bb8e 	b.w	e44c <_strtod_r+0xac>
    ed30:	3fe00000 	.word	0x3fe00000
    ed34:	fffffbe3 	.word	0xfffffbe3
    ed38:	3ff00000 	.word	0x3ff00000
    ed3c:	7ca00000 	.word	0x7ca00000
    ed40:	7fefffff 	.word	0x7fefffff
    ed44:	bff00000 	.word	0xbff00000
    ed48:	00014ee3 	.word	0x00014ee3
    ed4c:	fff80000 	.word	0xfff80000
    ed50:	00014ed7 	.word	0x00014ed7
    ed54:	00014edb 	.word	0x00014edb
    ed58:	7ff00000 	.word	0x7ff00000
    ed5c:	00014ec4 	.word	0x00014ec4
    ed60:	00014e68 	.word	0x00014e68
    ed64:	f1a9 7954 	sub.w	r9, r9, #55574528	; 0x3500000
    ed68:	f8cd 900c 	str.w	r9, [sp, #12]
    ed6c:	e9dd 0102 	ldrd	r0, r1, [sp, #8]
    ed70:	f7fe febc 	bl	daec <__ulp>
    ed74:	4602      	mov	r2, r0
    ed76:	460b      	mov	r3, r1
    ed78:	4620      	mov	r0, r4
    ed7a:	4629      	mov	r1, r5
    ed7c:	f005 f8ce 	bl	13f1c <__aeabi_dmul>
    ed80:	4602      	mov	r2, r0
    ed82:	460b      	mov	r3, r1
    ed84:	e9dd 0102 	ldrd	r0, r1, [sp, #8]
    ed88:	f004 ff16 	bl	13bb8 <__adddf3>
    ed8c:	e9cd 0102 	strd	r0, r1, [sp, #8]
    ed90:	9903      	ldr	r1, [sp, #12]
    ed92:	4aad      	ldr	r2, [pc, #692]	; (f048 <_strtod_r+0xca8>)
    ed94:	f021 4300 	bic.w	r3, r1, #2147483648	; 0x80000000
    ed98:	0d1b      	lsrs	r3, r3, #20
    ed9a:	051b      	lsls	r3, r3, #20
    ed9c:	4293      	cmp	r3, r2
    ed9e:	e9dd 0108 	ldrd	r0, r1, [sp, #32]
    eda2:	e9cd 0112 	strd	r0, r1, [sp, #72]	; 0x48
    eda6:	f240 80d6 	bls.w	ef56 <_strtod_r+0xbb6>
    edaa:	4ba8      	ldr	r3, [pc, #672]	; (f04c <_strtod_r+0xcac>)
    edac:	9913      	ldr	r1, [sp, #76]	; 0x4c
    edae:	4299      	cmp	r1, r3
    edb0:	d010      	beq.n	edd4 <_strtod_r+0xa34>
    edb2:	4ba6      	ldr	r3, [pc, #664]	; (f04c <_strtod_r+0xcac>)
    edb4:	f04f 30ff 	mov.w	r0, #4294967295
    edb8:	9303      	str	r3, [sp, #12]
    edba:	9002      	str	r0, [sp, #8]
    edbc:	e63f      	b.n	ea3e <_strtod_r+0x69e>
    edbe:	4ba4      	ldr	r3, [pc, #656]	; (f050 <_strtod_r+0xcb0>)
    edc0:	2000      	movs	r0, #0
    edc2:	9303      	str	r3, [sp, #12]
    edc4:	9002      	str	r0, [sp, #8]
    edc6:	2322      	movs	r3, #34	; 0x22
    edc8:	e9dd 8902 	ldrd	r8, r9, [sp, #8]
    edcc:	f8cb 3000 	str.w	r3, [fp]
    edd0:	f7ff bb3c 	b.w	e44c <_strtod_r+0xac>
    edd4:	9a12      	ldr	r2, [sp, #72]	; 0x48
    edd6:	3201      	adds	r2, #1
    edd8:	d1eb      	bne.n	edb2 <_strtod_r+0xa12>
    edda:	46b2      	mov	sl, r6
    eddc:	991a      	ldr	r1, [sp, #104]	; 0x68
    edde:	4a9c      	ldr	r2, [pc, #624]	; (f050 <_strtod_r+0xcb0>)
    ede0:	2322      	movs	r3, #34	; 0x22
    ede2:	2000      	movs	r0, #0
    ede4:	9203      	str	r2, [sp, #12]
    ede6:	9002      	str	r0, [sp, #8]
    ede8:	f8cb 3000 	str.w	r3, [fp]
    edec:	e9dd 8902 	ldrd	r8, r9, [sp, #8]
    edf0:	4658      	mov	r0, fp
    edf2:	f7fe fba9 	bl	d548 <_Bfree>
    edf6:	4658      	mov	r0, fp
    edf8:	4651      	mov	r1, sl
    edfa:	f7fe fba5 	bl	d548 <_Bfree>
    edfe:	4658      	mov	r0, fp
    ee00:	4639      	mov	r1, r7
    ee02:	f7fe fba1 	bl	d548 <_Bfree>
    ee06:	4658      	mov	r0, fp
    ee08:	990b      	ldr	r1, [sp, #44]	; 0x2c
    ee0a:	f7fe fb9d 	bl	d548 <_Bfree>
    ee0e:	4658      	mov	r0, fp
    ee10:	9906      	ldr	r1, [sp, #24]
    ee12:	f7fe fb99 	bl	d548 <_Bfree>
    ee16:	f7ff bb19 	b.w	e44c <_strtod_r+0xac>
    ee1a:	e9dd 010c 	ldrd	r0, r1, [sp, #48]	; 0x30
    ee1e:	f005 fb17 	bl	14450 <__aeabi_d2iz>
    ee22:	f005 f815 	bl	13e50 <__aeabi_i2d>
    ee26:	4602      	mov	r2, r0
    ee28:	460b      	mov	r3, r1
    ee2a:	e9dd 010c 	ldrd	r0, r1, [sp, #48]	; 0x30
    ee2e:	f004 fec1 	bl	13bb4 <__aeabi_dsub>
    ee32:	4680      	mov	r8, r0
    ee34:	4689      	mov	r9, r1
    ee36:	f1ba 0f00 	cmp.w	sl, #0
    ee3a:	d111      	bne.n	ee60 <_strtod_r+0xac0>
    ee3c:	9a02      	ldr	r2, [sp, #8]
    ee3e:	b97a      	cbnz	r2, ee60 <_strtod_r+0xac0>
    ee40:	f3c4 0413 	ubfx	r4, r4, #0, #20
    ee44:	b964      	cbnz	r4, ee60 <_strtod_r+0xac0>
    ee46:	a37a      	add	r3, pc, #488	; (adr r3, f030 <_strtod_r+0xc90>)
    ee48:	e9d3 2300 	ldrd	r2, r3, [r3]
    ee4c:	f005 fad8 	bl	14400 <__aeabi_dcmplt>
    ee50:	2800      	cmp	r0, #0
    ee52:	f43f adf4 	beq.w	ea3e <_strtod_r+0x69e>
    ee56:	46b2      	mov	sl, r6
    ee58:	e9dd 8902 	ldrd	r8, r9, [sp, #8]
    ee5c:	991a      	ldr	r1, [sp, #104]	; 0x68
    ee5e:	e7c7      	b.n	edf0 <_strtod_r+0xa50>
    ee60:	4640      	mov	r0, r8
    ee62:	4649      	mov	r1, r9
    ee64:	a374      	add	r3, pc, #464	; (adr r3, f038 <_strtod_r+0xc98>)
    ee66:	e9d3 2300 	ldrd	r2, r3, [r3]
    ee6a:	f005 fac9 	bl	14400 <__aeabi_dcmplt>
    ee6e:	2800      	cmp	r0, #0
    ee70:	d1f1      	bne.n	ee56 <_strtod_r+0xab6>
    ee72:	4640      	mov	r0, r8
    ee74:	4649      	mov	r1, r9
    ee76:	a372      	add	r3, pc, #456	; (adr r3, f040 <_strtod_r+0xca0>)
    ee78:	e9d3 2300 	ldrd	r2, r3, [r3]
    ee7c:	f005 fade 	bl	1443c <__aeabi_dcmpgt>
    ee80:	2800      	cmp	r0, #0
    ee82:	f43f addc 	beq.w	ea3e <_strtod_r+0x69e>
    ee86:	e7e6      	b.n	ee56 <_strtod_r+0xab6>
    ee88:	4650      	mov	r0, sl
    ee8a:	2808      	cmp	r0, #8
    ee8c:	f100 0a01 	add.w	sl, r0, #1
    ee90:	f300 8107 	bgt.w	f0a2 <_strtod_r+0xd02>
    ee94:	eb09 0989 	add.w	r9, r9, r9, lsl #2
    ee98:	eb02 0949 	add.w	r9, r2, r9, lsl #1
    ee9c:	2000      	movs	r0, #0
    ee9e:	1c62      	adds	r2, r4, #1
    eea0:	9219      	str	r2, [sp, #100]	; 0x64
    eea2:	7864      	ldrb	r4, [r4, #1]
    eea4:	e643      	b.n	eb2e <_strtod_r+0x78e>
    eea6:	f43f aca5 	beq.w	e7f4 <_strtod_r+0x454>
    eeaa:	f1c8 0400 	rsb	r4, r8, #0
    eeae:	f014 030f 	ands.w	r3, r4, #15
    eeb2:	d00a      	beq.n	eeca <_strtod_r+0xb2a>
    eeb4:	e9dd 0102 	ldrd	r0, r1, [sp, #8]
    eeb8:	4a66      	ldr	r2, [pc, #408]	; (f054 <_strtod_r+0xcb4>)
    eeba:	eb02 03c3 	add.w	r3, r2, r3, lsl #3
    eebe:	e9d3 2300 	ldrd	r2, r3, [r3]
    eec2:	f005 f955 	bl	14170 <__aeabi_ddiv>
    eec6:	e9cd 0102 	strd	r0, r1, [sp, #8]
    eeca:	1124      	asrs	r4, r4, #4
    eecc:	f43f ac92 	beq.w	e7f4 <_strtod_r+0x454>
    eed0:	2c1f      	cmp	r4, #31
    eed2:	dc34      	bgt.n	ef3e <_strtod_r+0xb9e>
    eed4:	f014 0f10 	tst.w	r4, #16
    eed8:	bf14      	ite	ne
    eeda:	236a      	movne	r3, #106	; 0x6a
    eedc:	2300      	moveq	r3, #0
    eede:	2c00      	cmp	r4, #0
    eee0:	930a      	str	r3, [sp, #40]	; 0x28
    eee2:	dd0e      	ble.n	ef02 <_strtod_r+0xb62>
    eee4:	e9dd 0102 	ldrd	r0, r1, [sp, #8]
    eee8:	4d5b      	ldr	r5, [pc, #364]	; (f058 <_strtod_r+0xcb8>)
    eeea:	07e3      	lsls	r3, r4, #31
    eeec:	d503      	bpl.n	eef6 <_strtod_r+0xb56>
    eeee:	e9d5 2300 	ldrd	r2, r3, [r5]
    eef2:	f005 f813 	bl	13f1c <__aeabi_dmul>
    eef6:	1064      	asrs	r4, r4, #1
    eef8:	f105 0508 	add.w	r5, r5, #8
    eefc:	d1f5      	bne.n	eeea <_strtod_r+0xb4a>
    eefe:	e9cd 0102 	strd	r0, r1, [sp, #8]
    ef02:	980a      	ldr	r0, [sp, #40]	; 0x28
    ef04:	b190      	cbz	r0, ef2c <_strtod_r+0xb8c>
    ef06:	9903      	ldr	r1, [sp, #12]
    ef08:	f3c1 530a 	ubfx	r3, r1, #20, #11
    ef0c:	f1c3 036b 	rsb	r3, r3, #107	; 0x6b
    ef10:	2b00      	cmp	r3, #0
    ef12:	460a      	mov	r2, r1
    ef14:	dd0a      	ble.n	ef2c <_strtod_r+0xb8c>
    ef16:	2b1f      	cmp	r3, #31
    ef18:	f340 81bc 	ble.w	f294 <_strtod_r+0xef4>
    ef1c:	2000      	movs	r0, #0
    ef1e:	2b34      	cmp	r3, #52	; 0x34
    ef20:	9002      	str	r0, [sp, #8]
    ef22:	f340 81bf 	ble.w	f2a4 <_strtod_r+0xf04>
    ef26:	f04f 715c 	mov.w	r1, #57671680	; 0x3700000
    ef2a:	9103      	str	r1, [sp, #12]
    ef2c:	e9dd 0102 	ldrd	r0, r1, [sp, #8]
    ef30:	2200      	movs	r2, #0
    ef32:	2300      	movs	r3, #0
    ef34:	f005 fa5a 	bl	143ec <__aeabi_dcmpeq>
    ef38:	2800      	cmp	r0, #0
    ef3a:	f43f ac5d 	beq.w	e7f8 <_strtod_r+0x458>
    ef3e:	2322      	movs	r3, #34	; 0x22
    ef40:	f8cb 3000 	str.w	r3, [fp]
    ef44:	f04f 0800 	mov.w	r8, #0
    ef48:	f04f 0900 	mov.w	r9, #0
    ef4c:	f7ff ba7e 	b.w	e44c <_strtod_r+0xac>
    ef50:	f644 611f 	movw	r1, #19999	; 0x4e1f
    ef54:	e40d      	b.n	e772 <_strtod_r+0x3d2>
    ef56:	9903      	ldr	r1, [sp, #12]
    ef58:	f101 7454 	add.w	r4, r1, #55574528	; 0x3500000
    ef5c:	9403      	str	r4, [sp, #12]
    ef5e:	e567      	b.n	ea30 <_strtod_r+0x690>
    ef60:	9908      	ldr	r1, [sp, #32]
    ef62:	f1ca 0325 	rsb	r3, sl, #37	; 0x25
    ef66:	4299      	cmp	r1, r3
    ef68:	f73f ac2a 	bgt.w	e7c0 <_strtod_r+0x420>
    ef6c:	e9dd 2302 	ldrd	r2, r3, [sp, #8]
    ef70:	4c38      	ldr	r4, [pc, #224]	; (f054 <_strtod_r+0xcb4>)
    ef72:	f1ca 050f 	rsb	r5, sl, #15
    ef76:	eb04 01c5 	add.w	r1, r4, r5, lsl #3
    ef7a:	e9d1 0100 	ldrd	r0, r1, [r1]
    ef7e:	f004 ffcd 	bl	13f1c <__aeabi_dmul>
    ef82:	9a08      	ldr	r2, [sp, #32]
    ef84:	1b55      	subs	r5, r2, r5
    ef86:	eb04 04c5 	add.w	r4, r4, r5, lsl #3
    ef8a:	e9d4 2300 	ldrd	r2, r3, [r4]
    ef8e:	f004 ffc5 	bl	13f1c <__aeabi_dmul>
    ef92:	4680      	mov	r8, r0
    ef94:	4689      	mov	r9, r1
    ef96:	f7ff ba59 	b.w	e44c <_strtod_r+0xac>
    ef9a:	e9dd 010c 	ldrd	r0, r1, [sp, #48]	; 0x30
    ef9e:	e9cd 0114 	strd	r0, r1, [sp, #80]	; 0x50
    efa2:	e660      	b.n	ec66 <_strtod_r+0x8c6>
    efa4:	492d      	ldr	r1, [pc, #180]	; (f05c <_strtod_r+0xcbc>)
    efa6:	2000      	movs	r0, #0
    efa8:	e9cd 010c 	strd	r0, r1, [sp, #48]	; 0x30
    efac:	e651      	b.n	ec52 <_strtod_r+0x8b2>
    efae:	464a      	mov	r2, r9
    efb0:	2a00      	cmp	r2, #0
    efb2:	f47f ae33 	bne.w	ec1c <_strtod_r+0x87c>
    efb6:	46b2      	mov	sl, r6
    efb8:	2322      	movs	r3, #34	; 0x22
    efba:	f8cb 3000 	str.w	r3, [fp]
    efbe:	991a      	ldr	r1, [sp, #104]	; 0x68
    efc0:	f04f 0800 	mov.w	r8, #0
    efc4:	f04f 0900 	mov.w	r9, #0
    efc8:	e712      	b.n	edf0 <_strtod_r+0xa50>
    efca:	9a1a      	ldr	r2, [sp, #104]	; 0x68
    efcc:	b13a      	cbz	r2, efde <_strtod_r+0xc3e>
    efce:	a81c      	add	r0, sp, #112	; 0x70
    efd0:	2135      	movs	r1, #53	; 0x35
    efd2:	f7fe fea7 	bl	dd24 <__copybits>
    efd6:	4658      	mov	r0, fp
    efd8:	991a      	ldr	r1, [sp, #104]	; 0x68
    efda:	f7fe fab5 	bl	d548 <_Bfree>
    efde:	9b1b      	ldr	r3, [sp, #108]	; 0x6c
    efe0:	2d06      	cmp	r5, #6
    efe2:	f63f ab6c 	bhi.w	e6be <_strtod_r+0x31e>
    efe6:	a001      	add	r0, pc, #4	; (adr r0, efec <_strtod_r+0xc4c>)
    efe8:	f850 f025 	ldr.w	pc, [r0, r5, lsl #2]
    efec:	0000f021 	.word	0x0000f021
    eff0:	0000f061 	.word	0x0000f061
    eff4:	0000f015 	.word	0x0000f015
    eff8:	0000f009 	.word	0x0000f009
    effc:	0000e6b3 	.word	0x0000e6b3
    f000:	0000f061 	.word	0x0000f061
    f004:	0000f021 	.word	0x0000f021
    f008:	4911      	ldr	r1, [pc, #68]	; (f050 <_strtod_r+0xcb0>)
    f00a:	2200      	movs	r2, #0
    f00c:	9103      	str	r1, [sp, #12]
    f00e:	9202      	str	r2, [sp, #8]
    f010:	f7ff bb55 	b.w	e6be <_strtod_r+0x31e>
    f014:	9a1c      	ldr	r2, [sp, #112]	; 0x70
    f016:	9b1d      	ldr	r3, [sp, #116]	; 0x74
    f018:	9202      	str	r2, [sp, #8]
    f01a:	9303      	str	r3, [sp, #12]
    f01c:	f7ff bb4f 	b.w	e6be <_strtod_r+0x31e>
    f020:	2100      	movs	r1, #0
    f022:	9103      	str	r1, [sp, #12]
    f024:	9102      	str	r1, [sp, #8]
    f026:	f7ff bb4a 	b.w	e6be <_strtod_r+0x31e>
    f02a:	bf00      	nop
    f02c:	f3af 8000 	nop.w
    f030:	94a03595 	.word	0x94a03595
    f034:	3fcfffff 	.word	0x3fcfffff
    f038:	94a03595 	.word	0x94a03595
    f03c:	3fdfffff 	.word	0x3fdfffff
    f040:	35afe535 	.word	0x35afe535
    f044:	3fe00000 	.word	0x3fe00000
    f048:	7c9fffff 	.word	0x7c9fffff
    f04c:	7fefffff 	.word	0x7fefffff
    f050:	7ff00000 	.word	0x7ff00000
    f054:	00014da0 	.word	0x00014da0
    f058:	00014f00 	.word	0x00014f00
    f05c:	3ff00000 	.word	0x3ff00000
    f060:	9a1d      	ldr	r2, [sp, #116]	; 0x74
    f062:	981c      	ldr	r0, [sp, #112]	; 0x70
    f064:	f203 4333 	addw	r3, r3, #1075	; 0x433
    f068:	f422 1280 	bic.w	r2, r2, #1048576	; 0x100000
    f06c:	ea42 5203 	orr.w	r2, r2, r3, lsl #20
    f070:	9002      	str	r0, [sp, #8]
    f072:	9203      	str	r2, [sp, #12]
    f074:	f7ff bb23 	b.w	e6be <_strtod_r+0x31e>
    f078:	9b08      	ldr	r3, [sp, #32]
    f07a:	3316      	adds	r3, #22
    f07c:	f6ff aba0 	blt.w	e7c0 <_strtod_r+0x420>
    f080:	e9dd 0102 	ldrd	r0, r1, [sp, #8]
    f084:	4b8d      	ldr	r3, [pc, #564]	; (f2bc <_strtod_r+0xf1c>)
    f086:	9a08      	ldr	r2, [sp, #32]
    f088:	eba3 0ac2 	sub.w	sl, r3, r2, lsl #3
    f08c:	e9da 2300 	ldrd	r2, r3, [sl]
    f090:	f005 f86e 	bl	14170 <__aeabi_ddiv>
    f094:	4680      	mov	r8, r0
    f096:	4689      	mov	r9, r1
    f098:	f7ff b9d8 	b.w	e44c <_strtod_r+0xac>
    f09c:	46b2      	mov	sl, r6
    f09e:	4601      	mov	r1, r0
    f0a0:	e69d      	b.n	edde <_strtod_r+0xa3e>
    f0a2:	f1ba 0f10 	cmp.w	sl, #16
    f0a6:	bfdc      	itt	le
    f0a8:	eb07 0787 	addle.w	r7, r7, r7, lsl #2
    f0ac:	eb02 0747 	addle.w	r7, r2, r7, lsl #1
    f0b0:	2000      	movs	r0, #0
    f0b2:	e6f4      	b.n	ee9e <_strtod_r+0xafe>
    f0b4:	4655      	mov	r5, sl
    f0b6:	46c4      	mov	ip, r8
    f0b8:	46b2      	mov	sl, r6
    f0ba:	e9dd 8908 	ldrd	r8, r9, [sp, #32]
    f0be:	2d00      	cmp	r5, #0
    f0c0:	f000 8082 	beq.w	f1c8 <_strtod_r+0xe28>
    f0c4:	9a03      	ldr	r2, [sp, #12]
    f0c6:	4b7e      	ldr	r3, [pc, #504]	; (f2c0 <_strtod_r+0xf20>)
    f0c8:	f3c2 0113 	ubfx	r1, r2, #0, #20
    f0cc:	4299      	cmp	r1, r3
    f0ce:	f000 80a3 	beq.w	f218 <_strtod_r+0xe78>
    f0d2:	9b0c      	ldr	r3, [sp, #48]	; 0x30
    f0d4:	2b00      	cmp	r3, #0
    f0d6:	f000 8083 	beq.w	f1e0 <_strtod_r+0xe40>
    f0da:	9803      	ldr	r0, [sp, #12]
    f0dc:	4203      	tst	r3, r0
    f0de:	d00f      	beq.n	f100 <_strtod_r+0xd60>
    f0e0:	e9dd 0102 	ldrd	r0, r1, [sp, #8]
    f0e4:	9a0a      	ldr	r2, [sp, #40]	; 0x28
    f0e6:	2d00      	cmp	r5, #0
    f0e8:	f000 8084 	beq.w	f1f4 <_strtod_r+0xe54>
    f0ec:	f7ff f936 	bl	e35c <sulp>
    f0f0:	4602      	mov	r2, r0
    f0f2:	460b      	mov	r3, r1
    f0f4:	4640      	mov	r0, r8
    f0f6:	4649      	mov	r1, r9
    f0f8:	f004 fd5e 	bl	13bb8 <__adddf3>
    f0fc:	4680      	mov	r8, r0
    f0fe:	4689      	mov	r9, r1
    f100:	9b0a      	ldr	r3, [sp, #40]	; 0x28
    f102:	b1b3      	cbz	r3, f132 <_strtod_r+0xd92>
    f104:	486f      	ldr	r0, [pc, #444]	; (f2c4 <_strtod_r+0xf24>)
    f106:	2200      	movs	r2, #0
    f108:	9013      	str	r0, [sp, #76]	; 0x4c
    f10a:	9212      	str	r2, [sp, #72]	; 0x48
    f10c:	4640      	mov	r0, r8
    f10e:	4649      	mov	r1, r9
    f110:	e9dd 2312 	ldrd	r2, r3, [sp, #72]	; 0x48
    f114:	f004 ff02 	bl	13f1c <__aeabi_dmul>
    f118:	4680      	mov	r8, r0
    f11a:	4689      	mov	r9, r1
    f11c:	e9cd 8902 	strd	r8, r9, [sp, #8]
    f120:	9b03      	ldr	r3, [sp, #12]
    f122:	b933      	cbnz	r3, f132 <_strtod_r+0xd92>
    f124:	9802      	ldr	r0, [sp, #8]
    f126:	b920      	cbnz	r0, f132 <_strtod_r+0xd92>
    f128:	2322      	movs	r3, #34	; 0x22
    f12a:	991a      	ldr	r1, [sp, #104]	; 0x68
    f12c:	f8cb 3000 	str.w	r3, [fp]
    f130:	e65e      	b.n	edf0 <_strtod_r+0xa50>
    f132:	991a      	ldr	r1, [sp, #104]	; 0x68
    f134:	e65c      	b.n	edf0 <_strtod_r+0xa50>
    f136:	4655      	mov	r5, sl
    f138:	e9dd 8908 	ldrd	r8, r9, [sp, #32]
    f13c:	46b2      	mov	sl, r6
    f13e:	2d00      	cmp	r5, #0
    f140:	d1de      	bne.n	f100 <_strtod_r+0xd60>
    f142:	9a02      	ldr	r2, [sp, #8]
    f144:	2a00      	cmp	r2, #0
    f146:	d1db      	bne.n	f100 <_strtod_r+0xd60>
    f148:	9803      	ldr	r0, [sp, #12]
    f14a:	f3c0 0313 	ubfx	r3, r0, #0, #20
    f14e:	4604      	mov	r4, r0
    f150:	2b00      	cmp	r3, #0
    f152:	d1d5      	bne.n	f100 <_strtod_r+0xd60>
    f154:	f020 4300 	bic.w	r3, r0, #2147483648	; 0x80000000
    f158:	0d1b      	lsrs	r3, r3, #20
    f15a:	051b      	lsls	r3, r3, #20
    f15c:	f1b3 6fd6 	cmp.w	r3, #112197632	; 0x6b00000
    f160:	d9ce      	bls.n	f100 <_strtod_r+0xd60>
    f162:	9906      	ldr	r1, [sp, #24]
    f164:	694b      	ldr	r3, [r1, #20]
    f166:	b913      	cbnz	r3, f16e <_strtod_r+0xdce>
    f168:	690b      	ldr	r3, [r1, #16]
    f16a:	2b01      	cmp	r3, #1
    f16c:	ddc8      	ble.n	f100 <_strtod_r+0xd60>
    f16e:	9906      	ldr	r1, [sp, #24]
    f170:	2201      	movs	r2, #1
    f172:	4658      	mov	r0, fp
    f174:	f7fe fbcc 	bl	d910 <__lshift>
    f178:	4639      	mov	r1, r7
    f17a:	9006      	str	r0, [sp, #24]
    f17c:	f7fe fc26 	bl	d9cc <__mcmp>
    f180:	2800      	cmp	r0, #0
    f182:	ddbd      	ble.n	f100 <_strtod_r+0xd60>
    f184:	9b0a      	ldr	r3, [sp, #40]	; 0x28
    f186:	2b00      	cmp	r3, #0
    f188:	d17a      	bne.n	f280 <_strtod_r+0xee0>
    f18a:	4b4f      	ldr	r3, [pc, #316]	; (f2c8 <_strtod_r+0xf28>)
    f18c:	4023      	ands	r3, r4
    f18e:	f5a3 1380 	sub.w	r3, r3, #1048576	; 0x100000
    f192:	ea6f 5313 	mvn.w	r3, r3, lsr #20
    f196:	ea6f 5003 	mvn.w	r0, r3, lsl #20
    f19a:	f04f 31ff 	mov.w	r1, #4294967295
    f19e:	9003      	str	r0, [sp, #12]
    f1a0:	9102      	str	r1, [sp, #8]
    f1a2:	e9dd 8902 	ldrd	r8, r9, [sp, #8]
    f1a6:	e7ab      	b.n	f100 <_strtod_r+0xd60>
    f1a8:	f101 7154 	add.w	r1, r1, #55574528	; 0x3500000
    f1ac:	2200      	movs	r2, #0
    f1ae:	9103      	str	r1, [sp, #12]
    f1b0:	920a      	str	r2, [sp, #40]	; 0x28
    f1b2:	f7ff bb21 	b.w	e7f8 <_strtod_r+0x458>
    f1b6:	4b45      	ldr	r3, [pc, #276]	; (f2cc <_strtod_r+0xf2c>)
    f1b8:	4945      	ldr	r1, [pc, #276]	; (f2d0 <_strtod_r+0xf30>)
    f1ba:	2200      	movs	r2, #0
    f1bc:	2000      	movs	r0, #0
    f1be:	e9cd 2316 	strd	r2, r3, [sp, #88]	; 0x58
    f1c2:	e9cd 010c 	strd	r0, r1, [sp, #48]	; 0x30
    f1c6:	e4ac      	b.n	eb22 <_strtod_r+0x782>
    f1c8:	9903      	ldr	r1, [sp, #12]
    f1ca:	f3c1 0313 	ubfx	r3, r1, #0, #20
    f1ce:	460c      	mov	r4, r1
    f1d0:	2b00      	cmp	r3, #0
    f1d2:	f47f af7e 	bne.w	f0d2 <_strtod_r+0xd32>
    f1d6:	9a02      	ldr	r2, [sp, #8]
    f1d8:	2a00      	cmp	r2, #0
    f1da:	f47f af7a 	bne.w	f0d2 <_strtod_r+0xd32>
    f1de:	e7d1      	b.n	f184 <_strtod_r+0xde4>
    f1e0:	9902      	ldr	r1, [sp, #8]
    f1e2:	ea1c 0f01 	tst.w	ip, r1
    f1e6:	d08b      	beq.n	f100 <_strtod_r+0xd60>
    f1e8:	e77a      	b.n	f0e0 <_strtod_r+0xd40>
    f1ea:	3101      	adds	r1, #1
    f1ec:	9119      	str	r1, [sp, #100]	; 0x64
    f1ee:	e57e      	b.n	ecee <_strtod_r+0x94e>
    f1f0:	2700      	movs	r7, #0
    f1f2:	e4e8      	b.n	ebc6 <_strtod_r+0x826>
    f1f4:	f7ff f8b2 	bl	e35c <sulp>
    f1f8:	4602      	mov	r2, r0
    f1fa:	460b      	mov	r3, r1
    f1fc:	4640      	mov	r0, r8
    f1fe:	4649      	mov	r1, r9
    f200:	f004 fcd8 	bl	13bb4 <__aeabi_dsub>
    f204:	2200      	movs	r2, #0
    f206:	2300      	movs	r3, #0
    f208:	4680      	mov	r8, r0
    f20a:	4689      	mov	r9, r1
    f20c:	f005 f8ee 	bl	143ec <__aeabi_dcmpeq>
    f210:	2800      	cmp	r0, #0
    f212:	f47f aed1 	bne.w	efb8 <_strtod_r+0xc18>
    f216:	e773      	b.n	f100 <_strtod_r+0xd60>
    f218:	9b0a      	ldr	r3, [sp, #40]	; 0x28
    f21a:	9902      	ldr	r1, [sp, #8]
    f21c:	b1db      	cbz	r3, f256 <_strtod_r+0xeb6>
    f21e:	4b2a      	ldr	r3, [pc, #168]	; (f2c8 <_strtod_r+0xf28>)
    f220:	4013      	ands	r3, r2
    f222:	f1b3 6fd4 	cmp.w	r3, #111149056	; 0x6a00000
    f226:	d816      	bhi.n	f256 <_strtod_r+0xeb6>
    f228:	0d1b      	lsrs	r3, r3, #20
    f22a:	f1c3 036b 	rsb	r3, r3, #107	; 0x6b
    f22e:	f04f 30ff 	mov.w	r0, #4294967295
    f232:	fa00 f303 	lsl.w	r3, r0, r3
    f236:	4299      	cmp	r1, r3
    f238:	f47f af4b 	bne.w	f0d2 <_strtod_r+0xd32>
    f23c:	4b25      	ldr	r3, [pc, #148]	; (f2d4 <_strtod_r+0xf34>)
    f23e:	429a      	cmp	r2, r3
    f240:	d038      	beq.n	f2b4 <_strtod_r+0xf14>
    f242:	4b21      	ldr	r3, [pc, #132]	; (f2c8 <_strtod_r+0xf28>)
    f244:	2000      	movs	r0, #0
    f246:	4013      	ands	r3, r2
    f248:	f503 1380 	add.w	r3, r3, #1048576	; 0x100000
    f24c:	9303      	str	r3, [sp, #12]
    f24e:	9002      	str	r0, [sp, #8]
    f250:	e9dd 8902 	ldrd	r8, r9, [sp, #8]
    f254:	e754      	b.n	f100 <_strtod_r+0xd60>
    f256:	f04f 33ff 	mov.w	r3, #4294967295
    f25a:	e7ec      	b.n	f236 <_strtod_r+0xe96>
    f25c:	a819      	add	r0, sp, #100	; 0x64
    f25e:	491e      	ldr	r1, [pc, #120]	; (f2d8 <_strtod_r+0xf38>)
    f260:	aa1c      	add	r2, sp, #112	; 0x70
    f262:	f003 fa33 	bl	126cc <__hexnan>
    f266:	2805      	cmp	r0, #5
    f268:	f47f ad17 	bne.w	ec9a <_strtod_r+0x8fa>
    f26c:	9b1d      	ldr	r3, [sp, #116]	; 0x74
    f26e:	991c      	ldr	r1, [sp, #112]	; 0x70
    f270:	f043 43ff 	orr.w	r3, r3, #2139095040	; 0x7f800000
    f274:	f443 00e0 	orr.w	r0, r3, #7340032	; 0x700000
    f278:	9003      	str	r0, [sp, #12]
    f27a:	9102      	str	r1, [sp, #8]
    f27c:	f7ff ba25 	b.w	e6ca <_strtod_r+0x32a>
    f280:	4b11      	ldr	r3, [pc, #68]	; (f2c8 <_strtod_r+0xf28>)
    f282:	4023      	ands	r3, r4
    f284:	f1b3 6fd6 	cmp.w	r3, #112197632	; 0x6b00000
    f288:	d881      	bhi.n	f18e <_strtod_r+0xdee>
    f28a:	f1b3 7f5c 	cmp.w	r3, #57671680	; 0x3700000
    f28e:	f63f af39 	bhi.w	f104 <_strtod_r+0xd64>
    f292:	e691      	b.n	efb8 <_strtod_r+0xc18>
    f294:	f04f 32ff 	mov.w	r2, #4294967295
    f298:	fa02 f303 	lsl.w	r3, r2, r3
    f29c:	9a02      	ldr	r2, [sp, #8]
    f29e:	4013      	ands	r3, r2
    f2a0:	9302      	str	r3, [sp, #8]
    f2a2:	e643      	b.n	ef2c <_strtod_r+0xb8c>
    f2a4:	3b20      	subs	r3, #32
    f2a6:	f04f 31ff 	mov.w	r1, #4294967295
    f2aa:	fa01 f303 	lsl.w	r3, r1, r3
    f2ae:	4013      	ands	r3, r2
    f2b0:	9303      	str	r3, [sp, #12]
    f2b2:	e63b      	b.n	ef2c <_strtod_r+0xb8c>
    f2b4:	3101      	adds	r1, #1
    f2b6:	d1c4      	bne.n	f242 <_strtod_r+0xea2>
    f2b8:	e590      	b.n	eddc <_strtod_r+0xa3c>
    f2ba:	bf00      	nop
    f2bc:	00014da0 	.word	0x00014da0
    f2c0:	000fffff 	.word	0x000fffff
    f2c4:	39500000 	.word	0x39500000
    f2c8:	7ff00000 	.word	0x7ff00000
    f2cc:	bfe00000 	.word	0xbfe00000
    f2d0:	3fe00000 	.word	0x3fe00000
    f2d4:	7fefffff 	.word	0x7fefffff
    f2d8:	00014ee8 	.word	0x00014ee8
    f2dc:	f3af 8000 	nop.w

0000f2e0 <strtod>:
    f2e0:	4b02      	ldr	r3, [pc, #8]	; (f2ec <strtod+0xc>)
    f2e2:	460a      	mov	r2, r1
    f2e4:	4601      	mov	r1, r0
    f2e6:	6818      	ldr	r0, [r3, #0]
    f2e8:	f7ff b85a 	b.w	e3a0 <_strtod_r>
    f2ec:	0001d5e8 	.word	0x0001d5e8

0000f2f0 <strtof>:
    f2f0:	b538      	push	{r3, r4, r5, lr}
    f2f2:	4b0a      	ldr	r3, [pc, #40]	; (f31c <strtof+0x2c>)
    f2f4:	460a      	mov	r2, r1
    f2f6:	4601      	mov	r1, r0
    f2f8:	6818      	ldr	r0, [r3, #0]
    f2fa:	f7ff f851 	bl	e3a0 <_strtod_r>
    f2fe:	4604      	mov	r4, r0
    f300:	460d      	mov	r5, r1
    f302:	f7fe fe61 	bl	dfc8 <__fpclassifyd>
    f306:	b120      	cbz	r0, f312 <strtof+0x22>
    f308:	4620      	mov	r0, r4
    f30a:	4629      	mov	r1, r5
    f30c:	f005 f8e8 	bl	144e0 <__aeabi_d2f>
    f310:	bd38      	pop	{r3, r4, r5, pc}
    f312:	e8bd 4038 	ldmia.w	sp!, {r3, r4, r5, lr}
    f316:	f7fe beb7 	b.w	e088 <nanf>
    f31a:	bf00      	nop
    f31c:	0001d5e8 	.word	0x0001d5e8

0000f320 <_strtol_r>:
    f320:	e92d 0ff0 	stmdb	sp!, {r4, r5, r6, r7, r8, r9, sl, fp}
    f324:	4c42      	ldr	r4, [pc, #264]	; (f430 <_strtol_r+0x110>)
    f326:	b082      	sub	sp, #8
    f328:	f8d4 c000 	ldr.w	ip, [r4]
    f32c:	9001      	str	r0, [sp, #4]
    f32e:	460e      	mov	r6, r1
    f330:	e000      	b.n	f334 <_strtol_r+0x14>
    f332:	4626      	mov	r6, r4
    f334:	4634      	mov	r4, r6
    f336:	f814 5b01 	ldrb.w	r5, [r4], #1
    f33a:	eb0c 0005 	add.w	r0, ip, r5
    f33e:	7840      	ldrb	r0, [r0, #1]
    f340:	f000 0008 	and.w	r0, r0, #8
    f344:	f000 0aff 	and.w	sl, r0, #255	; 0xff
    f348:	2800      	cmp	r0, #0
    f34a:	d1f2      	bne.n	f332 <_strtol_r+0x12>
    f34c:	2d2d      	cmp	r5, #45	; 0x2d
    f34e:	d05b      	beq.n	f408 <_strtol_r+0xe8>
    f350:	2d2b      	cmp	r5, #43	; 0x2b
    f352:	bf04      	itt	eq
    f354:	7875      	ldrbeq	r5, [r6, #1]
    f356:	1cb4      	addeq	r4, r6, #2
    f358:	f033 0010 	bics.w	r0, r3, #16
    f35c:	d03c      	beq.n	f3d8 <_strtol_r+0xb8>
    f35e:	4699      	mov	r9, r3
    f360:	f1ba 0f00 	cmp.w	sl, #0
    f364:	bf0c      	ite	eq
    f366:	f06f 4b00 	mvneq.w	fp, #2147483648	; 0x80000000
    f36a:	f04f 4b00 	movne.w	fp, #2147483648	; 0x80000000
    f36e:	fbbb f8f9 	udiv	r8, fp, r9
    f372:	2700      	movs	r7, #0
    f374:	fb09 bb18 	mls	fp, r9, r8, fp
    f378:	4638      	mov	r0, r7
    f37a:	e00c      	b.n	f396 <_strtol_r+0x76>
    f37c:	3d30      	subs	r5, #48	; 0x30
    f37e:	42ab      	cmp	r3, r5
    f380:	dd19      	ble.n	f3b6 <_strtol_r+0x96>
    f382:	1c7e      	adds	r6, r7, #1
    f384:	d005      	beq.n	f392 <_strtol_r+0x72>
    f386:	4540      	cmp	r0, r8
    f388:	d823      	bhi.n	f3d2 <_strtol_r+0xb2>
    f38a:	d020      	beq.n	f3ce <_strtol_r+0xae>
    f38c:	fb09 5000 	mla	r0, r9, r0, r5
    f390:	2701      	movs	r7, #1
    f392:	f814 5b01 	ldrb.w	r5, [r4], #1
    f396:	eb0c 0605 	add.w	r6, ip, r5
    f39a:	7876      	ldrb	r6, [r6, #1]
    f39c:	f016 0f04 	tst.w	r6, #4
    f3a0:	d1ec      	bne.n	f37c <_strtol_r+0x5c>
    f3a2:	f016 0603 	ands.w	r6, r6, #3
    f3a6:	d006      	beq.n	f3b6 <_strtol_r+0x96>
    f3a8:	2e01      	cmp	r6, #1
    f3aa:	bf14      	ite	ne
    f3ac:	2657      	movne	r6, #87	; 0x57
    f3ae:	2637      	moveq	r6, #55	; 0x37
    f3b0:	1bad      	subs	r5, r5, r6
    f3b2:	42ab      	cmp	r3, r5
    f3b4:	dce5      	bgt.n	f382 <_strtol_r+0x62>
    f3b6:	1c7b      	adds	r3, r7, #1
    f3b8:	d015      	beq.n	f3e6 <_strtol_r+0xc6>
    f3ba:	f1ba 0f00 	cmp.w	sl, #0
    f3be:	d121      	bne.n	f404 <_strtol_r+0xe4>
    f3c0:	b10a      	cbz	r2, f3c6 <_strtol_r+0xa6>
    f3c2:	b9ef      	cbnz	r7, f400 <_strtol_r+0xe0>
    f3c4:	6011      	str	r1, [r2, #0]
    f3c6:	b002      	add	sp, #8
    f3c8:	e8bd 0ff0 	ldmia.w	sp!, {r4, r5, r6, r7, r8, r9, sl, fp}
    f3cc:	4770      	bx	lr
    f3ce:	455d      	cmp	r5, fp
    f3d0:	dddc      	ble.n	f38c <_strtol_r+0x6c>
    f3d2:	f04f 37ff 	mov.w	r7, #4294967295
    f3d6:	e7dc      	b.n	f392 <_strtol_r+0x72>
    f3d8:	2d30      	cmp	r5, #48	; 0x30
    f3da:	d01a      	beq.n	f412 <_strtol_r+0xf2>
    f3dc:	2b00      	cmp	r3, #0
    f3de:	d1be      	bne.n	f35e <_strtol_r+0x3e>
    f3e0:	230a      	movs	r3, #10
    f3e2:	4699      	mov	r9, r3
    f3e4:	e7bc      	b.n	f360 <_strtol_r+0x40>
    f3e6:	9901      	ldr	r1, [sp, #4]
    f3e8:	f1ba 0f00 	cmp.w	sl, #0
    f3ec:	f04f 0322 	mov.w	r3, #34	; 0x22
    f3f0:	bf0c      	ite	eq
    f3f2:	f06f 4000 	mvneq.w	r0, #2147483648	; 0x80000000
    f3f6:	f04f 4000 	movne.w	r0, #2147483648	; 0x80000000
    f3fa:	600b      	str	r3, [r1, #0]
    f3fc:	2a00      	cmp	r2, #0
    f3fe:	d0e2      	beq.n	f3c6 <_strtol_r+0xa6>
    f400:	1e61      	subs	r1, r4, #1
    f402:	e7df      	b.n	f3c4 <_strtol_r+0xa4>
    f404:	4240      	negs	r0, r0
    f406:	e7db      	b.n	f3c0 <_strtol_r+0xa0>
    f408:	1cb4      	adds	r4, r6, #2
    f40a:	7875      	ldrb	r5, [r6, #1]
    f40c:	f04f 0a01 	mov.w	sl, #1
    f410:	e7a2      	b.n	f358 <_strtol_r+0x38>
    f412:	7820      	ldrb	r0, [r4, #0]
    f414:	f000 00df 	and.w	r0, r0, #223	; 0xdf
    f418:	2858      	cmp	r0, #88	; 0x58
    f41a:	d003      	beq.n	f424 <_strtol_r+0x104>
    f41c:	2b00      	cmp	r3, #0
    f41e:	d19e      	bne.n	f35e <_strtol_r+0x3e>
    f420:	2308      	movs	r3, #8
    f422:	e79c      	b.n	f35e <_strtol_r+0x3e>
    f424:	2310      	movs	r3, #16
    f426:	7865      	ldrb	r5, [r4, #1]
    f428:	4699      	mov	r9, r3
    f42a:	3402      	adds	r4, #2
    f42c:	e798      	b.n	f360 <_strtol_r+0x40>
    f42e:	bf00      	nop
    f430:	0001d9fc 	.word	0x0001d9fc

0000f434 <strtol>:
    f434:	b430      	push	{r4, r5}
    f436:	4c04      	ldr	r4, [pc, #16]	; (f448 <strtol+0x14>)
    f438:	460d      	mov	r5, r1
    f43a:	4613      	mov	r3, r2
    f43c:	4601      	mov	r1, r0
    f43e:	462a      	mov	r2, r5
    f440:	6820      	ldr	r0, [r4, #0]
    f442:	bc30      	pop	{r4, r5}
    f444:	f7ff bf6c 	b.w	f320 <_strtol_r>
    f448:	0001d5e8 	.word	0x0001d5e8

0000f44c <_strtoll_r>:
    f44c:	e92d 4ff0 	stmdb	sp!, {r4, r5, r6, r7, r8, r9, sl, fp, lr}
    f450:	4c64      	ldr	r4, [pc, #400]	; (f5e4 <_strtoll_r+0x198>)
    f452:	b087      	sub	sp, #28
    f454:	4694      	mov	ip, r2
    f456:	9104      	str	r1, [sp, #16]
    f458:	f8d4 8000 	ldr.w	r8, [r4]
    f45c:	9005      	str	r0, [sp, #20]
    f45e:	4699      	mov	r9, r3
    f460:	460a      	mov	r2, r1
    f462:	e000      	b.n	f466 <_strtoll_r+0x1a>
    f464:	4632      	mov	r2, r6
    f466:	4616      	mov	r6, r2
    f468:	f816 7b01 	ldrb.w	r7, [r6], #1
    f46c:	eb08 0307 	add.w	r3, r8, r7
    f470:	785b      	ldrb	r3, [r3, #1]
    f472:	f003 0308 	and.w	r3, r3, #8
    f476:	f003 01ff 	and.w	r1, r3, #255	; 0xff
    f47a:	2b00      	cmp	r3, #0
    f47c:	d1f2      	bne.n	f464 <_strtoll_r+0x18>
    f47e:	2f2d      	cmp	r7, #45	; 0x2d
    f480:	f000 808d 	beq.w	f59e <_strtoll_r+0x152>
    f484:	2f2b      	cmp	r7, #43	; 0x2b
    f486:	bf08      	it	eq
    f488:	7857      	ldrbeq	r7, [r2, #1]
    f48a:	9102      	str	r1, [sp, #8]
    f48c:	bf08      	it	eq
    f48e:	1c96      	addeq	r6, r2, #2
    f490:	f039 0110 	bics.w	r1, r9, #16
    f494:	d05e      	beq.n	f554 <_strtoll_r+0x108>
    f496:	46ca      	mov	sl, r9
    f498:	ea4f 7be9 	mov.w	fp, r9, asr #31
    f49c:	9c02      	ldr	r4, [sp, #8]
    f49e:	2c00      	cmp	r4, #0
    f4a0:	d066      	beq.n	f570 <_strtoll_r+0x124>
    f4a2:	2400      	movs	r4, #0
    f4a4:	f04f 4500 	mov.w	r5, #2147483648	; 0x80000000
    f4a8:	4620      	mov	r0, r4
    f4aa:	4629      	mov	r1, r5
    f4ac:	4652      	mov	r2, sl
    f4ae:	465b      	mov	r3, fp
    f4b0:	f8cd c004 	str.w	ip, [sp, #4]
    f4b4:	f005 f864 	bl	14580 <__aeabi_uldivmod>
    f4b8:	4620      	mov	r0, r4
    f4ba:	9203      	str	r2, [sp, #12]
    f4bc:	465b      	mov	r3, fp
    f4be:	4652      	mov	r2, sl
    f4c0:	4629      	mov	r1, r5
    f4c2:	f005 f85d 	bl	14580 <__aeabi_uldivmod>
    f4c6:	2400      	movs	r4, #0
    f4c8:	2200      	movs	r2, #0
    f4ca:	2300      	movs	r3, #0
    f4cc:	f8dd c004 	ldr.w	ip, [sp, #4]
    f4d0:	e019      	b.n	f506 <_strtoll_r+0xba>
    f4d2:	3f30      	subs	r7, #48	; 0x30
    f4d4:	45b9      	cmp	r9, r7
    f4d6:	dd26      	ble.n	f526 <_strtoll_r+0xda>
    f4d8:	1c65      	adds	r5, r4, #1
    f4da:	d012      	beq.n	f502 <_strtoll_r+0xb6>
    f4dc:	4299      	cmp	r1, r3
    f4de:	bf08      	it	eq
    f4e0:	4290      	cmpeq	r0, r2
    f4e2:	d334      	bcc.n	f54e <_strtoll_r+0x102>
    f4e4:	428b      	cmp	r3, r1
    f4e6:	bf08      	it	eq
    f4e8:	4282      	cmpeq	r2, r0
    f4ea:	d02d      	beq.n	f548 <_strtoll_r+0xfc>
    f4ec:	fb02 f40b 	mul.w	r4, r2, fp
    f4f0:	fb0a 4403 	mla	r4, sl, r3, r4
    f4f4:	fba2 230a 	umull	r2, r3, r2, sl
    f4f8:	4423      	add	r3, r4
    f4fa:	19d2      	adds	r2, r2, r7
    f4fc:	eb43 73e7 	adc.w	r3, r3, r7, asr #31
    f500:	2401      	movs	r4, #1
    f502:	f816 7b01 	ldrb.w	r7, [r6], #1
    f506:	eb08 0507 	add.w	r5, r8, r7
    f50a:	786d      	ldrb	r5, [r5, #1]
    f50c:	f015 0f04 	tst.w	r5, #4
    f510:	d1df      	bne.n	f4d2 <_strtoll_r+0x86>
    f512:	f015 0503 	ands.w	r5, r5, #3
    f516:	d006      	beq.n	f526 <_strtoll_r+0xda>
    f518:	2d01      	cmp	r5, #1
    f51a:	bf14      	ite	ne
    f51c:	2557      	movne	r5, #87	; 0x57
    f51e:	2537      	moveq	r5, #55	; 0x37
    f520:	1b7f      	subs	r7, r7, r5
    f522:	45b9      	cmp	r9, r7
    f524:	dcd8      	bgt.n	f4d8 <_strtoll_r+0x8c>
    f526:	1c61      	adds	r1, r4, #1
    f528:	d027      	beq.n	f57a <_strtoll_r+0x12e>
    f52a:	9902      	ldr	r1, [sp, #8]
    f52c:	2900      	cmp	r1, #0
    f52e:	d132      	bne.n	f596 <_strtoll_r+0x14a>
    f530:	4610      	mov	r0, r2
    f532:	4619      	mov	r1, r3
    f534:	f1bc 0f00 	cmp.w	ip, #0
    f538:	d003      	beq.n	f542 <_strtoll_r+0xf6>
    f53a:	bb54      	cbnz	r4, f592 <_strtoll_r+0x146>
    f53c:	9e04      	ldr	r6, [sp, #16]
    f53e:	f8cc 6000 	str.w	r6, [ip]
    f542:	b007      	add	sp, #28
    f544:	e8bd 8ff0 	ldmia.w	sp!, {r4, r5, r6, r7, r8, r9, sl, fp, pc}
    f548:	9c03      	ldr	r4, [sp, #12]
    f54a:	42a7      	cmp	r7, r4
    f54c:	ddce      	ble.n	f4ec <_strtoll_r+0xa0>
    f54e:	f04f 34ff 	mov.w	r4, #4294967295
    f552:	e7d6      	b.n	f502 <_strtoll_r+0xb6>
    f554:	2f30      	cmp	r7, #48	; 0x30
    f556:	d027      	beq.n	f5a8 <_strtoll_r+0x15c>
    f558:	f1b9 0f00 	cmp.w	r9, #0
    f55c:	d19b      	bne.n	f496 <_strtoll_r+0x4a>
    f55e:	9c02      	ldr	r4, [sp, #8]
    f560:	f04f 0a0a 	mov.w	sl, #10
    f564:	f04f 0b00 	mov.w	fp, #0
    f568:	f04f 090a 	mov.w	r9, #10
    f56c:	2c00      	cmp	r4, #0
    f56e:	d198      	bne.n	f4a2 <_strtoll_r+0x56>
    f570:	f04f 34ff 	mov.w	r4, #4294967295
    f574:	f06f 4500 	mvn.w	r5, #2147483648	; 0x80000000
    f578:	e796      	b.n	f4a8 <_strtoll_r+0x5c>
    f57a:	9c02      	ldr	r4, [sp, #8]
    f57c:	bb24      	cbnz	r4, f5c8 <_strtoll_r+0x17c>
    f57e:	f04f 30ff 	mov.w	r0, #4294967295
    f582:	f06f 4100 	mvn.w	r1, #2147483648	; 0x80000000
    f586:	9c05      	ldr	r4, [sp, #20]
    f588:	2322      	movs	r3, #34	; 0x22
    f58a:	6023      	str	r3, [r4, #0]
    f58c:	f1bc 0f00 	cmp.w	ip, #0
    f590:	d0d7      	beq.n	f542 <_strtoll_r+0xf6>
    f592:	3e01      	subs	r6, #1
    f594:	e7d3      	b.n	f53e <_strtoll_r+0xf2>
    f596:	4252      	negs	r2, r2
    f598:	eb63 0343 	sbc.w	r3, r3, r3, lsl #1
    f59c:	e7c8      	b.n	f530 <_strtoll_r+0xe4>
    f59e:	2401      	movs	r4, #1
    f5a0:	1c96      	adds	r6, r2, #2
    f5a2:	7857      	ldrb	r7, [r2, #1]
    f5a4:	9402      	str	r4, [sp, #8]
    f5a6:	e773      	b.n	f490 <_strtoll_r+0x44>
    f5a8:	7833      	ldrb	r3, [r6, #0]
    f5aa:	f003 03df 	and.w	r3, r3, #223	; 0xdf
    f5ae:	2b58      	cmp	r3, #88	; 0x58
    f5b0:	d00e      	beq.n	f5d0 <_strtoll_r+0x184>
    f5b2:	f1b9 0f00 	cmp.w	r9, #0
    f5b6:	f47f af6e 	bne.w	f496 <_strtoll_r+0x4a>
    f5ba:	f04f 0a08 	mov.w	sl, #8
    f5be:	f04f 0b00 	mov.w	fp, #0
    f5c2:	f04f 0908 	mov.w	r9, #8
    f5c6:	e769      	b.n	f49c <_strtoll_r+0x50>
    f5c8:	2000      	movs	r0, #0
    f5ca:	f04f 4100 	mov.w	r1, #2147483648	; 0x80000000
    f5ce:	e7da      	b.n	f586 <_strtoll_r+0x13a>
    f5d0:	7877      	ldrb	r7, [r6, #1]
    f5d2:	f04f 0a10 	mov.w	sl, #16
    f5d6:	f04f 0b00 	mov.w	fp, #0
    f5da:	3602      	adds	r6, #2
    f5dc:	f04f 0910 	mov.w	r9, #16
    f5e0:	e75c      	b.n	f49c <_strtoll_r+0x50>
    f5e2:	bf00      	nop
    f5e4:	0001d9fc 	.word	0x0001d9fc

0000f5e8 <_strtoul_r>:
    f5e8:	e92d 0ff0 	stmdb	sp!, {r4, r5, r6, r7, r8, r9, sl, fp}
    f5ec:	4c48      	ldr	r4, [pc, #288]	; (f710 <_strtoul_r+0x128>)
    f5ee:	b082      	sub	sp, #8
    f5f0:	f8d4 c000 	ldr.w	ip, [r4]
    f5f4:	9001      	str	r0, [sp, #4]
    f5f6:	460e      	mov	r6, r1
    f5f8:	e000      	b.n	f5fc <_strtoul_r+0x14>
    f5fa:	4626      	mov	r6, r4
    f5fc:	4634      	mov	r4, r6
    f5fe:	f814 5b01 	ldrb.w	r5, [r4], #1
    f602:	eb0c 0005 	add.w	r0, ip, r5
    f606:	7840      	ldrb	r0, [r0, #1]
    f608:	f000 0008 	and.w	r0, r0, #8
    f60c:	f000 07ff 	and.w	r7, r0, #255	; 0xff
    f610:	2800      	cmp	r0, #0
    f612:	d1f2      	bne.n	f5fa <_strtoul_r+0x12>
    f614:	2d2d      	cmp	r5, #45	; 0x2d
    f616:	d056      	beq.n	f6c6 <_strtoul_r+0xde>
    f618:	2d2b      	cmp	r5, #43	; 0x2b
    f61a:	bf08      	it	eq
    f61c:	7875      	ldrbeq	r5, [r6, #1]
    f61e:	46ba      	mov	sl, r7
    f620:	bf08      	it	eq
    f622:	1cb4      	addeq	r4, r6, #2
    f624:	f033 0010 	bics.w	r0, r3, #16
    f628:	d039      	beq.n	f69e <_strtoul_r+0xb6>
    f62a:	f04f 38ff 	mov.w	r8, #4294967295
    f62e:	fbb8 f8f3 	udiv	r8, r8, r3
    f632:	fb03 fb08 	mul.w	fp, r3, r8
    f636:	4699      	mov	r9, r3
    f638:	ea6f 0b0b 	mvn.w	fp, fp
    f63c:	2700      	movs	r7, #0
    f63e:	4638      	mov	r0, r7
    f640:	e00c      	b.n	f65c <_strtoul_r+0x74>
    f642:	3d30      	subs	r5, #48	; 0x30
    f644:	42ab      	cmp	r3, r5
    f646:	dd19      	ble.n	f67c <_strtoul_r+0x94>
    f648:	2f00      	cmp	r7, #0
    f64a:	db25      	blt.n	f698 <_strtoul_r+0xb0>
    f64c:	4540      	cmp	r0, r8
    f64e:	d823      	bhi.n	f698 <_strtoul_r+0xb0>
    f650:	d020      	beq.n	f694 <_strtoul_r+0xac>
    f652:	fb09 5000 	mla	r0, r9, r0, r5
    f656:	2701      	movs	r7, #1
    f658:	f814 5b01 	ldrb.w	r5, [r4], #1
    f65c:	eb0c 0605 	add.w	r6, ip, r5
    f660:	7876      	ldrb	r6, [r6, #1]
    f662:	f016 0f04 	tst.w	r6, #4
    f666:	d1ec      	bne.n	f642 <_strtoul_r+0x5a>
    f668:	f016 0603 	ands.w	r6, r6, #3
    f66c:	d006      	beq.n	f67c <_strtoul_r+0x94>
    f66e:	2e01      	cmp	r6, #1
    f670:	bf14      	ite	ne
    f672:	2657      	movne	r6, #87	; 0x57
    f674:	2637      	moveq	r6, #55	; 0x37
    f676:	1bad      	subs	r5, r5, r6
    f678:	42ab      	cmp	r3, r5
    f67a:	dce5      	bgt.n	f648 <_strtoul_r+0x60>
    f67c:	2f00      	cmp	r7, #0
    f67e:	db1c      	blt.n	f6ba <_strtoul_r+0xd2>
    f680:	f1ba 0f00 	cmp.w	sl, #0
    f684:	d117      	bne.n	f6b6 <_strtoul_r+0xce>
    f686:	b10a      	cbz	r2, f68c <_strtoul_r+0xa4>
    f688:	b99f      	cbnz	r7, f6b2 <_strtoul_r+0xca>
    f68a:	6011      	str	r1, [r2, #0]
    f68c:	b002      	add	sp, #8
    f68e:	e8bd 0ff0 	ldmia.w	sp!, {r4, r5, r6, r7, r8, r9, sl, fp}
    f692:	4770      	bx	lr
    f694:	455d      	cmp	r5, fp
    f696:	dddc      	ble.n	f652 <_strtoul_r+0x6a>
    f698:	f04f 37ff 	mov.w	r7, #4294967295
    f69c:	e7dc      	b.n	f658 <_strtoul_r+0x70>
    f69e:	2d30      	cmp	r5, #48	; 0x30
    f6a0:	d016      	beq.n	f6d0 <_strtoul_r+0xe8>
    f6a2:	bb5b      	cbnz	r3, f6fc <_strtoul_r+0x114>
    f6a4:	230a      	movs	r3, #10
    f6a6:	4699      	mov	r9, r3
    f6a8:	f04f 0b05 	mov.w	fp, #5
    f6ac:	f8df 8064 	ldr.w	r8, [pc, #100]	; f714 <_strtoul_r+0x12c>
    f6b0:	e7c4      	b.n	f63c <_strtoul_r+0x54>
    f6b2:	1e61      	subs	r1, r4, #1
    f6b4:	e7e9      	b.n	f68a <_strtoul_r+0xa2>
    f6b6:	4240      	negs	r0, r0
    f6b8:	e7e5      	b.n	f686 <_strtoul_r+0x9e>
    f6ba:	9801      	ldr	r0, [sp, #4]
    f6bc:	2322      	movs	r3, #34	; 0x22
    f6be:	6003      	str	r3, [r0, #0]
    f6c0:	f04f 30ff 	mov.w	r0, #4294967295
    f6c4:	e7df      	b.n	f686 <_strtoul_r+0x9e>
    f6c6:	1cb4      	adds	r4, r6, #2
    f6c8:	7875      	ldrb	r5, [r6, #1]
    f6ca:	f04f 0a01 	mov.w	sl, #1
    f6ce:	e7a9      	b.n	f624 <_strtoul_r+0x3c>
    f6d0:	7820      	ldrb	r0, [r4, #0]
    f6d2:	f000 00df 	and.w	r0, r0, #223	; 0xdf
    f6d6:	2858      	cmp	r0, #88	; 0x58
    f6d8:	d007      	beq.n	f6ea <_strtoul_r+0x102>
    f6da:	b97b      	cbnz	r3, f6fc <_strtoul_r+0x114>
    f6dc:	2308      	movs	r3, #8
    f6de:	4699      	mov	r9, r3
    f6e0:	f04f 0b07 	mov.w	fp, #7
    f6e4:	f06f 4860 	mvn.w	r8, #3758096384	; 0xe0000000
    f6e8:	e7a8      	b.n	f63c <_strtoul_r+0x54>
    f6ea:	2310      	movs	r3, #16
    f6ec:	7865      	ldrb	r5, [r4, #1]
    f6ee:	4699      	mov	r9, r3
    f6f0:	f04f 0b0f 	mov.w	fp, #15
    f6f4:	3402      	adds	r4, #2
    f6f6:	f06f 4870 	mvn.w	r8, #4026531840	; 0xf0000000
    f6fa:	e79f      	b.n	f63c <_strtoul_r+0x54>
    f6fc:	f04f 38ff 	mov.w	r8, #4294967295
    f700:	fbb8 f8f3 	udiv	r8, r8, r3
    f704:	fb03 fb08 	mul.w	fp, r3, r8
    f708:	4699      	mov	r9, r3
    f70a:	ea6f 0b0b 	mvn.w	fp, fp
    f70e:	e795      	b.n	f63c <_strtoul_r+0x54>
    f710:	0001d9fc 	.word	0x0001d9fc
    f714:	19999999 	.word	0x19999999

0000f718 <strtoul>:
    f718:	b430      	push	{r4, r5}
    f71a:	4c04      	ldr	r4, [pc, #16]	; (f72c <strtoul+0x14>)
    f71c:	460d      	mov	r5, r1
    f71e:	4613      	mov	r3, r2
    f720:	4601      	mov	r1, r0
    f722:	462a      	mov	r2, r5
    f724:	6820      	ldr	r0, [r4, #0]
    f726:	bc30      	pop	{r4, r5}
    f728:	f7ff bf5e 	b.w	f5e8 <_strtoul_r>
    f72c:	0001d5e8 	.word	0x0001d5e8

0000f730 <_strtoull_r>:
    f730:	e92d 4ff0 	stmdb	sp!, {r4, r5, r6, r7, r8, r9, sl, fp, lr}
    f734:	4c60      	ldr	r4, [pc, #384]	; (f8b8 <_strtoull_r+0x188>)
    f736:	b085      	sub	sp, #20
    f738:	9200      	str	r2, [sp, #0]
    f73a:	9101      	str	r1, [sp, #4]
    f73c:	f8d4 8000 	ldr.w	r8, [r4]
    f740:	9003      	str	r0, [sp, #12]
    f742:	4699      	mov	r9, r3
    f744:	460a      	mov	r2, r1
    f746:	e000      	b.n	f74a <_strtoull_r+0x1a>
    f748:	4632      	mov	r2, r6
    f74a:	4616      	mov	r6, r2
    f74c:	f816 7b01 	ldrb.w	r7, [r6], #1
    f750:	eb08 0307 	add.w	r3, r8, r7
    f754:	785b      	ldrb	r3, [r3, #1]
    f756:	f003 0308 	and.w	r3, r3, #8
    f75a:	f003 01ff 	and.w	r1, r3, #255	; 0xff
    f75e:	2b00      	cmp	r3, #0
    f760:	d1f2      	bne.n	f748 <_strtoull_r+0x18>
    f762:	2f2d      	cmp	r7, #45	; 0x2d
    f764:	d07d      	beq.n	f862 <_strtoull_r+0x132>
    f766:	2f2b      	cmp	r7, #43	; 0x2b
    f768:	bf08      	it	eq
    f76a:	7857      	ldrbeq	r7, [r2, #1]
    f76c:	9102      	str	r1, [sp, #8]
    f76e:	bf08      	it	eq
    f770:	1c96      	addeq	r6, r2, #2
    f772:	f039 0210 	bics.w	r2, r9, #16
    f776:	d055      	beq.n	f824 <_strtoull_r+0xf4>
    f778:	ea4f 7be9 	mov.w	fp, r9, asr #31
    f77c:	464a      	mov	r2, r9
    f77e:	465b      	mov	r3, fp
    f780:	f04f 30ff 	mov.w	r0, #4294967295
    f784:	f04f 31ff 	mov.w	r1, #4294967295
    f788:	f004 fefa 	bl	14580 <__aeabi_uldivmod>
    f78c:	464a      	mov	r2, r9
    f78e:	4604      	mov	r4, r0
    f790:	460d      	mov	r5, r1
    f792:	465b      	mov	r3, fp
    f794:	f04f 30ff 	mov.w	r0, #4294967295
    f798:	f04f 31ff 	mov.w	r1, #4294967295
    f79c:	f004 fef0 	bl	14580 <__aeabi_uldivmod>
    f7a0:	46ca      	mov	sl, r9
    f7a2:	4694      	mov	ip, r2
    f7a4:	2300      	movs	r3, #0
    f7a6:	2000      	movs	r0, #0
    f7a8:	2100      	movs	r1, #0
    f7aa:	e019      	b.n	f7e0 <_strtoull_r+0xb0>
    f7ac:	3f30      	subs	r7, #48	; 0x30
    f7ae:	45b9      	cmp	r9, r7
    f7b0:	dd26      	ble.n	f800 <_strtoull_r+0xd0>
    f7b2:	2b00      	cmp	r3, #0
    f7b4:	db33      	blt.n	f81e <_strtoull_r+0xee>
    f7b6:	428d      	cmp	r5, r1
    f7b8:	bf08      	it	eq
    f7ba:	4284      	cmpeq	r4, r0
    f7bc:	d32f      	bcc.n	f81e <_strtoull_r+0xee>
    f7be:	42a9      	cmp	r1, r5
    f7c0:	bf08      	it	eq
    f7c2:	42a0      	cmpeq	r0, r4
    f7c4:	d029      	beq.n	f81a <_strtoull_r+0xea>
    f7c6:	fb00 f30b 	mul.w	r3, r0, fp
    f7ca:	fb0a 3301 	mla	r3, sl, r1, r3
    f7ce:	fba0 010a 	umull	r0, r1, r0, sl
    f7d2:	4419      	add	r1, r3
    f7d4:	19c0      	adds	r0, r0, r7
    f7d6:	eb41 71e7 	adc.w	r1, r1, r7, asr #31
    f7da:	2301      	movs	r3, #1
    f7dc:	f816 7b01 	ldrb.w	r7, [r6], #1
    f7e0:	eb08 0207 	add.w	r2, r8, r7
    f7e4:	7852      	ldrb	r2, [r2, #1]
    f7e6:	f012 0f04 	tst.w	r2, #4
    f7ea:	d1df      	bne.n	f7ac <_strtoull_r+0x7c>
    f7ec:	f012 0203 	ands.w	r2, r2, #3
    f7f0:	d006      	beq.n	f800 <_strtoull_r+0xd0>
    f7f2:	2a01      	cmp	r2, #1
    f7f4:	bf14      	ite	ne
    f7f6:	2257      	movne	r2, #87	; 0x57
    f7f8:	2237      	moveq	r2, #55	; 0x37
    f7fa:	1abf      	subs	r7, r7, r2
    f7fc:	45b9      	cmp	r9, r7
    f7fe:	dcd8      	bgt.n	f7b2 <_strtoull_r+0x82>
    f800:	2b00      	cmp	r3, #0
    f802:	db26      	blt.n	f852 <_strtoull_r+0x122>
    f804:	9a02      	ldr	r2, [sp, #8]
    f806:	bb02      	cbnz	r2, f84a <_strtoull_r+0x11a>
    f808:	9a00      	ldr	r2, [sp, #0]
    f80a:	b11a      	cbz	r2, f814 <_strtoull_r+0xe4>
    f80c:	b9db      	cbnz	r3, f846 <_strtoull_r+0x116>
    f80e:	9e01      	ldr	r6, [sp, #4]
    f810:	9b00      	ldr	r3, [sp, #0]
    f812:	601e      	str	r6, [r3, #0]
    f814:	b005      	add	sp, #20
    f816:	e8bd 8ff0 	ldmia.w	sp!, {r4, r5, r6, r7, r8, r9, sl, fp, pc}
    f81a:	4567      	cmp	r7, ip
    f81c:	ddd3      	ble.n	f7c6 <_strtoull_r+0x96>
    f81e:	f04f 33ff 	mov.w	r3, #4294967295
    f822:	e7db      	b.n	f7dc <_strtoull_r+0xac>
    f824:	2f30      	cmp	r7, #48	; 0x30
    f826:	d021      	beq.n	f86c <_strtoull_r+0x13c>
    f828:	f1b9 0f00 	cmp.w	r9, #0
    f82c:	d1a4      	bne.n	f778 <_strtoull_r+0x48>
    f82e:	f04f 0c05 	mov.w	ip, #5
    f832:	f04f 3499 	mov.w	r4, #2576980377	; 0x99999999
    f836:	4d21      	ldr	r5, [pc, #132]	; (f8bc <_strtoull_r+0x18c>)
    f838:	f04f 0a0a 	mov.w	sl, #10
    f83c:	f04f 0b00 	mov.w	fp, #0
    f840:	f04f 090a 	mov.w	r9, #10
    f844:	e7ae      	b.n	f7a4 <_strtoull_r+0x74>
    f846:	3e01      	subs	r6, #1
    f848:	e7e2      	b.n	f810 <_strtoull_r+0xe0>
    f84a:	4240      	negs	r0, r0
    f84c:	eb61 0141 	sbc.w	r1, r1, r1, lsl #1
    f850:	e7da      	b.n	f808 <_strtoull_r+0xd8>
    f852:	9903      	ldr	r1, [sp, #12]
    f854:	2222      	movs	r2, #34	; 0x22
    f856:	600a      	str	r2, [r1, #0]
    f858:	f04f 30ff 	mov.w	r0, #4294967295
    f85c:	f04f 31ff 	mov.w	r1, #4294967295
    f860:	e7d2      	b.n	f808 <_strtoull_r+0xd8>
    f862:	2101      	movs	r1, #1
    f864:	1c96      	adds	r6, r2, #2
    f866:	7857      	ldrb	r7, [r2, #1]
    f868:	9102      	str	r1, [sp, #8]
    f86a:	e782      	b.n	f772 <_strtoull_r+0x42>
    f86c:	7833      	ldrb	r3, [r6, #0]
    f86e:	f003 03df 	and.w	r3, r3, #223	; 0xdf
    f872:	2b58      	cmp	r3, #88	; 0x58
    f874:	d010      	beq.n	f898 <_strtoull_r+0x168>
    f876:	f1b9 0f00 	cmp.w	r9, #0
    f87a:	f47f af7d 	bne.w	f778 <_strtoull_r+0x48>
    f87e:	f04f 0c07 	mov.w	ip, #7
    f882:	f04f 34ff 	mov.w	r4, #4294967295
    f886:	f06f 4560 	mvn.w	r5, #3758096384	; 0xe0000000
    f88a:	f04f 0a08 	mov.w	sl, #8
    f88e:	f04f 0b00 	mov.w	fp, #0
    f892:	f04f 0908 	mov.w	r9, #8
    f896:	e785      	b.n	f7a4 <_strtoull_r+0x74>
    f898:	7877      	ldrb	r7, [r6, #1]
    f89a:	f04f 0c0f 	mov.w	ip, #15
    f89e:	3602      	adds	r6, #2
    f8a0:	f04f 34ff 	mov.w	r4, #4294967295
    f8a4:	f06f 4570 	mvn.w	r5, #4026531840	; 0xf0000000
    f8a8:	f04f 0a10 	mov.w	sl, #16
    f8ac:	f04f 0b00 	mov.w	fp, #0
    f8b0:	f04f 0910 	mov.w	r9, #16
    f8b4:	e776      	b.n	f7a4 <_strtoull_r+0x74>
    f8b6:	bf00      	nop
    f8b8:	0001d9fc 	.word	0x0001d9fc
    f8bc:	19999999 	.word	0x19999999

0000f8c0 <_svfprintf_r>:
    f8c0:	e92d 4ff0 	stmdb	sp!, {r4, r5, r6, r7, r8, r9, sl, fp, lr}
    f8c4:	b0c9      	sub	sp, #292	; 0x124
    f8c6:	9310      	str	r3, [sp, #64]	; 0x40
    f8c8:	910c      	str	r1, [sp, #48]	; 0x30
    f8ca:	4691      	mov	r9, r2
    f8cc:	900d      	str	r0, [sp, #52]	; 0x34
    f8ce:	f7fd fc35 	bl	d13c <_localeconv_r>
    f8d2:	6800      	ldr	r0, [r0, #0]
    f8d4:	9015      	str	r0, [sp, #84]	; 0x54
    f8d6:	f7f9 fe2b 	bl	9530 <strlen>
    f8da:	9c0c      	ldr	r4, [sp, #48]	; 0x30
    f8dc:	9018      	str	r0, [sp, #96]	; 0x60
    f8de:	89a3      	ldrh	r3, [r4, #12]
    f8e0:	061e      	lsls	r6, r3, #24
    f8e2:	d503      	bpl.n	f8ec <_svfprintf_r+0x2c>
    f8e4:	6923      	ldr	r3, [r4, #16]
    f8e6:	2b00      	cmp	r3, #0
    f8e8:	f001 8081 	beq.w	109ee <_svfprintf_r+0x112e>
    f8ec:	ac38      	add	r4, sp, #224	; 0xe0
    f8ee:	46a4      	mov	ip, r4
    f8f0:	9408      	str	r4, [sp, #32]
    f8f2:	942b      	str	r4, [sp, #172]	; 0xac
    f8f4:	2500      	movs	r5, #0
    f8f6:	2400      	movs	r4, #0
    f8f8:	e9cd 4516 	strd	r4, r5, [sp, #88]	; 0x58
    f8fc:	2300      	movs	r3, #0
    f8fe:	9311      	str	r3, [sp, #68]	; 0x44
    f900:	932d      	str	r3, [sp, #180]	; 0xb4
    f902:	932c      	str	r3, [sp, #176]	; 0xb0
    f904:	931a      	str	r3, [sp, #104]	; 0x68
    f906:	9319      	str	r3, [sp, #100]	; 0x64
    f908:	930e      	str	r3, [sp, #56]	; 0x38
    f90a:	4666      	mov	r6, ip
    f90c:	f899 3000 	ldrb.w	r3, [r9]
    f910:	2b00      	cmp	r3, #0
    f912:	f000 80f8 	beq.w	fb06 <_svfprintf_r+0x246>
    f916:	2b25      	cmp	r3, #37	; 0x25
    f918:	f000 80f5 	beq.w	fb06 <_svfprintf_r+0x246>
    f91c:	f109 0201 	add.w	r2, r9, #1
    f920:	e001      	b.n	f926 <_svfprintf_r+0x66>
    f922:	2b25      	cmp	r3, #37	; 0x25
    f924:	d004      	beq.n	f930 <_svfprintf_r+0x70>
    f926:	7813      	ldrb	r3, [r2, #0]
    f928:	4614      	mov	r4, r2
    f92a:	3201      	adds	r2, #1
    f92c:	2b00      	cmp	r3, #0
    f92e:	d1f8      	bne.n	f922 <_svfprintf_r+0x62>
    f930:	ebc9 0504 	rsb	r5, r9, r4
    f934:	b17d      	cbz	r5, f956 <_svfprintf_r+0x96>
    f936:	9b2c      	ldr	r3, [sp, #176]	; 0xb0
    f938:	9a2d      	ldr	r2, [sp, #180]	; 0xb4
    f93a:	3301      	adds	r3, #1
    f93c:	442a      	add	r2, r5
    f93e:	2b07      	cmp	r3, #7
    f940:	f8c6 9000 	str.w	r9, [r6]
    f944:	6075      	str	r5, [r6, #4]
    f946:	922d      	str	r2, [sp, #180]	; 0xb4
    f948:	932c      	str	r3, [sp, #176]	; 0xb0
    f94a:	f300 80c2 	bgt.w	fad2 <_svfprintf_r+0x212>
    f94e:	3608      	adds	r6, #8
    f950:	980e      	ldr	r0, [sp, #56]	; 0x38
    f952:	4428      	add	r0, r5
    f954:	900e      	str	r0, [sp, #56]	; 0x38
    f956:	7823      	ldrb	r3, [r4, #0]
    f958:	2b00      	cmp	r3, #0
    f95a:	f000 80c2 	beq.w	fae2 <_svfprintf_r+0x222>
    f95e:	2300      	movs	r3, #0
    f960:	f894 8001 	ldrb.w	r8, [r4, #1]
    f964:	461a      	mov	r2, r3
    f966:	f88d 308f 	strb.w	r3, [sp, #143]	; 0x8f
    f96a:	930f      	str	r3, [sp, #60]	; 0x3c
    f96c:	9309      	str	r3, [sp, #36]	; 0x24
    f96e:	f104 0901 	add.w	r9, r4, #1
    f972:	f04f 34ff 	mov.w	r4, #4294967295
    f976:	940a      	str	r4, [sp, #40]	; 0x28
    f978:	f109 0901 	add.w	r9, r9, #1
    f97c:	f1a8 0320 	sub.w	r3, r8, #32
    f980:	2b58      	cmp	r3, #88	; 0x58
    f982:	f200 83c5 	bhi.w	10110 <_svfprintf_r+0x850>
    f986:	e8df f013 	tbh	[pc, r3, lsl #1]
    f98a:	026a      	.short	0x026a
    f98c:	03c303c3 	.word	0x03c303c3
    f990:	03c30271 	.word	0x03c30271
    f994:	03c303c3 	.word	0x03c303c3
    f998:	03c303c3 	.word	0x03c303c3
    f99c:	031403c3 	.word	0x031403c3
    f9a0:	03c30366 	.word	0x03c30366
    f9a4:	00c0009d 	.word	0x00c0009d
    f9a8:	027803c3 	.word	0x027803c3
    f9ac:	027f027f 	.word	0x027f027f
    f9b0:	027f027f 	.word	0x027f027f
    f9b4:	027f027f 	.word	0x027f027f
    f9b8:	027f027f 	.word	0x027f027f
    f9bc:	03c3027f 	.word	0x03c3027f
    f9c0:	03c303c3 	.word	0x03c303c3
    f9c4:	03c303c3 	.word	0x03c303c3
    f9c8:	03c303c3 	.word	0x03c303c3
    f9cc:	03c303c3 	.word	0x03c303c3
    f9d0:	029003c3 	.word	0x029003c3
    f9d4:	03c30371 	.word	0x03c30371
    f9d8:	03c30371 	.word	0x03c30371
    f9dc:	03c303c3 	.word	0x03c303c3
    f9e0:	036a03c3 	.word	0x036a03c3
    f9e4:	03c303c3 	.word	0x03c303c3
    f9e8:	03c30078 	.word	0x03c30078
    f9ec:	03c303c3 	.word	0x03c303c3
    f9f0:	03c303c3 	.word	0x03c303c3
    f9f4:	03c30059 	.word	0x03c30059
    f9f8:	02af03c3 	.word	0x02af03c3
    f9fc:	03c303c3 	.word	0x03c303c3
    fa00:	03c303c3 	.word	0x03c303c3
    fa04:	03c303c3 	.word	0x03c303c3
    fa08:	03c303c3 	.word	0x03c303c3
    fa0c:	03c303c3 	.word	0x03c303c3
    fa10:	03480337 	.word	0x03480337
    fa14:	03710371 	.word	0x03710371
    fa18:	02ff0371 	.word	0x02ff0371
    fa1c:	03c30348 	.word	0x03c30348
    fa20:	030803c3 	.word	0x030803c3
    fa24:	02c503c3 	.word	0x02c503c3
    fa28:	0320007c 	.word	0x0320007c
    fa2c:	03c303a3 	.word	0x03c303a3
    fa30:	03c302d9 	.word	0x03c302d9
    fa34:	03c3005f 	.word	0x03c3005f
    fa38:	00de03c3 	.word	0x00de03c3
    fa3c:	f8dd c024 	ldr.w	ip, [sp, #36]	; 0x24
    fa40:	f04c 0c10 	orr.w	ip, ip, #16
    fa44:	f8cd c024 	str.w	ip, [sp, #36]	; 0x24
    fa48:	9c09      	ldr	r4, [sp, #36]	; 0x24
    fa4a:	06a2      	lsls	r2, r4, #26
    fa4c:	f100 8354 	bmi.w	100f8 <_svfprintf_r+0x838>
    fa50:	9c09      	ldr	r4, [sp, #36]	; 0x24
    fa52:	06e3      	lsls	r3, r4, #27
    fa54:	f100 85bd 	bmi.w	105d2 <_svfprintf_r+0xd12>
    fa58:	f8dd c024 	ldr.w	ip, [sp, #36]	; 0x24
    fa5c:	f01c 0f40 	tst.w	ip, #64	; 0x40
    fa60:	f000 85b7 	beq.w	105d2 <_svfprintf_r+0xd12>
    fa64:	f8dd c040 	ldr.w	ip, [sp, #64]	; 0x40
    fa68:	2500      	movs	r5, #0
    fa6a:	f8bc 4000 	ldrh.w	r4, [ip]
    fa6e:	f10c 0c04 	add.w	ip, ip, #4
    fa72:	2301      	movs	r3, #1
    fa74:	f8cd c040 	str.w	ip, [sp, #64]	; 0x40
    fa78:	e08c      	b.n	fb94 <_svfprintf_r+0x2d4>
    fa7a:	9d09      	ldr	r5, [sp, #36]	; 0x24
    fa7c:	f045 0510 	orr.w	r5, r5, #16
    fa80:	9509      	str	r5, [sp, #36]	; 0x24
    fa82:	f8dd c024 	ldr.w	ip, [sp, #36]	; 0x24
    fa86:	f01c 0320 	ands.w	r3, ip, #32
    fa8a:	f040 832a 	bne.w	100e2 <_svfprintf_r+0x822>
    fa8e:	f8dd c024 	ldr.w	ip, [sp, #36]	; 0x24
    fa92:	f01c 0210 	ands.w	r2, ip, #16
    fa96:	f040 85a4 	bne.w	105e2 <_svfprintf_r+0xd22>
    fa9a:	f8dd c024 	ldr.w	ip, [sp, #36]	; 0x24
    fa9e:	f01c 0340 	ands.w	r3, ip, #64	; 0x40
    faa2:	f000 859e 	beq.w	105e2 <_svfprintf_r+0xd22>
    faa6:	f8dd c040 	ldr.w	ip, [sp, #64]	; 0x40
    faaa:	4613      	mov	r3, r2
    faac:	f8bc 4000 	ldrh.w	r4, [ip]
    fab0:	f10c 0c04 	add.w	ip, ip, #4
    fab4:	2500      	movs	r5, #0
    fab6:	f8cd c040 	str.w	ip, [sp, #64]	; 0x40
    faba:	e06b      	b.n	fb94 <_svfprintf_r+0x2d4>
    fabc:	9c0f      	ldr	r4, [sp, #60]	; 0x3c
    fabe:	9310      	str	r3, [sp, #64]	; 0x40
    fac0:	4264      	negs	r4, r4
    fac2:	940f      	str	r4, [sp, #60]	; 0x3c
    fac4:	9d09      	ldr	r5, [sp, #36]	; 0x24
    fac6:	f045 0504 	orr.w	r5, r5, #4
    faca:	9509      	str	r5, [sp, #36]	; 0x24
    facc:	f899 8000 	ldrb.w	r8, [r9]
    fad0:	e752      	b.n	f978 <_svfprintf_r+0xb8>
    fad2:	980d      	ldr	r0, [sp, #52]	; 0x34
    fad4:	990c      	ldr	r1, [sp, #48]	; 0x30
    fad6:	aa2b      	add	r2, sp, #172	; 0xac
    fad8:	f003 f974 	bl	12dc4 <__ssprint_r>
    fadc:	b940      	cbnz	r0, faf0 <_svfprintf_r+0x230>
    fade:	ae38      	add	r6, sp, #224	; 0xe0
    fae0:	e736      	b.n	f950 <_svfprintf_r+0x90>
    fae2:	9b2d      	ldr	r3, [sp, #180]	; 0xb4
    fae4:	b123      	cbz	r3, faf0 <_svfprintf_r+0x230>
    fae6:	980d      	ldr	r0, [sp, #52]	; 0x34
    fae8:	990c      	ldr	r1, [sp, #48]	; 0x30
    faea:	aa2b      	add	r2, sp, #172	; 0xac
    faec:	f003 f96a 	bl	12dc4 <__ssprint_r>
    faf0:	9c0c      	ldr	r4, [sp, #48]	; 0x30
    faf2:	980e      	ldr	r0, [sp, #56]	; 0x38
    faf4:	89a3      	ldrh	r3, [r4, #12]
    faf6:	f013 0f40 	tst.w	r3, #64	; 0x40
    fafa:	bf18      	it	ne
    fafc:	f04f 30ff 	movne.w	r0, #4294967295
    fb00:	b049      	add	sp, #292	; 0x124
    fb02:	e8bd 8ff0 	ldmia.w	sp!, {r4, r5, r6, r7, r8, r9, sl, fp, pc}
    fb06:	464c      	mov	r4, r9
    fb08:	e725      	b.n	f956 <_svfprintf_r+0x96>
    fb0a:	f899 8000 	ldrb.w	r8, [r9]
    fb0e:	f109 0001 	add.w	r0, r9, #1
    fb12:	f1b8 0f2a 	cmp.w	r8, #42	; 0x2a
    fb16:	f001 810c 	beq.w	10d32 <_svfprintf_r+0x1472>
    fb1a:	f1a8 0330 	sub.w	r3, r8, #48	; 0x30
    fb1e:	2b09      	cmp	r3, #9
    fb20:	bf98      	it	ls
    fb22:	2100      	movls	r1, #0
    fb24:	f201 806b 	bhi.w	10bfe <_svfprintf_r+0x133e>
    fb28:	f810 8b01 	ldrb.w	r8, [r0], #1
    fb2c:	eb01 0181 	add.w	r1, r1, r1, lsl #2
    fb30:	eb03 0141 	add.w	r1, r3, r1, lsl #1
    fb34:	f1a8 0330 	sub.w	r3, r8, #48	; 0x30
    fb38:	2b09      	cmp	r3, #9
    fb3a:	d9f5      	bls.n	fb28 <_svfprintf_r+0x268>
    fb3c:	ea41 71e1 	orr.w	r1, r1, r1, asr #31
    fb40:	910a      	str	r1, [sp, #40]	; 0x28
    fb42:	4681      	mov	r9, r0
    fb44:	e71a      	b.n	f97c <_svfprintf_r+0xbc>
    fb46:	9d09      	ldr	r5, [sp, #36]	; 0x24
    fb48:	4ca1      	ldr	r4, [pc, #644]	; (fdd0 <_svfprintf_r+0x510>)
    fb4a:	06af      	lsls	r7, r5, #26
    fb4c:	941a      	str	r4, [sp, #104]	; 0x68
    fb4e:	f88d 208f 	strb.w	r2, [sp, #143]	; 0x8f
    fb52:	f140 81d1 	bpl.w	fef8 <_svfprintf_r+0x638>
    fb56:	f8dd c040 	ldr.w	ip, [sp, #64]	; 0x40
    fb5a:	f10c 0307 	add.w	r3, ip, #7
    fb5e:	f023 0307 	bic.w	r3, r3, #7
    fb62:	f103 0408 	add.w	r4, r3, #8
    fb66:	9410      	str	r4, [sp, #64]	; 0x40
    fb68:	e9d3 4500 	ldrd	r4, r5, [r3]
    fb6c:	f8dd c024 	ldr.w	ip, [sp, #36]	; 0x24
    fb70:	f01c 0f01 	tst.w	ip, #1
    fb74:	f000 8462 	beq.w	1043c <_svfprintf_r+0xb7c>
    fb78:	ea54 0005 	orrs.w	r0, r4, r5
    fb7c:	f000 845e 	beq.w	1043c <_svfprintf_r+0xb7c>
    fb80:	2330      	movs	r3, #48	; 0x30
    fb82:	f04c 0c02 	orr.w	ip, ip, #2
    fb86:	f88d 3090 	strb.w	r3, [sp, #144]	; 0x90
    fb8a:	f88d 8091 	strb.w	r8, [sp, #145]	; 0x91
    fb8e:	f8cd c024 	str.w	ip, [sp, #36]	; 0x24
    fb92:	2302      	movs	r3, #2
    fb94:	f04f 0a00 	mov.w	sl, #0
    fb98:	f88d a08f 	strb.w	sl, [sp, #143]	; 0x8f
    fb9c:	990a      	ldr	r1, [sp, #40]	; 0x28
    fb9e:	2900      	cmp	r1, #0
    fba0:	db05      	blt.n	fbae <_svfprintf_r+0x2ee>
    fba2:	f8dd c024 	ldr.w	ip, [sp, #36]	; 0x24
    fba6:	f02c 0c80 	bic.w	ip, ip, #128	; 0x80
    fbaa:	f8cd c024 	str.w	ip, [sp, #36]	; 0x24
    fbae:	ea54 0005 	orrs.w	r0, r4, r5
    fbb2:	f040 82c5 	bne.w	10140 <_svfprintf_r+0x880>
    fbb6:	990a      	ldr	r1, [sp, #40]	; 0x28
    fbb8:	2900      	cmp	r1, #0
    fbba:	f040 82c1 	bne.w	10140 <_svfprintf_r+0x880>
    fbbe:	2b00      	cmp	r3, #0
    fbc0:	f040 8438 	bne.w	10434 <_svfprintf_r+0xb74>
    fbc4:	f8dd c024 	ldr.w	ip, [sp, #36]	; 0x24
    fbc8:	f01c 0f01 	tst.w	ip, #1
    fbcc:	f000 8432 	beq.w	10434 <_svfprintf_r+0xb74>
    fbd0:	af48      	add	r7, sp, #288	; 0x120
    fbd2:	2330      	movs	r3, #48	; 0x30
    fbd4:	9d08      	ldr	r5, [sp, #32]
    fbd6:	f807 3d41 	strb.w	r3, [r7, #-65]!
    fbda:	1bec      	subs	r4, r5, r7
    fbdc:	f8dd c028 	ldr.w	ip, [sp, #40]	; 0x28
    fbe0:	2500      	movs	r5, #0
    fbe2:	4564      	cmp	r4, ip
    fbe4:	bfa8      	it	ge
    fbe6:	46a4      	movge	ip, r4
    fbe8:	f8cd c02c 	str.w	ip, [sp, #44]	; 0x2c
    fbec:	9514      	str	r5, [sp, #80]	; 0x50
    fbee:	f1ba 0f00 	cmp.w	sl, #0
    fbf2:	d002      	beq.n	fbfa <_svfprintf_r+0x33a>
    fbf4:	9d0b      	ldr	r5, [sp, #44]	; 0x2c
    fbf6:	3501      	adds	r5, #1
    fbf8:	950b      	str	r5, [sp, #44]	; 0x2c
    fbfa:	9b09      	ldr	r3, [sp, #36]	; 0x24
    fbfc:	f013 0302 	ands.w	r3, r3, #2
    fc00:	9312      	str	r3, [sp, #72]	; 0x48
    fc02:	d002      	beq.n	fc0a <_svfprintf_r+0x34a>
    fc04:	9d0b      	ldr	r5, [sp, #44]	; 0x2c
    fc06:	3502      	adds	r5, #2
    fc08:	950b      	str	r5, [sp, #44]	; 0x2c
    fc0a:	f8dd c024 	ldr.w	ip, [sp, #36]	; 0x24
    fc0e:	f01c 0c84 	ands.w	ip, ip, #132	; 0x84
    fc12:	f8cd c04c 	str.w	ip, [sp, #76]	; 0x4c
    fc16:	f040 8290 	bne.w	1013a <_svfprintf_r+0x87a>
    fc1a:	9d0f      	ldr	r5, [sp, #60]	; 0x3c
    fc1c:	f8dd c02c 	ldr.w	ip, [sp, #44]	; 0x2c
    fc20:	ebcc 0b05 	rsb	fp, ip, r5
    fc24:	f1bb 0f00 	cmp.w	fp, #0
    fc28:	f340 8287 	ble.w	1013a <_svfprintf_r+0x87a>
    fc2c:	f1bb 0f10 	cmp.w	fp, #16
    fc30:	992d      	ldr	r1, [sp, #180]	; 0xb4
    fc32:	9a2c      	ldr	r2, [sp, #176]	; 0xb0
    fc34:	f8df a1a0 	ldr.w	sl, [pc, #416]	; fdd8 <_svfprintf_r+0x518>
    fc38:	dd2c      	ble.n	fc94 <_svfprintf_r+0x3d4>
    fc3a:	971b      	str	r7, [sp, #108]	; 0x6c
    fc3c:	4630      	mov	r0, r6
    fc3e:	4657      	mov	r7, sl
    fc40:	2510      	movs	r5, #16
    fc42:	46ca      	mov	sl, r9
    fc44:	9e0c      	ldr	r6, [sp, #48]	; 0x30
    fc46:	46a1      	mov	r9, r4
    fc48:	9c0d      	ldr	r4, [sp, #52]	; 0x34
    fc4a:	e006      	b.n	fc5a <_svfprintf_r+0x39a>
    fc4c:	f1ab 0b10 	sub.w	fp, fp, #16
    fc50:	f1bb 0f10 	cmp.w	fp, #16
    fc54:	f100 0008 	add.w	r0, r0, #8
    fc58:	dd17      	ble.n	fc8a <_svfprintf_r+0x3ca>
    fc5a:	3201      	adds	r2, #1
    fc5c:	3110      	adds	r1, #16
    fc5e:	2a07      	cmp	r2, #7
    fc60:	912d      	str	r1, [sp, #180]	; 0xb4
    fc62:	922c      	str	r2, [sp, #176]	; 0xb0
    fc64:	6007      	str	r7, [r0, #0]
    fc66:	6045      	str	r5, [r0, #4]
    fc68:	ddf0      	ble.n	fc4c <_svfprintf_r+0x38c>
    fc6a:	4620      	mov	r0, r4
    fc6c:	4631      	mov	r1, r6
    fc6e:	aa2b      	add	r2, sp, #172	; 0xac
    fc70:	f003 f8a8 	bl	12dc4 <__ssprint_r>
    fc74:	2800      	cmp	r0, #0
    fc76:	f47f af3b 	bne.w	faf0 <_svfprintf_r+0x230>
    fc7a:	f1ab 0b10 	sub.w	fp, fp, #16
    fc7e:	f1bb 0f10 	cmp.w	fp, #16
    fc82:	992d      	ldr	r1, [sp, #180]	; 0xb4
    fc84:	9a2c      	ldr	r2, [sp, #176]	; 0xb0
    fc86:	a838      	add	r0, sp, #224	; 0xe0
    fc88:	dce7      	bgt.n	fc5a <_svfprintf_r+0x39a>
    fc8a:	464c      	mov	r4, r9
    fc8c:	46d1      	mov	r9, sl
    fc8e:	46ba      	mov	sl, r7
    fc90:	9f1b      	ldr	r7, [sp, #108]	; 0x6c
    fc92:	4606      	mov	r6, r0
    fc94:	3201      	adds	r2, #1
    fc96:	eb0b 0c01 	add.w	ip, fp, r1
    fc9a:	2a07      	cmp	r2, #7
    fc9c:	f8cd c0b4 	str.w	ip, [sp, #180]	; 0xb4
    fca0:	922c      	str	r2, [sp, #176]	; 0xb0
    fca2:	e886 0c00 	stmia.w	r6, {sl, fp}
    fca6:	f300 841a 	bgt.w	104de <_svfprintf_r+0xc1e>
    fcaa:	f89d a08f 	ldrb.w	sl, [sp, #143]	; 0x8f
    fcae:	3608      	adds	r6, #8
    fcb0:	f1ba 0f00 	cmp.w	sl, #0
    fcb4:	d00f      	beq.n	fcd6 <_svfprintf_r+0x416>
    fcb6:	9b2c      	ldr	r3, [sp, #176]	; 0xb0
    fcb8:	f10c 0c01 	add.w	ip, ip, #1
    fcbc:	3301      	adds	r3, #1
    fcbe:	f10d 018f 	add.w	r1, sp, #143	; 0x8f
    fcc2:	2201      	movs	r2, #1
    fcc4:	2b07      	cmp	r3, #7
    fcc6:	f8cd c0b4 	str.w	ip, [sp, #180]	; 0xb4
    fcca:	932c      	str	r3, [sp, #176]	; 0xb0
    fccc:	e886 0006 	stmia.w	r6, {r1, r2}
    fcd0:	f300 83a4 	bgt.w	1041c <_svfprintf_r+0xb5c>
    fcd4:	3608      	adds	r6, #8
    fcd6:	9b12      	ldr	r3, [sp, #72]	; 0x48
    fcd8:	b173      	cbz	r3, fcf8 <_svfprintf_r+0x438>
    fcda:	9b2c      	ldr	r3, [sp, #176]	; 0xb0
    fcdc:	f10c 0c02 	add.w	ip, ip, #2
    fce0:	3301      	adds	r3, #1
    fce2:	a924      	add	r1, sp, #144	; 0x90
    fce4:	2202      	movs	r2, #2
    fce6:	2b07      	cmp	r3, #7
    fce8:	f8cd c0b4 	str.w	ip, [sp, #180]	; 0xb4
    fcec:	932c      	str	r3, [sp, #176]	; 0xb0
    fcee:	e886 0006 	stmia.w	r6, {r1, r2}
    fcf2:	f300 8387 	bgt.w	10404 <_svfprintf_r+0xb44>
    fcf6:	3608      	adds	r6, #8
    fcf8:	9d13      	ldr	r5, [sp, #76]	; 0x4c
    fcfa:	2d80      	cmp	r5, #128	; 0x80
    fcfc:	f000 82ca 	beq.w	10294 <_svfprintf_r+0x9d4>
    fd00:	9d0a      	ldr	r5, [sp, #40]	; 0x28
    fd02:	ebc4 0a05 	rsb	sl, r4, r5
    fd06:	f1ba 0f00 	cmp.w	sl, #0
    fd0a:	dd3b      	ble.n	fd84 <_svfprintf_r+0x4c4>
    fd0c:	f1ba 0f10 	cmp.w	sl, #16
    fd10:	9b2c      	ldr	r3, [sp, #176]	; 0xb0
    fd12:	4d30      	ldr	r5, [pc, #192]	; (fdd4 <_svfprintf_r+0x514>)
    fd14:	dd2b      	ble.n	fd6e <_svfprintf_r+0x4ae>
    fd16:	940a      	str	r4, [sp, #40]	; 0x28
    fd18:	4632      	mov	r2, r6
    fd1a:	f04f 0b10 	mov.w	fp, #16
    fd1e:	462e      	mov	r6, r5
    fd20:	4661      	mov	r1, ip
    fd22:	9c0d      	ldr	r4, [sp, #52]	; 0x34
    fd24:	9d0c      	ldr	r5, [sp, #48]	; 0x30
    fd26:	e006      	b.n	fd36 <_svfprintf_r+0x476>
    fd28:	f1aa 0a10 	sub.w	sl, sl, #16
    fd2c:	f1ba 0f10 	cmp.w	sl, #16
    fd30:	f102 0208 	add.w	r2, r2, #8
    fd34:	dd17      	ble.n	fd66 <_svfprintf_r+0x4a6>
    fd36:	3301      	adds	r3, #1
    fd38:	3110      	adds	r1, #16
    fd3a:	2b07      	cmp	r3, #7
    fd3c:	912d      	str	r1, [sp, #180]	; 0xb4
    fd3e:	932c      	str	r3, [sp, #176]	; 0xb0
    fd40:	e882 0840 	stmia.w	r2, {r6, fp}
    fd44:	ddf0      	ble.n	fd28 <_svfprintf_r+0x468>
    fd46:	4620      	mov	r0, r4
    fd48:	4629      	mov	r1, r5
    fd4a:	aa2b      	add	r2, sp, #172	; 0xac
    fd4c:	f003 f83a 	bl	12dc4 <__ssprint_r>
    fd50:	2800      	cmp	r0, #0
    fd52:	f47f aecd 	bne.w	faf0 <_svfprintf_r+0x230>
    fd56:	f1aa 0a10 	sub.w	sl, sl, #16
    fd5a:	f1ba 0f10 	cmp.w	sl, #16
    fd5e:	992d      	ldr	r1, [sp, #180]	; 0xb4
    fd60:	9b2c      	ldr	r3, [sp, #176]	; 0xb0
    fd62:	aa38      	add	r2, sp, #224	; 0xe0
    fd64:	dce7      	bgt.n	fd36 <_svfprintf_r+0x476>
    fd66:	9c0a      	ldr	r4, [sp, #40]	; 0x28
    fd68:	4635      	mov	r5, r6
    fd6a:	468c      	mov	ip, r1
    fd6c:	4616      	mov	r6, r2
    fd6e:	3301      	adds	r3, #1
    fd70:	44d4      	add	ip, sl
    fd72:	2b07      	cmp	r3, #7
    fd74:	f8cd c0b4 	str.w	ip, [sp, #180]	; 0xb4
    fd78:	932c      	str	r3, [sp, #176]	; 0xb0
    fd7a:	e886 0420 	stmia.w	r6, {r5, sl}
    fd7e:	f300 8335 	bgt.w	103ec <_svfprintf_r+0xb2c>
    fd82:	3608      	adds	r6, #8
    fd84:	9d09      	ldr	r5, [sp, #36]	; 0x24
    fd86:	05ed      	lsls	r5, r5, #23
    fd88:	f100 8224 	bmi.w	101d4 <_svfprintf_r+0x914>
    fd8c:	9b2c      	ldr	r3, [sp, #176]	; 0xb0
    fd8e:	44a4      	add	ip, r4
    fd90:	3301      	adds	r3, #1
    fd92:	2b07      	cmp	r3, #7
    fd94:	f8cd c0b4 	str.w	ip, [sp, #180]	; 0xb4
    fd98:	6037      	str	r7, [r6, #0]
    fd9a:	6074      	str	r4, [r6, #4]
    fd9c:	932c      	str	r3, [sp, #176]	; 0xb0
    fd9e:	f300 830f 	bgt.w	103c0 <_svfprintf_r+0xb00>
    fda2:	3608      	adds	r6, #8
    fda4:	9c09      	ldr	r4, [sp, #36]	; 0x24
    fda6:	0763      	lsls	r3, r4, #29
    fda8:	d549      	bpl.n	fe3e <_svfprintf_r+0x57e>
    fdaa:	9d0f      	ldr	r5, [sp, #60]	; 0x3c
    fdac:	980b      	ldr	r0, [sp, #44]	; 0x2c
    fdae:	1a2c      	subs	r4, r5, r0
    fdb0:	2c00      	cmp	r4, #0
    fdb2:	dd44      	ble.n	fe3e <_svfprintf_r+0x57e>
    fdb4:	2c10      	cmp	r4, #16
    fdb6:	9b2c      	ldr	r3, [sp, #176]	; 0xb0
    fdb8:	f8df a01c 	ldr.w	sl, [pc, #28]	; fdd8 <_svfprintf_r+0x518>
    fdbc:	dd2b      	ble.n	fe16 <_svfprintf_r+0x556>
    fdbe:	4657      	mov	r7, sl
    fdc0:	2510      	movs	r5, #16
    fdc2:	4662      	mov	r2, ip
    fdc4:	f8dd 8030 	ldr.w	r8, [sp, #48]	; 0x30
    fdc8:	f8dd a034 	ldr.w	sl, [sp, #52]	; 0x34
    fdcc:	e00b      	b.n	fde6 <_svfprintf_r+0x526>
    fdce:	bf00      	nop
    fdd0:	00014c24 	.word	0x00014c24
    fdd4:	00014f28 	.word	0x00014f28
    fdd8:	00014f38 	.word	0x00014f38
    fddc:	3c10      	subs	r4, #16
    fdde:	2c10      	cmp	r4, #16
    fde0:	f106 0608 	add.w	r6, r6, #8
    fde4:	dd15      	ble.n	fe12 <_svfprintf_r+0x552>
    fde6:	3301      	adds	r3, #1
    fde8:	3210      	adds	r2, #16
    fdea:	2b07      	cmp	r3, #7
    fdec:	922d      	str	r2, [sp, #180]	; 0xb4
    fdee:	932c      	str	r3, [sp, #176]	; 0xb0
    fdf0:	6037      	str	r7, [r6, #0]
    fdf2:	6075      	str	r5, [r6, #4]
    fdf4:	ddf2      	ble.n	fddc <_svfprintf_r+0x51c>
    fdf6:	4650      	mov	r0, sl
    fdf8:	4641      	mov	r1, r8
    fdfa:	aa2b      	add	r2, sp, #172	; 0xac
    fdfc:	f002 ffe2 	bl	12dc4 <__ssprint_r>
    fe00:	2800      	cmp	r0, #0
    fe02:	f47f ae75 	bne.w	faf0 <_svfprintf_r+0x230>
    fe06:	3c10      	subs	r4, #16
    fe08:	2c10      	cmp	r4, #16
    fe0a:	9a2d      	ldr	r2, [sp, #180]	; 0xb4
    fe0c:	9b2c      	ldr	r3, [sp, #176]	; 0xb0
    fe0e:	ae38      	add	r6, sp, #224	; 0xe0
    fe10:	dce9      	bgt.n	fde6 <_svfprintf_r+0x526>
    fe12:	4694      	mov	ip, r2
    fe14:	46ba      	mov	sl, r7
    fe16:	3301      	adds	r3, #1
    fe18:	44a4      	add	ip, r4
    fe1a:	2b07      	cmp	r3, #7
    fe1c:	f8cd c0b4 	str.w	ip, [sp, #180]	; 0xb4
    fe20:	932c      	str	r3, [sp, #176]	; 0xb0
    fe22:	f8c6 a000 	str.w	sl, [r6]
    fe26:	6074      	str	r4, [r6, #4]
    fe28:	dd09      	ble.n	fe3e <_svfprintf_r+0x57e>
    fe2a:	980d      	ldr	r0, [sp, #52]	; 0x34
    fe2c:	990c      	ldr	r1, [sp, #48]	; 0x30
    fe2e:	aa2b      	add	r2, sp, #172	; 0xac
    fe30:	f002 ffc8 	bl	12dc4 <__ssprint_r>
    fe34:	2800      	cmp	r0, #0
    fe36:	f47f ae5b 	bne.w	faf0 <_svfprintf_r+0x230>
    fe3a:	f8dd c0b4 	ldr.w	ip, [sp, #180]	; 0xb4
    fe3e:	9c0e      	ldr	r4, [sp, #56]	; 0x38
    fe40:	980b      	ldr	r0, [sp, #44]	; 0x2c
    fe42:	9d0f      	ldr	r5, [sp, #60]	; 0x3c
    fe44:	42a8      	cmp	r0, r5
    fe46:	bfac      	ite	ge
    fe48:	1824      	addge	r4, r4, r0
    fe4a:	1964      	addlt	r4, r4, r5
    fe4c:	940e      	str	r4, [sp, #56]	; 0x38
    fe4e:	f1bc 0f00 	cmp.w	ip, #0
    fe52:	f040 82c1 	bne.w	103d8 <_svfprintf_r+0xb18>
    fe56:	2300      	movs	r3, #0
    fe58:	932c      	str	r3, [sp, #176]	; 0xb0
    fe5a:	ae38      	add	r6, sp, #224	; 0xe0
    fe5c:	e556      	b.n	f90c <_svfprintf_r+0x4c>
    fe5e:	f899 8000 	ldrb.w	r8, [r9]
    fe62:	2a00      	cmp	r2, #0
    fe64:	f47f ad88 	bne.w	f978 <_svfprintf_r+0xb8>
    fe68:	2220      	movs	r2, #32
    fe6a:	e585      	b.n	f978 <_svfprintf_r+0xb8>
    fe6c:	9d09      	ldr	r5, [sp, #36]	; 0x24
    fe6e:	f045 0501 	orr.w	r5, r5, #1
    fe72:	9509      	str	r5, [sp, #36]	; 0x24
    fe74:	f899 8000 	ldrb.w	r8, [r9]
    fe78:	e57e      	b.n	f978 <_svfprintf_r+0xb8>
    fe7a:	9d09      	ldr	r5, [sp, #36]	; 0x24
    fe7c:	f045 0580 	orr.w	r5, r5, #128	; 0x80
    fe80:	9509      	str	r5, [sp, #36]	; 0x24
    fe82:	f899 8000 	ldrb.w	r8, [r9]
    fe86:	e577      	b.n	f978 <_svfprintf_r+0xb8>
    fe88:	2400      	movs	r4, #0
    fe8a:	f1a8 0330 	sub.w	r3, r8, #48	; 0x30
    fe8e:	940f      	str	r4, [sp, #60]	; 0x3c
    fe90:	4621      	mov	r1, r4
    fe92:	f819 8b01 	ldrb.w	r8, [r9], #1
    fe96:	eb01 0181 	add.w	r1, r1, r1, lsl #2
    fe9a:	eb03 0141 	add.w	r1, r3, r1, lsl #1
    fe9e:	f1a8 0330 	sub.w	r3, r8, #48	; 0x30
    fea2:	2b09      	cmp	r3, #9
    fea4:	d9f5      	bls.n	fe92 <_svfprintf_r+0x5d2>
    fea6:	910f      	str	r1, [sp, #60]	; 0x3c
    fea8:	e568      	b.n	f97c <_svfprintf_r+0xbc>
    feaa:	f8dd c024 	ldr.w	ip, [sp, #36]	; 0x24
    feae:	f88d 208f 	strb.w	r2, [sp, #143]	; 0x8f
    feb2:	f04c 0c10 	orr.w	ip, ip, #16
    feb6:	f8cd c024 	str.w	ip, [sp, #36]	; 0x24
    feba:	9c09      	ldr	r4, [sp, #36]	; 0x24
    febc:	06a5      	lsls	r5, r4, #26
    febe:	f140 80b2 	bpl.w	10026 <_svfprintf_r+0x766>
    fec2:	9d10      	ldr	r5, [sp, #64]	; 0x40
    fec4:	1de9      	adds	r1, r5, #7
    fec6:	f021 0107 	bic.w	r1, r1, #7
    feca:	e9d1 2300 	ldrd	r2, r3, [r1]
    fece:	3108      	adds	r1, #8
    fed0:	9110      	str	r1, [sp, #64]	; 0x40
    fed2:	4614      	mov	r4, r2
    fed4:	461d      	mov	r5, r3
    fed6:	2a00      	cmp	r2, #0
    fed8:	f173 0c00 	sbcs.w	ip, r3, #0
    fedc:	f2c0 8394 	blt.w	10608 <_svfprintf_r+0xd48>
    fee0:	f89d a08f 	ldrb.w	sl, [sp, #143]	; 0x8f
    fee4:	2301      	movs	r3, #1
    fee6:	e659      	b.n	fb9c <_svfprintf_r+0x2dc>
    fee8:	9d09      	ldr	r5, [sp, #36]	; 0x24
    feea:	4cb6      	ldr	r4, [pc, #728]	; (101c4 <_svfprintf_r+0x904>)
    feec:	06af      	lsls	r7, r5, #26
    feee:	f88d 208f 	strb.w	r2, [sp, #143]	; 0x8f
    fef2:	941a      	str	r4, [sp, #104]	; 0x68
    fef4:	f53f ae2f 	bmi.w	fb56 <_svfprintf_r+0x296>
    fef8:	9d09      	ldr	r5, [sp, #36]	; 0x24
    fefa:	06ed      	lsls	r5, r5, #27
    fefc:	f140 8443 	bpl.w	10786 <_svfprintf_r+0xec6>
    ff00:	f8dd c040 	ldr.w	ip, [sp, #64]	; 0x40
    ff04:	2500      	movs	r5, #0
    ff06:	f8dc 4000 	ldr.w	r4, [ip]
    ff0a:	f10c 0c04 	add.w	ip, ip, #4
    ff0e:	f8cd c040 	str.w	ip, [sp, #64]	; 0x40
    ff12:	e62b      	b.n	fb6c <_svfprintf_r+0x2ac>
    ff14:	f8dd c024 	ldr.w	ip, [sp, #36]	; 0x24
    ff18:	f88d 208f 	strb.w	r2, [sp, #143]	; 0x8f
    ff1c:	f01c 0f20 	tst.w	ip, #32
    ff20:	f000 8440 	beq.w	107a4 <_svfprintf_r+0xee4>
    ff24:	9c10      	ldr	r4, [sp, #64]	; 0x40
    ff26:	6821      	ldr	r1, [r4, #0]
    ff28:	9c0e      	ldr	r4, [sp, #56]	; 0x38
    ff2a:	17e5      	asrs	r5, r4, #31
    ff2c:	462b      	mov	r3, r5
    ff2e:	9d10      	ldr	r5, [sp, #64]	; 0x40
    ff30:	4622      	mov	r2, r4
    ff32:	3504      	adds	r5, #4
    ff34:	9510      	str	r5, [sp, #64]	; 0x40
    ff36:	e9c1 2300 	strd	r2, r3, [r1]
    ff3a:	e4e7      	b.n	f90c <_svfprintf_r+0x4c>
    ff3c:	9c10      	ldr	r4, [sp, #64]	; 0x40
    ff3e:	f04f 0a00 	mov.w	sl, #0
    ff42:	6827      	ldr	r7, [r4, #0]
    ff44:	f88d a08f 	strb.w	sl, [sp, #143]	; 0x8f
    ff48:	1d25      	adds	r5, r4, #4
    ff4a:	2f00      	cmp	r7, #0
    ff4c:	f000 85e9 	beq.w	10b22 <_svfprintf_r+0x1262>
    ff50:	9c0a      	ldr	r4, [sp, #40]	; 0x28
    ff52:	4638      	mov	r0, r7
    ff54:	2c00      	cmp	r4, #0
    ff56:	f2c0 859b 	blt.w	10a90 <_svfprintf_r+0x11d0>
    ff5a:	4651      	mov	r1, sl
    ff5c:	4622      	mov	r2, r4
    ff5e:	f7fd fa0d 	bl	d37c <memchr>
    ff62:	2800      	cmp	r0, #0
    ff64:	f000 8613 	beq.w	10b8e <_svfprintf_r+0x12ce>
    ff68:	9c0a      	ldr	r4, [sp, #40]	; 0x28
    ff6a:	1bc0      	subs	r0, r0, r7
    ff6c:	42a0      	cmp	r0, r4
    ff6e:	bfb8      	it	lt
    ff70:	4604      	movlt	r4, r0
    ff72:	9510      	str	r5, [sp, #64]	; 0x40
    ff74:	ea24 75e4 	bic.w	r5, r4, r4, asr #31
    ff78:	f8cd a028 	str.w	sl, [sp, #40]	; 0x28
    ff7c:	f8cd a050 	str.w	sl, [sp, #80]	; 0x50
    ff80:	950b      	str	r5, [sp, #44]	; 0x2c
    ff82:	f89d a08f 	ldrb.w	sl, [sp, #143]	; 0x8f
    ff86:	e632      	b.n	fbee <_svfprintf_r+0x32e>
    ff88:	f8dd c024 	ldr.w	ip, [sp, #36]	; 0x24
    ff8c:	f04c 0c40 	orr.w	ip, ip, #64	; 0x40
    ff90:	f8cd c024 	str.w	ip, [sp, #36]	; 0x24
    ff94:	f899 8000 	ldrb.w	r8, [r9]
    ff98:	e4ee      	b.n	f978 <_svfprintf_r+0xb8>
    ff9a:	f899 8000 	ldrb.w	r8, [r9]
    ff9e:	464b      	mov	r3, r9
    ffa0:	f1b8 0f6c 	cmp.w	r8, #108	; 0x6c
    ffa4:	f000 847f 	beq.w	108a6 <_svfprintf_r+0xfe6>
    ffa8:	9d09      	ldr	r5, [sp, #36]	; 0x24
    ffaa:	f045 0510 	orr.w	r5, r5, #16
    ffae:	9509      	str	r5, [sp, #36]	; 0x24
    ffb0:	e4e2      	b.n	f978 <_svfprintf_r+0xb8>
    ffb2:	9c10      	ldr	r4, [sp, #64]	; 0x40
    ffb4:	9d10      	ldr	r5, [sp, #64]	; 0x40
    ffb6:	6824      	ldr	r4, [r4, #0]
    ffb8:	1d2b      	adds	r3, r5, #4
    ffba:	2c00      	cmp	r4, #0
    ffbc:	940f      	str	r4, [sp, #60]	; 0x3c
    ffbe:	f6ff ad7d 	blt.w	fabc <_svfprintf_r+0x1fc>
    ffc2:	9310      	str	r3, [sp, #64]	; 0x40
    ffc4:	f899 8000 	ldrb.w	r8, [r9]
    ffc8:	e4d6      	b.n	f978 <_svfprintf_r+0xb8>
    ffca:	9b10      	ldr	r3, [sp, #64]	; 0x40
    ffcc:	f8dd c024 	ldr.w	ip, [sp, #36]	; 0x24
    ffd0:	9d10      	ldr	r5, [sp, #64]	; 0x40
    ffd2:	487d      	ldr	r0, [pc, #500]	; (101c8 <_svfprintf_r+0x908>)
    ffd4:	3504      	adds	r5, #4
    ffd6:	681c      	ldr	r4, [r3, #0]
    ffd8:	f04f 0878 	mov.w	r8, #120	; 0x78
    ffdc:	2330      	movs	r3, #48	; 0x30
    ffde:	f04c 0c02 	orr.w	ip, ip, #2
    ffe2:	9510      	str	r5, [sp, #64]	; 0x40
    ffe4:	f88d 3090 	strb.w	r3, [sp, #144]	; 0x90
    ffe8:	f8cd c024 	str.w	ip, [sp, #36]	; 0x24
    ffec:	2500      	movs	r5, #0
    ffee:	f88d 8091 	strb.w	r8, [sp, #145]	; 0x91
    fff2:	901a      	str	r0, [sp, #104]	; 0x68
    fff4:	2302      	movs	r3, #2
    fff6:	e5cd      	b.n	fb94 <_svfprintf_r+0x2d4>
    fff8:	9b10      	ldr	r3, [sp, #64]	; 0x40
    fffa:	9d10      	ldr	r5, [sp, #64]	; 0x40
    fffc:	681a      	ldr	r2, [r3, #0]
    fffe:	2401      	movs	r4, #1
   10000:	2300      	movs	r3, #0
   10002:	3504      	adds	r5, #4
   10004:	469a      	mov	sl, r3
   10006:	940b      	str	r4, [sp, #44]	; 0x2c
   10008:	f88d 20b8 	strb.w	r2, [sp, #184]	; 0xb8
   1000c:	9510      	str	r5, [sp, #64]	; 0x40
   1000e:	f88d 308f 	strb.w	r3, [sp, #143]	; 0x8f
   10012:	930a      	str	r3, [sp, #40]	; 0x28
   10014:	9314      	str	r3, [sp, #80]	; 0x50
   10016:	af2e      	add	r7, sp, #184	; 0xb8
   10018:	e5ef      	b.n	fbfa <_svfprintf_r+0x33a>
   1001a:	9c09      	ldr	r4, [sp, #36]	; 0x24
   1001c:	f88d 208f 	strb.w	r2, [sp, #143]	; 0x8f
   10020:	06a5      	lsls	r5, r4, #26
   10022:	f53f af4e 	bmi.w	fec2 <_svfprintf_r+0x602>
   10026:	f8dd c024 	ldr.w	ip, [sp, #36]	; 0x24
   1002a:	f01c 0f10 	tst.w	ip, #16
   1002e:	f040 82df 	bne.w	105f0 <_svfprintf_r+0xd30>
   10032:	f8dd c024 	ldr.w	ip, [sp, #36]	; 0x24
   10036:	f01c 0f40 	tst.w	ip, #64	; 0x40
   1003a:	f000 82d9 	beq.w	105f0 <_svfprintf_r+0xd30>
   1003e:	f8dd c040 	ldr.w	ip, [sp, #64]	; 0x40
   10042:	f9bc 4000 	ldrsh.w	r4, [ip]
   10046:	f10c 0c04 	add.w	ip, ip, #4
   1004a:	17e5      	asrs	r5, r4, #31
   1004c:	4622      	mov	r2, r4
   1004e:	462b      	mov	r3, r5
   10050:	f8cd c040 	str.w	ip, [sp, #64]	; 0x40
   10054:	e73f      	b.n	fed6 <_svfprintf_r+0x616>
   10056:	f899 8000 	ldrb.w	r8, [r9]
   1005a:	222b      	movs	r2, #43	; 0x2b
   1005c:	e48c      	b.n	f978 <_svfprintf_r+0xb8>
   1005e:	9d09      	ldr	r5, [sp, #36]	; 0x24
   10060:	f045 0508 	orr.w	r5, r5, #8
   10064:	9509      	str	r5, [sp, #36]	; 0x24
   10066:	f899 8000 	ldrb.w	r8, [r9]
   1006a:	e485      	b.n	f978 <_svfprintf_r+0xb8>
   1006c:	9d10      	ldr	r5, [sp, #64]	; 0x40
   1006e:	f88d 208f 	strb.w	r2, [sp, #143]	; 0x8f
   10072:	1deb      	adds	r3, r5, #7
   10074:	f023 0307 	bic.w	r3, r3, #7
   10078:	f103 0c08 	add.w	ip, r3, #8
   1007c:	f8cd c040 	str.w	ip, [sp, #64]	; 0x40
   10080:	e9d3 4500 	ldrd	r4, r5, [r3]
   10084:	e9cd 4516 	strd	r4, r5, [sp, #88]	; 0x58
   10088:	e9dd 0116 	ldrd	r0, r1, [sp, #88]	; 0x58
   1008c:	f7fd ff9c 	bl	dfc8 <__fpclassifyd>
   10090:	2801      	cmp	r0, #1
   10092:	e9dd 0116 	ldrd	r0, r1, [sp, #88]	; 0x58
   10096:	f040 835c 	bne.w	10752 <_svfprintf_r+0xe92>
   1009a:	2200      	movs	r2, #0
   1009c:	2300      	movs	r3, #0
   1009e:	f004 f9af 	bl	14400 <__aeabi_dcmplt>
   100a2:	2800      	cmp	r0, #0
   100a4:	f040 8563 	bne.w	10b6e <_svfprintf_r+0x12ae>
   100a8:	f89d a08f 	ldrb.w	sl, [sp, #143]	; 0x8f
   100ac:	2503      	movs	r5, #3
   100ae:	950b      	str	r5, [sp, #44]	; 0x2c
   100b0:	9d09      	ldr	r5, [sp, #36]	; 0x24
   100b2:	4f46      	ldr	r7, [pc, #280]	; (101cc <_svfprintf_r+0x90c>)
   100b4:	f025 0580 	bic.w	r5, r5, #128	; 0x80
   100b8:	4b45      	ldr	r3, [pc, #276]	; (101d0 <_svfprintf_r+0x910>)
   100ba:	2400      	movs	r4, #0
   100bc:	9509      	str	r5, [sp, #36]	; 0x24
   100be:	2500      	movs	r5, #0
   100c0:	940a      	str	r4, [sp, #40]	; 0x28
   100c2:	f1b8 0f47 	cmp.w	r8, #71	; 0x47
   100c6:	bfd8      	it	le
   100c8:	461f      	movle	r7, r3
   100ca:	2403      	movs	r4, #3
   100cc:	9514      	str	r5, [sp, #80]	; 0x50
   100ce:	e58e      	b.n	fbee <_svfprintf_r+0x32e>
   100d0:	f8dd c024 	ldr.w	ip, [sp, #36]	; 0x24
   100d4:	f04c 0c20 	orr.w	ip, ip, #32
   100d8:	f8cd c024 	str.w	ip, [sp, #36]	; 0x24
   100dc:	f899 8000 	ldrb.w	r8, [r9]
   100e0:	e44a      	b.n	f978 <_svfprintf_r+0xb8>
   100e2:	9c10      	ldr	r4, [sp, #64]	; 0x40
   100e4:	1de3      	adds	r3, r4, #7
   100e6:	f023 0307 	bic.w	r3, r3, #7
   100ea:	f103 0508 	add.w	r5, r3, #8
   100ee:	9510      	str	r5, [sp, #64]	; 0x40
   100f0:	e9d3 4500 	ldrd	r4, r5, [r3]
   100f4:	2300      	movs	r3, #0
   100f6:	e54d      	b.n	fb94 <_svfprintf_r+0x2d4>
   100f8:	9d10      	ldr	r5, [sp, #64]	; 0x40
   100fa:	1deb      	adds	r3, r5, #7
   100fc:	f023 0307 	bic.w	r3, r3, #7
   10100:	f103 0c08 	add.w	ip, r3, #8
   10104:	e9d3 4500 	ldrd	r4, r5, [r3]
   10108:	f8cd c040 	str.w	ip, [sp, #64]	; 0x40
   1010c:	2301      	movs	r3, #1
   1010e:	e541      	b.n	fb94 <_svfprintf_r+0x2d4>
   10110:	f88d 208f 	strb.w	r2, [sp, #143]	; 0x8f
   10114:	f1b8 0f00 	cmp.w	r8, #0
   10118:	f43f ace3 	beq.w	fae2 <_svfprintf_r+0x222>
   1011c:	2300      	movs	r3, #0
   1011e:	f04f 0c01 	mov.w	ip, #1
   10122:	469a      	mov	sl, r3
   10124:	f8cd c02c 	str.w	ip, [sp, #44]	; 0x2c
   10128:	f88d 80b8 	strb.w	r8, [sp, #184]	; 0xb8
   1012c:	f88d 308f 	strb.w	r3, [sp, #143]	; 0x8f
   10130:	930a      	str	r3, [sp, #40]	; 0x28
   10132:	9314      	str	r3, [sp, #80]	; 0x50
   10134:	4664      	mov	r4, ip
   10136:	af2e      	add	r7, sp, #184	; 0xb8
   10138:	e55f      	b.n	fbfa <_svfprintf_r+0x33a>
   1013a:	f8dd c0b4 	ldr.w	ip, [sp, #180]	; 0xb4
   1013e:	e5b7      	b.n	fcb0 <_svfprintf_r+0x3f0>
   10140:	2b01      	cmp	r3, #1
   10142:	f000 80ec 	beq.w	1031e <_svfprintf_r+0xa5e>
   10146:	2b02      	cmp	r3, #2
   10148:	f10d 03df 	add.w	r3, sp, #223	; 0xdf
   1014c:	d118      	bne.n	10180 <_svfprintf_r+0x8c0>
   1014e:	f8dd c068 	ldr.w	ip, [sp, #104]	; 0x68
   10152:	4619      	mov	r1, r3
   10154:	f004 000f 	and.w	r0, r4, #15
   10158:	0922      	lsrs	r2, r4, #4
   1015a:	f81c 0000 	ldrb.w	r0, [ip, r0]
   1015e:	ea42 7205 	orr.w	r2, r2, r5, lsl #28
   10162:	092b      	lsrs	r3, r5, #4
   10164:	7008      	strb	r0, [r1, #0]
   10166:	ea52 0003 	orrs.w	r0, r2, r3
   1016a:	460f      	mov	r7, r1
   1016c:	4614      	mov	r4, r2
   1016e:	461d      	mov	r5, r3
   10170:	f101 31ff 	add.w	r1, r1, #4294967295
   10174:	d1ee      	bne.n	10154 <_svfprintf_r+0x894>
   10176:	9d08      	ldr	r5, [sp, #32]
   10178:	e9cd 231e 	strd	r2, r3, [sp, #120]	; 0x78
   1017c:	1bec      	subs	r4, r5, r7
   1017e:	e52d      	b.n	fbdc <_svfprintf_r+0x31c>
   10180:	08e0      	lsrs	r0, r4, #3
   10182:	ea40 7045 	orr.w	r0, r0, r5, lsl #29
   10186:	f004 0207 	and.w	r2, r4, #7
   1018a:	08e9      	lsrs	r1, r5, #3
   1018c:	3230      	adds	r2, #48	; 0x30
   1018e:	ea50 0c01 	orrs.w	ip, r0, r1
   10192:	461f      	mov	r7, r3
   10194:	701a      	strb	r2, [r3, #0]
   10196:	4604      	mov	r4, r0
   10198:	460d      	mov	r5, r1
   1019a:	f103 33ff 	add.w	r3, r3, #4294967295
   1019e:	d1ef      	bne.n	10180 <_svfprintf_r+0x8c0>
   101a0:	9c09      	ldr	r4, [sp, #36]	; 0x24
   101a2:	e9cd 011c 	strd	r0, r1, [sp, #112]	; 0x70
   101a6:	07e0      	lsls	r0, r4, #31
   101a8:	4639      	mov	r1, r7
   101aa:	f140 80c1 	bpl.w	10330 <_svfprintf_r+0xa70>
   101ae:	2a30      	cmp	r2, #48	; 0x30
   101b0:	f000 80be 	beq.w	10330 <_svfprintf_r+0xa70>
   101b4:	9d08      	ldr	r5, [sp, #32]
   101b6:	461f      	mov	r7, r3
   101b8:	2330      	movs	r3, #48	; 0x30
   101ba:	1bec      	subs	r4, r5, r7
   101bc:	f801 3c01 	strb.w	r3, [r1, #-1]
   101c0:	e50c      	b.n	fbdc <_svfprintf_r+0x31c>
   101c2:	bf00      	nop
   101c4:	00014c10 	.word	0x00014c10
   101c8:	00014c24 	.word	0x00014c24
   101cc:	00014c04 	.word	0x00014c04
   101d0:	00014c00 	.word	0x00014c00
   101d4:	f1b8 0f65 	cmp.w	r8, #101	; 0x65
   101d8:	f340 80ad 	ble.w	10336 <_svfprintf_r+0xa76>
   101dc:	e9dd 0116 	ldrd	r0, r1, [sp, #88]	; 0x58
   101e0:	2200      	movs	r2, #0
   101e2:	2300      	movs	r3, #0
   101e4:	f8cd c01c 	str.w	ip, [sp, #28]
   101e8:	f004 f900 	bl	143ec <__aeabi_dcmpeq>
   101ec:	f8dd c01c 	ldr.w	ip, [sp, #28]
   101f0:	2800      	cmp	r0, #0
   101f2:	f000 8126 	beq.w	10442 <_svfprintf_r+0xb82>
   101f6:	9b2c      	ldr	r3, [sp, #176]	; 0xb0
   101f8:	49aa      	ldr	r1, [pc, #680]	; (104a4 <_svfprintf_r+0xbe4>)
   101fa:	3301      	adds	r3, #1
   101fc:	f10c 0c01 	add.w	ip, ip, #1
   10200:	2201      	movs	r2, #1
   10202:	2b07      	cmp	r3, #7
   10204:	f8cd c0b4 	str.w	ip, [sp, #180]	; 0xb4
   10208:	932c      	str	r3, [sp, #176]	; 0xb0
   1020a:	e886 0006 	stmia.w	r6, {r1, r2}
   1020e:	f300 82ed 	bgt.w	107ec <_svfprintf_r+0xf2c>
   10212:	3608      	adds	r6, #8
   10214:	9b25      	ldr	r3, [sp, #148]	; 0x94
   10216:	9c11      	ldr	r4, [sp, #68]	; 0x44
   10218:	42a3      	cmp	r3, r4
   1021a:	db03      	blt.n	10224 <_svfprintf_r+0x964>
   1021c:	9d09      	ldr	r5, [sp, #36]	; 0x24
   1021e:	07ec      	lsls	r4, r5, #31
   10220:	f57f adc0 	bpl.w	fda4 <_svfprintf_r+0x4e4>
   10224:	9b2c      	ldr	r3, [sp, #176]	; 0xb0
   10226:	9c18      	ldr	r4, [sp, #96]	; 0x60
   10228:	3301      	adds	r3, #1
   1022a:	9d15      	ldr	r5, [sp, #84]	; 0x54
   1022c:	44a4      	add	ip, r4
   1022e:	2b07      	cmp	r3, #7
   10230:	f8cd c0b4 	str.w	ip, [sp, #180]	; 0xb4
   10234:	6035      	str	r5, [r6, #0]
   10236:	6074      	str	r4, [r6, #4]
   10238:	932c      	str	r3, [sp, #176]	; 0xb0
   1023a:	f300 833e 	bgt.w	108ba <_svfprintf_r+0xffa>
   1023e:	3608      	adds	r6, #8
   10240:	9d11      	ldr	r5, [sp, #68]	; 0x44
   10242:	1e6c      	subs	r4, r5, #1
   10244:	2c00      	cmp	r4, #0
   10246:	f77f adad 	ble.w	fda4 <_svfprintf_r+0x4e4>
   1024a:	2c10      	cmp	r4, #16
   1024c:	9b2c      	ldr	r3, [sp, #176]	; 0xb0
   1024e:	4d96      	ldr	r5, [pc, #600]	; (104a8 <_svfprintf_r+0xbe8>)
   10250:	f340 8197 	ble.w	10582 <_svfprintf_r+0xcc2>
   10254:	2710      	movs	r7, #16
   10256:	4662      	mov	r2, ip
   10258:	f8dd 8034 	ldr.w	r8, [sp, #52]	; 0x34
   1025c:	f8dd a030 	ldr.w	sl, [sp, #48]	; 0x30
   10260:	e004      	b.n	1026c <_svfprintf_r+0x9ac>
   10262:	3608      	adds	r6, #8
   10264:	3c10      	subs	r4, #16
   10266:	2c10      	cmp	r4, #16
   10268:	f340 818a 	ble.w	10580 <_svfprintf_r+0xcc0>
   1026c:	3301      	adds	r3, #1
   1026e:	3210      	adds	r2, #16
   10270:	2b07      	cmp	r3, #7
   10272:	922d      	str	r2, [sp, #180]	; 0xb4
   10274:	932c      	str	r3, [sp, #176]	; 0xb0
   10276:	e886 00a0 	stmia.w	r6, {r5, r7}
   1027a:	ddf2      	ble.n	10262 <_svfprintf_r+0x9a2>
   1027c:	4640      	mov	r0, r8
   1027e:	4651      	mov	r1, sl
   10280:	aa2b      	add	r2, sp, #172	; 0xac
   10282:	f002 fd9f 	bl	12dc4 <__ssprint_r>
   10286:	2800      	cmp	r0, #0
   10288:	f47f ac32 	bne.w	faf0 <_svfprintf_r+0x230>
   1028c:	9a2d      	ldr	r2, [sp, #180]	; 0xb4
   1028e:	9b2c      	ldr	r3, [sp, #176]	; 0xb0
   10290:	ae38      	add	r6, sp, #224	; 0xe0
   10292:	e7e7      	b.n	10264 <_svfprintf_r+0x9a4>
   10294:	9d0f      	ldr	r5, [sp, #60]	; 0x3c
   10296:	980b      	ldr	r0, [sp, #44]	; 0x2c
   10298:	ebc0 0a05 	rsb	sl, r0, r5
   1029c:	f1ba 0f00 	cmp.w	sl, #0
   102a0:	f77f ad2e 	ble.w	fd00 <_svfprintf_r+0x440>
   102a4:	f1ba 0f10 	cmp.w	sl, #16
   102a8:	9b2c      	ldr	r3, [sp, #176]	; 0xb0
   102aa:	4d7f      	ldr	r5, [pc, #508]	; (104a8 <_svfprintf_r+0xbe8>)
   102ac:	dd2b      	ble.n	10306 <_svfprintf_r+0xa46>
   102ae:	9412      	str	r4, [sp, #72]	; 0x48
   102b0:	4632      	mov	r2, r6
   102b2:	f04f 0b10 	mov.w	fp, #16
   102b6:	462e      	mov	r6, r5
   102b8:	4661      	mov	r1, ip
   102ba:	9c0d      	ldr	r4, [sp, #52]	; 0x34
   102bc:	9d0c      	ldr	r5, [sp, #48]	; 0x30
   102be:	e006      	b.n	102ce <_svfprintf_r+0xa0e>
   102c0:	f1aa 0a10 	sub.w	sl, sl, #16
   102c4:	f1ba 0f10 	cmp.w	sl, #16
   102c8:	f102 0208 	add.w	r2, r2, #8
   102cc:	dd17      	ble.n	102fe <_svfprintf_r+0xa3e>
   102ce:	3301      	adds	r3, #1
   102d0:	3110      	adds	r1, #16
   102d2:	2b07      	cmp	r3, #7
   102d4:	912d      	str	r1, [sp, #180]	; 0xb4
   102d6:	932c      	str	r3, [sp, #176]	; 0xb0
   102d8:	e882 0840 	stmia.w	r2, {r6, fp}
   102dc:	ddf0      	ble.n	102c0 <_svfprintf_r+0xa00>
   102de:	4620      	mov	r0, r4
   102e0:	4629      	mov	r1, r5
   102e2:	aa2b      	add	r2, sp, #172	; 0xac
   102e4:	f002 fd6e 	bl	12dc4 <__ssprint_r>
   102e8:	2800      	cmp	r0, #0
   102ea:	f47f ac01 	bne.w	faf0 <_svfprintf_r+0x230>
   102ee:	f1aa 0a10 	sub.w	sl, sl, #16
   102f2:	f1ba 0f10 	cmp.w	sl, #16
   102f6:	992d      	ldr	r1, [sp, #180]	; 0xb4
   102f8:	9b2c      	ldr	r3, [sp, #176]	; 0xb0
   102fa:	aa38      	add	r2, sp, #224	; 0xe0
   102fc:	dce7      	bgt.n	102ce <_svfprintf_r+0xa0e>
   102fe:	9c12      	ldr	r4, [sp, #72]	; 0x48
   10300:	4635      	mov	r5, r6
   10302:	468c      	mov	ip, r1
   10304:	4616      	mov	r6, r2
   10306:	3301      	adds	r3, #1
   10308:	44d4      	add	ip, sl
   1030a:	2b07      	cmp	r3, #7
   1030c:	f8cd c0b4 	str.w	ip, [sp, #180]	; 0xb4
   10310:	932c      	str	r3, [sp, #176]	; 0xb0
   10312:	e886 0420 	stmia.w	r6, {r5, sl}
   10316:	f300 820f 	bgt.w	10738 <_svfprintf_r+0xe78>
   1031a:	3608      	adds	r6, #8
   1031c:	e4f0      	b.n	fd00 <_svfprintf_r+0x440>
   1031e:	2d00      	cmp	r5, #0
   10320:	bf08      	it	eq
   10322:	2c0a      	cmpeq	r4, #10
   10324:	f080 8138 	bcs.w	10598 <_svfprintf_r+0xcd8>
   10328:	3430      	adds	r4, #48	; 0x30
   1032a:	af48      	add	r7, sp, #288	; 0x120
   1032c:	f807 4d41 	strb.w	r4, [r7, #-65]!
   10330:	9d08      	ldr	r5, [sp, #32]
   10332:	1bec      	subs	r4, r5, r7
   10334:	e452      	b.n	fbdc <_svfprintf_r+0x31c>
   10336:	9c11      	ldr	r4, [sp, #68]	; 0x44
   10338:	2c01      	cmp	r4, #1
   1033a:	9c2c      	ldr	r4, [sp, #176]	; 0xb0
   1033c:	f340 81d2 	ble.w	106e4 <_svfprintf_r+0xe24>
   10340:	3401      	adds	r4, #1
   10342:	f10c 0301 	add.w	r3, ip, #1
   10346:	2201      	movs	r2, #1
   10348:	2c07      	cmp	r4, #7
   1034a:	932d      	str	r3, [sp, #180]	; 0xb4
   1034c:	6037      	str	r7, [r6, #0]
   1034e:	942c      	str	r4, [sp, #176]	; 0xb0
   10350:	6072      	str	r2, [r6, #4]
   10352:	f300 81d8 	bgt.w	10706 <_svfprintf_r+0xe46>
   10356:	3608      	adds	r6, #8
   10358:	9d15      	ldr	r5, [sp, #84]	; 0x54
   1035a:	f8dd 8060 	ldr.w	r8, [sp, #96]	; 0x60
   1035e:	3401      	adds	r4, #1
   10360:	6035      	str	r5, [r6, #0]
   10362:	9d18      	ldr	r5, [sp, #96]	; 0x60
   10364:	4498      	add	r8, r3
   10366:	2c07      	cmp	r4, #7
   10368:	f8cd 80b4 	str.w	r8, [sp, #180]	; 0xb4
   1036c:	942c      	str	r4, [sp, #176]	; 0xb0
   1036e:	6075      	str	r5, [r6, #4]
   10370:	f300 81d5 	bgt.w	1071e <_svfprintf_r+0xe5e>
   10374:	3608      	adds	r6, #8
   10376:	e9dd 0116 	ldrd	r0, r1, [sp, #88]	; 0x58
   1037a:	2200      	movs	r2, #0
   1037c:	2300      	movs	r3, #0
   1037e:	f004 f835 	bl	143ec <__aeabi_dcmpeq>
   10382:	9d11      	ldr	r5, [sp, #68]	; 0x44
   10384:	2800      	cmp	r0, #0
   10386:	f040 80b9 	bne.w	104fc <_svfprintf_r+0xc3c>
   1038a:	1e6b      	subs	r3, r5, #1
   1038c:	3401      	adds	r4, #1
   1038e:	3701      	adds	r7, #1
   10390:	4498      	add	r8, r3
   10392:	2c07      	cmp	r4, #7
   10394:	942c      	str	r4, [sp, #176]	; 0xb0
   10396:	f8cd 80b4 	str.w	r8, [sp, #180]	; 0xb4
   1039a:	6037      	str	r7, [r6, #0]
   1039c:	6073      	str	r3, [r6, #4]
   1039e:	f300 80e2 	bgt.w	10566 <_svfprintf_r+0xca6>
   103a2:	3608      	adds	r6, #8
   103a4:	f8dd c064 	ldr.w	ip, [sp, #100]	; 0x64
   103a8:	3401      	adds	r4, #1
   103aa:	9d19      	ldr	r5, [sp, #100]	; 0x64
   103ac:	44c4      	add	ip, r8
   103ae:	ab27      	add	r3, sp, #156	; 0x9c
   103b0:	2c07      	cmp	r4, #7
   103b2:	f8cd c0b4 	str.w	ip, [sp, #180]	; 0xb4
   103b6:	942c      	str	r4, [sp, #176]	; 0xb0
   103b8:	e886 0028 	stmia.w	r6, {r3, r5}
   103bc:	f77f acf1 	ble.w	fda2 <_svfprintf_r+0x4e2>
   103c0:	980d      	ldr	r0, [sp, #52]	; 0x34
   103c2:	990c      	ldr	r1, [sp, #48]	; 0x30
   103c4:	aa2b      	add	r2, sp, #172	; 0xac
   103c6:	f002 fcfd 	bl	12dc4 <__ssprint_r>
   103ca:	2800      	cmp	r0, #0
   103cc:	f47f ab90 	bne.w	faf0 <_svfprintf_r+0x230>
   103d0:	f8dd c0b4 	ldr.w	ip, [sp, #180]	; 0xb4
   103d4:	ae38      	add	r6, sp, #224	; 0xe0
   103d6:	e4e5      	b.n	fda4 <_svfprintf_r+0x4e4>
   103d8:	980d      	ldr	r0, [sp, #52]	; 0x34
   103da:	990c      	ldr	r1, [sp, #48]	; 0x30
   103dc:	aa2b      	add	r2, sp, #172	; 0xac
   103de:	f002 fcf1 	bl	12dc4 <__ssprint_r>
   103e2:	2800      	cmp	r0, #0
   103e4:	f43f ad37 	beq.w	fe56 <_svfprintf_r+0x596>
   103e8:	f7ff bb82 	b.w	faf0 <_svfprintf_r+0x230>
   103ec:	980d      	ldr	r0, [sp, #52]	; 0x34
   103ee:	990c      	ldr	r1, [sp, #48]	; 0x30
   103f0:	aa2b      	add	r2, sp, #172	; 0xac
   103f2:	f002 fce7 	bl	12dc4 <__ssprint_r>
   103f6:	2800      	cmp	r0, #0
   103f8:	f47f ab7a 	bne.w	faf0 <_svfprintf_r+0x230>
   103fc:	f8dd c0b4 	ldr.w	ip, [sp, #180]	; 0xb4
   10400:	ae38      	add	r6, sp, #224	; 0xe0
   10402:	e4bf      	b.n	fd84 <_svfprintf_r+0x4c4>
   10404:	980d      	ldr	r0, [sp, #52]	; 0x34
   10406:	990c      	ldr	r1, [sp, #48]	; 0x30
   10408:	aa2b      	add	r2, sp, #172	; 0xac
   1040a:	f002 fcdb 	bl	12dc4 <__ssprint_r>
   1040e:	2800      	cmp	r0, #0
   10410:	f47f ab6e 	bne.w	faf0 <_svfprintf_r+0x230>
   10414:	f8dd c0b4 	ldr.w	ip, [sp, #180]	; 0xb4
   10418:	ae38      	add	r6, sp, #224	; 0xe0
   1041a:	e46d      	b.n	fcf8 <_svfprintf_r+0x438>
   1041c:	980d      	ldr	r0, [sp, #52]	; 0x34
   1041e:	990c      	ldr	r1, [sp, #48]	; 0x30
   10420:	aa2b      	add	r2, sp, #172	; 0xac
   10422:	f002 fccf 	bl	12dc4 <__ssprint_r>
   10426:	2800      	cmp	r0, #0
   10428:	f47f ab62 	bne.w	faf0 <_svfprintf_r+0x230>
   1042c:	f8dd c0b4 	ldr.w	ip, [sp, #180]	; 0xb4
   10430:	ae38      	add	r6, sp, #224	; 0xe0
   10432:	e450      	b.n	fcd6 <_svfprintf_r+0x416>
   10434:	9c0a      	ldr	r4, [sp, #40]	; 0x28
   10436:	af38      	add	r7, sp, #224	; 0xe0
   10438:	f7ff bbd0 	b.w	fbdc <_svfprintf_r+0x31c>
   1043c:	2302      	movs	r3, #2
   1043e:	f7ff bba9 	b.w	fb94 <_svfprintf_r+0x2d4>
   10442:	9b25      	ldr	r3, [sp, #148]	; 0x94
   10444:	2b00      	cmp	r3, #0
   10446:	f340 81dd 	ble.w	10804 <_svfprintf_r+0xf44>
   1044a:	9c11      	ldr	r4, [sp, #68]	; 0x44
   1044c:	9d14      	ldr	r5, [sp, #80]	; 0x50
   1044e:	f8dd a044 	ldr.w	sl, [sp, #68]	; 0x44
   10452:	42ac      	cmp	r4, r5
   10454:	bfa8      	it	ge
   10456:	462c      	movge	r4, r5
   10458:	2c00      	cmp	r4, #0
   1045a:	44ba      	add	sl, r7
   1045c:	dd0b      	ble.n	10476 <_svfprintf_r+0xbb6>
   1045e:	9b2c      	ldr	r3, [sp, #176]	; 0xb0
   10460:	44a4      	add	ip, r4
   10462:	3301      	adds	r3, #1
   10464:	2b07      	cmp	r3, #7
   10466:	f8cd c0b4 	str.w	ip, [sp, #180]	; 0xb4
   1046a:	6037      	str	r7, [r6, #0]
   1046c:	6074      	str	r4, [r6, #4]
   1046e:	932c      	str	r3, [sp, #176]	; 0xb0
   10470:	f300 831e 	bgt.w	10ab0 <_svfprintf_r+0x11f0>
   10474:	3608      	adds	r6, #8
   10476:	9d14      	ldr	r5, [sp, #80]	; 0x50
   10478:	ea24 74e4 	bic.w	r4, r4, r4, asr #31
   1047c:	1b2c      	subs	r4, r5, r4
   1047e:	2c00      	cmp	r4, #0
   10480:	f340 80d7 	ble.w	10632 <_svfprintf_r+0xd72>
   10484:	2c10      	cmp	r4, #16
   10486:	9b2c      	ldr	r3, [sp, #176]	; 0xb0
   10488:	4d07      	ldr	r5, [pc, #28]	; (104a8 <_svfprintf_r+0xbe8>)
   1048a:	f340 81a3 	ble.w	107d4 <_svfprintf_r+0xf14>
   1048e:	970a      	str	r7, [sp, #40]	; 0x28
   10490:	f04f 0810 	mov.w	r8, #16
   10494:	462f      	mov	r7, r5
   10496:	4662      	mov	r2, ip
   10498:	4625      	mov	r5, r4
   1049a:	f8dd b034 	ldr.w	fp, [sp, #52]	; 0x34
   1049e:	9c0c      	ldr	r4, [sp, #48]	; 0x30
   104a0:	e009      	b.n	104b6 <_svfprintf_r+0xbf6>
   104a2:	bf00      	nop
   104a4:	00014c40 	.word	0x00014c40
   104a8:	00014f28 	.word	0x00014f28
   104ac:	3608      	adds	r6, #8
   104ae:	3d10      	subs	r5, #16
   104b0:	2d10      	cmp	r5, #16
   104b2:	f340 818b 	ble.w	107cc <_svfprintf_r+0xf0c>
   104b6:	3301      	adds	r3, #1
   104b8:	3210      	adds	r2, #16
   104ba:	2b07      	cmp	r3, #7
   104bc:	922d      	str	r2, [sp, #180]	; 0xb4
   104be:	932c      	str	r3, [sp, #176]	; 0xb0
   104c0:	e886 0180 	stmia.w	r6, {r7, r8}
   104c4:	ddf2      	ble.n	104ac <_svfprintf_r+0xbec>
   104c6:	4658      	mov	r0, fp
   104c8:	4621      	mov	r1, r4
   104ca:	aa2b      	add	r2, sp, #172	; 0xac
   104cc:	f002 fc7a 	bl	12dc4 <__ssprint_r>
   104d0:	2800      	cmp	r0, #0
   104d2:	f47f ab0d 	bne.w	faf0 <_svfprintf_r+0x230>
   104d6:	9a2d      	ldr	r2, [sp, #180]	; 0xb4
   104d8:	9b2c      	ldr	r3, [sp, #176]	; 0xb0
   104da:	ae38      	add	r6, sp, #224	; 0xe0
   104dc:	e7e7      	b.n	104ae <_svfprintf_r+0xbee>
   104de:	980d      	ldr	r0, [sp, #52]	; 0x34
   104e0:	990c      	ldr	r1, [sp, #48]	; 0x30
   104e2:	aa2b      	add	r2, sp, #172	; 0xac
   104e4:	f002 fc6e 	bl	12dc4 <__ssprint_r>
   104e8:	2800      	cmp	r0, #0
   104ea:	f47f ab01 	bne.w	faf0 <_svfprintf_r+0x230>
   104ee:	f89d a08f 	ldrb.w	sl, [sp, #143]	; 0x8f
   104f2:	f8dd c0b4 	ldr.w	ip, [sp, #180]	; 0xb4
   104f6:	ae38      	add	r6, sp, #224	; 0xe0
   104f8:	f7ff bbda 	b.w	fcb0 <_svfprintf_r+0x3f0>
   104fc:	1e6f      	subs	r7, r5, #1
   104fe:	2f00      	cmp	r7, #0
   10500:	f77f af50 	ble.w	103a4 <_svfprintf_r+0xae4>
   10504:	2f10      	cmp	r7, #16
   10506:	4dae      	ldr	r5, [pc, #696]	; (107c0 <_svfprintf_r+0xf00>)
   10508:	dd23      	ble.n	10552 <_svfprintf_r+0xc92>
   1050a:	4643      	mov	r3, r8
   1050c:	f04f 0a10 	mov.w	sl, #16
   10510:	f8dd 8034 	ldr.w	r8, [sp, #52]	; 0x34
   10514:	f8dd b030 	ldr.w	fp, [sp, #48]	; 0x30
   10518:	e004      	b.n	10524 <_svfprintf_r+0xc64>
   1051a:	3f10      	subs	r7, #16
   1051c:	2f10      	cmp	r7, #16
   1051e:	f106 0608 	add.w	r6, r6, #8
   10522:	dd15      	ble.n	10550 <_svfprintf_r+0xc90>
   10524:	3401      	adds	r4, #1
   10526:	3310      	adds	r3, #16
   10528:	2c07      	cmp	r4, #7
   1052a:	932d      	str	r3, [sp, #180]	; 0xb4
   1052c:	942c      	str	r4, [sp, #176]	; 0xb0
   1052e:	e886 0420 	stmia.w	r6, {r5, sl}
   10532:	ddf2      	ble.n	1051a <_svfprintf_r+0xc5a>
   10534:	4640      	mov	r0, r8
   10536:	4659      	mov	r1, fp
   10538:	aa2b      	add	r2, sp, #172	; 0xac
   1053a:	f002 fc43 	bl	12dc4 <__ssprint_r>
   1053e:	2800      	cmp	r0, #0
   10540:	f47f aad6 	bne.w	faf0 <_svfprintf_r+0x230>
   10544:	3f10      	subs	r7, #16
   10546:	2f10      	cmp	r7, #16
   10548:	9b2d      	ldr	r3, [sp, #180]	; 0xb4
   1054a:	9c2c      	ldr	r4, [sp, #176]	; 0xb0
   1054c:	ae38      	add	r6, sp, #224	; 0xe0
   1054e:	dce9      	bgt.n	10524 <_svfprintf_r+0xc64>
   10550:	4698      	mov	r8, r3
   10552:	3401      	adds	r4, #1
   10554:	44b8      	add	r8, r7
   10556:	2c07      	cmp	r4, #7
   10558:	f8cd 80b4 	str.w	r8, [sp, #180]	; 0xb4
   1055c:	942c      	str	r4, [sp, #176]	; 0xb0
   1055e:	e886 00a0 	stmia.w	r6, {r5, r7}
   10562:	f77f af1e 	ble.w	103a2 <_svfprintf_r+0xae2>
   10566:	980d      	ldr	r0, [sp, #52]	; 0x34
   10568:	990c      	ldr	r1, [sp, #48]	; 0x30
   1056a:	aa2b      	add	r2, sp, #172	; 0xac
   1056c:	f002 fc2a 	bl	12dc4 <__ssprint_r>
   10570:	2800      	cmp	r0, #0
   10572:	f47f aabd 	bne.w	faf0 <_svfprintf_r+0x230>
   10576:	f8dd 80b4 	ldr.w	r8, [sp, #180]	; 0xb4
   1057a:	9c2c      	ldr	r4, [sp, #176]	; 0xb0
   1057c:	ae38      	add	r6, sp, #224	; 0xe0
   1057e:	e711      	b.n	103a4 <_svfprintf_r+0xae4>
   10580:	4694      	mov	ip, r2
   10582:	3301      	adds	r3, #1
   10584:	44a4      	add	ip, r4
   10586:	2b07      	cmp	r3, #7
   10588:	f8cd c0b4 	str.w	ip, [sp, #180]	; 0xb4
   1058c:	932c      	str	r3, [sp, #176]	; 0xb0
   1058e:	6035      	str	r5, [r6, #0]
   10590:	6074      	str	r4, [r6, #4]
   10592:	f77f ac06 	ble.w	fda2 <_svfprintf_r+0x4e2>
   10596:	e713      	b.n	103c0 <_svfprintf_r+0xb00>
   10598:	f10d 0bdf 	add.w	fp, sp, #223	; 0xdf
   1059c:	4620      	mov	r0, r4
   1059e:	4629      	mov	r1, r5
   105a0:	220a      	movs	r2, #10
   105a2:	2300      	movs	r3, #0
   105a4:	f003 ffec 	bl	14580 <__aeabi_uldivmod>
   105a8:	3230      	adds	r2, #48	; 0x30
   105aa:	f88b 2000 	strb.w	r2, [fp]
   105ae:	4620      	mov	r0, r4
   105b0:	4629      	mov	r1, r5
   105b2:	220a      	movs	r2, #10
   105b4:	2300      	movs	r3, #0
   105b6:	f003 ffe3 	bl	14580 <__aeabi_uldivmod>
   105ba:	4604      	mov	r4, r0
   105bc:	460d      	mov	r5, r1
   105be:	ea54 0c05 	orrs.w	ip, r4, r5
   105c2:	465f      	mov	r7, fp
   105c4:	f10b 3bff 	add.w	fp, fp, #4294967295
   105c8:	d1e8      	bne.n	1059c <_svfprintf_r+0xcdc>
   105ca:	9d08      	ldr	r5, [sp, #32]
   105cc:	1bec      	subs	r4, r5, r7
   105ce:	f7ff bb05 	b.w	fbdc <_svfprintf_r+0x31c>
   105d2:	9d10      	ldr	r5, [sp, #64]	; 0x40
   105d4:	2301      	movs	r3, #1
   105d6:	682c      	ldr	r4, [r5, #0]
   105d8:	3504      	adds	r5, #4
   105da:	9510      	str	r5, [sp, #64]	; 0x40
   105dc:	2500      	movs	r5, #0
   105de:	f7ff bad9 	b.w	fb94 <_svfprintf_r+0x2d4>
   105e2:	9d10      	ldr	r5, [sp, #64]	; 0x40
   105e4:	682c      	ldr	r4, [r5, #0]
   105e6:	3504      	adds	r5, #4
   105e8:	9510      	str	r5, [sp, #64]	; 0x40
   105ea:	2500      	movs	r5, #0
   105ec:	f7ff bad2 	b.w	fb94 <_svfprintf_r+0x2d4>
   105f0:	9d10      	ldr	r5, [sp, #64]	; 0x40
   105f2:	682c      	ldr	r4, [r5, #0]
   105f4:	3504      	adds	r5, #4
   105f6:	9510      	str	r5, [sp, #64]	; 0x40
   105f8:	17e5      	asrs	r5, r4, #31
   105fa:	4622      	mov	r2, r4
   105fc:	462b      	mov	r3, r5
   105fe:	2a00      	cmp	r2, #0
   10600:	f173 0c00 	sbcs.w	ip, r3, #0
   10604:	f6bf ac6c 	bge.w	fee0 <_svfprintf_r+0x620>
   10608:	f04f 0a2d 	mov.w	sl, #45	; 0x2d
   1060c:	4264      	negs	r4, r4
   1060e:	eb65 0545 	sbc.w	r5, r5, r5, lsl #1
   10612:	f88d a08f 	strb.w	sl, [sp, #143]	; 0x8f
   10616:	2301      	movs	r3, #1
   10618:	f7ff bac0 	b.w	fb9c <_svfprintf_r+0x2dc>
   1061c:	980d      	ldr	r0, [sp, #52]	; 0x34
   1061e:	990c      	ldr	r1, [sp, #48]	; 0x30
   10620:	aa2b      	add	r2, sp, #172	; 0xac
   10622:	f002 fbcf 	bl	12dc4 <__ssprint_r>
   10626:	2800      	cmp	r0, #0
   10628:	f47f aa62 	bne.w	faf0 <_svfprintf_r+0x230>
   1062c:	f8dd c0b4 	ldr.w	ip, [sp, #180]	; 0xb4
   10630:	ae38      	add	r6, sp, #224	; 0xe0
   10632:	9d14      	ldr	r5, [sp, #80]	; 0x50
   10634:	9c25      	ldr	r4, [sp, #148]	; 0x94
   10636:	442f      	add	r7, r5
   10638:	9d11      	ldr	r5, [sp, #68]	; 0x44
   1063a:	42ac      	cmp	r4, r5
   1063c:	db42      	blt.n	106c4 <_svfprintf_r+0xe04>
   1063e:	9d09      	ldr	r5, [sp, #36]	; 0x24
   10640:	07e9      	lsls	r1, r5, #31
   10642:	d43f      	bmi.n	106c4 <_svfprintf_r+0xe04>
   10644:	9811      	ldr	r0, [sp, #68]	; 0x44
   10646:	ebc7 050a 	rsb	r5, r7, sl
   1064a:	1b04      	subs	r4, r0, r4
   1064c:	42ac      	cmp	r4, r5
   1064e:	bfb8      	it	lt
   10650:	4625      	movlt	r5, r4
   10652:	2d00      	cmp	r5, #0
   10654:	dd0b      	ble.n	1066e <_svfprintf_r+0xdae>
   10656:	9b2c      	ldr	r3, [sp, #176]	; 0xb0
   10658:	44ac      	add	ip, r5
   1065a:	3301      	adds	r3, #1
   1065c:	2b07      	cmp	r3, #7
   1065e:	f8cd c0b4 	str.w	ip, [sp, #180]	; 0xb4
   10662:	6037      	str	r7, [r6, #0]
   10664:	6075      	str	r5, [r6, #4]
   10666:	932c      	str	r3, [sp, #176]	; 0xb0
   10668:	f300 824c 	bgt.w	10b04 <_svfprintf_r+0x1244>
   1066c:	3608      	adds	r6, #8
   1066e:	ea25 75e5 	bic.w	r5, r5, r5, asr #31
   10672:	1b64      	subs	r4, r4, r5
   10674:	2c00      	cmp	r4, #0
   10676:	f77f ab95 	ble.w	fda4 <_svfprintf_r+0x4e4>
   1067a:	2c10      	cmp	r4, #16
   1067c:	9b2c      	ldr	r3, [sp, #176]	; 0xb0
   1067e:	4d50      	ldr	r5, [pc, #320]	; (107c0 <_svfprintf_r+0xf00>)
   10680:	f77f af7f 	ble.w	10582 <_svfprintf_r+0xcc2>
   10684:	2710      	movs	r7, #16
   10686:	4662      	mov	r2, ip
   10688:	f8dd 8034 	ldr.w	r8, [sp, #52]	; 0x34
   1068c:	f8dd a030 	ldr.w	sl, [sp, #48]	; 0x30
   10690:	e004      	b.n	1069c <_svfprintf_r+0xddc>
   10692:	3608      	adds	r6, #8
   10694:	3c10      	subs	r4, #16
   10696:	2c10      	cmp	r4, #16
   10698:	f77f af72 	ble.w	10580 <_svfprintf_r+0xcc0>
   1069c:	3301      	adds	r3, #1
   1069e:	3210      	adds	r2, #16
   106a0:	2b07      	cmp	r3, #7
   106a2:	922d      	str	r2, [sp, #180]	; 0xb4
   106a4:	932c      	str	r3, [sp, #176]	; 0xb0
   106a6:	e886 00a0 	stmia.w	r6, {r5, r7}
   106aa:	ddf2      	ble.n	10692 <_svfprintf_r+0xdd2>
   106ac:	4640      	mov	r0, r8
   106ae:	4651      	mov	r1, sl
   106b0:	aa2b      	add	r2, sp, #172	; 0xac
   106b2:	f002 fb87 	bl	12dc4 <__ssprint_r>
   106b6:	2800      	cmp	r0, #0
   106b8:	f47f aa1a 	bne.w	faf0 <_svfprintf_r+0x230>
   106bc:	9a2d      	ldr	r2, [sp, #180]	; 0xb4
   106be:	9b2c      	ldr	r3, [sp, #176]	; 0xb0
   106c0:	ae38      	add	r6, sp, #224	; 0xe0
   106c2:	e7e7      	b.n	10694 <_svfprintf_r+0xdd4>
   106c4:	9d18      	ldr	r5, [sp, #96]	; 0x60
   106c6:	9b2c      	ldr	r3, [sp, #176]	; 0xb0
   106c8:	44ac      	add	ip, r5
   106ca:	9d15      	ldr	r5, [sp, #84]	; 0x54
   106cc:	3301      	adds	r3, #1
   106ce:	6035      	str	r5, [r6, #0]
   106d0:	9d18      	ldr	r5, [sp, #96]	; 0x60
   106d2:	2b07      	cmp	r3, #7
   106d4:	f8cd c0b4 	str.w	ip, [sp, #180]	; 0xb4
   106d8:	6075      	str	r5, [r6, #4]
   106da:	932c      	str	r3, [sp, #176]	; 0xb0
   106dc:	f300 81f4 	bgt.w	10ac8 <_svfprintf_r+0x1208>
   106e0:	3608      	adds	r6, #8
   106e2:	e7af      	b.n	10644 <_svfprintf_r+0xd84>
   106e4:	9d09      	ldr	r5, [sp, #36]	; 0x24
   106e6:	07ea      	lsls	r2, r5, #31
   106e8:	f53f ae2a 	bmi.w	10340 <_svfprintf_r+0xa80>
   106ec:	3401      	adds	r4, #1
   106ee:	f10c 0801 	add.w	r8, ip, #1
   106f2:	2301      	movs	r3, #1
   106f4:	2c07      	cmp	r4, #7
   106f6:	f8cd 80b4 	str.w	r8, [sp, #180]	; 0xb4
   106fa:	942c      	str	r4, [sp, #176]	; 0xb0
   106fc:	6037      	str	r7, [r6, #0]
   106fe:	6073      	str	r3, [r6, #4]
   10700:	f77f ae4f 	ble.w	103a2 <_svfprintf_r+0xae2>
   10704:	e72f      	b.n	10566 <_svfprintf_r+0xca6>
   10706:	980d      	ldr	r0, [sp, #52]	; 0x34
   10708:	990c      	ldr	r1, [sp, #48]	; 0x30
   1070a:	aa2b      	add	r2, sp, #172	; 0xac
   1070c:	f002 fb5a 	bl	12dc4 <__ssprint_r>
   10710:	2800      	cmp	r0, #0
   10712:	f47f a9ed 	bne.w	faf0 <_svfprintf_r+0x230>
   10716:	9b2d      	ldr	r3, [sp, #180]	; 0xb4
   10718:	9c2c      	ldr	r4, [sp, #176]	; 0xb0
   1071a:	ae38      	add	r6, sp, #224	; 0xe0
   1071c:	e61c      	b.n	10358 <_svfprintf_r+0xa98>
   1071e:	980d      	ldr	r0, [sp, #52]	; 0x34
   10720:	990c      	ldr	r1, [sp, #48]	; 0x30
   10722:	aa2b      	add	r2, sp, #172	; 0xac
   10724:	f002 fb4e 	bl	12dc4 <__ssprint_r>
   10728:	2800      	cmp	r0, #0
   1072a:	f47f a9e1 	bne.w	faf0 <_svfprintf_r+0x230>
   1072e:	f8dd 80b4 	ldr.w	r8, [sp, #180]	; 0xb4
   10732:	9c2c      	ldr	r4, [sp, #176]	; 0xb0
   10734:	ae38      	add	r6, sp, #224	; 0xe0
   10736:	e61e      	b.n	10376 <_svfprintf_r+0xab6>
   10738:	980d      	ldr	r0, [sp, #52]	; 0x34
   1073a:	990c      	ldr	r1, [sp, #48]	; 0x30
   1073c:	aa2b      	add	r2, sp, #172	; 0xac
   1073e:	f002 fb41 	bl	12dc4 <__ssprint_r>
   10742:	2800      	cmp	r0, #0
   10744:	f47f a9d4 	bne.w	faf0 <_svfprintf_r+0x230>
   10748:	f8dd c0b4 	ldr.w	ip, [sp, #180]	; 0xb4
   1074c:	ae38      	add	r6, sp, #224	; 0xe0
   1074e:	f7ff bad7 	b.w	fd00 <_svfprintf_r+0x440>
   10752:	f7fd fc39 	bl	dfc8 <__fpclassifyd>
   10756:	2800      	cmp	r0, #0
   10758:	f040 80bb 	bne.w	108d2 <_svfprintf_r+0x1012>
   1075c:	9c09      	ldr	r4, [sp, #36]	; 0x24
   1075e:	4f19      	ldr	r7, [pc, #100]	; (107c4 <_svfprintf_r+0xf04>)
   10760:	4b19      	ldr	r3, [pc, #100]	; (107c8 <_svfprintf_r+0xf08>)
   10762:	f04f 0c03 	mov.w	ip, #3
   10766:	f024 0480 	bic.w	r4, r4, #128	; 0x80
   1076a:	9409      	str	r4, [sp, #36]	; 0x24
   1076c:	900a      	str	r0, [sp, #40]	; 0x28
   1076e:	f8cd c02c 	str.w	ip, [sp, #44]	; 0x2c
   10772:	9014      	str	r0, [sp, #80]	; 0x50
   10774:	f1b8 0f47 	cmp.w	r8, #71	; 0x47
   10778:	bfd8      	it	le
   1077a:	461f      	movle	r7, r3
   1077c:	4664      	mov	r4, ip
   1077e:	f89d a08f 	ldrb.w	sl, [sp, #143]	; 0x8f
   10782:	f7ff ba34 	b.w	fbee <_svfprintf_r+0x32e>
   10786:	9c09      	ldr	r4, [sp, #36]	; 0x24
   10788:	0664      	lsls	r4, r4, #25
   1078a:	f140 8150 	bpl.w	10a2e <_svfprintf_r+0x116e>
   1078e:	f8dd c040 	ldr.w	ip, [sp, #64]	; 0x40
   10792:	2500      	movs	r5, #0
   10794:	f8bc 4000 	ldrh.w	r4, [ip]
   10798:	f10c 0c04 	add.w	ip, ip, #4
   1079c:	f8cd c040 	str.w	ip, [sp, #64]	; 0x40
   107a0:	f7ff b9e4 	b.w	fb6c <_svfprintf_r+0x2ac>
   107a4:	f8dd c024 	ldr.w	ip, [sp, #36]	; 0x24
   107a8:	f01c 0f10 	tst.w	ip, #16
   107ac:	f000 8146 	beq.w	10a3c <_svfprintf_r+0x117c>
   107b0:	9c10      	ldr	r4, [sp, #64]	; 0x40
   107b2:	9d0e      	ldr	r5, [sp, #56]	; 0x38
   107b4:	6823      	ldr	r3, [r4, #0]
   107b6:	3404      	adds	r4, #4
   107b8:	9410      	str	r4, [sp, #64]	; 0x40
   107ba:	601d      	str	r5, [r3, #0]
   107bc:	f7ff b8a6 	b.w	f90c <_svfprintf_r+0x4c>
   107c0:	00014f28 	.word	0x00014f28
   107c4:	00014c0c 	.word	0x00014c0c
   107c8:	00014c08 	.word	0x00014c08
   107cc:	462c      	mov	r4, r5
   107ce:	463d      	mov	r5, r7
   107d0:	9f0a      	ldr	r7, [sp, #40]	; 0x28
   107d2:	4694      	mov	ip, r2
   107d4:	3301      	adds	r3, #1
   107d6:	44a4      	add	ip, r4
   107d8:	2b07      	cmp	r3, #7
   107da:	f8cd c0b4 	str.w	ip, [sp, #180]	; 0xb4
   107de:	932c      	str	r3, [sp, #176]	; 0xb0
   107e0:	6035      	str	r5, [r6, #0]
   107e2:	6074      	str	r4, [r6, #4]
   107e4:	f73f af1a 	bgt.w	1061c <_svfprintf_r+0xd5c>
   107e8:	3608      	adds	r6, #8
   107ea:	e722      	b.n	10632 <_svfprintf_r+0xd72>
   107ec:	980d      	ldr	r0, [sp, #52]	; 0x34
   107ee:	990c      	ldr	r1, [sp, #48]	; 0x30
   107f0:	aa2b      	add	r2, sp, #172	; 0xac
   107f2:	f002 fae7 	bl	12dc4 <__ssprint_r>
   107f6:	2800      	cmp	r0, #0
   107f8:	f47f a97a 	bne.w	faf0 <_svfprintf_r+0x230>
   107fc:	f8dd c0b4 	ldr.w	ip, [sp, #180]	; 0xb4
   10800:	ae38      	add	r6, sp, #224	; 0xe0
   10802:	e507      	b.n	10214 <_svfprintf_r+0x954>
   10804:	9a2c      	ldr	r2, [sp, #176]	; 0xb0
   10806:	49b7      	ldr	r1, [pc, #732]	; (10ae4 <_svfprintf_r+0x1224>)
   10808:	3201      	adds	r2, #1
   1080a:	f10c 0c01 	add.w	ip, ip, #1
   1080e:	2001      	movs	r0, #1
   10810:	2a07      	cmp	r2, #7
   10812:	f8cd c0b4 	str.w	ip, [sp, #180]	; 0xb4
   10816:	922c      	str	r2, [sp, #176]	; 0xb0
   10818:	6031      	str	r1, [r6, #0]
   1081a:	6070      	str	r0, [r6, #4]
   1081c:	f300 80f7 	bgt.w	10a0e <_svfprintf_r+0x114e>
   10820:	3608      	adds	r6, #8
   10822:	461c      	mov	r4, r3
   10824:	b92c      	cbnz	r4, 10832 <_svfprintf_r+0xf72>
   10826:	9d11      	ldr	r5, [sp, #68]	; 0x44
   10828:	b91d      	cbnz	r5, 10832 <_svfprintf_r+0xf72>
   1082a:	9d09      	ldr	r5, [sp, #36]	; 0x24
   1082c:	07e8      	lsls	r0, r5, #31
   1082e:	f57f aab9 	bpl.w	fda4 <_svfprintf_r+0x4e4>
   10832:	9b2c      	ldr	r3, [sp, #176]	; 0xb0
   10834:	9d15      	ldr	r5, [sp, #84]	; 0x54
   10836:	9918      	ldr	r1, [sp, #96]	; 0x60
   10838:	3301      	adds	r3, #1
   1083a:	6035      	str	r5, [r6, #0]
   1083c:	9d18      	ldr	r5, [sp, #96]	; 0x60
   1083e:	4461      	add	r1, ip
   10840:	2b07      	cmp	r3, #7
   10842:	912d      	str	r1, [sp, #180]	; 0xb4
   10844:	6075      	str	r5, [r6, #4]
   10846:	932c      	str	r3, [sp, #176]	; 0xb0
   10848:	f300 81de 	bgt.w	10c08 <_svfprintf_r+0x1348>
   1084c:	f106 0208 	add.w	r2, r6, #8
   10850:	4264      	negs	r4, r4
   10852:	2c00      	cmp	r4, #0
   10854:	f340 810b 	ble.w	10a6e <_svfprintf_r+0x11ae>
   10858:	2c10      	cmp	r4, #16
   1085a:	4da3      	ldr	r5, [pc, #652]	; (10ae8 <_svfprintf_r+0x1228>)
   1085c:	f340 8148 	ble.w	10af0 <_svfprintf_r+0x1230>
   10860:	46a3      	mov	fp, r4
   10862:	2610      	movs	r6, #16
   10864:	460c      	mov	r4, r1
   10866:	f8dd 8034 	ldr.w	r8, [sp, #52]	; 0x34
   1086a:	f8dd a030 	ldr.w	sl, [sp, #48]	; 0x30
   1086e:	e006      	b.n	1087e <_svfprintf_r+0xfbe>
   10870:	3208      	adds	r2, #8
   10872:	f1ab 0b10 	sub.w	fp, fp, #16
   10876:	f1bb 0f10 	cmp.w	fp, #16
   1087a:	f340 8137 	ble.w	10aec <_svfprintf_r+0x122c>
   1087e:	3301      	adds	r3, #1
   10880:	3410      	adds	r4, #16
   10882:	2b07      	cmp	r3, #7
   10884:	942d      	str	r4, [sp, #180]	; 0xb4
   10886:	932c      	str	r3, [sp, #176]	; 0xb0
   10888:	e882 0060 	stmia.w	r2, {r5, r6}
   1088c:	ddf0      	ble.n	10870 <_svfprintf_r+0xfb0>
   1088e:	4640      	mov	r0, r8
   10890:	4651      	mov	r1, sl
   10892:	aa2b      	add	r2, sp, #172	; 0xac
   10894:	f002 fa96 	bl	12dc4 <__ssprint_r>
   10898:	2800      	cmp	r0, #0
   1089a:	f47f a929 	bne.w	faf0 <_svfprintf_r+0x230>
   1089e:	9c2d      	ldr	r4, [sp, #180]	; 0xb4
   108a0:	9b2c      	ldr	r3, [sp, #176]	; 0xb0
   108a2:	aa38      	add	r2, sp, #224	; 0xe0
   108a4:	e7e5      	b.n	10872 <_svfprintf_r+0xfb2>
   108a6:	9c09      	ldr	r4, [sp, #36]	; 0x24
   108a8:	f109 0901 	add.w	r9, r9, #1
   108ac:	f044 0420 	orr.w	r4, r4, #32
   108b0:	9409      	str	r4, [sp, #36]	; 0x24
   108b2:	f893 8001 	ldrb.w	r8, [r3, #1]
   108b6:	f7ff b85f 	b.w	f978 <_svfprintf_r+0xb8>
   108ba:	980d      	ldr	r0, [sp, #52]	; 0x34
   108bc:	990c      	ldr	r1, [sp, #48]	; 0x30
   108be:	aa2b      	add	r2, sp, #172	; 0xac
   108c0:	f002 fa80 	bl	12dc4 <__ssprint_r>
   108c4:	2800      	cmp	r0, #0
   108c6:	f47f a913 	bne.w	faf0 <_svfprintf_r+0x230>
   108ca:	f8dd c0b4 	ldr.w	ip, [sp, #180]	; 0xb4
   108ce:	ae38      	add	r6, sp, #224	; 0xe0
   108d0:	e4b6      	b.n	10240 <_svfprintf_r+0x980>
   108d2:	9d0a      	ldr	r5, [sp, #40]	; 0x28
   108d4:	f028 0a20 	bic.w	sl, r8, #32
   108d8:	3501      	adds	r5, #1
   108da:	f000 80a5 	beq.w	10a28 <_svfprintf_r+0x1168>
   108de:	f1ba 0f47 	cmp.w	sl, #71	; 0x47
   108e2:	d104      	bne.n	108ee <_svfprintf_r+0x102e>
   108e4:	9d0a      	ldr	r5, [sp, #40]	; 0x28
   108e6:	2d00      	cmp	r5, #0
   108e8:	bf08      	it	eq
   108ea:	2501      	moveq	r5, #1
   108ec:	950a      	str	r5, [sp, #40]	; 0x28
   108ee:	f8dd c024 	ldr.w	ip, [sp, #36]	; 0x24
   108f2:	e9dd 2316 	ldrd	r2, r3, [sp, #88]	; 0x58
   108f6:	f44c 7c80 	orr.w	ip, ip, #256	; 0x100
   108fa:	2b00      	cmp	r3, #0
   108fc:	f8cd c048 	str.w	ip, [sp, #72]	; 0x48
   10900:	f2c0 819c 	blt.w	10c3c <_svfprintf_r+0x137c>
   10904:	e9dd 4516 	ldrd	r4, r5, [sp, #88]	; 0x58
   10908:	e9cd 4520 	strd	r4, r5, [sp, #128]	; 0x80
   1090c:	f04f 0b00 	mov.w	fp, #0
   10910:	f1b8 0f66 	cmp.w	r8, #102	; 0x66
   10914:	f000 819b 	beq.w	10c4e <_svfprintf_r+0x138e>
   10918:	f1b8 0f46 	cmp.w	r8, #70	; 0x46
   1091c:	f000 81a9 	beq.w	10c72 <_svfprintf_r+0x13b2>
   10920:	f1ba 0f45 	cmp.w	sl, #69	; 0x45
   10924:	bf0a      	itet	eq
   10926:	9c0a      	ldreq	r4, [sp, #40]	; 0x28
   10928:	9d0a      	ldrne	r5, [sp, #40]	; 0x28
   1092a:	1c65      	addeq	r5, r4, #1
   1092c:	2002      	movs	r0, #2
   1092e:	a925      	add	r1, sp, #148	; 0x94
   10930:	aa26      	add	r2, sp, #152	; 0x98
   10932:	ab29      	add	r3, sp, #164	; 0xa4
   10934:	e88d 0021 	stmia.w	sp, {r0, r5}
   10938:	9203      	str	r2, [sp, #12]
   1093a:	9304      	str	r3, [sp, #16]
   1093c:	9102      	str	r1, [sp, #8]
   1093e:	980d      	ldr	r0, [sp, #52]	; 0x34
   10940:	e9dd 2320 	ldrd	r2, r3, [sp, #128]	; 0x80
   10944:	f7fb f998 	bl	bc78 <_dtoa_r>
   10948:	f1b8 0f67 	cmp.w	r8, #103	; 0x67
   1094c:	4607      	mov	r7, r0
   1094e:	d002      	beq.n	10956 <_svfprintf_r+0x1096>
   10950:	f1b8 0f47 	cmp.w	r8, #71	; 0x47
   10954:	d105      	bne.n	10962 <_svfprintf_r+0x10a2>
   10956:	f8dd c024 	ldr.w	ip, [sp, #36]	; 0x24
   1095a:	f01c 0f01 	tst.w	ip, #1
   1095e:	f000 819c 	beq.w	10c9a <_svfprintf_r+0x13da>
   10962:	f1ba 0f46 	cmp.w	sl, #70	; 0x46
   10966:	eb07 0405 	add.w	r4, r7, r5
   1096a:	f000 811c 	beq.w	10ba6 <_svfprintf_r+0x12e6>
   1096e:	e9dd 0120 	ldrd	r0, r1, [sp, #128]	; 0x80
   10972:	2200      	movs	r2, #0
   10974:	2300      	movs	r3, #0
   10976:	f003 fd39 	bl	143ec <__aeabi_dcmpeq>
   1097a:	2800      	cmp	r0, #0
   1097c:	f040 8105 	bne.w	10b8a <_svfprintf_r+0x12ca>
   10980:	9b29      	ldr	r3, [sp, #164]	; 0xa4
   10982:	429c      	cmp	r4, r3
   10984:	d906      	bls.n	10994 <_svfprintf_r+0x10d4>
   10986:	2130      	movs	r1, #48	; 0x30
   10988:	1c5a      	adds	r2, r3, #1
   1098a:	9229      	str	r2, [sp, #164]	; 0xa4
   1098c:	7019      	strb	r1, [r3, #0]
   1098e:	9b29      	ldr	r3, [sp, #164]	; 0xa4
   10990:	429c      	cmp	r4, r3
   10992:	d8f9      	bhi.n	10988 <_svfprintf_r+0x10c8>
   10994:	1bdb      	subs	r3, r3, r7
   10996:	f1ba 0f47 	cmp.w	sl, #71	; 0x47
   1099a:	9311      	str	r3, [sp, #68]	; 0x44
   1099c:	f000 80ed 	beq.w	10b7a <_svfprintf_r+0x12ba>
   109a0:	f1b8 0f65 	cmp.w	r8, #101	; 0x65
   109a4:	f340 81f2 	ble.w	10d8c <_svfprintf_r+0x14cc>
   109a8:	f1b8 0f66 	cmp.w	r8, #102	; 0x66
   109ac:	f000 8168 	beq.w	10c80 <_svfprintf_r+0x13c0>
   109b0:	9c25      	ldr	r4, [sp, #148]	; 0x94
   109b2:	9414      	str	r4, [sp, #80]	; 0x50
   109b4:	9c11      	ldr	r4, [sp, #68]	; 0x44
   109b6:	9d14      	ldr	r5, [sp, #80]	; 0x50
   109b8:	42ac      	cmp	r4, r5
   109ba:	f300 8132 	bgt.w	10c22 <_svfprintf_r+0x1362>
   109be:	f8dd c024 	ldr.w	ip, [sp, #36]	; 0x24
   109c2:	f01c 0f01 	tst.w	ip, #1
   109c6:	f040 81ad 	bne.w	10d24 <_svfprintf_r+0x1464>
   109ca:	ea25 73e5 	bic.w	r3, r5, r5, asr #31
   109ce:	462c      	mov	r4, r5
   109d0:	f04f 0867 	mov.w	r8, #103	; 0x67
   109d4:	f1bb 0f00 	cmp.w	fp, #0
   109d8:	f040 80b2 	bne.w	10b40 <_svfprintf_r+0x1280>
   109dc:	9d12      	ldr	r5, [sp, #72]	; 0x48
   109de:	930b      	str	r3, [sp, #44]	; 0x2c
   109e0:	9509      	str	r5, [sp, #36]	; 0x24
   109e2:	f8cd b028 	str.w	fp, [sp, #40]	; 0x28
   109e6:	f89d a08f 	ldrb.w	sl, [sp, #143]	; 0x8f
   109ea:	f7ff b900 	b.w	fbee <_svfprintf_r+0x32e>
   109ee:	980d      	ldr	r0, [sp, #52]	; 0x34
   109f0:	2140      	movs	r1, #64	; 0x40
   109f2:	f7f8 fa5f 	bl	8eb4 <_malloc_r>
   109f6:	6020      	str	r0, [r4, #0]
   109f8:	6120      	str	r0, [r4, #16]
   109fa:	2800      	cmp	r0, #0
   109fc:	f000 81bf 	beq.w	10d7e <_svfprintf_r+0x14be>
   10a00:	f8dd c030 	ldr.w	ip, [sp, #48]	; 0x30
   10a04:	2340      	movs	r3, #64	; 0x40
   10a06:	f8cc 3014 	str.w	r3, [ip, #20]
   10a0a:	f7fe bf6f 	b.w	f8ec <_svfprintf_r+0x2c>
   10a0e:	980d      	ldr	r0, [sp, #52]	; 0x34
   10a10:	990c      	ldr	r1, [sp, #48]	; 0x30
   10a12:	aa2b      	add	r2, sp, #172	; 0xac
   10a14:	f002 f9d6 	bl	12dc4 <__ssprint_r>
   10a18:	2800      	cmp	r0, #0
   10a1a:	f47f a869 	bne.w	faf0 <_svfprintf_r+0x230>
   10a1e:	9c25      	ldr	r4, [sp, #148]	; 0x94
   10a20:	f8dd c0b4 	ldr.w	ip, [sp, #180]	; 0xb4
   10a24:	ae38      	add	r6, sp, #224	; 0xe0
   10a26:	e6fd      	b.n	10824 <_svfprintf_r+0xf64>
   10a28:	2406      	movs	r4, #6
   10a2a:	940a      	str	r4, [sp, #40]	; 0x28
   10a2c:	e75f      	b.n	108ee <_svfprintf_r+0x102e>
   10a2e:	9d10      	ldr	r5, [sp, #64]	; 0x40
   10a30:	682c      	ldr	r4, [r5, #0]
   10a32:	3504      	adds	r5, #4
   10a34:	9510      	str	r5, [sp, #64]	; 0x40
   10a36:	2500      	movs	r5, #0
   10a38:	f7ff b898 	b.w	fb6c <_svfprintf_r+0x2ac>
   10a3c:	f8dd c024 	ldr.w	ip, [sp, #36]	; 0x24
   10a40:	f01c 0f40 	tst.w	ip, #64	; 0x40
   10a44:	f000 8087 	beq.w	10b56 <_svfprintf_r+0x1296>
   10a48:	9c10      	ldr	r4, [sp, #64]	; 0x40
   10a4a:	9d0e      	ldr	r5, [sp, #56]	; 0x38
   10a4c:	6823      	ldr	r3, [r4, #0]
   10a4e:	3404      	adds	r4, #4
   10a50:	9410      	str	r4, [sp, #64]	; 0x40
   10a52:	801d      	strh	r5, [r3, #0]
   10a54:	f7fe bf5a 	b.w	f90c <_svfprintf_r+0x4c>
   10a58:	980d      	ldr	r0, [sp, #52]	; 0x34
   10a5a:	990c      	ldr	r1, [sp, #48]	; 0x30
   10a5c:	aa2b      	add	r2, sp, #172	; 0xac
   10a5e:	f002 f9b1 	bl	12dc4 <__ssprint_r>
   10a62:	2800      	cmp	r0, #0
   10a64:	f47f a844 	bne.w	faf0 <_svfprintf_r+0x230>
   10a68:	992d      	ldr	r1, [sp, #180]	; 0xb4
   10a6a:	9b2c      	ldr	r3, [sp, #176]	; 0xb0
   10a6c:	aa38      	add	r2, sp, #224	; 0xe0
   10a6e:	f8dd c044 	ldr.w	ip, [sp, #68]	; 0x44
   10a72:	3301      	adds	r3, #1
   10a74:	9c11      	ldr	r4, [sp, #68]	; 0x44
   10a76:	448c      	add	ip, r1
   10a78:	2b07      	cmp	r3, #7
   10a7a:	f8cd c0b4 	str.w	ip, [sp, #180]	; 0xb4
   10a7e:	932c      	str	r3, [sp, #176]	; 0xb0
   10a80:	6017      	str	r7, [r2, #0]
   10a82:	6054      	str	r4, [r2, #4]
   10a84:	f73f ac9c 	bgt.w	103c0 <_svfprintf_r+0xb00>
   10a88:	f102 0608 	add.w	r6, r2, #8
   10a8c:	f7ff b98a 	b.w	fda4 <_svfprintf_r+0x4e4>
   10a90:	f8cd a028 	str.w	sl, [sp, #40]	; 0x28
   10a94:	f7f8 fd4c 	bl	9530 <strlen>
   10a98:	9510      	str	r5, [sp, #64]	; 0x40
   10a9a:	9d0a      	ldr	r5, [sp, #40]	; 0x28
   10a9c:	ea20 7ce0 	bic.w	ip, r0, r0, asr #31
   10aa0:	4604      	mov	r4, r0
   10aa2:	f8cd c02c 	str.w	ip, [sp, #44]	; 0x2c
   10aa6:	9514      	str	r5, [sp, #80]	; 0x50
   10aa8:	f89d a08f 	ldrb.w	sl, [sp, #143]	; 0x8f
   10aac:	f7ff b89f 	b.w	fbee <_svfprintf_r+0x32e>
   10ab0:	980d      	ldr	r0, [sp, #52]	; 0x34
   10ab2:	990c      	ldr	r1, [sp, #48]	; 0x30
   10ab4:	aa2b      	add	r2, sp, #172	; 0xac
   10ab6:	f002 f985 	bl	12dc4 <__ssprint_r>
   10aba:	2800      	cmp	r0, #0
   10abc:	f47f a818 	bne.w	faf0 <_svfprintf_r+0x230>
   10ac0:	f8dd c0b4 	ldr.w	ip, [sp, #180]	; 0xb4
   10ac4:	ae38      	add	r6, sp, #224	; 0xe0
   10ac6:	e4d6      	b.n	10476 <_svfprintf_r+0xbb6>
   10ac8:	980d      	ldr	r0, [sp, #52]	; 0x34
   10aca:	990c      	ldr	r1, [sp, #48]	; 0x30
   10acc:	aa2b      	add	r2, sp, #172	; 0xac
   10ace:	f002 f979 	bl	12dc4 <__ssprint_r>
   10ad2:	2800      	cmp	r0, #0
   10ad4:	f47f a80c 	bne.w	faf0 <_svfprintf_r+0x230>
   10ad8:	9c25      	ldr	r4, [sp, #148]	; 0x94
   10ada:	f8dd c0b4 	ldr.w	ip, [sp, #180]	; 0xb4
   10ade:	ae38      	add	r6, sp, #224	; 0xe0
   10ae0:	e5b0      	b.n	10644 <_svfprintf_r+0xd84>
   10ae2:	bf00      	nop
   10ae4:	00014c40 	.word	0x00014c40
   10ae8:	00014f28 	.word	0x00014f28
   10aec:	4621      	mov	r1, r4
   10aee:	465c      	mov	r4, fp
   10af0:	3301      	adds	r3, #1
   10af2:	4421      	add	r1, r4
   10af4:	2b07      	cmp	r3, #7
   10af6:	912d      	str	r1, [sp, #180]	; 0xb4
   10af8:	932c      	str	r3, [sp, #176]	; 0xb0
   10afa:	6015      	str	r5, [r2, #0]
   10afc:	6054      	str	r4, [r2, #4]
   10afe:	dcab      	bgt.n	10a58 <_svfprintf_r+0x1198>
   10b00:	3208      	adds	r2, #8
   10b02:	e7b4      	b.n	10a6e <_svfprintf_r+0x11ae>
   10b04:	980d      	ldr	r0, [sp, #52]	; 0x34
   10b06:	990c      	ldr	r1, [sp, #48]	; 0x30
   10b08:	aa2b      	add	r2, sp, #172	; 0xac
   10b0a:	f002 f95b 	bl	12dc4 <__ssprint_r>
   10b0e:	2800      	cmp	r0, #0
   10b10:	f47e afee 	bne.w	faf0 <_svfprintf_r+0x230>
   10b14:	9c25      	ldr	r4, [sp, #148]	; 0x94
   10b16:	9911      	ldr	r1, [sp, #68]	; 0x44
   10b18:	f8dd c0b4 	ldr.w	ip, [sp, #180]	; 0xb4
   10b1c:	1b0c      	subs	r4, r1, r4
   10b1e:	ae38      	add	r6, sp, #224	; 0xe0
   10b20:	e5a5      	b.n	1066e <_svfprintf_r+0xdae>
   10b22:	9c0a      	ldr	r4, [sp, #40]	; 0x28
   10b24:	46ba      	mov	sl, r7
   10b26:	2c06      	cmp	r4, #6
   10b28:	bf28      	it	cs
   10b2a:	2406      	movcs	r4, #6
   10b2c:	ea24 7ce4 	bic.w	ip, r4, r4, asr #31
   10b30:	970a      	str	r7, [sp, #40]	; 0x28
   10b32:	9714      	str	r7, [sp, #80]	; 0x50
   10b34:	9510      	str	r5, [sp, #64]	; 0x40
   10b36:	f8cd c02c 	str.w	ip, [sp, #44]	; 0x2c
   10b3a:	4f97      	ldr	r7, [pc, #604]	; (10d98 <_svfprintf_r+0x14d8>)
   10b3c:	f7ff b857 	b.w	fbee <_svfprintf_r+0x32e>
   10b40:	9d12      	ldr	r5, [sp, #72]	; 0x48
   10b42:	f04f 0a2d 	mov.w	sl, #45	; 0x2d
   10b46:	9509      	str	r5, [sp, #36]	; 0x24
   10b48:	2500      	movs	r5, #0
   10b4a:	930b      	str	r3, [sp, #44]	; 0x2c
   10b4c:	f88d a08f 	strb.w	sl, [sp, #143]	; 0x8f
   10b50:	950a      	str	r5, [sp, #40]	; 0x28
   10b52:	f7ff b84f 	b.w	fbf4 <_svfprintf_r+0x334>
   10b56:	f8dd c040 	ldr.w	ip, [sp, #64]	; 0x40
   10b5a:	9c0e      	ldr	r4, [sp, #56]	; 0x38
   10b5c:	f8dc 3000 	ldr.w	r3, [ip]
   10b60:	f10c 0c04 	add.w	ip, ip, #4
   10b64:	f8cd c040 	str.w	ip, [sp, #64]	; 0x40
   10b68:	601c      	str	r4, [r3, #0]
   10b6a:	f7fe becf 	b.w	f90c <_svfprintf_r+0x4c>
   10b6e:	f04f 0a2d 	mov.w	sl, #45	; 0x2d
   10b72:	f88d a08f 	strb.w	sl, [sp, #143]	; 0x8f
   10b76:	f7ff ba99 	b.w	100ac <_svfprintf_r+0x7ec>
   10b7a:	9b25      	ldr	r3, [sp, #148]	; 0x94
   10b7c:	1cdc      	adds	r4, r3, #3
   10b7e:	db19      	blt.n	10bb4 <_svfprintf_r+0x12f4>
   10b80:	9c0a      	ldr	r4, [sp, #40]	; 0x28
   10b82:	429c      	cmp	r4, r3
   10b84:	db16      	blt.n	10bb4 <_svfprintf_r+0x12f4>
   10b86:	9314      	str	r3, [sp, #80]	; 0x50
   10b88:	e714      	b.n	109b4 <_svfprintf_r+0x10f4>
   10b8a:	4623      	mov	r3, r4
   10b8c:	e702      	b.n	10994 <_svfprintf_r+0x10d4>
   10b8e:	ea24 7ce4 	bic.w	ip, r4, r4, asr #31
   10b92:	f8cd c02c 	str.w	ip, [sp, #44]	; 0x2c
   10b96:	9c0a      	ldr	r4, [sp, #40]	; 0x28
   10b98:	9510      	str	r5, [sp, #64]	; 0x40
   10b9a:	900a      	str	r0, [sp, #40]	; 0x28
   10b9c:	9014      	str	r0, [sp, #80]	; 0x50
   10b9e:	f89d a08f 	ldrb.w	sl, [sp, #143]	; 0x8f
   10ba2:	f7ff b824 	b.w	fbee <_svfprintf_r+0x32e>
   10ba6:	783b      	ldrb	r3, [r7, #0]
   10ba8:	2b30      	cmp	r3, #48	; 0x30
   10baa:	f000 80ad 	beq.w	10d08 <_svfprintf_r+0x1448>
   10bae:	9d25      	ldr	r5, [sp, #148]	; 0x94
   10bb0:	442c      	add	r4, r5
   10bb2:	e6dc      	b.n	1096e <_svfprintf_r+0x10ae>
   10bb4:	f1a8 0802 	sub.w	r8, r8, #2
   10bb8:	1e59      	subs	r1, r3, #1
   10bba:	2900      	cmp	r1, #0
   10bbc:	9125      	str	r1, [sp, #148]	; 0x94
   10bbe:	bfba      	itte	lt
   10bc0:	4249      	neglt	r1, r1
   10bc2:	232d      	movlt	r3, #45	; 0x2d
   10bc4:	232b      	movge	r3, #43	; 0x2b
   10bc6:	2909      	cmp	r1, #9
   10bc8:	f88d 809c 	strb.w	r8, [sp, #156]	; 0x9c
   10bcc:	f88d 309d 	strb.w	r3, [sp, #157]	; 0x9d
   10bd0:	dc65      	bgt.n	10c9e <_svfprintf_r+0x13de>
   10bd2:	2330      	movs	r3, #48	; 0x30
   10bd4:	3130      	adds	r1, #48	; 0x30
   10bd6:	f88d 309e 	strb.w	r3, [sp, #158]	; 0x9e
   10bda:	f88d 109f 	strb.w	r1, [sp, #159]	; 0x9f
   10bde:	ab28      	add	r3, sp, #160	; 0xa0
   10be0:	9d11      	ldr	r5, [sp, #68]	; 0x44
   10be2:	aa27      	add	r2, sp, #156	; 0x9c
   10be4:	9c11      	ldr	r4, [sp, #68]	; 0x44
   10be6:	1a9a      	subs	r2, r3, r2
   10be8:	2d01      	cmp	r5, #1
   10bea:	9219      	str	r2, [sp, #100]	; 0x64
   10bec:	4414      	add	r4, r2
   10bee:	f340 80b7 	ble.w	10d60 <_svfprintf_r+0x14a0>
   10bf2:	3401      	adds	r4, #1
   10bf4:	2500      	movs	r5, #0
   10bf6:	ea24 73e4 	bic.w	r3, r4, r4, asr #31
   10bfa:	9514      	str	r5, [sp, #80]	; 0x50
   10bfc:	e6ea      	b.n	109d4 <_svfprintf_r+0x1114>
   10bfe:	2400      	movs	r4, #0
   10c00:	4681      	mov	r9, r0
   10c02:	940a      	str	r4, [sp, #40]	; 0x28
   10c04:	f7fe beba 	b.w	f97c <_svfprintf_r+0xbc>
   10c08:	980d      	ldr	r0, [sp, #52]	; 0x34
   10c0a:	990c      	ldr	r1, [sp, #48]	; 0x30
   10c0c:	aa2b      	add	r2, sp, #172	; 0xac
   10c0e:	f002 f8d9 	bl	12dc4 <__ssprint_r>
   10c12:	2800      	cmp	r0, #0
   10c14:	f47e af6c 	bne.w	faf0 <_svfprintf_r+0x230>
   10c18:	9c25      	ldr	r4, [sp, #148]	; 0x94
   10c1a:	992d      	ldr	r1, [sp, #180]	; 0xb4
   10c1c:	9b2c      	ldr	r3, [sp, #176]	; 0xb0
   10c1e:	aa38      	add	r2, sp, #224	; 0xe0
   10c20:	e616      	b.n	10850 <_svfprintf_r+0xf90>
   10c22:	9c14      	ldr	r4, [sp, #80]	; 0x50
   10c24:	9d11      	ldr	r5, [sp, #68]	; 0x44
   10c26:	2c00      	cmp	r4, #0
   10c28:	bfd4      	ite	le
   10c2a:	f1c4 0402 	rsble	r4, r4, #2
   10c2e:	2401      	movgt	r4, #1
   10c30:	442c      	add	r4, r5
   10c32:	ea24 73e4 	bic.w	r3, r4, r4, asr #31
   10c36:	f04f 0867 	mov.w	r8, #103	; 0x67
   10c3a:	e6cb      	b.n	109d4 <_svfprintf_r+0x1114>
   10c3c:	9917      	ldr	r1, [sp, #92]	; 0x5c
   10c3e:	9816      	ldr	r0, [sp, #88]	; 0x58
   10c40:	f101 4100 	add.w	r1, r1, #2147483648	; 0x80000000
   10c44:	9020      	str	r0, [sp, #128]	; 0x80
   10c46:	9121      	str	r1, [sp, #132]	; 0x84
   10c48:	f04f 0b2d 	mov.w	fp, #45	; 0x2d
   10c4c:	e660      	b.n	10910 <_svfprintf_r+0x1050>
   10c4e:	9d0a      	ldr	r5, [sp, #40]	; 0x28
   10c50:	2003      	movs	r0, #3
   10c52:	a925      	add	r1, sp, #148	; 0x94
   10c54:	aa26      	add	r2, sp, #152	; 0x98
   10c56:	ab29      	add	r3, sp, #164	; 0xa4
   10c58:	9501      	str	r5, [sp, #4]
   10c5a:	9000      	str	r0, [sp, #0]
   10c5c:	9203      	str	r2, [sp, #12]
   10c5e:	9304      	str	r3, [sp, #16]
   10c60:	9102      	str	r1, [sp, #8]
   10c62:	980d      	ldr	r0, [sp, #52]	; 0x34
   10c64:	e9dd 2320 	ldrd	r2, r3, [sp, #128]	; 0x80
   10c68:	f7fb f806 	bl	bc78 <_dtoa_r>
   10c6c:	9d0a      	ldr	r5, [sp, #40]	; 0x28
   10c6e:	4607      	mov	r7, r0
   10c70:	e677      	b.n	10962 <_svfprintf_r+0x10a2>
   10c72:	9c0a      	ldr	r4, [sp, #40]	; 0x28
   10c74:	2003      	movs	r0, #3
   10c76:	a925      	add	r1, sp, #148	; 0x94
   10c78:	aa26      	add	r2, sp, #152	; 0x98
   10c7a:	ab29      	add	r3, sp, #164	; 0xa4
   10c7c:	9401      	str	r4, [sp, #4]
   10c7e:	e7ec      	b.n	10c5a <_svfprintf_r+0x139a>
   10c80:	9d25      	ldr	r5, [sp, #148]	; 0x94
   10c82:	9c0a      	ldr	r4, [sp, #40]	; 0x28
   10c84:	2d00      	cmp	r5, #0
   10c86:	9514      	str	r5, [sp, #80]	; 0x50
   10c88:	dd63      	ble.n	10d52 <_svfprintf_r+0x1492>
   10c8a:	bbb4      	cbnz	r4, 10cfa <_svfprintf_r+0x143a>
   10c8c:	9d09      	ldr	r5, [sp, #36]	; 0x24
   10c8e:	07e8      	lsls	r0, r5, #31
   10c90:	d433      	bmi.n	10cfa <_svfprintf_r+0x143a>
   10c92:	9c14      	ldr	r4, [sp, #80]	; 0x50
   10c94:	ea24 73e4 	bic.w	r3, r4, r4, asr #31
   10c98:	e69c      	b.n	109d4 <_svfprintf_r+0x1114>
   10c9a:	9b29      	ldr	r3, [sp, #164]	; 0xa4
   10c9c:	e67a      	b.n	10994 <_svfprintf_r+0x10d4>
   10c9e:	f10d 02aa 	add.w	r2, sp, #170	; 0xaa
   10ca2:	4d3e      	ldr	r5, [pc, #248]	; (10d9c <_svfprintf_r+0x14dc>)
   10ca4:	17cb      	asrs	r3, r1, #31
   10ca6:	fb85 5001 	smull	r5, r0, r5, r1
   10caa:	ebc3 00a0 	rsb	r0, r3, r0, asr #2
   10cae:	eb00 0380 	add.w	r3, r0, r0, lsl #2
   10cb2:	eba1 0143 	sub.w	r1, r1, r3, lsl #1
   10cb6:	2809      	cmp	r0, #9
   10cb8:	4613      	mov	r3, r2
   10cba:	f101 0230 	add.w	r2, r1, #48	; 0x30
   10cbe:	701a      	strb	r2, [r3, #0]
   10cc0:	4601      	mov	r1, r0
   10cc2:	f103 32ff 	add.w	r2, r3, #4294967295
   10cc6:	dcec      	bgt.n	10ca2 <_svfprintf_r+0x13e2>
   10cc8:	f100 0130 	add.w	r1, r0, #48	; 0x30
   10ccc:	f10d 04ab 	add.w	r4, sp, #171	; 0xab
   10cd0:	b2c9      	uxtb	r1, r1
   10cd2:	4294      	cmp	r4, r2
   10cd4:	f803 1c01 	strb.w	r1, [r3, #-1]
   10cd8:	d95a      	bls.n	10d90 <_svfprintf_r+0x14d0>
   10cda:	f10d 009d 	add.w	r0, sp, #157	; 0x9d
   10cde:	461a      	mov	r2, r3
   10ce0:	e001      	b.n	10ce6 <_svfprintf_r+0x1426>
   10ce2:	f812 1b01 	ldrb.w	r1, [r2], #1
   10ce6:	42a2      	cmp	r2, r4
   10ce8:	f800 1f01 	strb.w	r1, [r0, #1]!
   10cec:	d1f9      	bne.n	10ce2 <_svfprintf_r+0x1422>
   10cee:	f50d 7c90 	add.w	ip, sp, #288	; 0x120
   10cf2:	ebc3 034c 	rsb	r3, r3, ip, lsl #1
   10cf6:	3bf6      	subs	r3, #246	; 0xf6
   10cf8:	e772      	b.n	10be0 <_svfprintf_r+0x1320>
   10cfa:	9d0a      	ldr	r5, [sp, #40]	; 0x28
   10cfc:	1c6c      	adds	r4, r5, #1
   10cfe:	9d14      	ldr	r5, [sp, #80]	; 0x50
   10d00:	442c      	add	r4, r5
   10d02:	ea24 73e4 	bic.w	r3, r4, r4, asr #31
   10d06:	e665      	b.n	109d4 <_svfprintf_r+0x1114>
   10d08:	e9dd 0120 	ldrd	r0, r1, [sp, #128]	; 0x80
   10d0c:	2200      	movs	r2, #0
   10d0e:	2300      	movs	r3, #0
   10d10:	f003 fb6c 	bl	143ec <__aeabi_dcmpeq>
   10d14:	2800      	cmp	r0, #0
   10d16:	f47f af4a 	bne.w	10bae <_svfprintf_r+0x12ee>
   10d1a:	f1c5 0501 	rsb	r5, r5, #1
   10d1e:	9525      	str	r5, [sp, #148]	; 0x94
   10d20:	442c      	add	r4, r5
   10d22:	e624      	b.n	1096e <_svfprintf_r+0x10ae>
   10d24:	9d14      	ldr	r5, [sp, #80]	; 0x50
   10d26:	f04f 0867 	mov.w	r8, #103	; 0x67
   10d2a:	1c6c      	adds	r4, r5, #1
   10d2c:	ea24 73e4 	bic.w	r3, r4, r4, asr #31
   10d30:	e650      	b.n	109d4 <_svfprintf_r+0x1114>
   10d32:	9d10      	ldr	r5, [sp, #64]	; 0x40
   10d34:	f8dd c040 	ldr.w	ip, [sp, #64]	; 0x40
   10d38:	682d      	ldr	r5, [r5, #0]
   10d3a:	f10c 0304 	add.w	r3, ip, #4
   10d3e:	2d00      	cmp	r5, #0
   10d40:	f899 8001 	ldrb.w	r8, [r9, #1]
   10d44:	950a      	str	r5, [sp, #40]	; 0x28
   10d46:	9310      	str	r3, [sp, #64]	; 0x40
   10d48:	4681      	mov	r9, r0
   10d4a:	f6be ae15 	bge.w	f978 <_svfprintf_r+0xb8>
   10d4e:	f7fe be10 	b.w	f972 <_svfprintf_r+0xb2>
   10d52:	b97c      	cbnz	r4, 10d74 <_svfprintf_r+0x14b4>
   10d54:	9d09      	ldr	r5, [sp, #36]	; 0x24
   10d56:	07e9      	lsls	r1, r5, #31
   10d58:	d40c      	bmi.n	10d74 <_svfprintf_r+0x14b4>
   10d5a:	2301      	movs	r3, #1
   10d5c:	461c      	mov	r4, r3
   10d5e:	e639      	b.n	109d4 <_svfprintf_r+0x1114>
   10d60:	f8dd c024 	ldr.w	ip, [sp, #36]	; 0x24
   10d64:	f01c 0301 	ands.w	r3, ip, #1
   10d68:	f47f af43 	bne.w	10bf2 <_svfprintf_r+0x1332>
   10d6c:	9314      	str	r3, [sp, #80]	; 0x50
   10d6e:	ea24 73e4 	bic.w	r3, r4, r4, asr #31
   10d72:	e62f      	b.n	109d4 <_svfprintf_r+0x1114>
   10d74:	9d0a      	ldr	r5, [sp, #40]	; 0x28
   10d76:	1cac      	adds	r4, r5, #2
   10d78:	ea24 73e4 	bic.w	r3, r4, r4, asr #31
   10d7c:	e62a      	b.n	109d4 <_svfprintf_r+0x1114>
   10d7e:	9d0d      	ldr	r5, [sp, #52]	; 0x34
   10d80:	230c      	movs	r3, #12
   10d82:	602b      	str	r3, [r5, #0]
   10d84:	f04f 30ff 	mov.w	r0, #4294967295
   10d88:	f7fe beba 	b.w	fb00 <_svfprintf_r+0x240>
   10d8c:	9b25      	ldr	r3, [sp, #148]	; 0x94
   10d8e:	e713      	b.n	10bb8 <_svfprintf_r+0x12f8>
   10d90:	f10d 039e 	add.w	r3, sp, #158	; 0x9e
   10d94:	e724      	b.n	10be0 <_svfprintf_r+0x1320>
   10d96:	bf00      	nop
   10d98:	00014c38 	.word	0x00014c38
   10d9c:	66666667 	.word	0x66666667

00010da0 <__submore>:
   10da0:	e92d 41f0 	stmdb	sp!, {r4, r5, r6, r7, r8, lr}
   10da4:	460c      	mov	r4, r1
   10da6:	6b09      	ldr	r1, [r1, #48]	; 0x30
   10da8:	f104 0340 	add.w	r3, r4, #64	; 0x40
   10dac:	4299      	cmp	r1, r3
   10dae:	d014      	beq.n	10dda <__submore+0x3a>
   10db0:	6b66      	ldr	r6, [r4, #52]	; 0x34
   10db2:	0077      	lsls	r7, r6, #1
   10db4:	463a      	mov	r2, r7
   10db6:	f001 fdcb 	bl	12950 <_realloc_r>
   10dba:	4605      	mov	r5, r0
   10dbc:	b348      	cbz	r0, 10e12 <__submore+0x72>
   10dbe:	eb00 0806 	add.w	r8, r0, r6
   10dc2:	4632      	mov	r2, r6
   10dc4:	4640      	mov	r0, r8
   10dc6:	4629      	mov	r1, r5
   10dc8:	f7fc fb22 	bl	d410 <memcpy>
   10dcc:	f8c4 8000 	str.w	r8, [r4]
   10dd0:	6325      	str	r5, [r4, #48]	; 0x30
   10dd2:	6367      	str	r7, [r4, #52]	; 0x34
   10dd4:	2000      	movs	r0, #0
   10dd6:	e8bd 81f0 	ldmia.w	sp!, {r4, r5, r6, r7, r8, pc}
   10dda:	f44f 6180 	mov.w	r1, #1024	; 0x400
   10dde:	f7f8 f869 	bl	8eb4 <_malloc_r>
   10de2:	4603      	mov	r3, r0
   10de4:	b1a8      	cbz	r0, 10e12 <__submore+0x72>
   10de6:	f894 2042 	ldrb.w	r2, [r4, #66]	; 0x42
   10dea:	f44f 6180 	mov.w	r1, #1024	; 0x400
   10dee:	6320      	str	r0, [r4, #48]	; 0x30
   10df0:	6361      	str	r1, [r4, #52]	; 0x34
   10df2:	f880 23ff 	strb.w	r2, [r0, #1023]	; 0x3ff
   10df6:	f894 1041 	ldrb.w	r1, [r4, #65]	; 0x41
   10dfa:	f200 32fd 	addw	r2, r0, #1021	; 0x3fd
   10dfe:	f880 13fe 	strb.w	r1, [r0, #1022]	; 0x3fe
   10e02:	f894 1040 	ldrb.w	r1, [r4, #64]	; 0x40
   10e06:	2000      	movs	r0, #0
   10e08:	f883 13fd 	strb.w	r1, [r3, #1021]	; 0x3fd
   10e0c:	6022      	str	r2, [r4, #0]
   10e0e:	e8bd 81f0 	ldmia.w	sp!, {r4, r5, r6, r7, r8, pc}
   10e12:	f04f 30ff 	mov.w	r0, #4294967295
   10e16:	e8bd 81f0 	ldmia.w	sp!, {r4, r5, r6, r7, r8, pc}
   10e1a:	bf00      	nop

00010e1c <_ungetc_r>:
   10e1c:	b570      	push	{r4, r5, r6, lr}
   10e1e:	460e      	mov	r6, r1
   10e20:	3101      	adds	r1, #1
   10e22:	4614      	mov	r4, r2
   10e24:	4605      	mov	r5, r0
   10e26:	d031      	beq.n	10e8c <_ungetc_r+0x70>
   10e28:	b110      	cbz	r0, 10e30 <_ungetc_r+0x14>
   10e2a:	6b83      	ldr	r3, [r0, #56]	; 0x38
   10e2c:	2b00      	cmp	r3, #0
   10e2e:	d030      	beq.n	10e92 <_ungetc_r+0x76>
   10e30:	89a3      	ldrh	r3, [r4, #12]
   10e32:	049a      	lsls	r2, r3, #18
   10e34:	d405      	bmi.n	10e42 <_ungetc_r+0x26>
   10e36:	6e62      	ldr	r2, [r4, #100]	; 0x64
   10e38:	f443 5300 	orr.w	r3, r3, #8192	; 0x2000
   10e3c:	f422 5200 	bic.w	r2, r2, #8192	; 0x2000
   10e40:	6662      	str	r2, [r4, #100]	; 0x64
   10e42:	f023 0320 	bic.w	r3, r3, #32
   10e46:	b29b      	uxth	r3, r3
   10e48:	b29a      	uxth	r2, r3
   10e4a:	0750      	lsls	r0, r2, #29
   10e4c:	81a3      	strh	r3, [r4, #12]
   10e4e:	d406      	bmi.n	10e5e <_ungetc_r+0x42>
   10e50:	06d1      	lsls	r1, r2, #27
   10e52:	d51b      	bpl.n	10e8c <_ungetc_r+0x70>
   10e54:	0712      	lsls	r2, r2, #28
   10e56:	d438      	bmi.n	10eca <_ungetc_r+0xae>
   10e58:	f043 0304 	orr.w	r3, r3, #4
   10e5c:	81a3      	strh	r3, [r4, #12]
   10e5e:	6b23      	ldr	r3, [r4, #48]	; 0x30
   10e60:	b2f6      	uxtb	r6, r6
   10e62:	b1cb      	cbz	r3, 10e98 <_ungetc_r+0x7c>
   10e64:	6862      	ldr	r2, [r4, #4]
   10e66:	6b63      	ldr	r3, [r4, #52]	; 0x34
   10e68:	429a      	cmp	r2, r3
   10e6a:	da09      	bge.n	10e80 <_ungetc_r+0x64>
   10e6c:	6823      	ldr	r3, [r4, #0]
   10e6e:	4630      	mov	r0, r6
   10e70:	1e5a      	subs	r2, r3, #1
   10e72:	6022      	str	r2, [r4, #0]
   10e74:	f803 6c01 	strb.w	r6, [r3, #-1]
   10e78:	6863      	ldr	r3, [r4, #4]
   10e7a:	3301      	adds	r3, #1
   10e7c:	6063      	str	r3, [r4, #4]
   10e7e:	bd70      	pop	{r4, r5, r6, pc}
   10e80:	4628      	mov	r0, r5
   10e82:	4621      	mov	r1, r4
   10e84:	f7ff ff8c 	bl	10da0 <__submore>
   10e88:	2800      	cmp	r0, #0
   10e8a:	d0ef      	beq.n	10e6c <_ungetc_r+0x50>
   10e8c:	f04f 30ff 	mov.w	r0, #4294967295
   10e90:	bd70      	pop	{r4, r5, r6, pc}
   10e92:	f7f7 fee9 	bl	8c68 <__sinit>
   10e96:	e7cb      	b.n	10e30 <_ungetc_r+0x14>
   10e98:	6923      	ldr	r3, [r4, #16]
   10e9a:	6822      	ldr	r2, [r4, #0]
   10e9c:	b12b      	cbz	r3, 10eaa <_ungetc_r+0x8e>
   10e9e:	4293      	cmp	r3, r2
   10ea0:	d203      	bcs.n	10eaa <_ungetc_r+0x8e>
   10ea2:	f812 0c01 	ldrb.w	r0, [r2, #-1]
   10ea6:	42b0      	cmp	r0, r6
   10ea8:	d01c      	beq.n	10ee4 <_ungetc_r+0xc8>
   10eaa:	6861      	ldr	r1, [r4, #4]
   10eac:	4623      	mov	r3, r4
   10eae:	f104 0540 	add.w	r5, r4, #64	; 0x40
   10eb2:	2003      	movs	r0, #3
   10eb4:	63a2      	str	r2, [r4, #56]	; 0x38
   10eb6:	6360      	str	r0, [r4, #52]	; 0x34
   10eb8:	63e1      	str	r1, [r4, #60]	; 0x3c
   10eba:	6325      	str	r5, [r4, #48]	; 0x30
   10ebc:	2201      	movs	r2, #1
   10ebe:	f803 6f42 	strb.w	r6, [r3, #66]!
   10ec2:	6023      	str	r3, [r4, #0]
   10ec4:	4630      	mov	r0, r6
   10ec6:	6062      	str	r2, [r4, #4]
   10ec8:	bd70      	pop	{r4, r5, r6, pc}
   10eca:	4628      	mov	r0, r5
   10ecc:	4621      	mov	r1, r4
   10ece:	f7fb fedb 	bl	cc88 <_fflush_r>
   10ed2:	2800      	cmp	r0, #0
   10ed4:	d1da      	bne.n	10e8c <_ungetc_r+0x70>
   10ed6:	89a3      	ldrh	r3, [r4, #12]
   10ed8:	60a0      	str	r0, [r4, #8]
   10eda:	f023 0308 	bic.w	r3, r3, #8
   10ede:	61a0      	str	r0, [r4, #24]
   10ee0:	b29b      	uxth	r3, r3
   10ee2:	e7b9      	b.n	10e58 <_ungetc_r+0x3c>
   10ee4:	6863      	ldr	r3, [r4, #4]
   10ee6:	3a01      	subs	r2, #1
   10ee8:	3301      	adds	r3, #1
   10eea:	e884 000c 	stmia.w	r4, {r2, r3}
   10eee:	bd70      	pop	{r4, r5, r6, pc}

00010ef0 <ungetc>:
   10ef0:	4b02      	ldr	r3, [pc, #8]	; (10efc <ungetc+0xc>)
   10ef2:	460a      	mov	r2, r1
   10ef4:	4601      	mov	r1, r0
   10ef6:	6818      	ldr	r0, [r3, #0]
   10ef8:	f7ff bf90 	b.w	10e1c <_ungetc_r>
   10efc:	0001d5e8 	.word	0x0001d5e8

00010f00 <__sprint_r.part.0>:
   10f00:	6e4b      	ldr	r3, [r1, #100]	; 0x64
   10f02:	e92d 47f0 	stmdb	sp!, {r4, r5, r6, r7, r8, r9, sl, lr}
   10f06:	049c      	lsls	r4, r3, #18
   10f08:	460e      	mov	r6, r1
   10f0a:	4680      	mov	r8, r0
   10f0c:	4691      	mov	r9, r2
   10f0e:	d52a      	bpl.n	10f66 <__sprint_r.part.0+0x66>
   10f10:	6893      	ldr	r3, [r2, #8]
   10f12:	6812      	ldr	r2, [r2, #0]
   10f14:	f102 0a08 	add.w	sl, r2, #8
   10f18:	b31b      	cbz	r3, 10f62 <__sprint_r.part.0+0x62>
   10f1a:	e91a 00a0 	ldmdb	sl, {r5, r7}
   10f1e:	08bf      	lsrs	r7, r7, #2
   10f20:	d017      	beq.n	10f52 <__sprint_r.part.0+0x52>
   10f22:	3d04      	subs	r5, #4
   10f24:	2400      	movs	r4, #0
   10f26:	e001      	b.n	10f2c <__sprint_r.part.0+0x2c>
   10f28:	42a7      	cmp	r7, r4
   10f2a:	d010      	beq.n	10f4e <__sprint_r.part.0+0x4e>
   10f2c:	4640      	mov	r0, r8
   10f2e:	f855 1f04 	ldr.w	r1, [r5, #4]!
   10f32:	4632      	mov	r2, r6
   10f34:	f000 fed0 	bl	11cd8 <_fputwc_r>
   10f38:	1c43      	adds	r3, r0, #1
   10f3a:	f104 0401 	add.w	r4, r4, #1
   10f3e:	d1f3      	bne.n	10f28 <__sprint_r.part.0+0x28>
   10f40:	2300      	movs	r3, #0
   10f42:	f8c9 3008 	str.w	r3, [r9, #8]
   10f46:	f8c9 3004 	str.w	r3, [r9, #4]
   10f4a:	e8bd 87f0 	ldmia.w	sp!, {r4, r5, r6, r7, r8, r9, sl, pc}
   10f4e:	f8d9 3008 	ldr.w	r3, [r9, #8]
   10f52:	eba3 0387 	sub.w	r3, r3, r7, lsl #2
   10f56:	f8c9 3008 	str.w	r3, [r9, #8]
   10f5a:	f10a 0a08 	add.w	sl, sl, #8
   10f5e:	2b00      	cmp	r3, #0
   10f60:	d1db      	bne.n	10f1a <__sprint_r.part.0+0x1a>
   10f62:	2000      	movs	r0, #0
   10f64:	e7ec      	b.n	10f40 <__sprint_r.part.0+0x40>
   10f66:	f000 ff3f 	bl	11de8 <__sfvwrite_r>
   10f6a:	2300      	movs	r3, #0
   10f6c:	f8c9 3008 	str.w	r3, [r9, #8]
   10f70:	f8c9 3004 	str.w	r3, [r9, #4]
   10f74:	e8bd 87f0 	ldmia.w	sp!, {r4, r5, r6, r7, r8, r9, sl, pc}

00010f78 <__sprint_r>:
   10f78:	6893      	ldr	r3, [r2, #8]
   10f7a:	b410      	push	{r4}
   10f7c:	b11b      	cbz	r3, 10f86 <__sprint_r+0xe>
   10f7e:	f85d 4b04 	ldr.w	r4, [sp], #4
   10f82:	f7ff bfbd 	b.w	10f00 <__sprint_r.part.0>
   10f86:	4618      	mov	r0, r3
   10f88:	6053      	str	r3, [r2, #4]
   10f8a:	f85d 4b04 	ldr.w	r4, [sp], #4
   10f8e:	4770      	bx	lr

00010f90 <_vfiprintf_r>:
   10f90:	e92d 4ff0 	stmdb	sp!, {r4, r5, r6, r7, r8, r9, sl, fp, lr}
   10f94:	b0b1      	sub	sp, #196	; 0xc4
   10f96:	461c      	mov	r4, r3
   10f98:	9102      	str	r1, [sp, #8]
   10f9a:	4690      	mov	r8, r2
   10f9c:	9308      	str	r3, [sp, #32]
   10f9e:	9006      	str	r0, [sp, #24]
   10fa0:	b118      	cbz	r0, 10faa <_vfiprintf_r+0x1a>
   10fa2:	6b83      	ldr	r3, [r0, #56]	; 0x38
   10fa4:	2b00      	cmp	r3, #0
   10fa6:	f000 80e8 	beq.w	1117a <_vfiprintf_r+0x1ea>
   10faa:	9d02      	ldr	r5, [sp, #8]
   10fac:	89ab      	ldrh	r3, [r5, #12]
   10fae:	b29a      	uxth	r2, r3
   10fb0:	0490      	lsls	r0, r2, #18
   10fb2:	d407      	bmi.n	10fc4 <_vfiprintf_r+0x34>
   10fb4:	6e6a      	ldr	r2, [r5, #100]	; 0x64
   10fb6:	f443 5300 	orr.w	r3, r3, #8192	; 0x2000
   10fba:	f422 5100 	bic.w	r1, r2, #8192	; 0x2000
   10fbe:	81ab      	strh	r3, [r5, #12]
   10fc0:	b29a      	uxth	r2, r3
   10fc2:	6669      	str	r1, [r5, #100]	; 0x64
   10fc4:	0711      	lsls	r1, r2, #28
   10fc6:	f140 80b7 	bpl.w	11138 <_vfiprintf_r+0x1a8>
   10fca:	f8dd b008 	ldr.w	fp, [sp, #8]
   10fce:	f8db 3010 	ldr.w	r3, [fp, #16]
   10fd2:	2b00      	cmp	r3, #0
   10fd4:	f000 80b0 	beq.w	11138 <_vfiprintf_r+0x1a8>
   10fd8:	f002 021a 	and.w	r2, r2, #26
   10fdc:	2a0a      	cmp	r2, #10
   10fde:	f000 80b7 	beq.w	11150 <_vfiprintf_r+0x1c0>
   10fe2:	2300      	movs	r3, #0
   10fe4:	f10d 0980 	add.w	r9, sp, #128	; 0x80
   10fe8:	930a      	str	r3, [sp, #40]	; 0x28
   10fea:	9315      	str	r3, [sp, #84]	; 0x54
   10fec:	9314      	str	r3, [sp, #80]	; 0x50
   10fee:	9309      	str	r3, [sp, #36]	; 0x24
   10ff0:	f8cd 904c 	str.w	r9, [sp, #76]	; 0x4c
   10ff4:	464e      	mov	r6, r9
   10ff6:	f898 3000 	ldrb.w	r3, [r8]
   10ffa:	2b00      	cmp	r3, #0
   10ffc:	f000 84c8 	beq.w	11990 <_vfiprintf_r+0xa00>
   11000:	2b25      	cmp	r3, #37	; 0x25
   11002:	f000 84c5 	beq.w	11990 <_vfiprintf_r+0xa00>
   11006:	f108 0201 	add.w	r2, r8, #1
   1100a:	e001      	b.n	11010 <_vfiprintf_r+0x80>
   1100c:	2b25      	cmp	r3, #37	; 0x25
   1100e:	d004      	beq.n	1101a <_vfiprintf_r+0x8a>
   11010:	7813      	ldrb	r3, [r2, #0]
   11012:	4614      	mov	r4, r2
   11014:	3201      	adds	r2, #1
   11016:	2b00      	cmp	r3, #0
   11018:	d1f8      	bne.n	1100c <_vfiprintf_r+0x7c>
   1101a:	ebc8 0504 	rsb	r5, r8, r4
   1101e:	b195      	cbz	r5, 11046 <_vfiprintf_r+0xb6>
   11020:	9b14      	ldr	r3, [sp, #80]	; 0x50
   11022:	9a15      	ldr	r2, [sp, #84]	; 0x54
   11024:	3301      	adds	r3, #1
   11026:	442a      	add	r2, r5
   11028:	2b07      	cmp	r3, #7
   1102a:	f8c6 8000 	str.w	r8, [r6]
   1102e:	6075      	str	r5, [r6, #4]
   11030:	9215      	str	r2, [sp, #84]	; 0x54
   11032:	9314      	str	r3, [sp, #80]	; 0x50
   11034:	dd7b      	ble.n	1112e <_vfiprintf_r+0x19e>
   11036:	2a00      	cmp	r2, #0
   11038:	f040 84d5 	bne.w	119e6 <_vfiprintf_r+0xa56>
   1103c:	9809      	ldr	r0, [sp, #36]	; 0x24
   1103e:	9214      	str	r2, [sp, #80]	; 0x50
   11040:	4428      	add	r0, r5
   11042:	464e      	mov	r6, r9
   11044:	9009      	str	r0, [sp, #36]	; 0x24
   11046:	7823      	ldrb	r3, [r4, #0]
   11048:	2b00      	cmp	r3, #0
   1104a:	f000 83ed 	beq.w	11828 <_vfiprintf_r+0x898>
   1104e:	2100      	movs	r1, #0
   11050:	f04f 0200 	mov.w	r2, #0
   11054:	f04f 3cff 	mov.w	ip, #4294967295
   11058:	7863      	ldrb	r3, [r4, #1]
   1105a:	f88d 2047 	strb.w	r2, [sp, #71]	; 0x47
   1105e:	9104      	str	r1, [sp, #16]
   11060:	468a      	mov	sl, r1
   11062:	f104 0801 	add.w	r8, r4, #1
   11066:	4608      	mov	r0, r1
   11068:	4665      	mov	r5, ip
   1106a:	f108 0801 	add.w	r8, r8, #1
   1106e:	f1a3 0220 	sub.w	r2, r3, #32
   11072:	2a58      	cmp	r2, #88	; 0x58
   11074:	f200 82d9 	bhi.w	1162a <_vfiprintf_r+0x69a>
   11078:	e8df f012 	tbh	[pc, r2, lsl #1]
   1107c:	02d702cb 	.word	0x02d702cb
   11080:	02d202d7 	.word	0x02d202d7
   11084:	02d702d7 	.word	0x02d702d7
   11088:	02d702d7 	.word	0x02d702d7
   1108c:	02d702d7 	.word	0x02d702d7
   11090:	028f0282 	.word	0x028f0282
   11094:	008402d7 	.word	0x008402d7
   11098:	02d70293 	.word	0x02d70293
   1109c:	0196012b 	.word	0x0196012b
   110a0:	01960196 	.word	0x01960196
   110a4:	01960196 	.word	0x01960196
   110a8:	01960196 	.word	0x01960196
   110ac:	01960196 	.word	0x01960196
   110b0:	02d702d7 	.word	0x02d702d7
   110b4:	02d702d7 	.word	0x02d702d7
   110b8:	02d702d7 	.word	0x02d702d7
   110bc:	02d702d7 	.word	0x02d702d7
   110c0:	02d702d7 	.word	0x02d702d7
   110c4:	02d70130 	.word	0x02d70130
   110c8:	02d702d7 	.word	0x02d702d7
   110cc:	02d702d7 	.word	0x02d702d7
   110d0:	02d702d7 	.word	0x02d702d7
   110d4:	02d702d7 	.word	0x02d702d7
   110d8:	017b02d7 	.word	0x017b02d7
   110dc:	02d702d7 	.word	0x02d702d7
   110e0:	02d702d7 	.word	0x02d702d7
   110e4:	01a402d7 	.word	0x01a402d7
   110e8:	02d702d7 	.word	0x02d702d7
   110ec:	02d701bf 	.word	0x02d701bf
   110f0:	02d702d7 	.word	0x02d702d7
   110f4:	02d702d7 	.word	0x02d702d7
   110f8:	02d702d7 	.word	0x02d702d7
   110fc:	02d702d7 	.word	0x02d702d7
   11100:	01e402d7 	.word	0x01e402d7
   11104:	02d701fa 	.word	0x02d701fa
   11108:	02d702d7 	.word	0x02d702d7
   1110c:	01fa0216 	.word	0x01fa0216
   11110:	02d702d7 	.word	0x02d702d7
   11114:	02d7021b 	.word	0x02d7021b
   11118:	00890228 	.word	0x00890228
   1111c:	027d0266 	.word	0x027d0266
   11120:	023a02d7 	.word	0x023a02d7
   11124:	011902d7 	.word	0x011902d7
   11128:	02d702d7 	.word	0x02d702d7
   1112c:	02af      	.short	0x02af
   1112e:	3608      	adds	r6, #8
   11130:	9809      	ldr	r0, [sp, #36]	; 0x24
   11132:	4428      	add	r0, r5
   11134:	9009      	str	r0, [sp, #36]	; 0x24
   11136:	e786      	b.n	11046 <_vfiprintf_r+0xb6>
   11138:	9806      	ldr	r0, [sp, #24]
   1113a:	9902      	ldr	r1, [sp, #8]
   1113c:	f7fa fc8c 	bl	ba58 <__swsetup_r>
   11140:	b9b0      	cbnz	r0, 11170 <_vfiprintf_r+0x1e0>
   11142:	9d02      	ldr	r5, [sp, #8]
   11144:	89aa      	ldrh	r2, [r5, #12]
   11146:	f002 021a 	and.w	r2, r2, #26
   1114a:	2a0a      	cmp	r2, #10
   1114c:	f47f af49 	bne.w	10fe2 <_vfiprintf_r+0x52>
   11150:	f8dd b008 	ldr.w	fp, [sp, #8]
   11154:	f9bb 300e 	ldrsh.w	r3, [fp, #14]
   11158:	2b00      	cmp	r3, #0
   1115a:	f6ff af42 	blt.w	10fe2 <_vfiprintf_r+0x52>
   1115e:	9806      	ldr	r0, [sp, #24]
   11160:	4659      	mov	r1, fp
   11162:	4642      	mov	r2, r8
   11164:	4623      	mov	r3, r4
   11166:	f000 fd49 	bl	11bfc <__sbprintf>
   1116a:	b031      	add	sp, #196	; 0xc4
   1116c:	e8bd 8ff0 	ldmia.w	sp!, {r4, r5, r6, r7, r8, r9, sl, fp, pc}
   11170:	f04f 30ff 	mov.w	r0, #4294967295
   11174:	b031      	add	sp, #196	; 0xc4
   11176:	e8bd 8ff0 	ldmia.w	sp!, {r4, r5, r6, r7, r8, r9, sl, fp, pc}
   1117a:	f7f7 fd75 	bl	8c68 <__sinit>
   1117e:	e714      	b.n	10faa <_vfiprintf_r+0x1a>
   11180:	4240      	negs	r0, r0
   11182:	9308      	str	r3, [sp, #32]
   11184:	f04a 0a04 	orr.w	sl, sl, #4
   11188:	f898 3000 	ldrb.w	r3, [r8]
   1118c:	e76d      	b.n	1106a <_vfiprintf_r+0xda>
   1118e:	f01a 0320 	ands.w	r3, sl, #32
   11192:	9004      	str	r0, [sp, #16]
   11194:	46ac      	mov	ip, r5
   11196:	f000 80f4 	beq.w	11382 <_vfiprintf_r+0x3f2>
   1119a:	f8dd b020 	ldr.w	fp, [sp, #32]
   1119e:	f10b 0307 	add.w	r3, fp, #7
   111a2:	f023 0307 	bic.w	r3, r3, #7
   111a6:	f103 0408 	add.w	r4, r3, #8
   111aa:	9408      	str	r4, [sp, #32]
   111ac:	e9d3 4500 	ldrd	r4, r5, [r3]
   111b0:	2300      	movs	r3, #0
   111b2:	f04f 0000 	mov.w	r0, #0
   111b6:	2100      	movs	r1, #0
   111b8:	f88d 0047 	strb.w	r0, [sp, #71]	; 0x47
   111bc:	f8cd c014 	str.w	ip, [sp, #20]
   111c0:	9107      	str	r1, [sp, #28]
   111c2:	f1bc 0f00 	cmp.w	ip, #0
   111c6:	bfa8      	it	ge
   111c8:	f02a 0a80 	bicge.w	sl, sl, #128	; 0x80
   111cc:	ea54 0205 	orrs.w	r2, r4, r5
   111d0:	f040 80ad 	bne.w	1132e <_vfiprintf_r+0x39e>
   111d4:	f1bc 0f00 	cmp.w	ip, #0
   111d8:	f040 80a9 	bne.w	1132e <_vfiprintf_r+0x39e>
   111dc:	2b00      	cmp	r3, #0
   111de:	f040 83c0 	bne.w	11962 <_vfiprintf_r+0x9d2>
   111e2:	f01a 0f01 	tst.w	sl, #1
   111e6:	f000 83bc 	beq.w	11962 <_vfiprintf_r+0x9d2>
   111ea:	2330      	movs	r3, #48	; 0x30
   111ec:	af30      	add	r7, sp, #192	; 0xc0
   111ee:	f807 3d41 	strb.w	r3, [r7, #-65]!
   111f2:	ebc7 0409 	rsb	r4, r7, r9
   111f6:	9405      	str	r4, [sp, #20]
   111f8:	f8dd b014 	ldr.w	fp, [sp, #20]
   111fc:	9c07      	ldr	r4, [sp, #28]
   111fe:	45e3      	cmp	fp, ip
   11200:	bfb8      	it	lt
   11202:	46e3      	movlt	fp, ip
   11204:	f8cd b00c 	str.w	fp, [sp, #12]
   11208:	b11c      	cbz	r4, 11212 <_vfiprintf_r+0x282>
   1120a:	f10b 0b01 	add.w	fp, fp, #1
   1120e:	f8cd b00c 	str.w	fp, [sp, #12]
   11212:	f01a 0502 	ands.w	r5, sl, #2
   11216:	9507      	str	r5, [sp, #28]
   11218:	d005      	beq.n	11226 <_vfiprintf_r+0x296>
   1121a:	f8dd b00c 	ldr.w	fp, [sp, #12]
   1121e:	f10b 0b02 	add.w	fp, fp, #2
   11222:	f8cd b00c 	str.w	fp, [sp, #12]
   11226:	f01a 0384 	ands.w	r3, sl, #132	; 0x84
   1122a:	930b      	str	r3, [sp, #44]	; 0x2c
   1122c:	f040 821b 	bne.w	11666 <_vfiprintf_r+0x6d6>
   11230:	9d04      	ldr	r5, [sp, #16]
   11232:	f8dd b00c 	ldr.w	fp, [sp, #12]
   11236:	ebcb 0405 	rsb	r4, fp, r5
   1123a:	2c00      	cmp	r4, #0
   1123c:	f340 8213 	ble.w	11666 <_vfiprintf_r+0x6d6>
   11240:	2c10      	cmp	r4, #16
   11242:	f340 8489 	ble.w	11b58 <_vfiprintf_r+0xbc8>
   11246:	4dbe      	ldr	r5, [pc, #760]	; (11540 <_vfiprintf_r+0x5b0>)
   11248:	9a15      	ldr	r2, [sp, #84]	; 0x54
   1124a:	462b      	mov	r3, r5
   1124c:	9814      	ldr	r0, [sp, #80]	; 0x50
   1124e:	4625      	mov	r5, r4
   11250:	f04f 0b10 	mov.w	fp, #16
   11254:	4664      	mov	r4, ip
   11256:	46b4      	mov	ip, r6
   11258:	461e      	mov	r6, r3
   1125a:	e006      	b.n	1126a <_vfiprintf_r+0x2da>
   1125c:	1c83      	adds	r3, r0, #2
   1125e:	f10c 0c08 	add.w	ip, ip, #8
   11262:	4608      	mov	r0, r1
   11264:	3d10      	subs	r5, #16
   11266:	2d10      	cmp	r5, #16
   11268:	dd11      	ble.n	1128e <_vfiprintf_r+0x2fe>
   1126a:	1c41      	adds	r1, r0, #1
   1126c:	3210      	adds	r2, #16
   1126e:	2907      	cmp	r1, #7
   11270:	9215      	str	r2, [sp, #84]	; 0x54
   11272:	e88c 0840 	stmia.w	ip, {r6, fp}
   11276:	9114      	str	r1, [sp, #80]	; 0x50
   11278:	ddf0      	ble.n	1125c <_vfiprintf_r+0x2cc>
   1127a:	2a00      	cmp	r2, #0
   1127c:	f040 81e6 	bne.w	1164c <_vfiprintf_r+0x6bc>
   11280:	3d10      	subs	r5, #16
   11282:	2d10      	cmp	r5, #16
   11284:	f04f 0301 	mov.w	r3, #1
   11288:	4610      	mov	r0, r2
   1128a:	46cc      	mov	ip, r9
   1128c:	dced      	bgt.n	1126a <_vfiprintf_r+0x2da>
   1128e:	4631      	mov	r1, r6
   11290:	4666      	mov	r6, ip
   11292:	46a4      	mov	ip, r4
   11294:	462c      	mov	r4, r5
   11296:	460d      	mov	r5, r1
   11298:	4422      	add	r2, r4
   1129a:	2b07      	cmp	r3, #7
   1129c:	9215      	str	r2, [sp, #84]	; 0x54
   1129e:	6035      	str	r5, [r6, #0]
   112a0:	6074      	str	r4, [r6, #4]
   112a2:	9314      	str	r3, [sp, #80]	; 0x50
   112a4:	f300 836d 	bgt.w	11982 <_vfiprintf_r+0x9f2>
   112a8:	3608      	adds	r6, #8
   112aa:	1c59      	adds	r1, r3, #1
   112ac:	e1de      	b.n	1166c <_vfiprintf_r+0x6dc>
   112ae:	f01a 0f20 	tst.w	sl, #32
   112b2:	9004      	str	r0, [sp, #16]
   112b4:	46ac      	mov	ip, r5
   112b6:	f000 808d 	beq.w	113d4 <_vfiprintf_r+0x444>
   112ba:	9d08      	ldr	r5, [sp, #32]
   112bc:	1deb      	adds	r3, r5, #7
   112be:	f023 0307 	bic.w	r3, r3, #7
   112c2:	f103 0b08 	add.w	fp, r3, #8
   112c6:	e9d3 4500 	ldrd	r4, r5, [r3]
   112ca:	f8cd b020 	str.w	fp, [sp, #32]
   112ce:	2301      	movs	r3, #1
   112d0:	e76f      	b.n	111b2 <_vfiprintf_r+0x222>
   112d2:	f04a 0a80 	orr.w	sl, sl, #128	; 0x80
   112d6:	f898 3000 	ldrb.w	r3, [r8]
   112da:	e6c6      	b.n	1106a <_vfiprintf_r+0xda>
   112dc:	f04a 0a10 	orr.w	sl, sl, #16
   112e0:	f01a 0f20 	tst.w	sl, #32
   112e4:	9004      	str	r0, [sp, #16]
   112e6:	46ac      	mov	ip, r5
   112e8:	f88d 1047 	strb.w	r1, [sp, #71]	; 0x47
   112ec:	f000 80c8 	beq.w	11480 <_vfiprintf_r+0x4f0>
   112f0:	9c08      	ldr	r4, [sp, #32]
   112f2:	1de1      	adds	r1, r4, #7
   112f4:	f021 0107 	bic.w	r1, r1, #7
   112f8:	e9d1 2300 	ldrd	r2, r3, [r1]
   112fc:	3108      	adds	r1, #8
   112fe:	9108      	str	r1, [sp, #32]
   11300:	4614      	mov	r4, r2
   11302:	461d      	mov	r5, r3
   11304:	2a00      	cmp	r2, #0
   11306:	f173 0b00 	sbcs.w	fp, r3, #0
   1130a:	f2c0 83ce 	blt.w	11aaa <_vfiprintf_r+0xb1a>
   1130e:	f1bc 0f00 	cmp.w	ip, #0
   11312:	f89d 0047 	ldrb.w	r0, [sp, #71]	; 0x47
   11316:	bfa8      	it	ge
   11318:	f02a 0a80 	bicge.w	sl, sl, #128	; 0x80
   1131c:	ea54 0205 	orrs.w	r2, r4, r5
   11320:	9007      	str	r0, [sp, #28]
   11322:	f8cd c014 	str.w	ip, [sp, #20]
   11326:	f04f 0301 	mov.w	r3, #1
   1132a:	f43f af53 	beq.w	111d4 <_vfiprintf_r+0x244>
   1132e:	2b01      	cmp	r3, #1
   11330:	f000 8319 	beq.w	11966 <_vfiprintf_r+0x9d6>
   11334:	2b02      	cmp	r3, #2
   11336:	f10d 037f 	add.w	r3, sp, #127	; 0x7f
   1133a:	f040 824c 	bne.w	117d6 <_vfiprintf_r+0x846>
   1133e:	f8dd b028 	ldr.w	fp, [sp, #40]	; 0x28
   11342:	4619      	mov	r1, r3
   11344:	f004 000f 	and.w	r0, r4, #15
   11348:	0922      	lsrs	r2, r4, #4
   1134a:	f81b 0000 	ldrb.w	r0, [fp, r0]
   1134e:	ea42 7205 	orr.w	r2, r2, r5, lsl #28
   11352:	092b      	lsrs	r3, r5, #4
   11354:	7008      	strb	r0, [r1, #0]
   11356:	ea52 0003 	orrs.w	r0, r2, r3
   1135a:	460f      	mov	r7, r1
   1135c:	4614      	mov	r4, r2
   1135e:	461d      	mov	r5, r3
   11360:	f101 31ff 	add.w	r1, r1, #4294967295
   11364:	d1ee      	bne.n	11344 <_vfiprintf_r+0x3b4>
   11366:	e9cd 230e 	strd	r2, r3, [sp, #56]	; 0x38
   1136a:	ebc7 0309 	rsb	r3, r7, r9
   1136e:	9305      	str	r3, [sp, #20]
   11370:	e742      	b.n	111f8 <_vfiprintf_r+0x268>
   11372:	f04a 0a10 	orr.w	sl, sl, #16
   11376:	f01a 0320 	ands.w	r3, sl, #32
   1137a:	9004      	str	r0, [sp, #16]
   1137c:	46ac      	mov	ip, r5
   1137e:	f47f af0c 	bne.w	1119a <_vfiprintf_r+0x20a>
   11382:	f01a 0210 	ands.w	r2, sl, #16
   11386:	f040 8311 	bne.w	119ac <_vfiprintf_r+0xa1c>
   1138a:	f01a 0340 	ands.w	r3, sl, #64	; 0x40
   1138e:	f000 830d 	beq.w	119ac <_vfiprintf_r+0xa1c>
   11392:	f8dd b020 	ldr.w	fp, [sp, #32]
   11396:	4613      	mov	r3, r2
   11398:	f8bb 4000 	ldrh.w	r4, [fp]
   1139c:	f10b 0b04 	add.w	fp, fp, #4
   113a0:	2500      	movs	r5, #0
   113a2:	f8cd b020 	str.w	fp, [sp, #32]
   113a6:	e704      	b.n	111b2 <_vfiprintf_r+0x222>
   113a8:	f1a3 0230 	sub.w	r2, r3, #48	; 0x30
   113ac:	2000      	movs	r0, #0
   113ae:	f818 3b01 	ldrb.w	r3, [r8], #1
   113b2:	eb00 0080 	add.w	r0, r0, r0, lsl #2
   113b6:	eb02 0040 	add.w	r0, r2, r0, lsl #1
   113ba:	f1a3 0230 	sub.w	r2, r3, #48	; 0x30
   113be:	2a09      	cmp	r2, #9
   113c0:	d9f5      	bls.n	113ae <_vfiprintf_r+0x41e>
   113c2:	e654      	b.n	1106e <_vfiprintf_r+0xde>
   113c4:	f04a 0a10 	orr.w	sl, sl, #16
   113c8:	f01a 0f20 	tst.w	sl, #32
   113cc:	9004      	str	r0, [sp, #16]
   113ce:	46ac      	mov	ip, r5
   113d0:	f47f af73 	bne.w	112ba <_vfiprintf_r+0x32a>
   113d4:	f01a 0f10 	tst.w	sl, #16
   113d8:	f040 82ef 	bne.w	119ba <_vfiprintf_r+0xa2a>
   113dc:	f01a 0f40 	tst.w	sl, #64	; 0x40
   113e0:	f000 82eb 	beq.w	119ba <_vfiprintf_r+0xa2a>
   113e4:	f8dd b020 	ldr.w	fp, [sp, #32]
   113e8:	2500      	movs	r5, #0
   113ea:	f8bb 4000 	ldrh.w	r4, [fp]
   113ee:	f10b 0b04 	add.w	fp, fp, #4
   113f2:	2301      	movs	r3, #1
   113f4:	f8cd b020 	str.w	fp, [sp, #32]
   113f8:	e6db      	b.n	111b2 <_vfiprintf_r+0x222>
   113fa:	46ac      	mov	ip, r5
   113fc:	4d51      	ldr	r5, [pc, #324]	; (11544 <_vfiprintf_r+0x5b4>)
   113fe:	f01a 0f20 	tst.w	sl, #32
   11402:	9004      	str	r0, [sp, #16]
   11404:	f88d 1047 	strb.w	r1, [sp, #71]	; 0x47
   11408:	950a      	str	r5, [sp, #40]	; 0x28
   1140a:	f000 80f0 	beq.w	115ee <_vfiprintf_r+0x65e>
   1140e:	9d08      	ldr	r5, [sp, #32]
   11410:	1dea      	adds	r2, r5, #7
   11412:	f022 0207 	bic.w	r2, r2, #7
   11416:	f102 0b08 	add.w	fp, r2, #8
   1141a:	f8cd b020 	str.w	fp, [sp, #32]
   1141e:	e9d2 4500 	ldrd	r4, r5, [r2]
   11422:	f01a 0f01 	tst.w	sl, #1
   11426:	f000 82aa 	beq.w	1197e <_vfiprintf_r+0x9ee>
   1142a:	ea54 0b05 	orrs.w	fp, r4, r5
   1142e:	f000 82a6 	beq.w	1197e <_vfiprintf_r+0x9ee>
   11432:	2230      	movs	r2, #48	; 0x30
   11434:	f88d 3049 	strb.w	r3, [sp, #73]	; 0x49
   11438:	f04a 0a02 	orr.w	sl, sl, #2
   1143c:	f88d 2048 	strb.w	r2, [sp, #72]	; 0x48
   11440:	2302      	movs	r3, #2
   11442:	e6b6      	b.n	111b2 <_vfiprintf_r+0x222>
   11444:	9b08      	ldr	r3, [sp, #32]
   11446:	f8dd b020 	ldr.w	fp, [sp, #32]
   1144a:	681b      	ldr	r3, [r3, #0]
   1144c:	2401      	movs	r4, #1
   1144e:	f04f 0500 	mov.w	r5, #0
   11452:	f10b 0b04 	add.w	fp, fp, #4
   11456:	9004      	str	r0, [sp, #16]
   11458:	9403      	str	r4, [sp, #12]
   1145a:	f88d 5047 	strb.w	r5, [sp, #71]	; 0x47
   1145e:	f88d 3058 	strb.w	r3, [sp, #88]	; 0x58
   11462:	f8cd b020 	str.w	fp, [sp, #32]
   11466:	9405      	str	r4, [sp, #20]
   11468:	af16      	add	r7, sp, #88	; 0x58
   1146a:	f04f 0c00 	mov.w	ip, #0
   1146e:	e6d0      	b.n	11212 <_vfiprintf_r+0x282>
   11470:	f01a 0f20 	tst.w	sl, #32
   11474:	9004      	str	r0, [sp, #16]
   11476:	46ac      	mov	ip, r5
   11478:	f88d 1047 	strb.w	r1, [sp, #71]	; 0x47
   1147c:	f47f af38 	bne.w	112f0 <_vfiprintf_r+0x360>
   11480:	f01a 0f10 	tst.w	sl, #16
   11484:	f040 82a7 	bne.w	119d6 <_vfiprintf_r+0xa46>
   11488:	f01a 0f40 	tst.w	sl, #64	; 0x40
   1148c:	f000 82a3 	beq.w	119d6 <_vfiprintf_r+0xa46>
   11490:	f8dd b020 	ldr.w	fp, [sp, #32]
   11494:	f9bb 4000 	ldrsh.w	r4, [fp]
   11498:	f10b 0b04 	add.w	fp, fp, #4
   1149c:	17e5      	asrs	r5, r4, #31
   1149e:	4622      	mov	r2, r4
   114a0:	462b      	mov	r3, r5
   114a2:	f8cd b020 	str.w	fp, [sp, #32]
   114a6:	e72d      	b.n	11304 <_vfiprintf_r+0x374>
   114a8:	f04a 0a40 	orr.w	sl, sl, #64	; 0x40
   114ac:	f898 3000 	ldrb.w	r3, [r8]
   114b0:	e5db      	b.n	1106a <_vfiprintf_r+0xda>
   114b2:	f898 3000 	ldrb.w	r3, [r8]
   114b6:	4642      	mov	r2, r8
   114b8:	2b6c      	cmp	r3, #108	; 0x6c
   114ba:	bf03      	ittte	eq
   114bc:	f108 0801 	addeq.w	r8, r8, #1
   114c0:	f04a 0a20 	orreq.w	sl, sl, #32
   114c4:	7853      	ldrbeq	r3, [r2, #1]
   114c6:	f04a 0a10 	orrne.w	sl, sl, #16
   114ca:	e5ce      	b.n	1106a <_vfiprintf_r+0xda>
   114cc:	f01a 0f20 	tst.w	sl, #32
   114d0:	f88d 1047 	strb.w	r1, [sp, #71]	; 0x47
   114d4:	f000 82f7 	beq.w	11ac6 <_vfiprintf_r+0xb36>
   114d8:	9c08      	ldr	r4, [sp, #32]
   114da:	6821      	ldr	r1, [r4, #0]
   114dc:	9c09      	ldr	r4, [sp, #36]	; 0x24
   114de:	17e5      	asrs	r5, r4, #31
   114e0:	462b      	mov	r3, r5
   114e2:	9d08      	ldr	r5, [sp, #32]
   114e4:	4622      	mov	r2, r4
   114e6:	3504      	adds	r5, #4
   114e8:	9508      	str	r5, [sp, #32]
   114ea:	e9c1 2300 	strd	r2, r3, [r1]
   114ee:	e582      	b.n	10ff6 <_vfiprintf_r+0x66>
   114f0:	9c08      	ldr	r4, [sp, #32]
   114f2:	46ac      	mov	ip, r5
   114f4:	6827      	ldr	r7, [r4, #0]
   114f6:	f04f 0500 	mov.w	r5, #0
   114fa:	9004      	str	r0, [sp, #16]
   114fc:	f88d 5047 	strb.w	r5, [sp, #71]	; 0x47
   11500:	3404      	adds	r4, #4
   11502:	2f00      	cmp	r7, #0
   11504:	f000 8332 	beq.w	11b6c <_vfiprintf_r+0xbdc>
   11508:	f1bc 0f00 	cmp.w	ip, #0
   1150c:	4638      	mov	r0, r7
   1150e:	f2c0 8307 	blt.w	11b20 <_vfiprintf_r+0xb90>
   11512:	4662      	mov	r2, ip
   11514:	2100      	movs	r1, #0
   11516:	f8cd c004 	str.w	ip, [sp, #4]
   1151a:	f7fb ff2f 	bl	d37c <memchr>
   1151e:	f8dd c004 	ldr.w	ip, [sp, #4]
   11522:	2800      	cmp	r0, #0
   11524:	f000 833a 	beq.w	11b9c <_vfiprintf_r+0xc0c>
   11528:	1bc0      	subs	r0, r0, r7
   1152a:	f89d 5047 	ldrb.w	r5, [sp, #71]	; 0x47
   1152e:	4560      	cmp	r0, ip
   11530:	bfa8      	it	ge
   11532:	4660      	movge	r0, ip
   11534:	9005      	str	r0, [sp, #20]
   11536:	9408      	str	r4, [sp, #32]
   11538:	9507      	str	r5, [sp, #28]
   1153a:	f04f 0c00 	mov.w	ip, #0
   1153e:	e65b      	b.n	111f8 <_vfiprintf_r+0x268>
   11540:	00014f58 	.word	0x00014f58
   11544:	00014c10 	.word	0x00014c10
   11548:	9b08      	ldr	r3, [sp, #32]
   1154a:	f8dd b020 	ldr.w	fp, [sp, #32]
   1154e:	9004      	str	r0, [sp, #16]
   11550:	48b2      	ldr	r0, [pc, #712]	; (1181c <_vfiprintf_r+0x88c>)
   11552:	681c      	ldr	r4, [r3, #0]
   11554:	2230      	movs	r2, #48	; 0x30
   11556:	2378      	movs	r3, #120	; 0x78
   11558:	f10b 0b04 	add.w	fp, fp, #4
   1155c:	46ac      	mov	ip, r5
   1155e:	f88d 3049 	strb.w	r3, [sp, #73]	; 0x49
   11562:	f04a 0a02 	orr.w	sl, sl, #2
   11566:	f8cd b020 	str.w	fp, [sp, #32]
   1156a:	2500      	movs	r5, #0
   1156c:	f88d 2048 	strb.w	r2, [sp, #72]	; 0x48
   11570:	900a      	str	r0, [sp, #40]	; 0x28
   11572:	2302      	movs	r3, #2
   11574:	e61d      	b.n	111b2 <_vfiprintf_r+0x222>
   11576:	f04a 0a20 	orr.w	sl, sl, #32
   1157a:	f898 3000 	ldrb.w	r3, [r8]
   1157e:	e574      	b.n	1106a <_vfiprintf_r+0xda>
   11580:	f8dd b020 	ldr.w	fp, [sp, #32]
   11584:	f8db 0000 	ldr.w	r0, [fp]
   11588:	f10b 0304 	add.w	r3, fp, #4
   1158c:	2800      	cmp	r0, #0
   1158e:	f6ff adf7 	blt.w	11180 <_vfiprintf_r+0x1f0>
   11592:	9308      	str	r3, [sp, #32]
   11594:	f898 3000 	ldrb.w	r3, [r8]
   11598:	e567      	b.n	1106a <_vfiprintf_r+0xda>
   1159a:	f898 3000 	ldrb.w	r3, [r8]
   1159e:	212b      	movs	r1, #43	; 0x2b
   115a0:	e563      	b.n	1106a <_vfiprintf_r+0xda>
   115a2:	f898 3000 	ldrb.w	r3, [r8]
   115a6:	f108 0401 	add.w	r4, r8, #1
   115aa:	2b2a      	cmp	r3, #42	; 0x2a
   115ac:	f000 8305 	beq.w	11bba <_vfiprintf_r+0xc2a>
   115b0:	f1a3 0230 	sub.w	r2, r3, #48	; 0x30
   115b4:	2a09      	cmp	r2, #9
   115b6:	bf98      	it	ls
   115b8:	2500      	movls	r5, #0
   115ba:	f200 82fa 	bhi.w	11bb2 <_vfiprintf_r+0xc22>
   115be:	f814 3b01 	ldrb.w	r3, [r4], #1
   115c2:	eb05 0585 	add.w	r5, r5, r5, lsl #2
   115c6:	eb02 0545 	add.w	r5, r2, r5, lsl #1
   115ca:	f1a3 0230 	sub.w	r2, r3, #48	; 0x30
   115ce:	2a09      	cmp	r2, #9
   115d0:	d9f5      	bls.n	115be <_vfiprintf_r+0x62e>
   115d2:	ea45 75e5 	orr.w	r5, r5, r5, asr #31
   115d6:	46a0      	mov	r8, r4
   115d8:	e549      	b.n	1106e <_vfiprintf_r+0xde>
   115da:	4c90      	ldr	r4, [pc, #576]	; (1181c <_vfiprintf_r+0x88c>)
   115dc:	f01a 0f20 	tst.w	sl, #32
   115e0:	9004      	str	r0, [sp, #16]
   115e2:	46ac      	mov	ip, r5
   115e4:	940a      	str	r4, [sp, #40]	; 0x28
   115e6:	f88d 1047 	strb.w	r1, [sp, #71]	; 0x47
   115ea:	f47f af10 	bne.w	1140e <_vfiprintf_r+0x47e>
   115ee:	f01a 0f10 	tst.w	sl, #16
   115f2:	f040 81ea 	bne.w	119ca <_vfiprintf_r+0xa3a>
   115f6:	f01a 0f40 	tst.w	sl, #64	; 0x40
   115fa:	f000 81e6 	beq.w	119ca <_vfiprintf_r+0xa3a>
   115fe:	f8dd b020 	ldr.w	fp, [sp, #32]
   11602:	2500      	movs	r5, #0
   11604:	f8bb 4000 	ldrh.w	r4, [fp]
   11608:	f10b 0b04 	add.w	fp, fp, #4
   1160c:	f8cd b020 	str.w	fp, [sp, #32]
   11610:	e707      	b.n	11422 <_vfiprintf_r+0x492>
   11612:	f898 3000 	ldrb.w	r3, [r8]
   11616:	2900      	cmp	r1, #0
   11618:	f47f ad27 	bne.w	1106a <_vfiprintf_r+0xda>
   1161c:	2120      	movs	r1, #32
   1161e:	e524      	b.n	1106a <_vfiprintf_r+0xda>
   11620:	f04a 0a01 	orr.w	sl, sl, #1
   11624:	f898 3000 	ldrb.w	r3, [r8]
   11628:	e51f      	b.n	1106a <_vfiprintf_r+0xda>
   1162a:	9004      	str	r0, [sp, #16]
   1162c:	f88d 1047 	strb.w	r1, [sp, #71]	; 0x47
   11630:	2b00      	cmp	r3, #0
   11632:	f000 80f9 	beq.w	11828 <_vfiprintf_r+0x898>
   11636:	2501      	movs	r5, #1
   11638:	f04f 0b00 	mov.w	fp, #0
   1163c:	9503      	str	r5, [sp, #12]
   1163e:	f88d 3058 	strb.w	r3, [sp, #88]	; 0x58
   11642:	f88d b047 	strb.w	fp, [sp, #71]	; 0x47
   11646:	9505      	str	r5, [sp, #20]
   11648:	af16      	add	r7, sp, #88	; 0x58
   1164a:	e70e      	b.n	1146a <_vfiprintf_r+0x4da>
   1164c:	9806      	ldr	r0, [sp, #24]
   1164e:	9902      	ldr	r1, [sp, #8]
   11650:	aa13      	add	r2, sp, #76	; 0x4c
   11652:	f7ff fc55 	bl	10f00 <__sprint_r.part.0>
   11656:	2800      	cmp	r0, #0
   11658:	f040 80ed 	bne.w	11836 <_vfiprintf_r+0x8a6>
   1165c:	9814      	ldr	r0, [sp, #80]	; 0x50
   1165e:	9a15      	ldr	r2, [sp, #84]	; 0x54
   11660:	1c43      	adds	r3, r0, #1
   11662:	46cc      	mov	ip, r9
   11664:	e5fe      	b.n	11264 <_vfiprintf_r+0x2d4>
   11666:	9b14      	ldr	r3, [sp, #80]	; 0x50
   11668:	9a15      	ldr	r2, [sp, #84]	; 0x54
   1166a:	1c59      	adds	r1, r3, #1
   1166c:	f89d 0047 	ldrb.w	r0, [sp, #71]	; 0x47
   11670:	b168      	cbz	r0, 1168e <_vfiprintf_r+0x6fe>
   11672:	3201      	adds	r2, #1
   11674:	f10d 0047 	add.w	r0, sp, #71	; 0x47
   11678:	2301      	movs	r3, #1
   1167a:	2907      	cmp	r1, #7
   1167c:	9215      	str	r2, [sp, #84]	; 0x54
   1167e:	9114      	str	r1, [sp, #80]	; 0x50
   11680:	e886 0009 	stmia.w	r6, {r0, r3}
   11684:	f300 8160 	bgt.w	11948 <_vfiprintf_r+0x9b8>
   11688:	460b      	mov	r3, r1
   1168a:	3608      	adds	r6, #8
   1168c:	3101      	adds	r1, #1
   1168e:	9c07      	ldr	r4, [sp, #28]
   11690:	b164      	cbz	r4, 116ac <_vfiprintf_r+0x71c>
   11692:	3202      	adds	r2, #2
   11694:	a812      	add	r0, sp, #72	; 0x48
   11696:	2302      	movs	r3, #2
   11698:	2907      	cmp	r1, #7
   1169a:	9215      	str	r2, [sp, #84]	; 0x54
   1169c:	9114      	str	r1, [sp, #80]	; 0x50
   1169e:	e886 0009 	stmia.w	r6, {r0, r3}
   116a2:	f300 8157 	bgt.w	11954 <_vfiprintf_r+0x9c4>
   116a6:	460b      	mov	r3, r1
   116a8:	3608      	adds	r6, #8
   116aa:	3101      	adds	r1, #1
   116ac:	9d0b      	ldr	r5, [sp, #44]	; 0x2c
   116ae:	2d80      	cmp	r5, #128	; 0x80
   116b0:	f000 8101 	beq.w	118b6 <_vfiprintf_r+0x926>
   116b4:	9d05      	ldr	r5, [sp, #20]
   116b6:	ebc5 040c 	rsb	r4, r5, ip
   116ba:	2c00      	cmp	r4, #0
   116bc:	dd2f      	ble.n	1171e <_vfiprintf_r+0x78e>
   116be:	2c10      	cmp	r4, #16
   116c0:	4d57      	ldr	r5, [pc, #348]	; (11820 <_vfiprintf_r+0x890>)
   116c2:	dd22      	ble.n	1170a <_vfiprintf_r+0x77a>
   116c4:	4630      	mov	r0, r6
   116c6:	f04f 0b10 	mov.w	fp, #16
   116ca:	462e      	mov	r6, r5
   116cc:	4625      	mov	r5, r4
   116ce:	9c06      	ldr	r4, [sp, #24]
   116d0:	e006      	b.n	116e0 <_vfiprintf_r+0x750>
   116d2:	f103 0c02 	add.w	ip, r3, #2
   116d6:	3008      	adds	r0, #8
   116d8:	460b      	mov	r3, r1
   116da:	3d10      	subs	r5, #16
   116dc:	2d10      	cmp	r5, #16
   116de:	dd10      	ble.n	11702 <_vfiprintf_r+0x772>
   116e0:	1c59      	adds	r1, r3, #1
   116e2:	3210      	adds	r2, #16
   116e4:	2907      	cmp	r1, #7
   116e6:	9215      	str	r2, [sp, #84]	; 0x54
   116e8:	e880 0840 	stmia.w	r0, {r6, fp}
   116ec:	9114      	str	r1, [sp, #80]	; 0x50
   116ee:	ddf0      	ble.n	116d2 <_vfiprintf_r+0x742>
   116f0:	2a00      	cmp	r2, #0
   116f2:	d163      	bne.n	117bc <_vfiprintf_r+0x82c>
   116f4:	3d10      	subs	r5, #16
   116f6:	2d10      	cmp	r5, #16
   116f8:	f04f 0c01 	mov.w	ip, #1
   116fc:	4613      	mov	r3, r2
   116fe:	4648      	mov	r0, r9
   11700:	dcee      	bgt.n	116e0 <_vfiprintf_r+0x750>
   11702:	462c      	mov	r4, r5
   11704:	4661      	mov	r1, ip
   11706:	4635      	mov	r5, r6
   11708:	4606      	mov	r6, r0
   1170a:	4422      	add	r2, r4
   1170c:	2907      	cmp	r1, #7
   1170e:	9215      	str	r2, [sp, #84]	; 0x54
   11710:	6035      	str	r5, [r6, #0]
   11712:	6074      	str	r4, [r6, #4]
   11714:	9114      	str	r1, [sp, #80]	; 0x50
   11716:	f300 80c1 	bgt.w	1189c <_vfiprintf_r+0x90c>
   1171a:	3608      	adds	r6, #8
   1171c:	3101      	adds	r1, #1
   1171e:	9d05      	ldr	r5, [sp, #20]
   11720:	2907      	cmp	r1, #7
   11722:	442a      	add	r2, r5
   11724:	9215      	str	r2, [sp, #84]	; 0x54
   11726:	6037      	str	r7, [r6, #0]
   11728:	6075      	str	r5, [r6, #4]
   1172a:	9114      	str	r1, [sp, #80]	; 0x50
   1172c:	f340 80c1 	ble.w	118b2 <_vfiprintf_r+0x922>
   11730:	2a00      	cmp	r2, #0
   11732:	f040 8130 	bne.w	11996 <_vfiprintf_r+0xa06>
   11736:	9214      	str	r2, [sp, #80]	; 0x50
   11738:	464e      	mov	r6, r9
   1173a:	f01a 0f04 	tst.w	sl, #4
   1173e:	f000 808b 	beq.w	11858 <_vfiprintf_r+0x8c8>
   11742:	9d04      	ldr	r5, [sp, #16]
   11744:	f8dd b00c 	ldr.w	fp, [sp, #12]
   11748:	ebcb 0405 	rsb	r4, fp, r5
   1174c:	2c00      	cmp	r4, #0
   1174e:	f340 8083 	ble.w	11858 <_vfiprintf_r+0x8c8>
   11752:	2c10      	cmp	r4, #16
   11754:	f340 821e 	ble.w	11b94 <_vfiprintf_r+0xc04>
   11758:	9914      	ldr	r1, [sp, #80]	; 0x50
   1175a:	4d32      	ldr	r5, [pc, #200]	; (11824 <_vfiprintf_r+0x894>)
   1175c:	2710      	movs	r7, #16
   1175e:	f8dd a018 	ldr.w	sl, [sp, #24]
   11762:	f8dd b008 	ldr.w	fp, [sp, #8]
   11766:	e005      	b.n	11774 <_vfiprintf_r+0x7e4>
   11768:	1c88      	adds	r0, r1, #2
   1176a:	3608      	adds	r6, #8
   1176c:	4619      	mov	r1, r3
   1176e:	3c10      	subs	r4, #16
   11770:	2c10      	cmp	r4, #16
   11772:	dd10      	ble.n	11796 <_vfiprintf_r+0x806>
   11774:	1c4b      	adds	r3, r1, #1
   11776:	3210      	adds	r2, #16
   11778:	2b07      	cmp	r3, #7
   1177a:	9215      	str	r2, [sp, #84]	; 0x54
   1177c:	e886 00a0 	stmia.w	r6, {r5, r7}
   11780:	9314      	str	r3, [sp, #80]	; 0x50
   11782:	ddf1      	ble.n	11768 <_vfiprintf_r+0x7d8>
   11784:	2a00      	cmp	r2, #0
   11786:	d17d      	bne.n	11884 <_vfiprintf_r+0x8f4>
   11788:	3c10      	subs	r4, #16
   1178a:	2c10      	cmp	r4, #16
   1178c:	f04f 0001 	mov.w	r0, #1
   11790:	4611      	mov	r1, r2
   11792:	464e      	mov	r6, r9
   11794:	dcee      	bgt.n	11774 <_vfiprintf_r+0x7e4>
   11796:	4422      	add	r2, r4
   11798:	2807      	cmp	r0, #7
   1179a:	9215      	str	r2, [sp, #84]	; 0x54
   1179c:	6035      	str	r5, [r6, #0]
   1179e:	6074      	str	r4, [r6, #4]
   117a0:	9014      	str	r0, [sp, #80]	; 0x50
   117a2:	dd59      	ble.n	11858 <_vfiprintf_r+0x8c8>
   117a4:	2a00      	cmp	r2, #0
   117a6:	d14f      	bne.n	11848 <_vfiprintf_r+0x8b8>
   117a8:	9c09      	ldr	r4, [sp, #36]	; 0x24
   117aa:	f8dd b00c 	ldr.w	fp, [sp, #12]
   117ae:	9d04      	ldr	r5, [sp, #16]
   117b0:	45ab      	cmp	fp, r5
   117b2:	bfac      	ite	ge
   117b4:	445c      	addge	r4, fp
   117b6:	1964      	addlt	r4, r4, r5
   117b8:	9409      	str	r4, [sp, #36]	; 0x24
   117ba:	e05e      	b.n	1187a <_vfiprintf_r+0x8ea>
   117bc:	4620      	mov	r0, r4
   117be:	9902      	ldr	r1, [sp, #8]
   117c0:	aa13      	add	r2, sp, #76	; 0x4c
   117c2:	f7ff fb9d 	bl	10f00 <__sprint_r.part.0>
   117c6:	2800      	cmp	r0, #0
   117c8:	d135      	bne.n	11836 <_vfiprintf_r+0x8a6>
   117ca:	9b14      	ldr	r3, [sp, #80]	; 0x50
   117cc:	9a15      	ldr	r2, [sp, #84]	; 0x54
   117ce:	f103 0c01 	add.w	ip, r3, #1
   117d2:	4648      	mov	r0, r9
   117d4:	e781      	b.n	116da <_vfiprintf_r+0x74a>
   117d6:	08e0      	lsrs	r0, r4, #3
   117d8:	ea40 7045 	orr.w	r0, r0, r5, lsl #29
   117dc:	f004 0207 	and.w	r2, r4, #7
   117e0:	08e9      	lsrs	r1, r5, #3
   117e2:	3230      	adds	r2, #48	; 0x30
   117e4:	ea50 0b01 	orrs.w	fp, r0, r1
   117e8:	461f      	mov	r7, r3
   117ea:	701a      	strb	r2, [r3, #0]
   117ec:	4604      	mov	r4, r0
   117ee:	460d      	mov	r5, r1
   117f0:	f103 33ff 	add.w	r3, r3, #4294967295
   117f4:	d1ef      	bne.n	117d6 <_vfiprintf_r+0x846>
   117f6:	f01a 0f01 	tst.w	sl, #1
   117fa:	e9cd 010c 	strd	r0, r1, [sp, #48]	; 0x30
   117fe:	4639      	mov	r1, r7
   11800:	f000 80b9 	beq.w	11976 <_vfiprintf_r+0x9e6>
   11804:	2a30      	cmp	r2, #48	; 0x30
   11806:	f43f acf4 	beq.w	111f2 <_vfiprintf_r+0x262>
   1180a:	461f      	mov	r7, r3
   1180c:	ebc7 0509 	rsb	r5, r7, r9
   11810:	2330      	movs	r3, #48	; 0x30
   11812:	9505      	str	r5, [sp, #20]
   11814:	f801 3c01 	strb.w	r3, [r1, #-1]
   11818:	e4ee      	b.n	111f8 <_vfiprintf_r+0x268>
   1181a:	bf00      	nop
   1181c:	00014c24 	.word	0x00014c24
   11820:	00014f48 	.word	0x00014f48
   11824:	00014f58 	.word	0x00014f58
   11828:	9b15      	ldr	r3, [sp, #84]	; 0x54
   1182a:	b123      	cbz	r3, 11836 <_vfiprintf_r+0x8a6>
   1182c:	9806      	ldr	r0, [sp, #24]
   1182e:	9902      	ldr	r1, [sp, #8]
   11830:	aa13      	add	r2, sp, #76	; 0x4c
   11832:	f7ff fb65 	bl	10f00 <__sprint_r.part.0>
   11836:	9c02      	ldr	r4, [sp, #8]
   11838:	89a3      	ldrh	r3, [r4, #12]
   1183a:	065b      	lsls	r3, r3, #25
   1183c:	f53f ac98 	bmi.w	11170 <_vfiprintf_r+0x1e0>
   11840:	9809      	ldr	r0, [sp, #36]	; 0x24
   11842:	b031      	add	sp, #196	; 0xc4
   11844:	e8bd 8ff0 	ldmia.w	sp!, {r4, r5, r6, r7, r8, r9, sl, fp, pc}
   11848:	9806      	ldr	r0, [sp, #24]
   1184a:	9902      	ldr	r1, [sp, #8]
   1184c:	aa13      	add	r2, sp, #76	; 0x4c
   1184e:	f7ff fb57 	bl	10f00 <__sprint_r.part.0>
   11852:	2800      	cmp	r0, #0
   11854:	d1ef      	bne.n	11836 <_vfiprintf_r+0x8a6>
   11856:	9a15      	ldr	r2, [sp, #84]	; 0x54
   11858:	9c09      	ldr	r4, [sp, #36]	; 0x24
   1185a:	f8dd b00c 	ldr.w	fp, [sp, #12]
   1185e:	9d04      	ldr	r5, [sp, #16]
   11860:	45ab      	cmp	fp, r5
   11862:	bfac      	ite	ge
   11864:	445c      	addge	r4, fp
   11866:	1964      	addlt	r4, r4, r5
   11868:	9409      	str	r4, [sp, #36]	; 0x24
   1186a:	b132      	cbz	r2, 1187a <_vfiprintf_r+0x8ea>
   1186c:	9806      	ldr	r0, [sp, #24]
   1186e:	9902      	ldr	r1, [sp, #8]
   11870:	aa13      	add	r2, sp, #76	; 0x4c
   11872:	f7ff fb45 	bl	10f00 <__sprint_r.part.0>
   11876:	2800      	cmp	r0, #0
   11878:	d1dd      	bne.n	11836 <_vfiprintf_r+0x8a6>
   1187a:	2000      	movs	r0, #0
   1187c:	9014      	str	r0, [sp, #80]	; 0x50
   1187e:	464e      	mov	r6, r9
   11880:	f7ff bbb9 	b.w	10ff6 <_vfiprintf_r+0x66>
   11884:	4650      	mov	r0, sl
   11886:	4659      	mov	r1, fp
   11888:	aa13      	add	r2, sp, #76	; 0x4c
   1188a:	f7ff fb39 	bl	10f00 <__sprint_r.part.0>
   1188e:	2800      	cmp	r0, #0
   11890:	d1d1      	bne.n	11836 <_vfiprintf_r+0x8a6>
   11892:	9914      	ldr	r1, [sp, #80]	; 0x50
   11894:	9a15      	ldr	r2, [sp, #84]	; 0x54
   11896:	1c48      	adds	r0, r1, #1
   11898:	464e      	mov	r6, r9
   1189a:	e768      	b.n	1176e <_vfiprintf_r+0x7de>
   1189c:	2a00      	cmp	r2, #0
   1189e:	f040 80f7 	bne.w	11a90 <_vfiprintf_r+0xb00>
   118a2:	9c05      	ldr	r4, [sp, #20]
   118a4:	2301      	movs	r3, #1
   118a6:	9720      	str	r7, [sp, #128]	; 0x80
   118a8:	9421      	str	r4, [sp, #132]	; 0x84
   118aa:	9415      	str	r4, [sp, #84]	; 0x54
   118ac:	4622      	mov	r2, r4
   118ae:	9314      	str	r3, [sp, #80]	; 0x50
   118b0:	464e      	mov	r6, r9
   118b2:	3608      	adds	r6, #8
   118b4:	e741      	b.n	1173a <_vfiprintf_r+0x7aa>
   118b6:	9d04      	ldr	r5, [sp, #16]
   118b8:	f8dd b00c 	ldr.w	fp, [sp, #12]
   118bc:	ebcb 0405 	rsb	r4, fp, r5
   118c0:	2c00      	cmp	r4, #0
   118c2:	f77f aef7 	ble.w	116b4 <_vfiprintf_r+0x724>
   118c6:	2c10      	cmp	r4, #16
   118c8:	4da6      	ldr	r5, [pc, #664]	; (11b64 <_vfiprintf_r+0xbd4>)
   118ca:	f340 8170 	ble.w	11bae <_vfiprintf_r+0xc1e>
   118ce:	4629      	mov	r1, r5
   118d0:	f04f 0b10 	mov.w	fp, #16
   118d4:	4625      	mov	r5, r4
   118d6:	4664      	mov	r4, ip
   118d8:	46b4      	mov	ip, r6
   118da:	460e      	mov	r6, r1
   118dc:	e006      	b.n	118ec <_vfiprintf_r+0x95c>
   118de:	1c98      	adds	r0, r3, #2
   118e0:	f10c 0c08 	add.w	ip, ip, #8
   118e4:	460b      	mov	r3, r1
   118e6:	3d10      	subs	r5, #16
   118e8:	2d10      	cmp	r5, #16
   118ea:	dd0f      	ble.n	1190c <_vfiprintf_r+0x97c>
   118ec:	1c59      	adds	r1, r3, #1
   118ee:	3210      	adds	r2, #16
   118f0:	2907      	cmp	r1, #7
   118f2:	9215      	str	r2, [sp, #84]	; 0x54
   118f4:	e88c 0840 	stmia.w	ip, {r6, fp}
   118f8:	9114      	str	r1, [sp, #80]	; 0x50
   118fa:	ddf0      	ble.n	118de <_vfiprintf_r+0x94e>
   118fc:	b9ba      	cbnz	r2, 1192e <_vfiprintf_r+0x99e>
   118fe:	3d10      	subs	r5, #16
   11900:	2d10      	cmp	r5, #16
   11902:	f04f 0001 	mov.w	r0, #1
   11906:	4613      	mov	r3, r2
   11908:	46cc      	mov	ip, r9
   1190a:	dcef      	bgt.n	118ec <_vfiprintf_r+0x95c>
   1190c:	4633      	mov	r3, r6
   1190e:	4666      	mov	r6, ip
   11910:	46a4      	mov	ip, r4
   11912:	462c      	mov	r4, r5
   11914:	461d      	mov	r5, r3
   11916:	4422      	add	r2, r4
   11918:	2807      	cmp	r0, #7
   1191a:	9215      	str	r2, [sp, #84]	; 0x54
   1191c:	6035      	str	r5, [r6, #0]
   1191e:	6074      	str	r4, [r6, #4]
   11920:	9014      	str	r0, [sp, #80]	; 0x50
   11922:	f300 80af 	bgt.w	11a84 <_vfiprintf_r+0xaf4>
   11926:	3608      	adds	r6, #8
   11928:	1c41      	adds	r1, r0, #1
   1192a:	4603      	mov	r3, r0
   1192c:	e6c2      	b.n	116b4 <_vfiprintf_r+0x724>
   1192e:	9806      	ldr	r0, [sp, #24]
   11930:	9902      	ldr	r1, [sp, #8]
   11932:	aa13      	add	r2, sp, #76	; 0x4c
   11934:	f7ff fae4 	bl	10f00 <__sprint_r.part.0>
   11938:	2800      	cmp	r0, #0
   1193a:	f47f af7c 	bne.w	11836 <_vfiprintf_r+0x8a6>
   1193e:	9b14      	ldr	r3, [sp, #80]	; 0x50
   11940:	9a15      	ldr	r2, [sp, #84]	; 0x54
   11942:	1c58      	adds	r0, r3, #1
   11944:	46cc      	mov	ip, r9
   11946:	e7ce      	b.n	118e6 <_vfiprintf_r+0x956>
   11948:	2a00      	cmp	r2, #0
   1194a:	d179      	bne.n	11a40 <_vfiprintf_r+0xab0>
   1194c:	4619      	mov	r1, r3
   1194e:	464e      	mov	r6, r9
   11950:	4613      	mov	r3, r2
   11952:	e69c      	b.n	1168e <_vfiprintf_r+0x6fe>
   11954:	2a00      	cmp	r2, #0
   11956:	f040 8084 	bne.w	11a62 <_vfiprintf_r+0xad2>
   1195a:	2101      	movs	r1, #1
   1195c:	4613      	mov	r3, r2
   1195e:	464e      	mov	r6, r9
   11960:	e6a4      	b.n	116ac <_vfiprintf_r+0x71c>
   11962:	464f      	mov	r7, r9
   11964:	e448      	b.n	111f8 <_vfiprintf_r+0x268>
   11966:	2d00      	cmp	r5, #0
   11968:	bf08      	it	eq
   1196a:	2c0a      	cmpeq	r4, #10
   1196c:	d246      	bcs.n	119fc <_vfiprintf_r+0xa6c>
   1196e:	3430      	adds	r4, #48	; 0x30
   11970:	af30      	add	r7, sp, #192	; 0xc0
   11972:	f807 4d41 	strb.w	r4, [r7, #-65]!
   11976:	ebc7 0309 	rsb	r3, r7, r9
   1197a:	9305      	str	r3, [sp, #20]
   1197c:	e43c      	b.n	111f8 <_vfiprintf_r+0x268>
   1197e:	2302      	movs	r3, #2
   11980:	e417      	b.n	111b2 <_vfiprintf_r+0x222>
   11982:	2a00      	cmp	r2, #0
   11984:	f040 80af 	bne.w	11ae6 <_vfiprintf_r+0xb56>
   11988:	4613      	mov	r3, r2
   1198a:	2101      	movs	r1, #1
   1198c:	464e      	mov	r6, r9
   1198e:	e66d      	b.n	1166c <_vfiprintf_r+0x6dc>
   11990:	4644      	mov	r4, r8
   11992:	f7ff bb58 	b.w	11046 <_vfiprintf_r+0xb6>
   11996:	9806      	ldr	r0, [sp, #24]
   11998:	9902      	ldr	r1, [sp, #8]
   1199a:	aa13      	add	r2, sp, #76	; 0x4c
   1199c:	f7ff fab0 	bl	10f00 <__sprint_r.part.0>
   119a0:	2800      	cmp	r0, #0
   119a2:	f47f af48 	bne.w	11836 <_vfiprintf_r+0x8a6>
   119a6:	9a15      	ldr	r2, [sp, #84]	; 0x54
   119a8:	464e      	mov	r6, r9
   119aa:	e6c6      	b.n	1173a <_vfiprintf_r+0x7aa>
   119ac:	9d08      	ldr	r5, [sp, #32]
   119ae:	682c      	ldr	r4, [r5, #0]
   119b0:	3504      	adds	r5, #4
   119b2:	9508      	str	r5, [sp, #32]
   119b4:	2500      	movs	r5, #0
   119b6:	f7ff bbfc 	b.w	111b2 <_vfiprintf_r+0x222>
   119ba:	9d08      	ldr	r5, [sp, #32]
   119bc:	2301      	movs	r3, #1
   119be:	682c      	ldr	r4, [r5, #0]
   119c0:	3504      	adds	r5, #4
   119c2:	9508      	str	r5, [sp, #32]
   119c4:	2500      	movs	r5, #0
   119c6:	f7ff bbf4 	b.w	111b2 <_vfiprintf_r+0x222>
   119ca:	9d08      	ldr	r5, [sp, #32]
   119cc:	682c      	ldr	r4, [r5, #0]
   119ce:	3504      	adds	r5, #4
   119d0:	9508      	str	r5, [sp, #32]
   119d2:	2500      	movs	r5, #0
   119d4:	e525      	b.n	11422 <_vfiprintf_r+0x492>
   119d6:	9d08      	ldr	r5, [sp, #32]
   119d8:	682c      	ldr	r4, [r5, #0]
   119da:	3504      	adds	r5, #4
   119dc:	9508      	str	r5, [sp, #32]
   119de:	17e5      	asrs	r5, r4, #31
   119e0:	4622      	mov	r2, r4
   119e2:	462b      	mov	r3, r5
   119e4:	e48e      	b.n	11304 <_vfiprintf_r+0x374>
   119e6:	9806      	ldr	r0, [sp, #24]
   119e8:	9902      	ldr	r1, [sp, #8]
   119ea:	aa13      	add	r2, sp, #76	; 0x4c
   119ec:	f7ff fa88 	bl	10f00 <__sprint_r.part.0>
   119f0:	2800      	cmp	r0, #0
   119f2:	f47f af20 	bne.w	11836 <_vfiprintf_r+0x8a6>
   119f6:	464e      	mov	r6, r9
   119f8:	f7ff bb9a 	b.w	11130 <_vfiprintf_r+0x1a0>
   119fc:	f10d 0b7f 	add.w	fp, sp, #127	; 0x7f
   11a00:	9603      	str	r6, [sp, #12]
   11a02:	465e      	mov	r6, fp
   11a04:	46e3      	mov	fp, ip
   11a06:	4620      	mov	r0, r4
   11a08:	4629      	mov	r1, r5
   11a0a:	220a      	movs	r2, #10
   11a0c:	2300      	movs	r3, #0
   11a0e:	f002 fdb7 	bl	14580 <__aeabi_uldivmod>
   11a12:	3230      	adds	r2, #48	; 0x30
   11a14:	7032      	strb	r2, [r6, #0]
   11a16:	4620      	mov	r0, r4
   11a18:	4629      	mov	r1, r5
   11a1a:	220a      	movs	r2, #10
   11a1c:	2300      	movs	r3, #0
   11a1e:	f002 fdaf 	bl	14580 <__aeabi_uldivmod>
   11a22:	4604      	mov	r4, r0
   11a24:	460d      	mov	r5, r1
   11a26:	ea54 0005 	orrs.w	r0, r4, r5
   11a2a:	4637      	mov	r7, r6
   11a2c:	f106 36ff 	add.w	r6, r6, #4294967295
   11a30:	d1e9      	bne.n	11a06 <_vfiprintf_r+0xa76>
   11a32:	ebc7 0309 	rsb	r3, r7, r9
   11a36:	46dc      	mov	ip, fp
   11a38:	9e03      	ldr	r6, [sp, #12]
   11a3a:	9305      	str	r3, [sp, #20]
   11a3c:	f7ff bbdc 	b.w	111f8 <_vfiprintf_r+0x268>
   11a40:	9806      	ldr	r0, [sp, #24]
   11a42:	9902      	ldr	r1, [sp, #8]
   11a44:	aa13      	add	r2, sp, #76	; 0x4c
   11a46:	f8cd c004 	str.w	ip, [sp, #4]
   11a4a:	f7ff fa59 	bl	10f00 <__sprint_r.part.0>
   11a4e:	f8dd c004 	ldr.w	ip, [sp, #4]
   11a52:	2800      	cmp	r0, #0
   11a54:	f47f aeef 	bne.w	11836 <_vfiprintf_r+0x8a6>
   11a58:	9b14      	ldr	r3, [sp, #80]	; 0x50
   11a5a:	9a15      	ldr	r2, [sp, #84]	; 0x54
   11a5c:	1c59      	adds	r1, r3, #1
   11a5e:	464e      	mov	r6, r9
   11a60:	e615      	b.n	1168e <_vfiprintf_r+0x6fe>
   11a62:	9806      	ldr	r0, [sp, #24]
   11a64:	9902      	ldr	r1, [sp, #8]
   11a66:	aa13      	add	r2, sp, #76	; 0x4c
   11a68:	f8cd c004 	str.w	ip, [sp, #4]
   11a6c:	f7ff fa48 	bl	10f00 <__sprint_r.part.0>
   11a70:	f8dd c004 	ldr.w	ip, [sp, #4]
   11a74:	2800      	cmp	r0, #0
   11a76:	f47f aede 	bne.w	11836 <_vfiprintf_r+0x8a6>
   11a7a:	9b14      	ldr	r3, [sp, #80]	; 0x50
   11a7c:	9a15      	ldr	r2, [sp, #84]	; 0x54
   11a7e:	1c59      	adds	r1, r3, #1
   11a80:	464e      	mov	r6, r9
   11a82:	e613      	b.n	116ac <_vfiprintf_r+0x71c>
   11a84:	2a00      	cmp	r2, #0
   11a86:	d156      	bne.n	11b36 <_vfiprintf_r+0xba6>
   11a88:	2101      	movs	r1, #1
   11a8a:	4613      	mov	r3, r2
   11a8c:	464e      	mov	r6, r9
   11a8e:	e611      	b.n	116b4 <_vfiprintf_r+0x724>
   11a90:	9806      	ldr	r0, [sp, #24]
   11a92:	9902      	ldr	r1, [sp, #8]
   11a94:	aa13      	add	r2, sp, #76	; 0x4c
   11a96:	f7ff fa33 	bl	10f00 <__sprint_r.part.0>
   11a9a:	2800      	cmp	r0, #0
   11a9c:	f47f aecb 	bne.w	11836 <_vfiprintf_r+0x8a6>
   11aa0:	9914      	ldr	r1, [sp, #80]	; 0x50
   11aa2:	9a15      	ldr	r2, [sp, #84]	; 0x54
   11aa4:	3101      	adds	r1, #1
   11aa6:	464e      	mov	r6, r9
   11aa8:	e639      	b.n	1171e <_vfiprintf_r+0x78e>
   11aaa:	f04f 0b2d 	mov.w	fp, #45	; 0x2d
   11aae:	4264      	negs	r4, r4
   11ab0:	eb65 0545 	sbc.w	r5, r5, r5, lsl #1
   11ab4:	f88d b047 	strb.w	fp, [sp, #71]	; 0x47
   11ab8:	f8cd b01c 	str.w	fp, [sp, #28]
   11abc:	f8cd c014 	str.w	ip, [sp, #20]
   11ac0:	2301      	movs	r3, #1
   11ac2:	f7ff bb7e 	b.w	111c2 <_vfiprintf_r+0x232>
   11ac6:	f01a 0f10 	tst.w	sl, #16
   11aca:	d11d      	bne.n	11b08 <_vfiprintf_r+0xb78>
   11acc:	f01a 0f40 	tst.w	sl, #64	; 0x40
   11ad0:	d058      	beq.n	11b84 <_vfiprintf_r+0xbf4>
   11ad2:	9d08      	ldr	r5, [sp, #32]
   11ad4:	f8dd b024 	ldr.w	fp, [sp, #36]	; 0x24
   11ad8:	682b      	ldr	r3, [r5, #0]
   11ada:	3504      	adds	r5, #4
   11adc:	9508      	str	r5, [sp, #32]
   11ade:	f8a3 b000 	strh.w	fp, [r3]
   11ae2:	f7ff ba88 	b.w	10ff6 <_vfiprintf_r+0x66>
   11ae6:	9806      	ldr	r0, [sp, #24]
   11ae8:	9902      	ldr	r1, [sp, #8]
   11aea:	aa13      	add	r2, sp, #76	; 0x4c
   11aec:	f8cd c004 	str.w	ip, [sp, #4]
   11af0:	f7ff fa06 	bl	10f00 <__sprint_r.part.0>
   11af4:	f8dd c004 	ldr.w	ip, [sp, #4]
   11af8:	2800      	cmp	r0, #0
   11afa:	f47f ae9c 	bne.w	11836 <_vfiprintf_r+0x8a6>
   11afe:	9b14      	ldr	r3, [sp, #80]	; 0x50
   11b00:	9a15      	ldr	r2, [sp, #84]	; 0x54
   11b02:	1c59      	adds	r1, r3, #1
   11b04:	464e      	mov	r6, r9
   11b06:	e5b1      	b.n	1166c <_vfiprintf_r+0x6dc>
   11b08:	f8dd b020 	ldr.w	fp, [sp, #32]
   11b0c:	9c09      	ldr	r4, [sp, #36]	; 0x24
   11b0e:	f8db 3000 	ldr.w	r3, [fp]
   11b12:	f10b 0b04 	add.w	fp, fp, #4
   11b16:	f8cd b020 	str.w	fp, [sp, #32]
   11b1a:	601c      	str	r4, [r3, #0]
   11b1c:	f7ff ba6b 	b.w	10ff6 <_vfiprintf_r+0x66>
   11b20:	9408      	str	r4, [sp, #32]
   11b22:	f7f7 fd05 	bl	9530 <strlen>
   11b26:	f89d 4047 	ldrb.w	r4, [sp, #71]	; 0x47
   11b2a:	9005      	str	r0, [sp, #20]
   11b2c:	9407      	str	r4, [sp, #28]
   11b2e:	f04f 0c00 	mov.w	ip, #0
   11b32:	f7ff bb61 	b.w	111f8 <_vfiprintf_r+0x268>
   11b36:	9806      	ldr	r0, [sp, #24]
   11b38:	9902      	ldr	r1, [sp, #8]
   11b3a:	aa13      	add	r2, sp, #76	; 0x4c
   11b3c:	f8cd c004 	str.w	ip, [sp, #4]
   11b40:	f7ff f9de 	bl	10f00 <__sprint_r.part.0>
   11b44:	f8dd c004 	ldr.w	ip, [sp, #4]
   11b48:	2800      	cmp	r0, #0
   11b4a:	f47f ae74 	bne.w	11836 <_vfiprintf_r+0x8a6>
   11b4e:	9b14      	ldr	r3, [sp, #80]	; 0x50
   11b50:	9a15      	ldr	r2, [sp, #84]	; 0x54
   11b52:	1c59      	adds	r1, r3, #1
   11b54:	464e      	mov	r6, r9
   11b56:	e5ad      	b.n	116b4 <_vfiprintf_r+0x724>
   11b58:	9b14      	ldr	r3, [sp, #80]	; 0x50
   11b5a:	9a15      	ldr	r2, [sp, #84]	; 0x54
   11b5c:	3301      	adds	r3, #1
   11b5e:	4d02      	ldr	r5, [pc, #8]	; (11b68 <_vfiprintf_r+0xbd8>)
   11b60:	f7ff bb9a 	b.w	11298 <_vfiprintf_r+0x308>
   11b64:	00014f48 	.word	0x00014f48
   11b68:	00014f58 	.word	0x00014f58
   11b6c:	f1bc 0f06 	cmp.w	ip, #6
   11b70:	bf34      	ite	cc
   11b72:	4663      	movcc	r3, ip
   11b74:	2306      	movcs	r3, #6
   11b76:	9408      	str	r4, [sp, #32]
   11b78:	ea23 74e3 	bic.w	r4, r3, r3, asr #31
   11b7c:	9305      	str	r3, [sp, #20]
   11b7e:	9403      	str	r4, [sp, #12]
   11b80:	4f16      	ldr	r7, [pc, #88]	; (11bdc <_vfiprintf_r+0xc4c>)
   11b82:	e472      	b.n	1146a <_vfiprintf_r+0x4da>
   11b84:	9c08      	ldr	r4, [sp, #32]
   11b86:	9d09      	ldr	r5, [sp, #36]	; 0x24
   11b88:	6823      	ldr	r3, [r4, #0]
   11b8a:	3404      	adds	r4, #4
   11b8c:	9408      	str	r4, [sp, #32]
   11b8e:	601d      	str	r5, [r3, #0]
   11b90:	f7ff ba31 	b.w	10ff6 <_vfiprintf_r+0x66>
   11b94:	9814      	ldr	r0, [sp, #80]	; 0x50
   11b96:	4d12      	ldr	r5, [pc, #72]	; (11be0 <_vfiprintf_r+0xc50>)
   11b98:	3001      	adds	r0, #1
   11b9a:	e5fc      	b.n	11796 <_vfiprintf_r+0x806>
   11b9c:	f89d 5047 	ldrb.w	r5, [sp, #71]	; 0x47
   11ba0:	f8cd c014 	str.w	ip, [sp, #20]
   11ba4:	9507      	str	r5, [sp, #28]
   11ba6:	9408      	str	r4, [sp, #32]
   11ba8:	4684      	mov	ip, r0
   11baa:	f7ff bb25 	b.w	111f8 <_vfiprintf_r+0x268>
   11bae:	4608      	mov	r0, r1
   11bb0:	e6b1      	b.n	11916 <_vfiprintf_r+0x986>
   11bb2:	46a0      	mov	r8, r4
   11bb4:	2500      	movs	r5, #0
   11bb6:	f7ff ba5a 	b.w	1106e <_vfiprintf_r+0xde>
   11bba:	f8dd b020 	ldr.w	fp, [sp, #32]
   11bbe:	f898 3001 	ldrb.w	r3, [r8, #1]
   11bc2:	f8db 5000 	ldr.w	r5, [fp]
   11bc6:	f10b 0204 	add.w	r2, fp, #4
   11bca:	2d00      	cmp	r5, #0
   11bcc:	9208      	str	r2, [sp, #32]
   11bce:	46a0      	mov	r8, r4
   11bd0:	f6bf aa4b 	bge.w	1106a <_vfiprintf_r+0xda>
   11bd4:	f04f 35ff 	mov.w	r5, #4294967295
   11bd8:	f7ff ba47 	b.w	1106a <_vfiprintf_r+0xda>
   11bdc:	00014c38 	.word	0x00014c38
   11be0:	00014f58 	.word	0x00014f58

00011be4 <vfiprintf>:
   11be4:	b430      	push	{r4, r5}
   11be6:	4c04      	ldr	r4, [pc, #16]	; (11bf8 <vfiprintf+0x14>)
   11be8:	460d      	mov	r5, r1
   11bea:	4613      	mov	r3, r2
   11bec:	4601      	mov	r1, r0
   11bee:	462a      	mov	r2, r5
   11bf0:	6820      	ldr	r0, [r4, #0]
   11bf2:	bc30      	pop	{r4, r5}
   11bf4:	f7ff b9cc 	b.w	10f90 <_vfiprintf_r>
   11bf8:	0001d5e8 	.word	0x0001d5e8

00011bfc <__sbprintf>:
   11bfc:	e92d 47f0 	stmdb	sp!, {r4, r5, r6, r7, r8, r9, sl, lr}
   11c00:	6e4f      	ldr	r7, [r1, #100]	; 0x64
   11c02:	f5ad 6d8d 	sub.w	sp, sp, #1128	; 0x468
   11c06:	4688      	mov	r8, r1
   11c08:	9719      	str	r7, [sp, #100]	; 0x64
   11c0a:	f8d8 701c 	ldr.w	r7, [r8, #28]
   11c0e:	f8b1 a00c 	ldrh.w	sl, [r1, #12]
   11c12:	f8b1 900e 	ldrh.w	r9, [r1, #14]
   11c16:	9707      	str	r7, [sp, #28]
   11c18:	f8d8 7024 	ldr.w	r7, [r8, #36]	; 0x24
   11c1c:	ac1a      	add	r4, sp, #104	; 0x68
   11c1e:	f44f 6580 	mov.w	r5, #1024	; 0x400
   11c22:	f02a 0a02 	bic.w	sl, sl, #2
   11c26:	2600      	movs	r6, #0
   11c28:	4669      	mov	r1, sp
   11c2a:	9400      	str	r4, [sp, #0]
   11c2c:	9404      	str	r4, [sp, #16]
   11c2e:	9502      	str	r5, [sp, #8]
   11c30:	9505      	str	r5, [sp, #20]
   11c32:	f8ad a00c 	strh.w	sl, [sp, #12]
   11c36:	f8ad 900e 	strh.w	r9, [sp, #14]
   11c3a:	9709      	str	r7, [sp, #36]	; 0x24
   11c3c:	9606      	str	r6, [sp, #24]
   11c3e:	4605      	mov	r5, r0
   11c40:	f7ff f9a6 	bl	10f90 <_vfiprintf_r>
   11c44:	1e04      	subs	r4, r0, #0
   11c46:	db07      	blt.n	11c58 <__sbprintf+0x5c>
   11c48:	4628      	mov	r0, r5
   11c4a:	4669      	mov	r1, sp
   11c4c:	f7fb f81c 	bl	cc88 <_fflush_r>
   11c50:	42b0      	cmp	r0, r6
   11c52:	bf18      	it	ne
   11c54:	f04f 34ff 	movne.w	r4, #4294967295
   11c58:	f8bd 300c 	ldrh.w	r3, [sp, #12]
   11c5c:	065b      	lsls	r3, r3, #25
   11c5e:	d505      	bpl.n	11c6c <__sbprintf+0x70>
   11c60:	f8b8 300c 	ldrh.w	r3, [r8, #12]
   11c64:	f043 0340 	orr.w	r3, r3, #64	; 0x40
   11c68:	f8a8 300c 	strh.w	r3, [r8, #12]
   11c6c:	4620      	mov	r0, r4
   11c6e:	f50d 6d8d 	add.w	sp, sp, #1128	; 0x468
   11c72:	e8bd 87f0 	ldmia.w	sp!, {r4, r5, r6, r7, r8, r9, sl, pc}
   11c76:	bf00      	nop

00011c78 <_calloc_r>:
   11c78:	b510      	push	{r4, lr}
   11c7a:	fb02 f101 	mul.w	r1, r2, r1
   11c7e:	f7f7 f919 	bl	8eb4 <_malloc_r>
   11c82:	4604      	mov	r4, r0
   11c84:	b168      	cbz	r0, 11ca2 <_calloc_r+0x2a>
   11c86:	f850 2c04 	ldr.w	r2, [r0, #-4]
   11c8a:	f022 0203 	bic.w	r2, r2, #3
   11c8e:	3a04      	subs	r2, #4
   11c90:	2a24      	cmp	r2, #36	; 0x24
   11c92:	d818      	bhi.n	11cc6 <_calloc_r+0x4e>
   11c94:	2a13      	cmp	r2, #19
   11c96:	d806      	bhi.n	11ca6 <_calloc_r+0x2e>
   11c98:	4603      	mov	r3, r0
   11c9a:	2200      	movs	r2, #0
   11c9c:	601a      	str	r2, [r3, #0]
   11c9e:	605a      	str	r2, [r3, #4]
   11ca0:	609a      	str	r2, [r3, #8]
   11ca2:	4620      	mov	r0, r4
   11ca4:	bd10      	pop	{r4, pc}
   11ca6:	2300      	movs	r3, #0
   11ca8:	2a1b      	cmp	r2, #27
   11caa:	6003      	str	r3, [r0, #0]
   11cac:	6043      	str	r3, [r0, #4]
   11cae:	d90f      	bls.n	11cd0 <_calloc_r+0x58>
   11cb0:	2a24      	cmp	r2, #36	; 0x24
   11cb2:	6083      	str	r3, [r0, #8]
   11cb4:	60c3      	str	r3, [r0, #12]
   11cb6:	bf05      	ittet	eq
   11cb8:	6103      	streq	r3, [r0, #16]
   11cba:	6143      	streq	r3, [r0, #20]
   11cbc:	f100 0310 	addne.w	r3, r0, #16
   11cc0:	f100 0318 	addeq.w	r3, r0, #24
   11cc4:	e7e9      	b.n	11c9a <_calloc_r+0x22>
   11cc6:	2100      	movs	r1, #0
   11cc8:	f7f6 fa7c 	bl	81c4 <memset>
   11ccc:	4620      	mov	r0, r4
   11cce:	bd10      	pop	{r4, pc}
   11cd0:	f100 0308 	add.w	r3, r0, #8
   11cd4:	e7e1      	b.n	11c9a <_calloc_r+0x22>
   11cd6:	bf00      	nop

00011cd8 <_fputwc_r>:
   11cd8:	e92d 41f0 	stmdb	sp!, {r4, r5, r6, r7, r8, lr}
   11cdc:	8993      	ldrh	r3, [r2, #12]
   11cde:	460f      	mov	r7, r1
   11ce0:	0499      	lsls	r1, r3, #18
   11ce2:	b082      	sub	sp, #8
   11ce4:	4614      	mov	r4, r2
   11ce6:	4680      	mov	r8, r0
   11ce8:	d406      	bmi.n	11cf8 <_fputwc_r+0x20>
   11cea:	6e52      	ldr	r2, [r2, #100]	; 0x64
   11cec:	f443 5300 	orr.w	r3, r3, #8192	; 0x2000
   11cf0:	f442 5200 	orr.w	r2, r2, #8192	; 0x2000
   11cf4:	81a3      	strh	r3, [r4, #12]
   11cf6:	6662      	str	r2, [r4, #100]	; 0x64
   11cf8:	f7fb fa14 	bl	d124 <__locale_mb_cur_max>
   11cfc:	2801      	cmp	r0, #1
   11cfe:	d03e      	beq.n	11d7e <_fputwc_r+0xa6>
   11d00:	463a      	mov	r2, r7
   11d02:	4640      	mov	r0, r8
   11d04:	a901      	add	r1, sp, #4
   11d06:	f104 035c 	add.w	r3, r4, #92	; 0x5c
   11d0a:	f001 fed5 	bl	13ab8 <_wcrtomb_r>
   11d0e:	1c42      	adds	r2, r0, #1
   11d10:	4606      	mov	r6, r0
   11d12:	d02d      	beq.n	11d70 <_fputwc_r+0x98>
   11d14:	2800      	cmp	r0, #0
   11d16:	d03a      	beq.n	11d8e <_fputwc_r+0xb6>
   11d18:	f89d 1004 	ldrb.w	r1, [sp, #4]
   11d1c:	2500      	movs	r5, #0
   11d1e:	e009      	b.n	11d34 <_fputwc_r+0x5c>
   11d20:	6823      	ldr	r3, [r4, #0]
   11d22:	7019      	strb	r1, [r3, #0]
   11d24:	6823      	ldr	r3, [r4, #0]
   11d26:	3301      	adds	r3, #1
   11d28:	6023      	str	r3, [r4, #0]
   11d2a:	3501      	adds	r5, #1
   11d2c:	42b5      	cmp	r5, r6
   11d2e:	d22e      	bcs.n	11d8e <_fputwc_r+0xb6>
   11d30:	ab01      	add	r3, sp, #4
   11d32:	5ce9      	ldrb	r1, [r5, r3]
   11d34:	68a3      	ldr	r3, [r4, #8]
   11d36:	3b01      	subs	r3, #1
   11d38:	2b00      	cmp	r3, #0
   11d3a:	60a3      	str	r3, [r4, #8]
   11d3c:	daf0      	bge.n	11d20 <_fputwc_r+0x48>
   11d3e:	69a2      	ldr	r2, [r4, #24]
   11d40:	4293      	cmp	r3, r2
   11d42:	db06      	blt.n	11d52 <_fputwc_r+0x7a>
   11d44:	6823      	ldr	r3, [r4, #0]
   11d46:	7019      	strb	r1, [r3, #0]
   11d48:	6823      	ldr	r3, [r4, #0]
   11d4a:	7819      	ldrb	r1, [r3, #0]
   11d4c:	3301      	adds	r3, #1
   11d4e:	290a      	cmp	r1, #10
   11d50:	d1ea      	bne.n	11d28 <_fputwc_r+0x50>
   11d52:	4640      	mov	r0, r8
   11d54:	4622      	mov	r2, r4
   11d56:	f001 fe53 	bl	13a00 <__swbuf_r>
   11d5a:	f1b0 33ff 	subs.w	r3, r0, #4294967295
   11d5e:	4258      	negs	r0, r3
   11d60:	4158      	adcs	r0, r3
   11d62:	2800      	cmp	r0, #0
   11d64:	d0e1      	beq.n	11d2a <_fputwc_r+0x52>
   11d66:	f04f 30ff 	mov.w	r0, #4294967295
   11d6a:	b002      	add	sp, #8
   11d6c:	e8bd 81f0 	ldmia.w	sp!, {r4, r5, r6, r7, r8, pc}
   11d70:	89a3      	ldrh	r3, [r4, #12]
   11d72:	f043 0340 	orr.w	r3, r3, #64	; 0x40
   11d76:	81a3      	strh	r3, [r4, #12]
   11d78:	b002      	add	sp, #8
   11d7a:	e8bd 81f0 	ldmia.w	sp!, {r4, r5, r6, r7, r8, pc}
   11d7e:	1e7b      	subs	r3, r7, #1
   11d80:	2bfe      	cmp	r3, #254	; 0xfe
   11d82:	d8bd      	bhi.n	11d00 <_fputwc_r+0x28>
   11d84:	b2f9      	uxtb	r1, r7
   11d86:	4606      	mov	r6, r0
   11d88:	f88d 1004 	strb.w	r1, [sp, #4]
   11d8c:	e7c6      	b.n	11d1c <_fputwc_r+0x44>
   11d8e:	4638      	mov	r0, r7
   11d90:	b002      	add	sp, #8
   11d92:	e8bd 81f0 	ldmia.w	sp!, {r4, r5, r6, r7, r8, pc}
   11d96:	bf00      	nop

00011d98 <fputwc>:
   11d98:	4b08      	ldr	r3, [pc, #32]	; (11dbc <fputwc+0x24>)
   11d9a:	b570      	push	{r4, r5, r6, lr}
   11d9c:	681c      	ldr	r4, [r3, #0]
   11d9e:	4606      	mov	r6, r0
   11da0:	460d      	mov	r5, r1
   11da2:	b124      	cbz	r4, 11dae <fputwc+0x16>
   11da4:	6ba3      	ldr	r3, [r4, #56]	; 0x38
   11da6:	b913      	cbnz	r3, 11dae <fputwc+0x16>
   11da8:	4620      	mov	r0, r4
   11daa:	f7f6 ff5d 	bl	8c68 <__sinit>
   11dae:	4620      	mov	r0, r4
   11db0:	4631      	mov	r1, r6
   11db2:	462a      	mov	r2, r5
   11db4:	e8bd 4070 	ldmia.w	sp!, {r4, r5, r6, lr}
   11db8:	f7ff bf8e 	b.w	11cd8 <_fputwc_r>
   11dbc:	0001d5e8 	.word	0x0001d5e8

00011dc0 <_fstat_r>:
   11dc0:	b538      	push	{r3, r4, r5, lr}
   11dc2:	4c08      	ldr	r4, [pc, #32]	; (11de4 <_fstat_r+0x24>)
   11dc4:	2300      	movs	r3, #0
   11dc6:	4605      	mov	r5, r0
   11dc8:	4608      	mov	r0, r1
   11dca:	4611      	mov	r1, r2
   11dcc:	6023      	str	r3, [r4, #0]
   11dce:	f7f6 fced 	bl	87ac <_fstat>
   11dd2:	1c43      	adds	r3, r0, #1
   11dd4:	d000      	beq.n	11dd8 <_fstat_r+0x18>
   11dd6:	bd38      	pop	{r3, r4, r5, pc}
   11dd8:	6823      	ldr	r3, [r4, #0]
   11dda:	2b00      	cmp	r3, #0
   11ddc:	d0fb      	beq.n	11dd6 <_fstat_r+0x16>
   11dde:	602b      	str	r3, [r5, #0]
   11de0:	bd38      	pop	{r3, r4, r5, pc}
   11de2:	bf00      	nop
   11de4:	0001db90 	.word	0x0001db90

00011de8 <__sfvwrite_r>:
   11de8:	e92d 4ff0 	stmdb	sp!, {r4, r5, r6, r7, r8, r9, sl, fp, lr}
   11dec:	6893      	ldr	r3, [r2, #8]
   11dee:	b083      	sub	sp, #12
   11df0:	4616      	mov	r6, r2
   11df2:	4681      	mov	r9, r0
   11df4:	460c      	mov	r4, r1
   11df6:	b32b      	cbz	r3, 11e44 <__sfvwrite_r+0x5c>
   11df8:	898b      	ldrh	r3, [r1, #12]
   11dfa:	0719      	lsls	r1, r3, #28
   11dfc:	d526      	bpl.n	11e4c <__sfvwrite_r+0x64>
   11dfe:	6922      	ldr	r2, [r4, #16]
   11e00:	b322      	cbz	r2, 11e4c <__sfvwrite_r+0x64>
   11e02:	f003 0202 	and.w	r2, r3, #2
   11e06:	b292      	uxth	r2, r2
   11e08:	6835      	ldr	r5, [r6, #0]
   11e0a:	2a00      	cmp	r2, #0
   11e0c:	d02c      	beq.n	11e68 <__sfvwrite_r+0x80>
   11e0e:	f04f 0a00 	mov.w	sl, #0
   11e12:	f8df b2e8 	ldr.w	fp, [pc, #744]	; 120fc <__sfvwrite_r+0x314>
   11e16:	46d0      	mov	r8, sl
   11e18:	45d8      	cmp	r8, fp
   11e1a:	bf34      	ite	cc
   11e1c:	4643      	movcc	r3, r8
   11e1e:	465b      	movcs	r3, fp
   11e20:	4652      	mov	r2, sl
   11e22:	4648      	mov	r0, r9
   11e24:	f1b8 0f00 	cmp.w	r8, #0
   11e28:	d04f      	beq.n	11eca <__sfvwrite_r+0xe2>
   11e2a:	69e1      	ldr	r1, [r4, #28]
   11e2c:	6a67      	ldr	r7, [r4, #36]	; 0x24
   11e2e:	47b8      	blx	r7
   11e30:	2800      	cmp	r0, #0
   11e32:	dd56      	ble.n	11ee2 <__sfvwrite_r+0xfa>
   11e34:	68b3      	ldr	r3, [r6, #8]
   11e36:	4482      	add	sl, r0
   11e38:	1a1b      	subs	r3, r3, r0
   11e3a:	ebc0 0808 	rsb	r8, r0, r8
   11e3e:	60b3      	str	r3, [r6, #8]
   11e40:	2b00      	cmp	r3, #0
   11e42:	d1e9      	bne.n	11e18 <__sfvwrite_r+0x30>
   11e44:	2000      	movs	r0, #0
   11e46:	b003      	add	sp, #12
   11e48:	e8bd 8ff0 	ldmia.w	sp!, {r4, r5, r6, r7, r8, r9, sl, fp, pc}
   11e4c:	4648      	mov	r0, r9
   11e4e:	4621      	mov	r1, r4
   11e50:	f7f9 fe02 	bl	ba58 <__swsetup_r>
   11e54:	2800      	cmp	r0, #0
   11e56:	f040 8148 	bne.w	120ea <__sfvwrite_r+0x302>
   11e5a:	89a3      	ldrh	r3, [r4, #12]
   11e5c:	6835      	ldr	r5, [r6, #0]
   11e5e:	f003 0202 	and.w	r2, r3, #2
   11e62:	b292      	uxth	r2, r2
   11e64:	2a00      	cmp	r2, #0
   11e66:	d1d2      	bne.n	11e0e <__sfvwrite_r+0x26>
   11e68:	f013 0a01 	ands.w	sl, r3, #1
   11e6c:	d142      	bne.n	11ef4 <__sfvwrite_r+0x10c>
   11e6e:	46d0      	mov	r8, sl
   11e70:	f1b8 0f00 	cmp.w	r8, #0
   11e74:	d023      	beq.n	11ebe <__sfvwrite_r+0xd6>
   11e76:	059a      	lsls	r2, r3, #22
   11e78:	68a7      	ldr	r7, [r4, #8]
   11e7a:	d576      	bpl.n	11f6a <__sfvwrite_r+0x182>
   11e7c:	45b8      	cmp	r8, r7
   11e7e:	f0c0 80a4 	bcc.w	11fca <__sfvwrite_r+0x1e2>
   11e82:	f413 6f90 	tst.w	r3, #1152	; 0x480
   11e86:	f040 80b2 	bne.w	11fee <__sfvwrite_r+0x206>
   11e8a:	6820      	ldr	r0, [r4, #0]
   11e8c:	46bb      	mov	fp, r7
   11e8e:	4651      	mov	r1, sl
   11e90:	465a      	mov	r2, fp
   11e92:	f000 fcf7 	bl	12884 <memmove>
   11e96:	68a2      	ldr	r2, [r4, #8]
   11e98:	6821      	ldr	r1, [r4, #0]
   11e9a:	1bd2      	subs	r2, r2, r7
   11e9c:	eb01 030b 	add.w	r3, r1, fp
   11ea0:	60a2      	str	r2, [r4, #8]
   11ea2:	6023      	str	r3, [r4, #0]
   11ea4:	4642      	mov	r2, r8
   11ea6:	68b3      	ldr	r3, [r6, #8]
   11ea8:	4492      	add	sl, r2
   11eaa:	1a9b      	subs	r3, r3, r2
   11eac:	ebc2 0808 	rsb	r8, r2, r8
   11eb0:	60b3      	str	r3, [r6, #8]
   11eb2:	2b00      	cmp	r3, #0
   11eb4:	d0c6      	beq.n	11e44 <__sfvwrite_r+0x5c>
   11eb6:	89a3      	ldrh	r3, [r4, #12]
   11eb8:	f1b8 0f00 	cmp.w	r8, #0
   11ebc:	d1db      	bne.n	11e76 <__sfvwrite_r+0x8e>
   11ebe:	f8d5 a000 	ldr.w	sl, [r5]
   11ec2:	f8d5 8004 	ldr.w	r8, [r5, #4]
   11ec6:	3508      	adds	r5, #8
   11ec8:	e7d2      	b.n	11e70 <__sfvwrite_r+0x88>
   11eca:	f8d5 a000 	ldr.w	sl, [r5]
   11ece:	f8d5 8004 	ldr.w	r8, [r5, #4]
   11ed2:	3508      	adds	r5, #8
   11ed4:	e7a0      	b.n	11e18 <__sfvwrite_r+0x30>
   11ed6:	4648      	mov	r0, r9
   11ed8:	4621      	mov	r1, r4
   11eda:	f7fa fed5 	bl	cc88 <_fflush_r>
   11ede:	2800      	cmp	r0, #0
   11ee0:	d059      	beq.n	11f96 <__sfvwrite_r+0x1ae>
   11ee2:	89a3      	ldrh	r3, [r4, #12]
   11ee4:	f043 0340 	orr.w	r3, r3, #64	; 0x40
   11ee8:	f04f 30ff 	mov.w	r0, #4294967295
   11eec:	81a3      	strh	r3, [r4, #12]
   11eee:	b003      	add	sp, #12
   11ef0:	e8bd 8ff0 	ldmia.w	sp!, {r4, r5, r6, r7, r8, r9, sl, fp, pc}
   11ef4:	4692      	mov	sl, r2
   11ef6:	9201      	str	r2, [sp, #4]
   11ef8:	4693      	mov	fp, r2
   11efa:	4690      	mov	r8, r2
   11efc:	f1b8 0f00 	cmp.w	r8, #0
   11f00:	d02b      	beq.n	11f5a <__sfvwrite_r+0x172>
   11f02:	9f01      	ldr	r7, [sp, #4]
   11f04:	2f00      	cmp	r7, #0
   11f06:	d064      	beq.n	11fd2 <__sfvwrite_r+0x1ea>
   11f08:	6820      	ldr	r0, [r4, #0]
   11f0a:	6921      	ldr	r1, [r4, #16]
   11f0c:	45c2      	cmp	sl, r8
   11f0e:	bf34      	ite	cc
   11f10:	4653      	movcc	r3, sl
   11f12:	4643      	movcs	r3, r8
   11f14:	4288      	cmp	r0, r1
   11f16:	461f      	mov	r7, r3
   11f18:	f8d4 c008 	ldr.w	ip, [r4, #8]
   11f1c:	6962      	ldr	r2, [r4, #20]
   11f1e:	d903      	bls.n	11f28 <__sfvwrite_r+0x140>
   11f20:	4494      	add	ip, r2
   11f22:	4563      	cmp	r3, ip
   11f24:	f300 80ae 	bgt.w	12084 <__sfvwrite_r+0x29c>
   11f28:	4293      	cmp	r3, r2
   11f2a:	db36      	blt.n	11f9a <__sfvwrite_r+0x1b2>
   11f2c:	4613      	mov	r3, r2
   11f2e:	6a67      	ldr	r7, [r4, #36]	; 0x24
   11f30:	4648      	mov	r0, r9
   11f32:	69e1      	ldr	r1, [r4, #28]
   11f34:	465a      	mov	r2, fp
   11f36:	47b8      	blx	r7
   11f38:	1e07      	subs	r7, r0, #0
   11f3a:	ddd2      	ble.n	11ee2 <__sfvwrite_r+0xfa>
   11f3c:	ebba 0a07 	subs.w	sl, sl, r7
   11f40:	d03a      	beq.n	11fb8 <__sfvwrite_r+0x1d0>
   11f42:	68b3      	ldr	r3, [r6, #8]
   11f44:	44bb      	add	fp, r7
   11f46:	1bdb      	subs	r3, r3, r7
   11f48:	ebc7 0808 	rsb	r8, r7, r8
   11f4c:	60b3      	str	r3, [r6, #8]
   11f4e:	2b00      	cmp	r3, #0
   11f50:	f43f af78 	beq.w	11e44 <__sfvwrite_r+0x5c>
   11f54:	f1b8 0f00 	cmp.w	r8, #0
   11f58:	d1d3      	bne.n	11f02 <__sfvwrite_r+0x11a>
   11f5a:	2700      	movs	r7, #0
   11f5c:	f8d5 b000 	ldr.w	fp, [r5]
   11f60:	f8d5 8004 	ldr.w	r8, [r5, #4]
   11f64:	9701      	str	r7, [sp, #4]
   11f66:	3508      	adds	r5, #8
   11f68:	e7c8      	b.n	11efc <__sfvwrite_r+0x114>
   11f6a:	6820      	ldr	r0, [r4, #0]
   11f6c:	6923      	ldr	r3, [r4, #16]
   11f6e:	4298      	cmp	r0, r3
   11f70:	d802      	bhi.n	11f78 <__sfvwrite_r+0x190>
   11f72:	6963      	ldr	r3, [r4, #20]
   11f74:	4598      	cmp	r8, r3
   11f76:	d272      	bcs.n	1205e <__sfvwrite_r+0x276>
   11f78:	45b8      	cmp	r8, r7
   11f7a:	bf38      	it	cc
   11f7c:	4647      	movcc	r7, r8
   11f7e:	463a      	mov	r2, r7
   11f80:	4651      	mov	r1, sl
   11f82:	f000 fc7f 	bl	12884 <memmove>
   11f86:	68a3      	ldr	r3, [r4, #8]
   11f88:	6822      	ldr	r2, [r4, #0]
   11f8a:	1bdb      	subs	r3, r3, r7
   11f8c:	443a      	add	r2, r7
   11f8e:	60a3      	str	r3, [r4, #8]
   11f90:	6022      	str	r2, [r4, #0]
   11f92:	2b00      	cmp	r3, #0
   11f94:	d09f      	beq.n	11ed6 <__sfvwrite_r+0xee>
   11f96:	463a      	mov	r2, r7
   11f98:	e785      	b.n	11ea6 <__sfvwrite_r+0xbe>
   11f9a:	461a      	mov	r2, r3
   11f9c:	4659      	mov	r1, fp
   11f9e:	9300      	str	r3, [sp, #0]
   11fa0:	f000 fc70 	bl	12884 <memmove>
   11fa4:	9b00      	ldr	r3, [sp, #0]
   11fa6:	68a1      	ldr	r1, [r4, #8]
   11fa8:	6822      	ldr	r2, [r4, #0]
   11faa:	1ac9      	subs	r1, r1, r3
   11fac:	ebba 0a07 	subs.w	sl, sl, r7
   11fb0:	4413      	add	r3, r2
   11fb2:	60a1      	str	r1, [r4, #8]
   11fb4:	6023      	str	r3, [r4, #0]
   11fb6:	d1c4      	bne.n	11f42 <__sfvwrite_r+0x15a>
   11fb8:	4648      	mov	r0, r9
   11fba:	4621      	mov	r1, r4
   11fbc:	f7fa fe64 	bl	cc88 <_fflush_r>
   11fc0:	2800      	cmp	r0, #0
   11fc2:	d18e      	bne.n	11ee2 <__sfvwrite_r+0xfa>
   11fc4:	f8cd a004 	str.w	sl, [sp, #4]
   11fc8:	e7bb      	b.n	11f42 <__sfvwrite_r+0x15a>
   11fca:	6820      	ldr	r0, [r4, #0]
   11fcc:	4647      	mov	r7, r8
   11fce:	46c3      	mov	fp, r8
   11fd0:	e75d      	b.n	11e8e <__sfvwrite_r+0xa6>
   11fd2:	4658      	mov	r0, fp
   11fd4:	210a      	movs	r1, #10
   11fd6:	4642      	mov	r2, r8
   11fd8:	f7fb f9d0 	bl	d37c <memchr>
   11fdc:	2800      	cmp	r0, #0
   11fde:	d07f      	beq.n	120e0 <__sfvwrite_r+0x2f8>
   11fe0:	f100 0a01 	add.w	sl, r0, #1
   11fe4:	2701      	movs	r7, #1
   11fe6:	ebcb 0a0a 	rsb	sl, fp, sl
   11fea:	9701      	str	r7, [sp, #4]
   11fec:	e78c      	b.n	11f08 <__sfvwrite_r+0x120>
   11fee:	6822      	ldr	r2, [r4, #0]
   11ff0:	6921      	ldr	r1, [r4, #16]
   11ff2:	6967      	ldr	r7, [r4, #20]
   11ff4:	ebc1 0c02 	rsb	ip, r1, r2
   11ff8:	eb07 0747 	add.w	r7, r7, r7, lsl #1
   11ffc:	f10c 0201 	add.w	r2, ip, #1
   12000:	eb07 77d7 	add.w	r7, r7, r7, lsr #31
   12004:	4442      	add	r2, r8
   12006:	107f      	asrs	r7, r7, #1
   12008:	4297      	cmp	r7, r2
   1200a:	bf34      	ite	cc
   1200c:	4617      	movcc	r7, r2
   1200e:	463a      	movcs	r2, r7
   12010:	055b      	lsls	r3, r3, #21
   12012:	d54f      	bpl.n	120b4 <__sfvwrite_r+0x2cc>
   12014:	4611      	mov	r1, r2
   12016:	4648      	mov	r0, r9
   12018:	f8cd c000 	str.w	ip, [sp]
   1201c:	f7f6 ff4a 	bl	8eb4 <_malloc_r>
   12020:	f8dd c000 	ldr.w	ip, [sp]
   12024:	4683      	mov	fp, r0
   12026:	2800      	cmp	r0, #0
   12028:	d062      	beq.n	120f0 <__sfvwrite_r+0x308>
   1202a:	4662      	mov	r2, ip
   1202c:	6921      	ldr	r1, [r4, #16]
   1202e:	f8cd c000 	str.w	ip, [sp]
   12032:	f7fb f9ed 	bl	d410 <memcpy>
   12036:	89a2      	ldrh	r2, [r4, #12]
   12038:	f8dd c000 	ldr.w	ip, [sp]
   1203c:	f422 6290 	bic.w	r2, r2, #1152	; 0x480
   12040:	f042 0280 	orr.w	r2, r2, #128	; 0x80
   12044:	81a2      	strh	r2, [r4, #12]
   12046:	eb0b 000c 	add.w	r0, fp, ip
   1204a:	ebcc 0207 	rsb	r2, ip, r7
   1204e:	f8c4 b010 	str.w	fp, [r4, #16]
   12052:	6167      	str	r7, [r4, #20]
   12054:	6020      	str	r0, [r4, #0]
   12056:	60a2      	str	r2, [r4, #8]
   12058:	4647      	mov	r7, r8
   1205a:	46c3      	mov	fp, r8
   1205c:	e717      	b.n	11e8e <__sfvwrite_r+0xa6>
   1205e:	f06f 4200 	mvn.w	r2, #2147483648	; 0x80000000
   12062:	4590      	cmp	r8, r2
   12064:	bf38      	it	cc
   12066:	4642      	movcc	r2, r8
   12068:	fb92 f2f3 	sdiv	r2, r2, r3
   1206c:	fb02 f303 	mul.w	r3, r2, r3
   12070:	6a67      	ldr	r7, [r4, #36]	; 0x24
   12072:	4648      	mov	r0, r9
   12074:	69e1      	ldr	r1, [r4, #28]
   12076:	4652      	mov	r2, sl
   12078:	47b8      	blx	r7
   1207a:	2800      	cmp	r0, #0
   1207c:	f77f af31 	ble.w	11ee2 <__sfvwrite_r+0xfa>
   12080:	4602      	mov	r2, r0
   12082:	e710      	b.n	11ea6 <__sfvwrite_r+0xbe>
   12084:	4662      	mov	r2, ip
   12086:	4659      	mov	r1, fp
   12088:	f8cd c000 	str.w	ip, [sp]
   1208c:	f000 fbfa 	bl	12884 <memmove>
   12090:	f8dd c000 	ldr.w	ip, [sp]
   12094:	6823      	ldr	r3, [r4, #0]
   12096:	4648      	mov	r0, r9
   12098:	4463      	add	r3, ip
   1209a:	6023      	str	r3, [r4, #0]
   1209c:	4621      	mov	r1, r4
   1209e:	f8cd c000 	str.w	ip, [sp]
   120a2:	f7fa fdf1 	bl	cc88 <_fflush_r>
   120a6:	f8dd c000 	ldr.w	ip, [sp]
   120aa:	2800      	cmp	r0, #0
   120ac:	f47f af19 	bne.w	11ee2 <__sfvwrite_r+0xfa>
   120b0:	4667      	mov	r7, ip
   120b2:	e743      	b.n	11f3c <__sfvwrite_r+0x154>
   120b4:	4648      	mov	r0, r9
   120b6:	f8cd c000 	str.w	ip, [sp]
   120ba:	f000 fc49 	bl	12950 <_realloc_r>
   120be:	f8dd c000 	ldr.w	ip, [sp]
   120c2:	4683      	mov	fp, r0
   120c4:	2800      	cmp	r0, #0
   120c6:	d1be      	bne.n	12046 <__sfvwrite_r+0x25e>
   120c8:	4648      	mov	r0, r9
   120ca:	6921      	ldr	r1, [r4, #16]
   120cc:	f7fa ff2c 	bl	cf28 <_free_r>
   120d0:	89a3      	ldrh	r3, [r4, #12]
   120d2:	220c      	movs	r2, #12
   120d4:	f023 0380 	bic.w	r3, r3, #128	; 0x80
   120d8:	b29b      	uxth	r3, r3
   120da:	f8c9 2000 	str.w	r2, [r9]
   120de:	e701      	b.n	11ee4 <__sfvwrite_r+0xfc>
   120e0:	2701      	movs	r7, #1
   120e2:	f108 0a01 	add.w	sl, r8, #1
   120e6:	9701      	str	r7, [sp, #4]
   120e8:	e70e      	b.n	11f08 <__sfvwrite_r+0x120>
   120ea:	f04f 30ff 	mov.w	r0, #4294967295
   120ee:	e6aa      	b.n	11e46 <__sfvwrite_r+0x5e>
   120f0:	230c      	movs	r3, #12
   120f2:	f8c9 3000 	str.w	r3, [r9]
   120f6:	89a3      	ldrh	r3, [r4, #12]
   120f8:	e6f4      	b.n	11ee4 <__sfvwrite_r+0xfc>
   120fa:	bf00      	nop
   120fc:	7ffffc00 	.word	0x7ffffc00

00012100 <rshift>:
   12100:	6902      	ldr	r2, [r0, #16]
   12102:	114b      	asrs	r3, r1, #5
   12104:	4293      	cmp	r3, r2
   12106:	e92d 01f0 	stmdb	sp!, {r4, r5, r6, r7, r8}
   1210a:	f100 0814 	add.w	r8, r0, #20
   1210e:	da28      	bge.n	12162 <rshift+0x62>
   12110:	f011 0c1f 	ands.w	ip, r1, #31
   12114:	eb08 0282 	add.w	r2, r8, r2, lsl #2
   12118:	eb08 0783 	add.w	r7, r8, r3, lsl #2
   1211c:	d028      	beq.n	12170 <rshift+0x70>
   1211e:	f858 4023 	ldr.w	r4, [r8, r3, lsl #2]
   12122:	1d3b      	adds	r3, r7, #4
   12124:	429a      	cmp	r2, r3
   12126:	fa24 f40c 	lsr.w	r4, r4, ip
   1212a:	f1cc 0120 	rsb	r1, ip, #32
   1212e:	d935      	bls.n	1219c <rshift+0x9c>
   12130:	4645      	mov	r5, r8
   12132:	681e      	ldr	r6, [r3, #0]
   12134:	408e      	lsls	r6, r1
   12136:	4334      	orrs	r4, r6
   12138:	f845 4b04 	str.w	r4, [r5], #4
   1213c:	f853 4b04 	ldr.w	r4, [r3], #4
   12140:	4293      	cmp	r3, r2
   12142:	fa24 f40c 	lsr.w	r4, r4, ip
   12146:	d3f4      	bcc.n	12132 <rshift+0x32>
   12148:	1bd3      	subs	r3, r2, r7
   1214a:	3b05      	subs	r3, #5
   1214c:	f023 0303 	bic.w	r3, r3, #3
   12150:	3304      	adds	r3, #4
   12152:	4443      	add	r3, r8
   12154:	601c      	str	r4, [r3, #0]
   12156:	b104      	cbz	r4, 1215a <rshift+0x5a>
   12158:	3304      	adds	r3, #4
   1215a:	ebc8 0303 	rsb	r3, r8, r3
   1215e:	109b      	asrs	r3, r3, #2
   12160:	e016      	b.n	12190 <rshift+0x90>
   12162:	2300      	movs	r3, #0
   12164:	6103      	str	r3, [r0, #16]
   12166:	2300      	movs	r3, #0
   12168:	6143      	str	r3, [r0, #20]
   1216a:	e8bd 01f0 	ldmia.w	sp!, {r4, r5, r6, r7, r8}
   1216e:	4770      	bx	lr
   12170:	42ba      	cmp	r2, r7
   12172:	d9f6      	bls.n	12162 <rshift+0x62>
   12174:	4641      	mov	r1, r8
   12176:	463b      	mov	r3, r7
   12178:	f853 4b04 	ldr.w	r4, [r3], #4
   1217c:	429a      	cmp	r2, r3
   1217e:	f841 4b04 	str.w	r4, [r1], #4
   12182:	d8f9      	bhi.n	12178 <rshift+0x78>
   12184:	43fb      	mvns	r3, r7
   12186:	4413      	add	r3, r2
   12188:	f023 0303 	bic.w	r3, r3, #3
   1218c:	3304      	adds	r3, #4
   1218e:	109b      	asrs	r3, r3, #2
   12190:	6103      	str	r3, [r0, #16]
   12192:	2b00      	cmp	r3, #0
   12194:	d0e7      	beq.n	12166 <rshift+0x66>
   12196:	e8bd 01f0 	ldmia.w	sp!, {r4, r5, r6, r7, r8}
   1219a:	4770      	bx	lr
   1219c:	4643      	mov	r3, r8
   1219e:	e7d9      	b.n	12154 <rshift+0x54>

000121a0 <__gethex>:
   121a0:	e92d 4ff0 	stmdb	sp!, {r4, r5, r6, r7, r8, r9, sl, fp, lr}
   121a4:	b08b      	sub	sp, #44	; 0x2c
   121a6:	4688      	mov	r8, r1
   121a8:	9206      	str	r2, [sp, #24]
   121aa:	9309      	str	r3, [sp, #36]	; 0x24
   121ac:	9007      	str	r0, [sp, #28]
   121ae:	f7fa ffc5 	bl	d13c <_localeconv_r>
   121b2:	6800      	ldr	r0, [r0, #0]
   121b4:	9002      	str	r0, [sp, #8]
   121b6:	f7f7 f9bb 	bl	9530 <strlen>
   121ba:	f8d8 3000 	ldr.w	r3, [r8]
   121be:	9902      	ldr	r1, [sp, #8]
   121c0:	789a      	ldrb	r2, [r3, #2]
   121c2:	4401      	add	r1, r0
   121c4:	2a30      	cmp	r2, #48	; 0x30
   121c6:	9003      	str	r0, [sp, #12]
   121c8:	f811 ac01 	ldrb.w	sl, [r1, #-1]
   121cc:	f103 0502 	add.w	r5, r3, #2
   121d0:	f040 81a4 	bne.w	1251c <__gethex+0x37c>
   121d4:	3303      	adds	r3, #3
   121d6:	2700      	movs	r7, #0
   121d8:	461d      	mov	r5, r3
   121da:	f813 2b01 	ldrb.w	r2, [r3], #1
   121de:	3701      	adds	r7, #1
   121e0:	2a30      	cmp	r2, #48	; 0x30
   121e2:	d0f9      	beq.n	121d8 <__gethex+0x38>
   121e4:	4eb0      	ldr	r6, [pc, #704]	; (124a8 <__gethex+0x308>)
   121e6:	5cb4      	ldrb	r4, [r6, r2]
   121e8:	2c00      	cmp	r4, #0
   121ea:	f000 80f3 	beq.w	123d4 <__gethex+0x234>
   121ee:	782b      	ldrb	r3, [r5, #0]
   121f0:	f04f 0900 	mov.w	r9, #0
   121f4:	5cf3      	ldrb	r3, [r6, r3]
   121f6:	46cb      	mov	fp, r9
   121f8:	2b00      	cmp	r3, #0
   121fa:	f000 8197 	beq.w	1252c <__gethex+0x38c>
   121fe:	1c6b      	adds	r3, r5, #1
   12200:	781a      	ldrb	r2, [r3, #0]
   12202:	461c      	mov	r4, r3
   12204:	5cb2      	ldrb	r2, [r6, r2]
   12206:	3301      	adds	r3, #1
   12208:	2a00      	cmp	r2, #0
   1220a:	d1f9      	bne.n	12200 <__gethex+0x60>
   1220c:	4620      	mov	r0, r4
   1220e:	9902      	ldr	r1, [sp, #8]
   12210:	9a03      	ldr	r2, [sp, #12]
   12212:	f000 fd7d 	bl	12d10 <strncmp>
   12216:	b1e0      	cbz	r0, 12252 <__gethex+0xb2>
   12218:	7823      	ldrb	r3, [r4, #0]
   1221a:	f1bb 0f00 	cmp.w	fp, #0
   1221e:	f000 816b 	beq.w	124f8 <__gethex+0x358>
   12222:	ebc4 0b0b 	rsb	fp, r4, fp
   12226:	ea4f 028b 	mov.w	r2, fp, lsl #2
   1222a:	9204      	str	r2, [sp, #16]
   1222c:	2b50      	cmp	r3, #80	; 0x50
   1222e:	f000 809e 	beq.w	1236e <__gethex+0x1ce>
   12232:	2b70      	cmp	r3, #112	; 0x70
   12234:	f000 809b 	beq.w	1236e <__gethex+0x1ce>
   12238:	4623      	mov	r3, r4
   1223a:	f8c8 3000 	str.w	r3, [r8]
   1223e:	f1b9 0f00 	cmp.w	r9, #0
   12242:	d00c      	beq.n	1225e <__gethex+0xbe>
   12244:	2f00      	cmp	r7, #0
   12246:	bf0c      	ite	eq
   12248:	2006      	moveq	r0, #6
   1224a:	2000      	movne	r0, #0
   1224c:	b00b      	add	sp, #44	; 0x2c
   1224e:	e8bd 8ff0 	ldmia.w	sp!, {r4, r5, r6, r7, r8, r9, sl, fp, pc}
   12252:	f1bb 0f00 	cmp.w	fp, #0
   12256:	f000 818b 	beq.w	12570 <__gethex+0x3d0>
   1225a:	7823      	ldrb	r3, [r4, #0]
   1225c:	e7e1      	b.n	12222 <__gethex+0x82>
   1225e:	1b63      	subs	r3, r4, r5
   12260:	3b01      	subs	r3, #1
   12262:	2b07      	cmp	r3, #7
   12264:	4649      	mov	r1, r9
   12266:	dd04      	ble.n	12272 <__gethex+0xd2>
   12268:	105b      	asrs	r3, r3, #1
   1226a:	2b07      	cmp	r3, #7
   1226c:	f101 0101 	add.w	r1, r1, #1
   12270:	dcfa      	bgt.n	12268 <__gethex+0xc8>
   12272:	9807      	ldr	r0, [sp, #28]
   12274:	f7fb f942 	bl	d4fc <_Balloc>
   12278:	42a5      	cmp	r5, r4
   1227a:	f100 0314 	add.w	r3, r0, #20
   1227e:	9005      	str	r0, [sp, #20]
   12280:	9308      	str	r3, [sp, #32]
   12282:	f080 81cc 	bcs.w	1261e <__gethex+0x47e>
   12286:	469b      	mov	fp, r3
   12288:	9b03      	ldr	r3, [sp, #12]
   1228a:	f04f 0900 	mov.w	r9, #0
   1228e:	464f      	mov	r7, r9
   12290:	f1c3 0c01 	rsb	ip, r3, #1
   12294:	e00f      	b.n	122b6 <__gethex+0x116>
   12296:	2f20      	cmp	r7, #32
   12298:	d060      	beq.n	1235c <__gethex+0x1bc>
   1229a:	463a      	mov	r2, r7
   1229c:	3704      	adds	r7, #4
   1229e:	f814 3c01 	ldrb.w	r3, [r4, #-1]
   122a2:	4545      	cmp	r5, r8
   122a4:	5cf3      	ldrb	r3, [r6, r3]
   122a6:	f003 030f 	and.w	r3, r3, #15
   122aa:	fa03 f302 	lsl.w	r3, r3, r2
   122ae:	ea49 0903 	orr.w	r9, r9, r3
   122b2:	d21a      	bcs.n	122ea <__gethex+0x14a>
   122b4:	4644      	mov	r4, r8
   122b6:	f814 3c01 	ldrb.w	r3, [r4, #-1]
   122ba:	f104 38ff 	add.w	r8, r4, #4294967295
   122be:	4553      	cmp	r3, sl
   122c0:	d1e9      	bne.n	12296 <__gethex+0xf6>
   122c2:	eb08 030c 	add.w	r3, r8, ip
   122c6:	429d      	cmp	r5, r3
   122c8:	d8e5      	bhi.n	12296 <__gethex+0xf6>
   122ca:	4618      	mov	r0, r3
   122cc:	9902      	ldr	r1, [sp, #8]
   122ce:	9a03      	ldr	r2, [sp, #12]
   122d0:	9301      	str	r3, [sp, #4]
   122d2:	f8cd c000 	str.w	ip, [sp]
   122d6:	f000 fd1b 	bl	12d10 <strncmp>
   122da:	9b01      	ldr	r3, [sp, #4]
   122dc:	f8dd c000 	ldr.w	ip, [sp]
   122e0:	2800      	cmp	r0, #0
   122e2:	d1d8      	bne.n	12296 <__gethex+0xf6>
   122e4:	4698      	mov	r8, r3
   122e6:	4545      	cmp	r5, r8
   122e8:	d3e4      	bcc.n	122b4 <__gethex+0x114>
   122ea:	9b08      	ldr	r3, [sp, #32]
   122ec:	f84b 9b04 	str.w	r9, [fp], #4
   122f0:	9805      	ldr	r0, [sp, #20]
   122f2:	ebc3 0b0b 	rsb	fp, r3, fp
   122f6:	ea4f 03ab 	mov.w	r3, fp, asr #2
   122fa:	6103      	str	r3, [r0, #16]
   122fc:	4648      	mov	r0, r9
   122fe:	015d      	lsls	r5, r3, #5
   12300:	f7fb f9c2 	bl	d688 <__hi0bits>
   12304:	9906      	ldr	r1, [sp, #24]
   12306:	1a28      	subs	r0, r5, r0
   12308:	680c      	ldr	r4, [r1, #0]
   1230a:	42a0      	cmp	r0, r4
   1230c:	f300 80ce 	bgt.w	124ac <__gethex+0x30c>
   12310:	f2c0 80f5 	blt.w	124fe <__gethex+0x35e>
   12314:	2600      	movs	r6, #0
   12316:	9806      	ldr	r0, [sp, #24]
   12318:	9904      	ldr	r1, [sp, #16]
   1231a:	6883      	ldr	r3, [r0, #8]
   1231c:	4299      	cmp	r1, r3
   1231e:	f300 8091 	bgt.w	12444 <__gethex+0x2a4>
   12322:	9806      	ldr	r0, [sp, #24]
   12324:	9904      	ldr	r1, [sp, #16]
   12326:	6843      	ldr	r3, [r0, #4]
   12328:	4299      	cmp	r1, r3
   1232a:	f280 80a1 	bge.w	12470 <__gethex+0x2d0>
   1232e:	1a5d      	subs	r5, r3, r1
   12330:	42ac      	cmp	r4, r5
   12332:	f300 80fd 	bgt.w	12530 <__gethex+0x390>
   12336:	68c2      	ldr	r2, [r0, #12]
   12338:	2a02      	cmp	r2, #2
   1233a:	f000 8186 	beq.w	1264a <__gethex+0x4aa>
   1233e:	2a03      	cmp	r2, #3
   12340:	f000 8154 	beq.w	125ec <__gethex+0x44c>
   12344:	2a01      	cmp	r2, #1
   12346:	f000 8171 	beq.w	1262c <__gethex+0x48c>
   1234a:	9807      	ldr	r0, [sp, #28]
   1234c:	9905      	ldr	r1, [sp, #20]
   1234e:	f7fb f8fb 	bl	d548 <_Bfree>
   12352:	9a14      	ldr	r2, [sp, #80]	; 0x50
   12354:	2300      	movs	r3, #0
   12356:	6013      	str	r3, [r2, #0]
   12358:	2050      	movs	r0, #80	; 0x50
   1235a:	e777      	b.n	1224c <__gethex+0xac>
   1235c:	f8cb 9000 	str.w	r9, [fp]
   12360:	f04f 0900 	mov.w	r9, #0
   12364:	f10b 0b04 	add.w	fp, fp, #4
   12368:	464a      	mov	r2, r9
   1236a:	2704      	movs	r7, #4
   1236c:	e797      	b.n	1229e <__gethex+0xfe>
   1236e:	7863      	ldrb	r3, [r4, #1]
   12370:	2b2b      	cmp	r3, #43	; 0x2b
   12372:	f000 8096 	beq.w	124a2 <__gethex+0x302>
   12376:	2b2d      	cmp	r3, #45	; 0x2d
   12378:	d06f      	beq.n	1245a <__gethex+0x2ba>
   1237a:	1c60      	adds	r0, r4, #1
   1237c:	f04f 0b00 	mov.w	fp, #0
   12380:	5cf2      	ldrb	r2, [r6, r3]
   12382:	4b49      	ldr	r3, [pc, #292]	; (124a8 <__gethex+0x308>)
   12384:	1e51      	subs	r1, r2, #1
   12386:	2918      	cmp	r1, #24
   12388:	f63f af56 	bhi.w	12238 <__gethex+0x98>
   1238c:	7841      	ldrb	r1, [r0, #1]
   1238e:	3a10      	subs	r2, #16
   12390:	5c59      	ldrb	r1, [r3, r1]
   12392:	1c43      	adds	r3, r0, #1
   12394:	f101 3cff 	add.w	ip, r1, #4294967295
   12398:	f1bc 0f18 	cmp.w	ip, #24
   1239c:	d812      	bhi.n	123c4 <__gethex+0x224>
   1239e:	3002      	adds	r0, #2
   123a0:	f890 c000 	ldrb.w	ip, [r0]
   123a4:	eb02 0282 	add.w	r2, r2, r2, lsl #2
   123a8:	eb01 0242 	add.w	r2, r1, r2, lsl #1
   123ac:	f816 100c 	ldrb.w	r1, [r6, ip]
   123b0:	4603      	mov	r3, r0
   123b2:	f101 3cff 	add.w	ip, r1, #4294967295
   123b6:	f1bc 0f18 	cmp.w	ip, #24
   123ba:	f1a2 0210 	sub.w	r2, r2, #16
   123be:	f100 0001 	add.w	r0, r0, #1
   123c2:	d9ed      	bls.n	123a0 <__gethex+0x200>
   123c4:	f1bb 0f00 	cmp.w	fp, #0
   123c8:	d000      	beq.n	123cc <__gethex+0x22c>
   123ca:	4252      	negs	r2, r2
   123cc:	9804      	ldr	r0, [sp, #16]
   123ce:	4410      	add	r0, r2
   123d0:	9004      	str	r0, [sp, #16]
   123d2:	e732      	b.n	1223a <__gethex+0x9a>
   123d4:	4628      	mov	r0, r5
   123d6:	9902      	ldr	r1, [sp, #8]
   123d8:	9a03      	ldr	r2, [sp, #12]
   123da:	f000 fc99 	bl	12d10 <strncmp>
   123de:	2800      	cmp	r0, #0
   123e0:	d140      	bne.n	12464 <__gethex+0x2c4>
   123e2:	9803      	ldr	r0, [sp, #12]
   123e4:	5c2b      	ldrb	r3, [r5, r0]
   123e6:	4604      	mov	r4, r0
   123e8:	5cf2      	ldrb	r2, [r6, r3]
   123ea:	442c      	add	r4, r5
   123ec:	2a00      	cmp	r2, #0
   123ee:	f000 8097 	beq.w	12520 <__gethex+0x380>
   123f2:	2b30      	cmp	r3, #48	; 0x30
   123f4:	f040 8142 	bne.w	1267c <__gethex+0x4dc>
   123f8:	1c62      	adds	r2, r4, #1
   123fa:	7813      	ldrb	r3, [r2, #0]
   123fc:	4615      	mov	r5, r2
   123fe:	2b30      	cmp	r3, #48	; 0x30
   12400:	f102 0201 	add.w	r2, r2, #1
   12404:	d0f9      	beq.n	123fa <__gethex+0x25a>
   12406:	5cf3      	ldrb	r3, [r6, r3]
   12408:	f1d3 0901 	rsbs	r9, r3, #1
   1240c:	46a3      	mov	fp, r4
   1240e:	bf38      	it	cc
   12410:	f04f 0900 	movcc.w	r9, #0
   12414:	2701      	movs	r7, #1
   12416:	e6ef      	b.n	121f8 <__gethex+0x58>
   12418:	4447      	add	r7, r8
   1241a:	f857 0c04 	ldr.w	r0, [r7, #-4]
   1241e:	f7fb f933 	bl	d688 <__hi0bits>
   12422:	f1c4 0320 	rsb	r3, r4, #32
   12426:	4298      	cmp	r0, r3
   12428:	f280 80dc 	bge.w	125e4 <__gethex+0x444>
   1242c:	9805      	ldr	r0, [sp, #20]
   1242e:	2101      	movs	r1, #1
   12430:	f7ff fe66 	bl	12100 <rshift>
   12434:	9806      	ldr	r0, [sp, #24]
   12436:	9904      	ldr	r1, [sp, #16]
   12438:	6883      	ldr	r3, [r0, #8]
   1243a:	3101      	adds	r1, #1
   1243c:	4299      	cmp	r1, r3
   1243e:	9104      	str	r1, [sp, #16]
   12440:	f340 80d0 	ble.w	125e4 <__gethex+0x444>
   12444:	9807      	ldr	r0, [sp, #28]
   12446:	9905      	ldr	r1, [sp, #20]
   12448:	f7fb f87e 	bl	d548 <_Bfree>
   1244c:	9a14      	ldr	r2, [sp, #80]	; 0x50
   1244e:	2300      	movs	r3, #0
   12450:	20a3      	movs	r0, #163	; 0xa3
   12452:	6013      	str	r3, [r2, #0]
   12454:	b00b      	add	sp, #44	; 0x2c
   12456:	e8bd 8ff0 	ldmia.w	sp!, {r4, r5, r6, r7, r8, r9, sl, fp, pc}
   1245a:	f04f 0b01 	mov.w	fp, #1
   1245e:	78a3      	ldrb	r3, [r4, #2]
   12460:	1ca0      	adds	r0, r4, #2
   12462:	e78d      	b.n	12380 <__gethex+0x1e0>
   12464:	9404      	str	r4, [sp, #16]
   12466:	782b      	ldrb	r3, [r5, #0]
   12468:	462c      	mov	r4, r5
   1246a:	f04f 0901 	mov.w	r9, #1
   1246e:	e6dd      	b.n	1222c <__gethex+0x8c>
   12470:	2501      	movs	r5, #1
   12472:	b166      	cbz	r6, 1248e <__gethex+0x2ee>
   12474:	9806      	ldr	r0, [sp, #24]
   12476:	68c3      	ldr	r3, [r0, #12]
   12478:	2b02      	cmp	r3, #2
   1247a:	f000 808a 	beq.w	12592 <__gethex+0x3f2>
   1247e:	2b03      	cmp	r3, #3
   12480:	f000 808b 	beq.w	1259a <__gethex+0x3fa>
   12484:	2b01      	cmp	r3, #1
   12486:	f000 80c1 	beq.w	1260c <__gethex+0x46c>
   1248a:	f045 0510 	orr.w	r5, r5, #16
   1248e:	9b05      	ldr	r3, [sp, #20]
   12490:	9814      	ldr	r0, [sp, #80]	; 0x50
   12492:	9909      	ldr	r1, [sp, #36]	; 0x24
   12494:	6003      	str	r3, [r0, #0]
   12496:	9b04      	ldr	r3, [sp, #16]
   12498:	4628      	mov	r0, r5
   1249a:	600b      	str	r3, [r1, #0]
   1249c:	b00b      	add	sp, #44	; 0x2c
   1249e:	e8bd 8ff0 	ldmia.w	sp!, {r4, r5, r6, r7, r8, r9, sl, fp, pc}
   124a2:	f04f 0b00 	mov.w	fp, #0
   124a6:	e7da      	b.n	1245e <__gethex+0x2be>
   124a8:	00014f68 	.word	0x00014f68
   124ac:	1b05      	subs	r5, r0, r4
   124ae:	4629      	mov	r1, r5
   124b0:	9805      	ldr	r0, [sp, #20]
   124b2:	f7fb fc5b 	bl	dd6c <__any_on>
   124b6:	2800      	cmp	r0, #0
   124b8:	d036      	beq.n	12528 <__gethex+0x388>
   124ba:	1e6b      	subs	r3, r5, #1
   124bc:	f003 011f 	and.w	r1, r3, #31
   124c0:	2601      	movs	r6, #1
   124c2:	fa06 f101 	lsl.w	r1, r6, r1
   124c6:	9808      	ldr	r0, [sp, #32]
   124c8:	115a      	asrs	r2, r3, #5
   124ca:	f850 2022 	ldr.w	r2, [r0, r2, lsl #2]
   124ce:	4211      	tst	r1, r2
   124d0:	d00a      	beq.n	124e8 <__gethex+0x348>
   124d2:	42b3      	cmp	r3, r6
   124d4:	f340 80a8 	ble.w	12628 <__gethex+0x488>
   124d8:	9805      	ldr	r0, [sp, #20]
   124da:	1ea9      	subs	r1, r5, #2
   124dc:	f7fb fc46 	bl	dd6c <__any_on>
   124e0:	2800      	cmp	r0, #0
   124e2:	f000 80a1 	beq.w	12628 <__gethex+0x488>
   124e6:	2603      	movs	r6, #3
   124e8:	9b04      	ldr	r3, [sp, #16]
   124ea:	4629      	mov	r1, r5
   124ec:	442b      	add	r3, r5
   124ee:	9805      	ldr	r0, [sp, #20]
   124f0:	9304      	str	r3, [sp, #16]
   124f2:	f7ff fe05 	bl	12100 <rshift>
   124f6:	e70e      	b.n	12316 <__gethex+0x176>
   124f8:	f8cd b010 	str.w	fp, [sp, #16]
   124fc:	e696      	b.n	1222c <__gethex+0x8c>
   124fe:	1a25      	subs	r5, r4, r0
   12500:	9905      	ldr	r1, [sp, #20]
   12502:	462a      	mov	r2, r5
   12504:	9807      	ldr	r0, [sp, #28]
   12506:	f7fb fa03 	bl	d910 <__lshift>
   1250a:	9b04      	ldr	r3, [sp, #16]
   1250c:	9005      	str	r0, [sp, #20]
   1250e:	1b5b      	subs	r3, r3, r5
   12510:	9304      	str	r3, [sp, #16]
   12512:	f100 0314 	add.w	r3, r0, #20
   12516:	9308      	str	r3, [sp, #32]
   12518:	2600      	movs	r6, #0
   1251a:	e6fc      	b.n	12316 <__gethex+0x176>
   1251c:	2700      	movs	r7, #0
   1251e:	e661      	b.n	121e4 <__gethex+0x44>
   12520:	9204      	str	r2, [sp, #16]
   12522:	f04f 0901 	mov.w	r9, #1
   12526:	e681      	b.n	1222c <__gethex+0x8c>
   12528:	4606      	mov	r6, r0
   1252a:	e7dd      	b.n	124e8 <__gethex+0x348>
   1252c:	462c      	mov	r4, r5
   1252e:	e66d      	b.n	1220c <__gethex+0x6c>
   12530:	1e6f      	subs	r7, r5, #1
   12532:	2e00      	cmp	r6, #0
   12534:	d158      	bne.n	125e8 <__gethex+0x448>
   12536:	2f00      	cmp	r7, #0
   12538:	dd04      	ble.n	12544 <__gethex+0x3a4>
   1253a:	9805      	ldr	r0, [sp, #20]
   1253c:	4639      	mov	r1, r7
   1253e:	f7fb fc15 	bl	dd6c <__any_on>
   12542:	4606      	mov	r6, r0
   12544:	f007 031f 	and.w	r3, r7, #31
   12548:	2201      	movs	r2, #1
   1254a:	409a      	lsls	r2, r3
   1254c:	9808      	ldr	r0, [sp, #32]
   1254e:	117f      	asrs	r7, r7, #5
   12550:	f850 3027 	ldr.w	r3, [r0, r7, lsl #2]
   12554:	4629      	mov	r1, r5
   12556:	421a      	tst	r2, r3
   12558:	9805      	ldr	r0, [sp, #20]
   1255a:	bf18      	it	ne
   1255c:	f046 0602 	orrne.w	r6, r6, #2
   12560:	f7ff fdce 	bl	12100 <rshift>
   12564:	9b06      	ldr	r3, [sp, #24]
   12566:	1b64      	subs	r4, r4, r5
   12568:	685b      	ldr	r3, [r3, #4]
   1256a:	2502      	movs	r5, #2
   1256c:	9304      	str	r3, [sp, #16]
   1256e:	e780      	b.n	12472 <__gethex+0x2d2>
   12570:	9903      	ldr	r1, [sp, #12]
   12572:	5c63      	ldrb	r3, [r4, r1]
   12574:	468b      	mov	fp, r1
   12576:	5cf2      	ldrb	r2, [r6, r3]
   12578:	44a3      	add	fp, r4
   1257a:	2a00      	cmp	r2, #0
   1257c:	f000 8081 	beq.w	12682 <__gethex+0x4e2>
   12580:	f10b 0201 	add.w	r2, fp, #1
   12584:	7813      	ldrb	r3, [r2, #0]
   12586:	4614      	mov	r4, r2
   12588:	5cf1      	ldrb	r1, [r6, r3]
   1258a:	3201      	adds	r2, #1
   1258c:	2900      	cmp	r1, #0
   1258e:	d1f9      	bne.n	12584 <__gethex+0x3e4>
   12590:	e647      	b.n	12222 <__gethex+0x82>
   12592:	9a15      	ldr	r2, [sp, #84]	; 0x54
   12594:	f1c2 0201 	rsb	r2, r2, #1
   12598:	9215      	str	r2, [sp, #84]	; 0x54
   1259a:	9b15      	ldr	r3, [sp, #84]	; 0x54
   1259c:	2b00      	cmp	r3, #0
   1259e:	f43f af74 	beq.w	1248a <__gethex+0x2ea>
   125a2:	9b05      	ldr	r3, [sp, #20]
   125a4:	2000      	movs	r0, #0
   125a6:	691e      	ldr	r6, [r3, #16]
   125a8:	9b08      	ldr	r3, [sp, #32]
   125aa:	ea4f 0886 	mov.w	r8, r6, lsl #2
   125ae:	461f      	mov	r7, r3
   125b0:	4447      	add	r7, r8
   125b2:	e003      	b.n	125bc <__gethex+0x41c>
   125b4:	429f      	cmp	r7, r3
   125b6:	f843 0c04 	str.w	r0, [r3, #-4]
   125ba:	d94a      	bls.n	12652 <__gethex+0x4b2>
   125bc:	4619      	mov	r1, r3
   125be:	f853 2b04 	ldr.w	r2, [r3], #4
   125c2:	f1b2 3fff 	cmp.w	r2, #4294967295
   125c6:	d0f5      	beq.n	125b4 <__gethex+0x414>
   125c8:	3201      	adds	r2, #1
   125ca:	9f08      	ldr	r7, [sp, #32]
   125cc:	600a      	str	r2, [r1, #0]
   125ce:	2d02      	cmp	r5, #2
   125d0:	d04d      	beq.n	1266e <__gethex+0x4ce>
   125d2:	9a05      	ldr	r2, [sp, #20]
   125d4:	6913      	ldr	r3, [r2, #16]
   125d6:	429e      	cmp	r6, r3
   125d8:	f6ff af28 	blt.w	1242c <__gethex+0x28c>
   125dc:	f014 041f 	ands.w	r4, r4, #31
   125e0:	f47f af1a 	bne.w	12418 <__gethex+0x278>
   125e4:	2521      	movs	r5, #33	; 0x21
   125e6:	e752      	b.n	1248e <__gethex+0x2ee>
   125e8:	2601      	movs	r6, #1
   125ea:	e7ab      	b.n	12544 <__gethex+0x3a4>
   125ec:	9915      	ldr	r1, [sp, #84]	; 0x54
   125ee:	2900      	cmp	r1, #0
   125f0:	f43f aeab 	beq.w	1234a <__gethex+0x1aa>
   125f4:	9809      	ldr	r0, [sp, #36]	; 0x24
   125f6:	2201      	movs	r2, #1
   125f8:	6003      	str	r3, [r0, #0]
   125fa:	9b05      	ldr	r3, [sp, #20]
   125fc:	9914      	ldr	r1, [sp, #80]	; 0x50
   125fe:	611a      	str	r2, [r3, #16]
   12600:	9b08      	ldr	r3, [sp, #32]
   12602:	2062      	movs	r0, #98	; 0x62
   12604:	601a      	str	r2, [r3, #0]
   12606:	9b05      	ldr	r3, [sp, #20]
   12608:	600b      	str	r3, [r1, #0]
   1260a:	e61f      	b.n	1224c <__gethex+0xac>
   1260c:	07b2      	lsls	r2, r6, #30
   1260e:	f57f af3c 	bpl.w	1248a <__gethex+0x2ea>
   12612:	9908      	ldr	r1, [sp, #32]
   12614:	680b      	ldr	r3, [r1, #0]
   12616:	4333      	orrs	r3, r6
   12618:	07db      	lsls	r3, r3, #31
   1261a:	d4c2      	bmi.n	125a2 <__gethex+0x402>
   1261c:	e735      	b.n	1248a <__gethex+0x2ea>
   1261e:	f8dd b020 	ldr.w	fp, [sp, #32]
   12622:	f04f 0900 	mov.w	r9, #0
   12626:	e660      	b.n	122ea <__gethex+0x14a>
   12628:	2602      	movs	r6, #2
   1262a:	e75d      	b.n	124e8 <__gethex+0x348>
   1262c:	42a5      	cmp	r5, r4
   1262e:	f47f ae8c 	bne.w	1234a <__gethex+0x1aa>
   12632:	2c01      	cmp	r4, #1
   12634:	ddde      	ble.n	125f4 <__gethex+0x454>
   12636:	1e61      	subs	r1, r4, #1
   12638:	9805      	ldr	r0, [sp, #20]
   1263a:	f7fb fb97 	bl	dd6c <__any_on>
   1263e:	2800      	cmp	r0, #0
   12640:	f43f ae83 	beq.w	1234a <__gethex+0x1aa>
   12644:	9a06      	ldr	r2, [sp, #24]
   12646:	6853      	ldr	r3, [r2, #4]
   12648:	e7d4      	b.n	125f4 <__gethex+0x454>
   1264a:	9815      	ldr	r0, [sp, #84]	; 0x54
   1264c:	2800      	cmp	r0, #0
   1264e:	d0d1      	beq.n	125f4 <__gethex+0x454>
   12650:	e67b      	b.n	1234a <__gethex+0x1aa>
   12652:	9805      	ldr	r0, [sp, #20]
   12654:	6883      	ldr	r3, [r0, #8]
   12656:	429e      	cmp	r6, r3
   12658:	da15      	bge.n	12686 <__gethex+0x4e6>
   1265a:	9f08      	ldr	r7, [sp, #32]
   1265c:	4633      	mov	r3, r6
   1265e:	9805      	ldr	r0, [sp, #20]
   12660:	1c5a      	adds	r2, r3, #1
   12662:	2101      	movs	r1, #1
   12664:	eb00 0383 	add.w	r3, r0, r3, lsl #2
   12668:	6102      	str	r2, [r0, #16]
   1266a:	6159      	str	r1, [r3, #20]
   1266c:	e7af      	b.n	125ce <__gethex+0x42e>
   1266e:	9906      	ldr	r1, [sp, #24]
   12670:	680b      	ldr	r3, [r1, #0]
   12672:	3b01      	subs	r3, #1
   12674:	42a3      	cmp	r3, r4
   12676:	d01c      	beq.n	126b2 <__gethex+0x512>
   12678:	2522      	movs	r5, #34	; 0x22
   1267a:	e708      	b.n	1248e <__gethex+0x2ee>
   1267c:	4613      	mov	r3, r2
   1267e:	4625      	mov	r5, r4
   12680:	e6c2      	b.n	12408 <__gethex+0x268>
   12682:	465c      	mov	r4, fp
   12684:	e5cd      	b.n	12222 <__gethex+0x82>
   12686:	6841      	ldr	r1, [r0, #4]
   12688:	9807      	ldr	r0, [sp, #28]
   1268a:	3101      	adds	r1, #1
   1268c:	f7fa ff36 	bl	d4fc <_Balloc>
   12690:	9905      	ldr	r1, [sp, #20]
   12692:	4607      	mov	r7, r0
   12694:	690b      	ldr	r3, [r1, #16]
   12696:	300c      	adds	r0, #12
   12698:	1c9a      	adds	r2, r3, #2
   1269a:	0092      	lsls	r2, r2, #2
   1269c:	310c      	adds	r1, #12
   1269e:	f7fa feb7 	bl	d410 <memcpy>
   126a2:	9807      	ldr	r0, [sp, #28]
   126a4:	9905      	ldr	r1, [sp, #20]
   126a6:	f7fa ff4f 	bl	d548 <_Bfree>
   126aa:	9705      	str	r7, [sp, #20]
   126ac:	693b      	ldr	r3, [r7, #16]
   126ae:	3714      	adds	r7, #20
   126b0:	e7d5      	b.n	1265e <__gethex+0x4be>
   126b2:	f004 031f 	and.w	r3, r4, #31
   126b6:	2201      	movs	r2, #1
   126b8:	409a      	lsls	r2, r3
   126ba:	1164      	asrs	r4, r4, #5
   126bc:	f857 3024 	ldr.w	r3, [r7, r4, lsl #2]
   126c0:	421a      	tst	r2, r3
   126c2:	bf14      	ite	ne
   126c4:	2521      	movne	r5, #33	; 0x21
   126c6:	2522      	moveq	r5, #34	; 0x22
   126c8:	e6e1      	b.n	1248e <__gethex+0x2ee>
   126ca:	bf00      	nop

000126cc <__hexnan>:
   126cc:	e92d 0ff0 	stmdb	sp!, {r4, r5, r6, r7, r8, r9, sl, fp}
   126d0:	680b      	ldr	r3, [r1, #0]
   126d2:	4691      	mov	r9, r2
   126d4:	115a      	asrs	r2, r3, #5
   126d6:	b084      	sub	sp, #16
   126d8:	eb09 0282 	add.w	r2, r9, r2, lsl #2
   126dc:	f013 031f 	ands.w	r3, r3, #31
   126e0:	9200      	str	r2, [sp, #0]
   126e2:	bf18      	it	ne
   126e4:	3204      	addne	r2, #4
   126e6:	9001      	str	r0, [sp, #4]
   126e8:	bf18      	it	ne
   126ea:	9200      	strne	r2, [sp, #0]
   126ec:	9900      	ldr	r1, [sp, #0]
   126ee:	9a01      	ldr	r2, [sp, #4]
   126f0:	9303      	str	r3, [sp, #12]
   126f2:	2300      	movs	r3, #0
   126f4:	1f0f      	subs	r7, r1, #4
   126f6:	f841 3c04 	str.w	r3, [r1, #-4]
   126fa:	6811      	ldr	r1, [r2, #0]
   126fc:	469a      	mov	sl, r3
   126fe:	461d      	mov	r5, r3
   12700:	461e      	mov	r6, r3
   12702:	784b      	ldrb	r3, [r1, #1]
   12704:	46bc      	mov	ip, r7
   12706:	4638      	mov	r0, r7
   12708:	f8df 8150 	ldr.w	r8, [pc, #336]	; 1285c <__hexnan+0x190>
   1270c:	9702      	str	r7, [sp, #8]
   1270e:	b33b      	cbz	r3, 12760 <__hexnan+0x94>
   12710:	f818 2003 	ldrb.w	r2, [r8, r3]
   12714:	2a00      	cmp	r2, #0
   12716:	d148      	bne.n	127aa <__hexnan+0xde>
   12718:	2b20      	cmp	r3, #32
   1271a:	d866      	bhi.n	127ea <__hexnan+0x11e>
   1271c:	42ae      	cmp	r6, r5
   1271e:	dd1b      	ble.n	12758 <__hexnan+0x8c>
   12720:	4560      	cmp	r0, ip
   12722:	d215      	bcs.n	12750 <__hexnan+0x84>
   12724:	f1ba 0f07 	cmp.w	sl, #7
   12728:	dc12      	bgt.n	12750 <__hexnan+0x84>
   1272a:	f1ca 0a08 	rsb	sl, sl, #8
   1272e:	ea4f 0a8a 	mov.w	sl, sl, lsl #2
   12732:	6802      	ldr	r2, [r0, #0]
   12734:	f1ca 0b20 	rsb	fp, sl, #32
   12738:	4603      	mov	r3, r0
   1273a:	685c      	ldr	r4, [r3, #4]
   1273c:	fa04 f70b 	lsl.w	r7, r4, fp
   12740:	4317      	orrs	r7, r2
   12742:	fa24 f20a 	lsr.w	r2, r4, sl
   12746:	601f      	str	r7, [r3, #0]
   12748:	f843 2f04 	str.w	r2, [r3, #4]!
   1274c:	459c      	cmp	ip, r3
   1274e:	d8f4      	bhi.n	1273a <__hexnan+0x6e>
   12750:	4548      	cmp	r0, r9
   12752:	d841      	bhi.n	127d8 <__hexnan+0x10c>
   12754:	f04f 0a08 	mov.w	sl, #8
   12758:	3101      	adds	r1, #1
   1275a:	784b      	ldrb	r3, [r1, #1]
   1275c:	2b00      	cmp	r3, #0
   1275e:	d1d7      	bne.n	12710 <__hexnan+0x44>
   12760:	9f02      	ldr	r7, [sp, #8]
   12762:	2e00      	cmp	r6, #0
   12764:	d044      	beq.n	127f0 <__hexnan+0x124>
   12766:	4560      	cmp	r0, ip
   12768:	d202      	bcs.n	12770 <__hexnan+0xa4>
   1276a:	f1ba 0f07 	cmp.w	sl, #7
   1276e:	dd61      	ble.n	12834 <__hexnan+0x168>
   12770:	4581      	cmp	r9, r0
   12772:	d242      	bcs.n	127fa <__hexnan+0x12e>
   12774:	464b      	mov	r3, r9
   12776:	f850 2b04 	ldr.w	r2, [r0], #4
   1277a:	4287      	cmp	r7, r0
   1277c:	f843 2b04 	str.w	r2, [r3], #4
   12780:	d2f9      	bcs.n	12776 <__hexnan+0xaa>
   12782:	2200      	movs	r2, #0
   12784:	f843 2b04 	str.w	r2, [r3], #4
   12788:	429f      	cmp	r7, r3
   1278a:	d2fb      	bcs.n	12784 <__hexnan+0xb8>
   1278c:	9900      	ldr	r1, [sp, #0]
   1278e:	f851 3c04 	ldr.w	r3, [r1, #-4]
   12792:	b92b      	cbnz	r3, 127a0 <__hexnan+0xd4>
   12794:	45b9      	cmp	r9, r7
   12796:	d040      	beq.n	1281a <__hexnan+0x14e>
   12798:	f857 3d04 	ldr.w	r3, [r7, #-4]!
   1279c:	2b00      	cmp	r3, #0
   1279e:	d0f9      	beq.n	12794 <__hexnan+0xc8>
   127a0:	2005      	movs	r0, #5
   127a2:	b004      	add	sp, #16
   127a4:	e8bd 0ff0 	ldmia.w	sp!, {r4, r5, r6, r7, r8, r9, sl, fp}
   127a8:	4770      	bx	lr
   127aa:	f10a 0a01 	add.w	sl, sl, #1
   127ae:	f1ba 0f08 	cmp.w	sl, #8
   127b2:	f106 0601 	add.w	r6, r6, #1
   127b6:	dc06      	bgt.n	127c6 <__hexnan+0xfa>
   127b8:	6803      	ldr	r3, [r0, #0]
   127ba:	011b      	lsls	r3, r3, #4
   127bc:	f002 020f 	and.w	r2, r2, #15
   127c0:	431a      	orrs	r2, r3
   127c2:	6002      	str	r2, [r0, #0]
   127c4:	e7c8      	b.n	12758 <__hexnan+0x8c>
   127c6:	4548      	cmp	r0, r9
   127c8:	d9c6      	bls.n	12758 <__hexnan+0x8c>
   127ca:	2300      	movs	r3, #0
   127cc:	f840 3c04 	str.w	r3, [r0, #-4]
   127d0:	f04f 0a01 	mov.w	sl, #1
   127d4:	3804      	subs	r0, #4
   127d6:	e7f1      	b.n	127bc <__hexnan+0xf0>
   127d8:	2300      	movs	r3, #0
   127da:	f1a0 0c04 	sub.w	ip, r0, #4
   127de:	f840 3c04 	str.w	r3, [r0, #-4]
   127e2:	4635      	mov	r5, r6
   127e4:	4660      	mov	r0, ip
   127e6:	469a      	mov	sl, r3
   127e8:	e7b6      	b.n	12758 <__hexnan+0x8c>
   127ea:	2b29      	cmp	r3, #41	; 0x29
   127ec:	9f02      	ldr	r7, [sp, #8]
   127ee:	d01b      	beq.n	12828 <__hexnan+0x15c>
   127f0:	2004      	movs	r0, #4
   127f2:	b004      	add	sp, #16
   127f4:	e8bd 0ff0 	ldmia.w	sp!, {r4, r5, r6, r7, r8, r9, sl, fp}
   127f8:	4770      	bx	lr
   127fa:	9a03      	ldr	r2, [sp, #12]
   127fc:	2a00      	cmp	r2, #0
   127fe:	d0c5      	beq.n	1278c <__hexnan+0xc0>
   12800:	9a03      	ldr	r2, [sp, #12]
   12802:	9900      	ldr	r1, [sp, #0]
   12804:	f1c2 0320 	rsb	r3, r2, #32
   12808:	f04f 32ff 	mov.w	r2, #4294967295
   1280c:	40da      	lsrs	r2, r3
   1280e:	f851 3c04 	ldr.w	r3, [r1, #-4]
   12812:	4013      	ands	r3, r2
   12814:	f841 3c04 	str.w	r3, [r1, #-4]
   12818:	e7bb      	b.n	12792 <__hexnan+0xc6>
   1281a:	2301      	movs	r3, #1
   1281c:	2005      	movs	r0, #5
   1281e:	603b      	str	r3, [r7, #0]
   12820:	b004      	add	sp, #16
   12822:	e8bd 0ff0 	ldmia.w	sp!, {r4, r5, r6, r7, r8, r9, sl, fp}
   12826:	4770      	bx	lr
   12828:	9a01      	ldr	r2, [sp, #4]
   1282a:	3102      	adds	r1, #2
   1282c:	6011      	str	r1, [r2, #0]
   1282e:	2e00      	cmp	r6, #0
   12830:	d199      	bne.n	12766 <__hexnan+0x9a>
   12832:	e7dd      	b.n	127f0 <__hexnan+0x124>
   12834:	f1ca 0508 	rsb	r5, sl, #8
   12838:	00ad      	lsls	r5, r5, #2
   1283a:	6802      	ldr	r2, [r0, #0]
   1283c:	f1c5 0620 	rsb	r6, r5, #32
   12840:	4603      	mov	r3, r0
   12842:	6859      	ldr	r1, [r3, #4]
   12844:	fa01 f406 	lsl.w	r4, r1, r6
   12848:	4314      	orrs	r4, r2
   1284a:	fa21 f205 	lsr.w	r2, r1, r5
   1284e:	601c      	str	r4, [r3, #0]
   12850:	f843 2f04 	str.w	r2, [r3, #4]!
   12854:	4563      	cmp	r3, ip
   12856:	d3f4      	bcc.n	12842 <__hexnan+0x176>
   12858:	e78a      	b.n	12770 <__hexnan+0xa4>
   1285a:	bf00      	nop
   1285c:	00014f68 	.word	0x00014f68

00012860 <_isatty_r>:
   12860:	b538      	push	{r3, r4, r5, lr}
   12862:	4c07      	ldr	r4, [pc, #28]	; (12880 <_isatty_r+0x20>)
   12864:	2300      	movs	r3, #0
   12866:	4605      	mov	r5, r0
   12868:	4608      	mov	r0, r1
   1286a:	6023      	str	r3, [r4, #0]
   1286c:	f7f6 f890 	bl	8990 <_isatty>
   12870:	1c43      	adds	r3, r0, #1
   12872:	d000      	beq.n	12876 <_isatty_r+0x16>
   12874:	bd38      	pop	{r3, r4, r5, pc}
   12876:	6823      	ldr	r3, [r4, #0]
   12878:	2b00      	cmp	r3, #0
   1287a:	d0fb      	beq.n	12874 <_isatty_r+0x14>
   1287c:	602b      	str	r3, [r5, #0]
   1287e:	bd38      	pop	{r3, r4, r5, pc}
   12880:	0001db90 	.word	0x0001db90

00012884 <memmove>:
   12884:	4288      	cmp	r0, r1
   12886:	b4f0      	push	{r4, r5, r6, r7}
   12888:	d910      	bls.n	128ac <memmove+0x28>
   1288a:	188c      	adds	r4, r1, r2
   1288c:	42a0      	cmp	r0, r4
   1288e:	d20d      	bcs.n	128ac <memmove+0x28>
   12890:	1885      	adds	r5, r0, r2
   12892:	1e53      	subs	r3, r2, #1
   12894:	b142      	cbz	r2, 128a8 <memmove+0x24>
   12896:	4621      	mov	r1, r4
   12898:	462a      	mov	r2, r5
   1289a:	f811 4d01 	ldrb.w	r4, [r1, #-1]!
   1289e:	3b01      	subs	r3, #1
   128a0:	f802 4d01 	strb.w	r4, [r2, #-1]!
   128a4:	1c5c      	adds	r4, r3, #1
   128a6:	d1f8      	bne.n	1289a <memmove+0x16>
   128a8:	bcf0      	pop	{r4, r5, r6, r7}
   128aa:	4770      	bx	lr
   128ac:	2a0f      	cmp	r2, #15
   128ae:	d944      	bls.n	1293a <memmove+0xb6>
   128b0:	ea40 0301 	orr.w	r3, r0, r1
   128b4:	079b      	lsls	r3, r3, #30
   128b6:	d144      	bne.n	12942 <memmove+0xbe>
   128b8:	f1a2 0710 	sub.w	r7, r2, #16
   128bc:	093f      	lsrs	r7, r7, #4
   128be:	eb00 1607 	add.w	r6, r0, r7, lsl #4
   128c2:	3610      	adds	r6, #16
   128c4:	460c      	mov	r4, r1
   128c6:	4603      	mov	r3, r0
   128c8:	6825      	ldr	r5, [r4, #0]
   128ca:	3310      	adds	r3, #16
   128cc:	f843 5c10 	str.w	r5, [r3, #-16]
   128d0:	6865      	ldr	r5, [r4, #4]
   128d2:	3410      	adds	r4, #16
   128d4:	f843 5c0c 	str.w	r5, [r3, #-12]
   128d8:	f854 5c08 	ldr.w	r5, [r4, #-8]
   128dc:	f843 5c08 	str.w	r5, [r3, #-8]
   128e0:	f854 5c04 	ldr.w	r5, [r4, #-4]
   128e4:	f843 5c04 	str.w	r5, [r3, #-4]
   128e8:	42b3      	cmp	r3, r6
   128ea:	d1ed      	bne.n	128c8 <memmove+0x44>
   128ec:	1c7b      	adds	r3, r7, #1
   128ee:	f002 0c0f 	and.w	ip, r2, #15
   128f2:	011b      	lsls	r3, r3, #4
   128f4:	f1bc 0f03 	cmp.w	ip, #3
   128f8:	4419      	add	r1, r3
   128fa:	4403      	add	r3, r0
   128fc:	d923      	bls.n	12946 <memmove+0xc2>
   128fe:	460e      	mov	r6, r1
   12900:	461d      	mov	r5, r3
   12902:	4664      	mov	r4, ip
   12904:	f856 7b04 	ldr.w	r7, [r6], #4
   12908:	3c04      	subs	r4, #4
   1290a:	2c03      	cmp	r4, #3
   1290c:	f845 7b04 	str.w	r7, [r5], #4
   12910:	d8f8      	bhi.n	12904 <memmove+0x80>
   12912:	f1ac 0404 	sub.w	r4, ip, #4
   12916:	f024 0403 	bic.w	r4, r4, #3
   1291a:	3404      	adds	r4, #4
   1291c:	f002 0203 	and.w	r2, r2, #3
   12920:	4423      	add	r3, r4
   12922:	4421      	add	r1, r4
   12924:	2a00      	cmp	r2, #0
   12926:	d0bf      	beq.n	128a8 <memmove+0x24>
   12928:	441a      	add	r2, r3
   1292a:	f811 4b01 	ldrb.w	r4, [r1], #1
   1292e:	f803 4b01 	strb.w	r4, [r3], #1
   12932:	4293      	cmp	r3, r2
   12934:	d1f9      	bne.n	1292a <memmove+0xa6>
   12936:	bcf0      	pop	{r4, r5, r6, r7}
   12938:	4770      	bx	lr
   1293a:	4603      	mov	r3, r0
   1293c:	2a00      	cmp	r2, #0
   1293e:	d1f3      	bne.n	12928 <memmove+0xa4>
   12940:	e7b2      	b.n	128a8 <memmove+0x24>
   12942:	4603      	mov	r3, r0
   12944:	e7f0      	b.n	12928 <memmove+0xa4>
   12946:	4662      	mov	r2, ip
   12948:	2a00      	cmp	r2, #0
   1294a:	d1ed      	bne.n	12928 <memmove+0xa4>
   1294c:	e7ac      	b.n	128a8 <memmove+0x24>
   1294e:	bf00      	nop

00012950 <_realloc_r>:
   12950:	e92d 4ff0 	stmdb	sp!, {r4, r5, r6, r7, r8, r9, sl, fp, lr}
   12954:	460c      	mov	r4, r1
   12956:	b083      	sub	sp, #12
   12958:	4690      	mov	r8, r2
   1295a:	4681      	mov	r9, r0
   1295c:	2900      	cmp	r1, #0
   1295e:	f000 80ba 	beq.w	12ad6 <_realloc_r+0x186>
   12962:	f7f6 fd43 	bl	93ec <__malloc_lock>
   12966:	f108 060b 	add.w	r6, r8, #11
   1296a:	f854 3c04 	ldr.w	r3, [r4, #-4]
   1296e:	2e16      	cmp	r6, #22
   12970:	f023 0503 	bic.w	r5, r3, #3
   12974:	f1a4 0708 	sub.w	r7, r4, #8
   12978:	d84b      	bhi.n	12a12 <_realloc_r+0xc2>
   1297a:	2110      	movs	r1, #16
   1297c:	460e      	mov	r6, r1
   1297e:	45b0      	cmp	r8, r6
   12980:	d84c      	bhi.n	12a1c <_realloc_r+0xcc>
   12982:	428d      	cmp	r5, r1
   12984:	da51      	bge.n	12a2a <_realloc_r+0xda>
   12986:	f8df b384 	ldr.w	fp, [pc, #900]	; 12d0c <_realloc_r+0x3bc>
   1298a:	1978      	adds	r0, r7, r5
   1298c:	f8db e008 	ldr.w	lr, [fp, #8]
   12990:	4586      	cmp	lr, r0
   12992:	f000 80a6 	beq.w	12ae2 <_realloc_r+0x192>
   12996:	6842      	ldr	r2, [r0, #4]
   12998:	f022 0c01 	bic.w	ip, r2, #1
   1299c:	4484      	add	ip, r0
   1299e:	f8dc c004 	ldr.w	ip, [ip, #4]
   129a2:	f01c 0f01 	tst.w	ip, #1
   129a6:	d054      	beq.n	12a52 <_realloc_r+0x102>
   129a8:	2200      	movs	r2, #0
   129aa:	4610      	mov	r0, r2
   129ac:	07db      	lsls	r3, r3, #31
   129ae:	d46f      	bmi.n	12a90 <_realloc_r+0x140>
   129b0:	f854 3c08 	ldr.w	r3, [r4, #-8]
   129b4:	ebc3 0a07 	rsb	sl, r3, r7
   129b8:	f8da 3004 	ldr.w	r3, [sl, #4]
   129bc:	f023 0303 	bic.w	r3, r3, #3
   129c0:	442b      	add	r3, r5
   129c2:	2800      	cmp	r0, #0
   129c4:	d062      	beq.n	12a8c <_realloc_r+0x13c>
   129c6:	4570      	cmp	r0, lr
   129c8:	f000 80e9 	beq.w	12b9e <_realloc_r+0x24e>
   129cc:	eb02 0e03 	add.w	lr, r2, r3
   129d0:	458e      	cmp	lr, r1
   129d2:	db5b      	blt.n	12a8c <_realloc_r+0x13c>
   129d4:	68c3      	ldr	r3, [r0, #12]
   129d6:	6882      	ldr	r2, [r0, #8]
   129d8:	46d0      	mov	r8, sl
   129da:	60d3      	str	r3, [r2, #12]
   129dc:	609a      	str	r2, [r3, #8]
   129de:	f858 1f08 	ldr.w	r1, [r8, #8]!
   129e2:	f8da 300c 	ldr.w	r3, [sl, #12]
   129e6:	1f2a      	subs	r2, r5, #4
   129e8:	2a24      	cmp	r2, #36	; 0x24
   129ea:	60cb      	str	r3, [r1, #12]
   129ec:	6099      	str	r1, [r3, #8]
   129ee:	f200 8123 	bhi.w	12c38 <_realloc_r+0x2e8>
   129f2:	2a13      	cmp	r2, #19
   129f4:	f240 80b0 	bls.w	12b58 <_realloc_r+0x208>
   129f8:	6823      	ldr	r3, [r4, #0]
   129fa:	2a1b      	cmp	r2, #27
   129fc:	f8ca 3008 	str.w	r3, [sl, #8]
   12a00:	6863      	ldr	r3, [r4, #4]
   12a02:	f8ca 300c 	str.w	r3, [sl, #12]
   12a06:	f200 812b 	bhi.w	12c60 <_realloc_r+0x310>
   12a0a:	3408      	adds	r4, #8
   12a0c:	f10a 0310 	add.w	r3, sl, #16
   12a10:	e0a3      	b.n	12b5a <_realloc_r+0x20a>
   12a12:	f026 0607 	bic.w	r6, r6, #7
   12a16:	2e00      	cmp	r6, #0
   12a18:	4631      	mov	r1, r6
   12a1a:	dab0      	bge.n	1297e <_realloc_r+0x2e>
   12a1c:	230c      	movs	r3, #12
   12a1e:	2000      	movs	r0, #0
   12a20:	f8c9 3000 	str.w	r3, [r9]
   12a24:	b003      	add	sp, #12
   12a26:	e8bd 8ff0 	ldmia.w	sp!, {r4, r5, r6, r7, r8, r9, sl, fp, pc}
   12a2a:	46a0      	mov	r8, r4
   12a2c:	1baa      	subs	r2, r5, r6
   12a2e:	2a0f      	cmp	r2, #15
   12a30:	f003 0301 	and.w	r3, r3, #1
   12a34:	d81a      	bhi.n	12a6c <_realloc_r+0x11c>
   12a36:	432b      	orrs	r3, r5
   12a38:	607b      	str	r3, [r7, #4]
   12a3a:	443d      	add	r5, r7
   12a3c:	686b      	ldr	r3, [r5, #4]
   12a3e:	f043 0301 	orr.w	r3, r3, #1
   12a42:	606b      	str	r3, [r5, #4]
   12a44:	4648      	mov	r0, r9
   12a46:	f7f6 fcd3 	bl	93f0 <__malloc_unlock>
   12a4a:	4640      	mov	r0, r8
   12a4c:	b003      	add	sp, #12
   12a4e:	e8bd 8ff0 	ldmia.w	sp!, {r4, r5, r6, r7, r8, r9, sl, fp, pc}
   12a52:	f022 0203 	bic.w	r2, r2, #3
   12a56:	eb02 0c05 	add.w	ip, r2, r5
   12a5a:	458c      	cmp	ip, r1
   12a5c:	dba6      	blt.n	129ac <_realloc_r+0x5c>
   12a5e:	68c2      	ldr	r2, [r0, #12]
   12a60:	6881      	ldr	r1, [r0, #8]
   12a62:	46a0      	mov	r8, r4
   12a64:	60ca      	str	r2, [r1, #12]
   12a66:	4665      	mov	r5, ip
   12a68:	6091      	str	r1, [r2, #8]
   12a6a:	e7df      	b.n	12a2c <_realloc_r+0xdc>
   12a6c:	19b9      	adds	r1, r7, r6
   12a6e:	4333      	orrs	r3, r6
   12a70:	f042 0001 	orr.w	r0, r2, #1
   12a74:	607b      	str	r3, [r7, #4]
   12a76:	440a      	add	r2, r1
   12a78:	6048      	str	r0, [r1, #4]
   12a7a:	6853      	ldr	r3, [r2, #4]
   12a7c:	3108      	adds	r1, #8
   12a7e:	f043 0301 	orr.w	r3, r3, #1
   12a82:	6053      	str	r3, [r2, #4]
   12a84:	4648      	mov	r0, r9
   12a86:	f7fa fa4f 	bl	cf28 <_free_r>
   12a8a:	e7db      	b.n	12a44 <_realloc_r+0xf4>
   12a8c:	428b      	cmp	r3, r1
   12a8e:	da33      	bge.n	12af8 <_realloc_r+0x1a8>
   12a90:	4641      	mov	r1, r8
   12a92:	4648      	mov	r0, r9
   12a94:	f7f6 fa0e 	bl	8eb4 <_malloc_r>
   12a98:	4680      	mov	r8, r0
   12a9a:	2800      	cmp	r0, #0
   12a9c:	d0d2      	beq.n	12a44 <_realloc_r+0xf4>
   12a9e:	f854 3c04 	ldr.w	r3, [r4, #-4]
   12aa2:	f1a0 0108 	sub.w	r1, r0, #8
   12aa6:	f023 0201 	bic.w	r2, r3, #1
   12aaa:	443a      	add	r2, r7
   12aac:	4291      	cmp	r1, r2
   12aae:	f000 80bc 	beq.w	12c2a <_realloc_r+0x2da>
   12ab2:	1f2a      	subs	r2, r5, #4
   12ab4:	2a24      	cmp	r2, #36	; 0x24
   12ab6:	d86e      	bhi.n	12b96 <_realloc_r+0x246>
   12ab8:	2a13      	cmp	r2, #19
   12aba:	d842      	bhi.n	12b42 <_realloc_r+0x1f2>
   12abc:	4603      	mov	r3, r0
   12abe:	4622      	mov	r2, r4
   12ac0:	6811      	ldr	r1, [r2, #0]
   12ac2:	6019      	str	r1, [r3, #0]
   12ac4:	6851      	ldr	r1, [r2, #4]
   12ac6:	6059      	str	r1, [r3, #4]
   12ac8:	6892      	ldr	r2, [r2, #8]
   12aca:	609a      	str	r2, [r3, #8]
   12acc:	4621      	mov	r1, r4
   12ace:	4648      	mov	r0, r9
   12ad0:	f7fa fa2a 	bl	cf28 <_free_r>
   12ad4:	e7b6      	b.n	12a44 <_realloc_r+0xf4>
   12ad6:	4611      	mov	r1, r2
   12ad8:	b003      	add	sp, #12
   12ada:	e8bd 4ff0 	ldmia.w	sp!, {r4, r5, r6, r7, r8, r9, sl, fp, lr}
   12ade:	f7f6 b9e9 	b.w	8eb4 <_malloc_r>
   12ae2:	f8de 2004 	ldr.w	r2, [lr, #4]
   12ae6:	f106 0c10 	add.w	ip, r6, #16
   12aea:	f022 0203 	bic.w	r2, r2, #3
   12aee:	1950      	adds	r0, r2, r5
   12af0:	4560      	cmp	r0, ip
   12af2:	da3d      	bge.n	12b70 <_realloc_r+0x220>
   12af4:	4670      	mov	r0, lr
   12af6:	e759      	b.n	129ac <_realloc_r+0x5c>
   12af8:	46d0      	mov	r8, sl
   12afa:	f858 0f08 	ldr.w	r0, [r8, #8]!
   12afe:	f8da 100c 	ldr.w	r1, [sl, #12]
   12b02:	1f2a      	subs	r2, r5, #4
   12b04:	2a24      	cmp	r2, #36	; 0x24
   12b06:	60c1      	str	r1, [r0, #12]
   12b08:	6088      	str	r0, [r1, #8]
   12b0a:	f200 80a0 	bhi.w	12c4e <_realloc_r+0x2fe>
   12b0e:	2a13      	cmp	r2, #19
   12b10:	f240 809b 	bls.w	12c4a <_realloc_r+0x2fa>
   12b14:	6821      	ldr	r1, [r4, #0]
   12b16:	2a1b      	cmp	r2, #27
   12b18:	f8ca 1008 	str.w	r1, [sl, #8]
   12b1c:	6861      	ldr	r1, [r4, #4]
   12b1e:	f8ca 100c 	str.w	r1, [sl, #12]
   12b22:	f200 80b2 	bhi.w	12c8a <_realloc_r+0x33a>
   12b26:	3408      	adds	r4, #8
   12b28:	f10a 0210 	add.w	r2, sl, #16
   12b2c:	6821      	ldr	r1, [r4, #0]
   12b2e:	461d      	mov	r5, r3
   12b30:	6011      	str	r1, [r2, #0]
   12b32:	6861      	ldr	r1, [r4, #4]
   12b34:	4657      	mov	r7, sl
   12b36:	6051      	str	r1, [r2, #4]
   12b38:	68a3      	ldr	r3, [r4, #8]
   12b3a:	6093      	str	r3, [r2, #8]
   12b3c:	f8da 3004 	ldr.w	r3, [sl, #4]
   12b40:	e774      	b.n	12a2c <_realloc_r+0xdc>
   12b42:	6823      	ldr	r3, [r4, #0]
   12b44:	2a1b      	cmp	r2, #27
   12b46:	6003      	str	r3, [r0, #0]
   12b48:	6863      	ldr	r3, [r4, #4]
   12b4a:	6043      	str	r3, [r0, #4]
   12b4c:	d862      	bhi.n	12c14 <_realloc_r+0x2c4>
   12b4e:	f100 0308 	add.w	r3, r0, #8
   12b52:	f104 0208 	add.w	r2, r4, #8
   12b56:	e7b3      	b.n	12ac0 <_realloc_r+0x170>
   12b58:	4643      	mov	r3, r8
   12b5a:	6822      	ldr	r2, [r4, #0]
   12b5c:	4675      	mov	r5, lr
   12b5e:	601a      	str	r2, [r3, #0]
   12b60:	6862      	ldr	r2, [r4, #4]
   12b62:	4657      	mov	r7, sl
   12b64:	605a      	str	r2, [r3, #4]
   12b66:	68a2      	ldr	r2, [r4, #8]
   12b68:	609a      	str	r2, [r3, #8]
   12b6a:	f8da 3004 	ldr.w	r3, [sl, #4]
   12b6e:	e75d      	b.n	12a2c <_realloc_r+0xdc>
   12b70:	1b83      	subs	r3, r0, r6
   12b72:	4437      	add	r7, r6
   12b74:	f043 0301 	orr.w	r3, r3, #1
   12b78:	f8cb 7008 	str.w	r7, [fp, #8]
   12b7c:	607b      	str	r3, [r7, #4]
   12b7e:	f854 3c04 	ldr.w	r3, [r4, #-4]
   12b82:	4648      	mov	r0, r9
   12b84:	f003 0301 	and.w	r3, r3, #1
   12b88:	431e      	orrs	r6, r3
   12b8a:	f844 6c04 	str.w	r6, [r4, #-4]
   12b8e:	f7f6 fc2f 	bl	93f0 <__malloc_unlock>
   12b92:	4620      	mov	r0, r4
   12b94:	e75a      	b.n	12a4c <_realloc_r+0xfc>
   12b96:	4621      	mov	r1, r4
   12b98:	f7ff fe74 	bl	12884 <memmove>
   12b9c:	e796      	b.n	12acc <_realloc_r+0x17c>
   12b9e:	eb02 0c03 	add.w	ip, r2, r3
   12ba2:	f106 0210 	add.w	r2, r6, #16
   12ba6:	4594      	cmp	ip, r2
   12ba8:	f6ff af70 	blt.w	12a8c <_realloc_r+0x13c>
   12bac:	4657      	mov	r7, sl
   12bae:	f857 1f08 	ldr.w	r1, [r7, #8]!
   12bb2:	f8da 300c 	ldr.w	r3, [sl, #12]
   12bb6:	1f2a      	subs	r2, r5, #4
   12bb8:	2a24      	cmp	r2, #36	; 0x24
   12bba:	60cb      	str	r3, [r1, #12]
   12bbc:	6099      	str	r1, [r3, #8]
   12bbe:	f200 8086 	bhi.w	12cce <_realloc_r+0x37e>
   12bc2:	2a13      	cmp	r2, #19
   12bc4:	d977      	bls.n	12cb6 <_realloc_r+0x366>
   12bc6:	6823      	ldr	r3, [r4, #0]
   12bc8:	2a1b      	cmp	r2, #27
   12bca:	f8ca 3008 	str.w	r3, [sl, #8]
   12bce:	6863      	ldr	r3, [r4, #4]
   12bd0:	f8ca 300c 	str.w	r3, [sl, #12]
   12bd4:	f200 8084 	bhi.w	12ce0 <_realloc_r+0x390>
   12bd8:	3408      	adds	r4, #8
   12bda:	f10a 0310 	add.w	r3, sl, #16
   12bde:	6822      	ldr	r2, [r4, #0]
   12be0:	601a      	str	r2, [r3, #0]
   12be2:	6862      	ldr	r2, [r4, #4]
   12be4:	605a      	str	r2, [r3, #4]
   12be6:	68a2      	ldr	r2, [r4, #8]
   12be8:	609a      	str	r2, [r3, #8]
   12bea:	ebc6 020c 	rsb	r2, r6, ip
   12bee:	eb0a 0306 	add.w	r3, sl, r6
   12bf2:	f042 0201 	orr.w	r2, r2, #1
   12bf6:	f8cb 3008 	str.w	r3, [fp, #8]
   12bfa:	605a      	str	r2, [r3, #4]
   12bfc:	f8da 3004 	ldr.w	r3, [sl, #4]
   12c00:	4648      	mov	r0, r9
   12c02:	f003 0301 	and.w	r3, r3, #1
   12c06:	431e      	orrs	r6, r3
   12c08:	f8ca 6004 	str.w	r6, [sl, #4]
   12c0c:	f7f6 fbf0 	bl	93f0 <__malloc_unlock>
   12c10:	4638      	mov	r0, r7
   12c12:	e71b      	b.n	12a4c <_realloc_r+0xfc>
   12c14:	68a3      	ldr	r3, [r4, #8]
   12c16:	2a24      	cmp	r2, #36	; 0x24
   12c18:	6083      	str	r3, [r0, #8]
   12c1a:	68e3      	ldr	r3, [r4, #12]
   12c1c:	60c3      	str	r3, [r0, #12]
   12c1e:	d02b      	beq.n	12c78 <_realloc_r+0x328>
   12c20:	f100 0310 	add.w	r3, r0, #16
   12c24:	f104 0210 	add.w	r2, r4, #16
   12c28:	e74a      	b.n	12ac0 <_realloc_r+0x170>
   12c2a:	f850 2c04 	ldr.w	r2, [r0, #-4]
   12c2e:	46a0      	mov	r8, r4
   12c30:	f022 0203 	bic.w	r2, r2, #3
   12c34:	4415      	add	r5, r2
   12c36:	e6f9      	b.n	12a2c <_realloc_r+0xdc>
   12c38:	4621      	mov	r1, r4
   12c3a:	4640      	mov	r0, r8
   12c3c:	4675      	mov	r5, lr
   12c3e:	4657      	mov	r7, sl
   12c40:	f7ff fe20 	bl	12884 <memmove>
   12c44:	f8da 3004 	ldr.w	r3, [sl, #4]
   12c48:	e6f0      	b.n	12a2c <_realloc_r+0xdc>
   12c4a:	4642      	mov	r2, r8
   12c4c:	e76e      	b.n	12b2c <_realloc_r+0x1dc>
   12c4e:	4621      	mov	r1, r4
   12c50:	4640      	mov	r0, r8
   12c52:	461d      	mov	r5, r3
   12c54:	4657      	mov	r7, sl
   12c56:	f7ff fe15 	bl	12884 <memmove>
   12c5a:	f8da 3004 	ldr.w	r3, [sl, #4]
   12c5e:	e6e5      	b.n	12a2c <_realloc_r+0xdc>
   12c60:	68a3      	ldr	r3, [r4, #8]
   12c62:	2a24      	cmp	r2, #36	; 0x24
   12c64:	f8ca 3010 	str.w	r3, [sl, #16]
   12c68:	68e3      	ldr	r3, [r4, #12]
   12c6a:	f8ca 3014 	str.w	r3, [sl, #20]
   12c6e:	d018      	beq.n	12ca2 <_realloc_r+0x352>
   12c70:	3410      	adds	r4, #16
   12c72:	f10a 0318 	add.w	r3, sl, #24
   12c76:	e770      	b.n	12b5a <_realloc_r+0x20a>
   12c78:	6922      	ldr	r2, [r4, #16]
   12c7a:	f100 0318 	add.w	r3, r0, #24
   12c7e:	6102      	str	r2, [r0, #16]
   12c80:	6961      	ldr	r1, [r4, #20]
   12c82:	f104 0218 	add.w	r2, r4, #24
   12c86:	6141      	str	r1, [r0, #20]
   12c88:	e71a      	b.n	12ac0 <_realloc_r+0x170>
   12c8a:	68a1      	ldr	r1, [r4, #8]
   12c8c:	2a24      	cmp	r2, #36	; 0x24
   12c8e:	f8ca 1010 	str.w	r1, [sl, #16]
   12c92:	68e1      	ldr	r1, [r4, #12]
   12c94:	f8ca 1014 	str.w	r1, [sl, #20]
   12c98:	d00f      	beq.n	12cba <_realloc_r+0x36a>
   12c9a:	3410      	adds	r4, #16
   12c9c:	f10a 0218 	add.w	r2, sl, #24
   12ca0:	e744      	b.n	12b2c <_realloc_r+0x1dc>
   12ca2:	6922      	ldr	r2, [r4, #16]
   12ca4:	f10a 0320 	add.w	r3, sl, #32
   12ca8:	f8ca 2018 	str.w	r2, [sl, #24]
   12cac:	6962      	ldr	r2, [r4, #20]
   12cae:	3418      	adds	r4, #24
   12cb0:	f8ca 201c 	str.w	r2, [sl, #28]
   12cb4:	e751      	b.n	12b5a <_realloc_r+0x20a>
   12cb6:	463b      	mov	r3, r7
   12cb8:	e791      	b.n	12bde <_realloc_r+0x28e>
   12cba:	6921      	ldr	r1, [r4, #16]
   12cbc:	f10a 0220 	add.w	r2, sl, #32
   12cc0:	f8ca 1018 	str.w	r1, [sl, #24]
   12cc4:	6961      	ldr	r1, [r4, #20]
   12cc6:	3418      	adds	r4, #24
   12cc8:	f8ca 101c 	str.w	r1, [sl, #28]
   12ccc:	e72e      	b.n	12b2c <_realloc_r+0x1dc>
   12cce:	4621      	mov	r1, r4
   12cd0:	4638      	mov	r0, r7
   12cd2:	f8cd c004 	str.w	ip, [sp, #4]
   12cd6:	f7ff fdd5 	bl	12884 <memmove>
   12cda:	f8dd c004 	ldr.w	ip, [sp, #4]
   12cde:	e784      	b.n	12bea <_realloc_r+0x29a>
   12ce0:	68a3      	ldr	r3, [r4, #8]
   12ce2:	2a24      	cmp	r2, #36	; 0x24
   12ce4:	f8ca 3010 	str.w	r3, [sl, #16]
   12ce8:	68e3      	ldr	r3, [r4, #12]
   12cea:	f8ca 3014 	str.w	r3, [sl, #20]
   12cee:	d003      	beq.n	12cf8 <_realloc_r+0x3a8>
   12cf0:	3410      	adds	r4, #16
   12cf2:	f10a 0318 	add.w	r3, sl, #24
   12cf6:	e772      	b.n	12bde <_realloc_r+0x28e>
   12cf8:	6922      	ldr	r2, [r4, #16]
   12cfa:	f10a 0320 	add.w	r3, sl, #32
   12cfe:	f8ca 2018 	str.w	r2, [sl, #24]
   12d02:	6962      	ldr	r2, [r4, #20]
   12d04:	3418      	adds	r4, #24
   12d06:	f8ca 201c 	str.w	r2, [sl, #28]
   12d0a:	e768      	b.n	12bde <_realloc_r+0x28e>
   12d0c:	0001d5ec 	.word	0x0001d5ec

00012d10 <strncmp>:
   12d10:	b430      	push	{r4, r5}
   12d12:	2a00      	cmp	r2, #0
   12d14:	d04a      	beq.n	12dac <strncmp+0x9c>
   12d16:	ea40 0301 	orr.w	r3, r0, r1
   12d1a:	f013 0303 	ands.w	r3, r3, #3
   12d1e:	d12d      	bne.n	12d7c <strncmp+0x6c>
   12d20:	2a03      	cmp	r2, #3
   12d22:	d92b      	bls.n	12d7c <strncmp+0x6c>
   12d24:	6804      	ldr	r4, [r0, #0]
   12d26:	680d      	ldr	r5, [r1, #0]
   12d28:	42ac      	cmp	r4, r5
   12d2a:	d127      	bne.n	12d7c <strncmp+0x6c>
   12d2c:	3a04      	subs	r2, #4
   12d2e:	d03d      	beq.n	12dac <strncmp+0x9c>
   12d30:	f1a4 3501 	sub.w	r5, r4, #16843009	; 0x1010101
   12d34:	ea25 0404 	bic.w	r4, r5, r4
   12d38:	f014 3f80 	tst.w	r4, #2155905152	; 0x80808080
   12d3c:	d13c      	bne.n	12db8 <strncmp+0xa8>
   12d3e:	460c      	mov	r4, r1
   12d40:	4603      	mov	r3, r0
   12d42:	e00e      	b.n	12d62 <strncmp+0x52>
   12d44:	685b      	ldr	r3, [r3, #4]
   12d46:	6864      	ldr	r4, [r4, #4]
   12d48:	f1a3 3501 	sub.w	r5, r3, #16843009	; 0x1010101
   12d4c:	42a3      	cmp	r3, r4
   12d4e:	ea25 0503 	bic.w	r5, r5, r3
   12d52:	d113      	bne.n	12d7c <strncmp+0x6c>
   12d54:	3a04      	subs	r2, #4
   12d56:	d029      	beq.n	12dac <strncmp+0x9c>
   12d58:	f015 3f80 	tst.w	r5, #2155905152	; 0x80808080
   12d5c:	d129      	bne.n	12db2 <strncmp+0xa2>
   12d5e:	4603      	mov	r3, r0
   12d60:	460c      	mov	r4, r1
   12d62:	2a03      	cmp	r2, #3
   12d64:	f100 0004 	add.w	r0, r0, #4
   12d68:	f101 0104 	add.w	r1, r1, #4
   12d6c:	d8ea      	bhi.n	12d44 <strncmp+0x34>
   12d6e:	1e55      	subs	r5, r2, #1
   12d70:	b92a      	cbnz	r2, 12d7e <strncmp+0x6e>
   12d72:	7918      	ldrb	r0, [r3, #4]
   12d74:	7922      	ldrb	r2, [r4, #4]
   12d76:	1a80      	subs	r0, r0, r2
   12d78:	bc30      	pop	{r4, r5}
   12d7a:	4770      	bx	lr
   12d7c:	1e55      	subs	r5, r2, #1
   12d7e:	7803      	ldrb	r3, [r0, #0]
   12d80:	780a      	ldrb	r2, [r1, #0]
   12d82:	4293      	cmp	r3, r2
   12d84:	d11a      	bne.n	12dbc <strncmp+0xac>
   12d86:	b1dd      	cbz	r5, 12dc0 <strncmp+0xb0>
   12d88:	b1b3      	cbz	r3, 12db8 <strncmp+0xa8>
   12d8a:	1c6c      	adds	r4, r5, #1
   12d8c:	440c      	add	r4, r1
   12d8e:	1c8b      	adds	r3, r1, #2
   12d90:	4601      	mov	r1, r0
   12d92:	e004      	b.n	12d9e <strncmp+0x8e>
   12d94:	42a3      	cmp	r3, r4
   12d96:	d00c      	beq.n	12db2 <strncmp+0xa2>
   12d98:	3301      	adds	r3, #1
   12d9a:	2800      	cmp	r0, #0
   12d9c:	d0ec      	beq.n	12d78 <strncmp+0x68>
   12d9e:	f811 0f01 	ldrb.w	r0, [r1, #1]!
   12da2:	f813 2c01 	ldrb.w	r2, [r3, #-1]
   12da6:	4290      	cmp	r0, r2
   12da8:	d0f4      	beq.n	12d94 <strncmp+0x84>
   12daa:	e7e4      	b.n	12d76 <strncmp+0x66>
   12dac:	4610      	mov	r0, r2
   12dae:	bc30      	pop	{r4, r5}
   12db0:	4770      	bx	lr
   12db2:	2000      	movs	r0, #0
   12db4:	bc30      	pop	{r4, r5}
   12db6:	4770      	bx	lr
   12db8:	4618      	mov	r0, r3
   12dba:	e7dd      	b.n	12d78 <strncmp+0x68>
   12dbc:	4618      	mov	r0, r3
   12dbe:	e7da      	b.n	12d76 <strncmp+0x66>
   12dc0:	4628      	mov	r0, r5
   12dc2:	e7d9      	b.n	12d78 <strncmp+0x68>

00012dc4 <__ssprint_r>:
   12dc4:	e92d 4ff0 	stmdb	sp!, {r4, r5, r6, r7, r8, r9, sl, fp, lr}
   12dc8:	6894      	ldr	r4, [r2, #8]
   12dca:	b083      	sub	sp, #12
   12dcc:	4692      	mov	sl, r2
   12dce:	4680      	mov	r8, r0
   12dd0:	460d      	mov	r5, r1
   12dd2:	6816      	ldr	r6, [r2, #0]
   12dd4:	2c00      	cmp	r4, #0
   12dd6:	d06f      	beq.n	12eb8 <__ssprint_r+0xf4>
   12dd8:	f04f 0b00 	mov.w	fp, #0
   12ddc:	6808      	ldr	r0, [r1, #0]
   12dde:	688b      	ldr	r3, [r1, #8]
   12de0:	465c      	mov	r4, fp
   12de2:	2c00      	cmp	r4, #0
   12de4:	d043      	beq.n	12e6e <__ssprint_r+0xaa>
   12de6:	429c      	cmp	r4, r3
   12de8:	461f      	mov	r7, r3
   12dea:	d345      	bcc.n	12e78 <__ssprint_r+0xb4>
   12dec:	89ab      	ldrh	r3, [r5, #12]
   12dee:	f413 6f90 	tst.w	r3, #1152	; 0x480
   12df2:	d044      	beq.n	12e7e <__ssprint_r+0xba>
   12df4:	696f      	ldr	r7, [r5, #20]
   12df6:	6929      	ldr	r1, [r5, #16]
   12df8:	eb07 0747 	add.w	r7, r7, r7, lsl #1
   12dfc:	eb07 77d7 	add.w	r7, r7, r7, lsr #31
   12e00:	ebc1 0900 	rsb	r9, r1, r0
   12e04:	1c62      	adds	r2, r4, #1
   12e06:	107f      	asrs	r7, r7, #1
   12e08:	444a      	add	r2, r9
   12e0a:	4297      	cmp	r7, r2
   12e0c:	bf34      	ite	cc
   12e0e:	4617      	movcc	r7, r2
   12e10:	463a      	movcs	r2, r7
   12e12:	055b      	lsls	r3, r3, #21
   12e14:	d535      	bpl.n	12e82 <__ssprint_r+0xbe>
   12e16:	4611      	mov	r1, r2
   12e18:	4640      	mov	r0, r8
   12e1a:	f7f6 f84b 	bl	8eb4 <_malloc_r>
   12e1e:	2800      	cmp	r0, #0
   12e20:	d039      	beq.n	12e96 <__ssprint_r+0xd2>
   12e22:	6929      	ldr	r1, [r5, #16]
   12e24:	464a      	mov	r2, r9
   12e26:	9001      	str	r0, [sp, #4]
   12e28:	f7fa faf2 	bl	d410 <memcpy>
   12e2c:	89aa      	ldrh	r2, [r5, #12]
   12e2e:	9b01      	ldr	r3, [sp, #4]
   12e30:	f422 6290 	bic.w	r2, r2, #1152	; 0x480
   12e34:	f042 0280 	orr.w	r2, r2, #128	; 0x80
   12e38:	81aa      	strh	r2, [r5, #12]
   12e3a:	ebc9 0207 	rsb	r2, r9, r7
   12e3e:	eb03 0009 	add.w	r0, r3, r9
   12e42:	616f      	str	r7, [r5, #20]
   12e44:	612b      	str	r3, [r5, #16]
   12e46:	6028      	str	r0, [r5, #0]
   12e48:	60aa      	str	r2, [r5, #8]
   12e4a:	4627      	mov	r7, r4
   12e4c:	46a1      	mov	r9, r4
   12e4e:	464a      	mov	r2, r9
   12e50:	4659      	mov	r1, fp
   12e52:	f7ff fd17 	bl	12884 <memmove>
   12e56:	f8da 2008 	ldr.w	r2, [sl, #8]
   12e5a:	68ab      	ldr	r3, [r5, #8]
   12e5c:	6828      	ldr	r0, [r5, #0]
   12e5e:	1bdb      	subs	r3, r3, r7
   12e60:	4448      	add	r0, r9
   12e62:	1b14      	subs	r4, r2, r4
   12e64:	60ab      	str	r3, [r5, #8]
   12e66:	6028      	str	r0, [r5, #0]
   12e68:	f8ca 4008 	str.w	r4, [sl, #8]
   12e6c:	b324      	cbz	r4, 12eb8 <__ssprint_r+0xf4>
   12e6e:	f8d6 b000 	ldr.w	fp, [r6]
   12e72:	6874      	ldr	r4, [r6, #4]
   12e74:	3608      	adds	r6, #8
   12e76:	e7b4      	b.n	12de2 <__ssprint_r+0x1e>
   12e78:	4627      	mov	r7, r4
   12e7a:	46a1      	mov	r9, r4
   12e7c:	e7e7      	b.n	12e4e <__ssprint_r+0x8a>
   12e7e:	46b9      	mov	r9, r7
   12e80:	e7e5      	b.n	12e4e <__ssprint_r+0x8a>
   12e82:	4640      	mov	r0, r8
   12e84:	f7ff fd64 	bl	12950 <_realloc_r>
   12e88:	4603      	mov	r3, r0
   12e8a:	2800      	cmp	r0, #0
   12e8c:	d1d5      	bne.n	12e3a <__ssprint_r+0x76>
   12e8e:	4640      	mov	r0, r8
   12e90:	6929      	ldr	r1, [r5, #16]
   12e92:	f7fa f849 	bl	cf28 <_free_r>
   12e96:	89aa      	ldrh	r2, [r5, #12]
   12e98:	230c      	movs	r3, #12
   12e9a:	f8c8 3000 	str.w	r3, [r8]
   12e9e:	f042 0240 	orr.w	r2, r2, #64	; 0x40
   12ea2:	2300      	movs	r3, #0
   12ea4:	f04f 30ff 	mov.w	r0, #4294967295
   12ea8:	81aa      	strh	r2, [r5, #12]
   12eaa:	f8ca 3008 	str.w	r3, [sl, #8]
   12eae:	f8ca 3004 	str.w	r3, [sl, #4]
   12eb2:	b003      	add	sp, #12
   12eb4:	e8bd 8ff0 	ldmia.w	sp!, {r4, r5, r6, r7, r8, r9, sl, fp, pc}
   12eb8:	4620      	mov	r0, r4
   12eba:	f8ca 4004 	str.w	r4, [sl, #4]
   12ebe:	b003      	add	sp, #12
   12ec0:	e8bd 8ff0 	ldmia.w	sp!, {r4, r5, r6, r7, r8, r9, sl, fp, pc}

00012ec4 <_svfiprintf_r>:
   12ec4:	e92d 4ff0 	stmdb	sp!, {r4, r5, r6, r7, r8, r9, sl, fp, lr}
   12ec8:	468a      	mov	sl, r1
   12eca:	8989      	ldrh	r1, [r1, #12]
   12ecc:	b0b1      	sub	sp, #196	; 0xc4
   12ece:	4690      	mov	r8, r2
   12ed0:	060a      	lsls	r2, r1, #24
   12ed2:	9309      	str	r3, [sp, #36]	; 0x24
   12ed4:	9002      	str	r0, [sp, #8]
   12ed6:	d504      	bpl.n	12ee2 <_svfiprintf_r+0x1e>
   12ed8:	f8da 3010 	ldr.w	r3, [sl, #16]
   12edc:	2b00      	cmp	r3, #0
   12ede:	f000 854c 	beq.w	1397a <_svfiprintf_r+0xab6>
   12ee2:	2300      	movs	r3, #0
   12ee4:	af20      	add	r7, sp, #128	; 0x80
   12ee6:	930b      	str	r3, [sp, #44]	; 0x2c
   12ee8:	9315      	str	r3, [sp, #84]	; 0x54
   12eea:	9314      	str	r3, [sp, #80]	; 0x50
   12eec:	9308      	str	r3, [sp, #32]
   12eee:	9713      	str	r7, [sp, #76]	; 0x4c
   12ef0:	463e      	mov	r6, r7
   12ef2:	f898 3000 	ldrb.w	r3, [r8]
   12ef6:	2b00      	cmp	r3, #0
   12ef8:	f000 83a2 	beq.w	13640 <_svfiprintf_r+0x77c>
   12efc:	2b25      	cmp	r3, #37	; 0x25
   12efe:	f000 839f 	beq.w	13640 <_svfiprintf_r+0x77c>
   12f02:	f108 0201 	add.w	r2, r8, #1
   12f06:	e001      	b.n	12f0c <_svfiprintf_r+0x48>
   12f08:	2b25      	cmp	r3, #37	; 0x25
   12f0a:	d004      	beq.n	12f16 <_svfiprintf_r+0x52>
   12f0c:	7813      	ldrb	r3, [r2, #0]
   12f0e:	4614      	mov	r4, r2
   12f10:	3201      	adds	r2, #1
   12f12:	2b00      	cmp	r3, #0
   12f14:	d1f8      	bne.n	12f08 <_svfiprintf_r+0x44>
   12f16:	ebc8 0504 	rsb	r5, r8, r4
   12f1a:	b17d      	cbz	r5, 12f3c <_svfiprintf_r+0x78>
   12f1c:	9b14      	ldr	r3, [sp, #80]	; 0x50
   12f1e:	9a15      	ldr	r2, [sp, #84]	; 0x54
   12f20:	3301      	adds	r3, #1
   12f22:	442a      	add	r2, r5
   12f24:	2b07      	cmp	r3, #7
   12f26:	f8c6 8000 	str.w	r8, [r6]
   12f2a:	6075      	str	r5, [r6, #4]
   12f2c:	9215      	str	r2, [sp, #84]	; 0x54
   12f2e:	9314      	str	r3, [sp, #80]	; 0x50
   12f30:	f300 8430 	bgt.w	13794 <_svfiprintf_r+0x8d0>
   12f34:	3608      	adds	r6, #8
   12f36:	9808      	ldr	r0, [sp, #32]
   12f38:	4428      	add	r0, r5
   12f3a:	9008      	str	r0, [sp, #32]
   12f3c:	7823      	ldrb	r3, [r4, #0]
   12f3e:	2b00      	cmp	r3, #0
   12f40:	f000 83ca 	beq.w	136d8 <_svfiprintf_r+0x814>
   12f44:	2100      	movs	r1, #0
   12f46:	f04f 0200 	mov.w	r2, #0
   12f4a:	f104 0801 	add.w	r8, r4, #1
   12f4e:	7863      	ldrb	r3, [r4, #1]
   12f50:	f04f 34ff 	mov.w	r4, #4294967295
   12f54:	f88d 2047 	strb.w	r2, [sp, #71]	; 0x47
   12f58:	9105      	str	r1, [sp, #20]
   12f5a:	9101      	str	r1, [sp, #4]
   12f5c:	9403      	str	r4, [sp, #12]
   12f5e:	4608      	mov	r0, r1
   12f60:	f108 0801 	add.w	r8, r8, #1
   12f64:	f1a3 0220 	sub.w	r2, r3, #32
   12f68:	2a58      	cmp	r2, #88	; 0x58
   12f6a:	f200 829e 	bhi.w	134aa <_svfiprintf_r+0x5e6>
   12f6e:	e8df f012 	tbh	[pc, r2, lsl #1]
   12f72:	0103      	.short	0x0103
   12f74:	029c029c 	.word	0x029c029c
   12f78:	029c00cf 	.word	0x029c00cf
   12f7c:	029c029c 	.word	0x029c029c
   12f80:	029c029c 	.word	0x029c029c
   12f84:	0059029c 	.word	0x0059029c
   12f88:	029c00d6 	.word	0x029c00d6
   12f8c:	023d0064 	.word	0x023d0064
   12f90:	022f029c 	.word	0x022f029c
   12f94:	02210221 	.word	0x02210221
   12f98:	02210221 	.word	0x02210221
   12f9c:	02210221 	.word	0x02210221
   12fa0:	02210221 	.word	0x02210221
   12fa4:	029c0221 	.word	0x029c0221
   12fa8:	029c029c 	.word	0x029c029c
   12fac:	029c029c 	.word	0x029c029c
   12fb0:	029c029c 	.word	0x029c029c
   12fb4:	029c029c 	.word	0x029c029c
   12fb8:	0201029c 	.word	0x0201029c
   12fbc:	029c029c 	.word	0x029c029c
   12fc0:	029c029c 	.word	0x029c029c
   12fc4:	029c029c 	.word	0x029c029c
   12fc8:	029c029c 	.word	0x029c029c
   12fcc:	029c029c 	.word	0x029c029c
   12fd0:	029c027a 	.word	0x029c027a
   12fd4:	029c029c 	.word	0x029c029c
   12fd8:	029c029c 	.word	0x029c029c
   12fdc:	029c025a 	.word	0x029c025a
   12fe0:	0172029c 	.word	0x0172029c
   12fe4:	029c029c 	.word	0x029c029c
   12fe8:	029c029c 	.word	0x029c029c
   12fec:	029c029c 	.word	0x029c029c
   12ff0:	029c029c 	.word	0x029c029c
   12ff4:	029c029c 	.word	0x029c029c
   12ff8:	01b4010a 	.word	0x01b4010a
   12ffc:	029c029c 	.word	0x029c029c
   13000:	01ab029c 	.word	0x01ab029c
   13004:	029c01b4 	.word	0x029c01b4
   13008:	01a0029c 	.word	0x01a0029c
   1300c:	018d029c 	.word	0x018d029c
   13010:	00b800a6 	.word	0x00b800a6
   13014:	029c01f8 	.word	0x029c01f8
   13018:	029c01d2 	.word	0x029c01d2
   1301c:	029c006b 	.word	0x029c006b
   13020:	00da029c 	.word	0x00da029c
   13024:	f8dd c024 	ldr.w	ip, [sp, #36]	; 0x24
   13028:	f8dc 0000 	ldr.w	r0, [ip]
   1302c:	f10c 0304 	add.w	r3, ip, #4
   13030:	2800      	cmp	r0, #0
   13032:	f280 841e 	bge.w	13872 <_svfiprintf_r+0x9ae>
   13036:	4240      	negs	r0, r0
   13038:	9309      	str	r3, [sp, #36]	; 0x24
   1303a:	9c01      	ldr	r4, [sp, #4]
   1303c:	f044 0404 	orr.w	r4, r4, #4
   13040:	9401      	str	r4, [sp, #4]
   13042:	f898 3000 	ldrb.w	r3, [r8]
   13046:	e78b      	b.n	12f60 <_svfiprintf_r+0x9c>
   13048:	9c01      	ldr	r4, [sp, #4]
   1304a:	9005      	str	r0, [sp, #20]
   1304c:	06a0      	lsls	r0, r4, #26
   1304e:	f140 81f5 	bpl.w	1343c <_svfiprintf_r+0x578>
   13052:	9d09      	ldr	r5, [sp, #36]	; 0x24
   13054:	1deb      	adds	r3, r5, #7
   13056:	f023 0307 	bic.w	r3, r3, #7
   1305a:	f103 0c08 	add.w	ip, r3, #8
   1305e:	e9d3 4500 	ldrd	r4, r5, [r3]
   13062:	f8cd c024 	str.w	ip, [sp, #36]	; 0x24
   13066:	2301      	movs	r3, #1
   13068:	9a03      	ldr	r2, [sp, #12]
   1306a:	f04f 0100 	mov.w	r1, #0
   1306e:	2000      	movs	r0, #0
   13070:	f88d 1047 	strb.w	r1, [sp, #71]	; 0x47
   13074:	9206      	str	r2, [sp, #24]
   13076:	9007      	str	r0, [sp, #28]
   13078:	9903      	ldr	r1, [sp, #12]
   1307a:	2900      	cmp	r1, #0
   1307c:	db05      	blt.n	1308a <_svfiprintf_r+0x1c6>
   1307e:	f8dd c004 	ldr.w	ip, [sp, #4]
   13082:	f02c 0c80 	bic.w	ip, ip, #128	; 0x80
   13086:	f8cd c004 	str.w	ip, [sp, #4]
   1308a:	ea54 0005 	orrs.w	r0, r4, r5
   1308e:	f040 82d9 	bne.w	13644 <_svfiprintf_r+0x780>
   13092:	9903      	ldr	r1, [sp, #12]
   13094:	2900      	cmp	r1, #0
   13096:	f040 82d5 	bne.w	13644 <_svfiprintf_r+0x780>
   1309a:	b91b      	cbnz	r3, 130a4 <_svfiprintf_r+0x1e0>
   1309c:	9c01      	ldr	r4, [sp, #4]
   1309e:	07e2      	lsls	r2, r4, #31
   130a0:	f100 8311 	bmi.w	136c6 <_svfiprintf_r+0x802>
   130a4:	46b9      	mov	r9, r7
   130a6:	9c03      	ldr	r4, [sp, #12]
   130a8:	9d06      	ldr	r5, [sp, #24]
   130aa:	42a5      	cmp	r5, r4
   130ac:	bfb8      	it	lt
   130ae:	4625      	movlt	r5, r4
   130b0:	9c07      	ldr	r4, [sp, #28]
   130b2:	9504      	str	r5, [sp, #16]
   130b4:	2c00      	cmp	r4, #0
   130b6:	d07c      	beq.n	131b2 <_svfiprintf_r+0x2ee>
   130b8:	3501      	adds	r5, #1
   130ba:	9504      	str	r5, [sp, #16]
   130bc:	e079      	b.n	131b2 <_svfiprintf_r+0x2ee>
   130be:	f8dd c004 	ldr.w	ip, [sp, #4]
   130c2:	9005      	str	r0, [sp, #20]
   130c4:	f01c 0320 	ands.w	r3, ip, #32
   130c8:	f000 81d8 	beq.w	1347c <_svfiprintf_r+0x5b8>
   130cc:	9c09      	ldr	r4, [sp, #36]	; 0x24
   130ce:	1de3      	adds	r3, r4, #7
   130d0:	f023 0307 	bic.w	r3, r3, #7
   130d4:	f103 0508 	add.w	r5, r3, #8
   130d8:	9509      	str	r5, [sp, #36]	; 0x24
   130da:	e9d3 4500 	ldrd	r4, r5, [r3]
   130de:	2300      	movs	r3, #0
   130e0:	e7c2      	b.n	13068 <_svfiprintf_r+0x1a4>
   130e2:	9b09      	ldr	r3, [sp, #36]	; 0x24
   130e4:	f8dd c004 	ldr.w	ip, [sp, #4]
   130e8:	9d09      	ldr	r5, [sp, #36]	; 0x24
   130ea:	9005      	str	r0, [sp, #20]
   130ec:	48bc      	ldr	r0, [pc, #752]	; (133e0 <_svfiprintf_r+0x51c>)
   130ee:	3504      	adds	r5, #4
   130f0:	681c      	ldr	r4, [r3, #0]
   130f2:	2230      	movs	r2, #48	; 0x30
   130f4:	2378      	movs	r3, #120	; 0x78
   130f6:	f04c 0c02 	orr.w	ip, ip, #2
   130fa:	9509      	str	r5, [sp, #36]	; 0x24
   130fc:	f88d 3049 	strb.w	r3, [sp, #73]	; 0x49
   13100:	f8cd c004 	str.w	ip, [sp, #4]
   13104:	2500      	movs	r5, #0
   13106:	f88d 2048 	strb.w	r2, [sp, #72]	; 0x48
   1310a:	900b      	str	r0, [sp, #44]	; 0x2c
   1310c:	2302      	movs	r3, #2
   1310e:	e7ab      	b.n	13068 <_svfiprintf_r+0x1a4>
   13110:	9d01      	ldr	r5, [sp, #4]
   13112:	f045 0501 	orr.w	r5, r5, #1
   13116:	9501      	str	r5, [sp, #4]
   13118:	f898 3000 	ldrb.w	r3, [r8]
   1311c:	e720      	b.n	12f60 <_svfiprintf_r+0x9c>
   1311e:	f898 3000 	ldrb.w	r3, [r8]
   13122:	212b      	movs	r1, #43	; 0x2b
   13124:	e71c      	b.n	12f60 <_svfiprintf_r+0x9c>
   13126:	9d01      	ldr	r5, [sp, #4]
   13128:	4cad      	ldr	r4, [pc, #692]	; (133e0 <_svfiprintf_r+0x51c>)
   1312a:	06aa      	lsls	r2, r5, #26
   1312c:	9005      	str	r0, [sp, #20]
   1312e:	940b      	str	r4, [sp, #44]	; 0x2c
   13130:	f88d 1047 	strb.w	r1, [sp, #71]	; 0x47
   13134:	f140 8098 	bpl.w	13268 <_svfiprintf_r+0x3a4>
   13138:	f8dd c024 	ldr.w	ip, [sp, #36]	; 0x24
   1313c:	f10c 0207 	add.w	r2, ip, #7
   13140:	f022 0207 	bic.w	r2, r2, #7
   13144:	f102 0408 	add.w	r4, r2, #8
   13148:	9409      	str	r4, [sp, #36]	; 0x24
   1314a:	e9d2 4500 	ldrd	r4, r5, [r2]
   1314e:	f8dd c004 	ldr.w	ip, [sp, #4]
   13152:	f01c 0f01 	tst.w	ip, #1
   13156:	f000 81bd 	beq.w	134d4 <_svfiprintf_r+0x610>
   1315a:	ea54 0005 	orrs.w	r0, r4, r5
   1315e:	f000 81b9 	beq.w	134d4 <_svfiprintf_r+0x610>
   13162:	2230      	movs	r2, #48	; 0x30
   13164:	f04c 0c02 	orr.w	ip, ip, #2
   13168:	f88d 3049 	strb.w	r3, [sp, #73]	; 0x49
   1316c:	f8cd c004 	str.w	ip, [sp, #4]
   13170:	f88d 2048 	strb.w	r2, [sp, #72]	; 0x48
   13174:	2302      	movs	r3, #2
   13176:	e777      	b.n	13068 <_svfiprintf_r+0x1a4>
   13178:	f898 3000 	ldrb.w	r3, [r8]
   1317c:	2900      	cmp	r1, #0
   1317e:	f47f aeef 	bne.w	12f60 <_svfiprintf_r+0x9c>
   13182:	2120      	movs	r1, #32
   13184:	e6ec      	b.n	12f60 <_svfiprintf_r+0x9c>
   13186:	9b09      	ldr	r3, [sp, #36]	; 0x24
   13188:	f8dd c024 	ldr.w	ip, [sp, #36]	; 0x24
   1318c:	681b      	ldr	r3, [r3, #0]
   1318e:	2401      	movs	r4, #1
   13190:	f04f 0500 	mov.w	r5, #0
   13194:	f10c 0c04 	add.w	ip, ip, #4
   13198:	9005      	str	r0, [sp, #20]
   1319a:	9404      	str	r4, [sp, #16]
   1319c:	f88d 5047 	strb.w	r5, [sp, #71]	; 0x47
   131a0:	f88d 3058 	strb.w	r3, [sp, #88]	; 0x58
   131a4:	f8cd c024 	str.w	ip, [sp, #36]	; 0x24
   131a8:	9406      	str	r4, [sp, #24]
   131aa:	f10d 0958 	add.w	r9, sp, #88	; 0x58
   131ae:	2400      	movs	r4, #0
   131b0:	9403      	str	r4, [sp, #12]
   131b2:	9d01      	ldr	r5, [sp, #4]
   131b4:	f015 0502 	ands.w	r5, r5, #2
   131b8:	9507      	str	r5, [sp, #28]
   131ba:	d005      	beq.n	131c8 <_svfiprintf_r+0x304>
   131bc:	f8dd c010 	ldr.w	ip, [sp, #16]
   131c0:	f10c 0c02 	add.w	ip, ip, #2
   131c4:	f8cd c010 	str.w	ip, [sp, #16]
   131c8:	9b01      	ldr	r3, [sp, #4]
   131ca:	f013 0384 	ands.w	r3, r3, #132	; 0x84
   131ce:	930a      	str	r3, [sp, #40]	; 0x28
   131d0:	f040 8182 	bne.w	134d8 <_svfiprintf_r+0x614>
   131d4:	9d05      	ldr	r5, [sp, #20]
   131d6:	f8dd c010 	ldr.w	ip, [sp, #16]
   131da:	ebcc 0405 	rsb	r4, ip, r5
   131de:	2c00      	cmp	r4, #0
   131e0:	f340 817a 	ble.w	134d8 <_svfiprintf_r+0x614>
   131e4:	2c10      	cmp	r4, #16
   131e6:	9915      	ldr	r1, [sp, #84]	; 0x54
   131e8:	9a14      	ldr	r2, [sp, #80]	; 0x50
   131ea:	f8df b1fc 	ldr.w	fp, [pc, #508]	; 133e8 <_svfiprintf_r+0x524>
   131ee:	dd26      	ble.n	1323e <_svfiprintf_r+0x37a>
   131f0:	465b      	mov	r3, fp
   131f2:	2510      	movs	r5, #16
   131f4:	46a3      	mov	fp, r4
   131f6:	461c      	mov	r4, r3
   131f8:	e006      	b.n	13208 <_svfiprintf_r+0x344>
   131fa:	f1ab 0b10 	sub.w	fp, fp, #16
   131fe:	f1bb 0f10 	cmp.w	fp, #16
   13202:	f106 0608 	add.w	r6, r6, #8
   13206:	dd17      	ble.n	13238 <_svfiprintf_r+0x374>
   13208:	3201      	adds	r2, #1
   1320a:	3110      	adds	r1, #16
   1320c:	2a07      	cmp	r2, #7
   1320e:	9115      	str	r1, [sp, #84]	; 0x54
   13210:	9214      	str	r2, [sp, #80]	; 0x50
   13212:	e886 0030 	stmia.w	r6, {r4, r5}
   13216:	ddf0      	ble.n	131fa <_svfiprintf_r+0x336>
   13218:	9802      	ldr	r0, [sp, #8]
   1321a:	4651      	mov	r1, sl
   1321c:	aa13      	add	r2, sp, #76	; 0x4c
   1321e:	f7ff fdd1 	bl	12dc4 <__ssprint_r>
   13222:	2800      	cmp	r0, #0
   13224:	f040 825f 	bne.w	136e6 <_svfiprintf_r+0x822>
   13228:	f1ab 0b10 	sub.w	fp, fp, #16
   1322c:	f1bb 0f10 	cmp.w	fp, #16
   13230:	9915      	ldr	r1, [sp, #84]	; 0x54
   13232:	9a14      	ldr	r2, [sp, #80]	; 0x50
   13234:	463e      	mov	r6, r7
   13236:	dce7      	bgt.n	13208 <_svfiprintf_r+0x344>
   13238:	4623      	mov	r3, r4
   1323a:	465c      	mov	r4, fp
   1323c:	469b      	mov	fp, r3
   1323e:	3201      	adds	r2, #1
   13240:	4421      	add	r1, r4
   13242:	2a07      	cmp	r2, #7
   13244:	9115      	str	r1, [sp, #84]	; 0x54
   13246:	9214      	str	r2, [sp, #80]	; 0x50
   13248:	f8c6 b000 	str.w	fp, [r6]
   1324c:	6074      	str	r4, [r6, #4]
   1324e:	f300 82f1 	bgt.w	13834 <_svfiprintf_r+0x970>
   13252:	3608      	adds	r6, #8
   13254:	e142      	b.n	134dc <_svfiprintf_r+0x618>
   13256:	9d01      	ldr	r5, [sp, #4]
   13258:	4c62      	ldr	r4, [pc, #392]	; (133e4 <_svfiprintf_r+0x520>)
   1325a:	06aa      	lsls	r2, r5, #26
   1325c:	9005      	str	r0, [sp, #20]
   1325e:	f88d 1047 	strb.w	r1, [sp, #71]	; 0x47
   13262:	940b      	str	r4, [sp, #44]	; 0x2c
   13264:	f53f af68 	bmi.w	13138 <_svfiprintf_r+0x274>
   13268:	9d01      	ldr	r5, [sp, #4]
   1326a:	06ed      	lsls	r5, r5, #27
   1326c:	f100 832f 	bmi.w	138ce <_svfiprintf_r+0xa0a>
   13270:	9c01      	ldr	r4, [sp, #4]
   13272:	0664      	lsls	r4, r4, #25
   13274:	f140 8357 	bpl.w	13926 <_svfiprintf_r+0xa62>
   13278:	f8dd c024 	ldr.w	ip, [sp, #36]	; 0x24
   1327c:	2500      	movs	r5, #0
   1327e:	f8bc 4000 	ldrh.w	r4, [ip]
   13282:	f10c 0c04 	add.w	ip, ip, #4
   13286:	f8cd c024 	str.w	ip, [sp, #36]	; 0x24
   1328a:	e760      	b.n	1314e <_svfiprintf_r+0x28a>
   1328c:	9c01      	ldr	r4, [sp, #4]
   1328e:	f88d 1047 	strb.w	r1, [sp, #71]	; 0x47
   13292:	06a4      	lsls	r4, r4, #26
   13294:	f100 8325 	bmi.w	138e2 <_svfiprintf_r+0xa1e>
   13298:	f8dd c004 	ldr.w	ip, [sp, #4]
   1329c:	f01c 0f10 	tst.w	ip, #16
   132a0:	f000 8347 	beq.w	13932 <_svfiprintf_r+0xa6e>
   132a4:	9c09      	ldr	r4, [sp, #36]	; 0x24
   132a6:	9d08      	ldr	r5, [sp, #32]
   132a8:	6823      	ldr	r3, [r4, #0]
   132aa:	3404      	adds	r4, #4
   132ac:	9409      	str	r4, [sp, #36]	; 0x24
   132ae:	601d      	str	r5, [r3, #0]
   132b0:	e61f      	b.n	12ef2 <_svfiprintf_r+0x2e>
   132b2:	f898 3000 	ldrb.w	r3, [r8]
   132b6:	4642      	mov	r2, r8
   132b8:	2b6c      	cmp	r3, #108	; 0x6c
   132ba:	f000 831f 	beq.w	138fc <_svfiprintf_r+0xa38>
   132be:	9d01      	ldr	r5, [sp, #4]
   132c0:	f045 0510 	orr.w	r5, r5, #16
   132c4:	9501      	str	r5, [sp, #4]
   132c6:	e64b      	b.n	12f60 <_svfiprintf_r+0x9c>
   132c8:	f8dd c004 	ldr.w	ip, [sp, #4]
   132cc:	f04c 0c40 	orr.w	ip, ip, #64	; 0x40
   132d0:	f8cd c004 	str.w	ip, [sp, #4]
   132d4:	f898 3000 	ldrb.w	r3, [r8]
   132d8:	e642      	b.n	12f60 <_svfiprintf_r+0x9c>
   132da:	9d01      	ldr	r5, [sp, #4]
   132dc:	9005      	str	r0, [sp, #20]
   132de:	06ab      	lsls	r3, r5, #26
   132e0:	f88d 1047 	strb.w	r1, [sp, #71]	; 0x47
   132e4:	d550      	bpl.n	13388 <_svfiprintf_r+0x4c4>
   132e6:	f8dd c024 	ldr.w	ip, [sp, #36]	; 0x24
   132ea:	f10c 0107 	add.w	r1, ip, #7
   132ee:	f021 0107 	bic.w	r1, r1, #7
   132f2:	e9d1 2300 	ldrd	r2, r3, [r1]
   132f6:	3108      	adds	r1, #8
   132f8:	9109      	str	r1, [sp, #36]	; 0x24
   132fa:	4614      	mov	r4, r2
   132fc:	461d      	mov	r5, r3
   132fe:	2a00      	cmp	r2, #0
   13300:	f173 0c00 	sbcs.w	ip, r3, #0
   13304:	f2c0 82d5 	blt.w	138b2 <_svfiprintf_r+0x9ee>
   13308:	f89d 0047 	ldrb.w	r0, [sp, #71]	; 0x47
   1330c:	9903      	ldr	r1, [sp, #12]
   1330e:	9007      	str	r0, [sp, #28]
   13310:	9106      	str	r1, [sp, #24]
   13312:	2301      	movs	r3, #1
   13314:	e6b0      	b.n	13078 <_svfiprintf_r+0x1b4>
   13316:	9c09      	ldr	r4, [sp, #36]	; 0x24
   13318:	f04f 0500 	mov.w	r5, #0
   1331c:	f8d4 9000 	ldr.w	r9, [r4]
   13320:	f88d 5047 	strb.w	r5, [sp, #71]	; 0x47
   13324:	9005      	str	r0, [sp, #20]
   13326:	3404      	adds	r4, #4
   13328:	9d03      	ldr	r5, [sp, #12]
   1332a:	f1b9 0f00 	cmp.w	r9, #0
   1332e:	f000 8318 	beq.w	13962 <_svfiprintf_r+0xa9e>
   13332:	2d00      	cmp	r5, #0
   13334:	4648      	mov	r0, r9
   13336:	f2c0 8309 	blt.w	1394c <_svfiprintf_r+0xa88>
   1333a:	2100      	movs	r1, #0
   1333c:	462a      	mov	r2, r5
   1333e:	f7fa f81d 	bl	d37c <memchr>
   13342:	2800      	cmp	r0, #0
   13344:	f000 8333 	beq.w	139ae <_svfiprintf_r+0xaea>
   13348:	ebc9 0000 	rsb	r0, r9, r0
   1334c:	42a8      	cmp	r0, r5
   1334e:	bfb8      	it	lt
   13350:	4605      	movlt	r5, r0
   13352:	9409      	str	r4, [sp, #36]	; 0x24
   13354:	f89d 4047 	ldrb.w	r4, [sp, #71]	; 0x47
   13358:	9506      	str	r5, [sp, #24]
   1335a:	2500      	movs	r5, #0
   1335c:	9407      	str	r4, [sp, #28]
   1335e:	9503      	str	r5, [sp, #12]
   13360:	e6a1      	b.n	130a6 <_svfiprintf_r+0x1e2>
   13362:	f8dd c004 	ldr.w	ip, [sp, #4]
   13366:	f04c 0c20 	orr.w	ip, ip, #32
   1336a:	f8cd c004 	str.w	ip, [sp, #4]
   1336e:	f898 3000 	ldrb.w	r3, [r8]
   13372:	e5f5      	b.n	12f60 <_svfiprintf_r+0x9c>
   13374:	9c01      	ldr	r4, [sp, #4]
   13376:	9005      	str	r0, [sp, #20]
   13378:	f044 0410 	orr.w	r4, r4, #16
   1337c:	9401      	str	r4, [sp, #4]
   1337e:	9d01      	ldr	r5, [sp, #4]
   13380:	f88d 1047 	strb.w	r1, [sp, #71]	; 0x47
   13384:	06ab      	lsls	r3, r5, #26
   13386:	d4ae      	bmi.n	132e6 <_svfiprintf_r+0x422>
   13388:	9c01      	ldr	r4, [sp, #4]
   1338a:	06e5      	lsls	r5, r4, #27
   1338c:	f100 8285 	bmi.w	1389a <_svfiprintf_r+0x9d6>
   13390:	f8dd c004 	ldr.w	ip, [sp, #4]
   13394:	f01c 0f40 	tst.w	ip, #64	; 0x40
   13398:	f000 827f 	beq.w	1389a <_svfiprintf_r+0x9d6>
   1339c:	f8dd c024 	ldr.w	ip, [sp, #36]	; 0x24
   133a0:	f9bc 4000 	ldrsh.w	r4, [ip]
   133a4:	f10c 0c04 	add.w	ip, ip, #4
   133a8:	17e5      	asrs	r5, r4, #31
   133aa:	4622      	mov	r2, r4
   133ac:	462b      	mov	r3, r5
   133ae:	f8cd c024 	str.w	ip, [sp, #36]	; 0x24
   133b2:	e7a4      	b.n	132fe <_svfiprintf_r+0x43a>
   133b4:	f1a3 0230 	sub.w	r2, r3, #48	; 0x30
   133b8:	2000      	movs	r0, #0
   133ba:	f818 3b01 	ldrb.w	r3, [r8], #1
   133be:	eb00 0080 	add.w	r0, r0, r0, lsl #2
   133c2:	eb02 0040 	add.w	r0, r2, r0, lsl #1
   133c6:	f1a3 0230 	sub.w	r2, r3, #48	; 0x30
   133ca:	2a09      	cmp	r2, #9
   133cc:	d9f5      	bls.n	133ba <_svfiprintf_r+0x4f6>
   133ce:	e5c9      	b.n	12f64 <_svfiprintf_r+0xa0>
   133d0:	9d01      	ldr	r5, [sp, #4]
   133d2:	f045 0580 	orr.w	r5, r5, #128	; 0x80
   133d6:	9501      	str	r5, [sp, #4]
   133d8:	f898 3000 	ldrb.w	r3, [r8]
   133dc:	e5c0      	b.n	12f60 <_svfiprintf_r+0x9c>
   133de:	bf00      	nop
   133e0:	00014c24 	.word	0x00014c24
   133e4:	00014c10 	.word	0x00014c10
   133e8:	00015078 	.word	0x00015078
   133ec:	f898 3000 	ldrb.w	r3, [r8]
   133f0:	f108 0501 	add.w	r5, r8, #1
   133f4:	2b2a      	cmp	r3, #42	; 0x2a
   133f6:	f000 82e8 	beq.w	139ca <_svfiprintf_r+0xb06>
   133fa:	f1a3 0230 	sub.w	r2, r3, #48	; 0x30
   133fe:	2a09      	cmp	r2, #9
   13400:	bf98      	it	ls
   13402:	2400      	movls	r4, #0
   13404:	f200 82dc 	bhi.w	139c0 <_svfiprintf_r+0xafc>
   13408:	f815 3b01 	ldrb.w	r3, [r5], #1
   1340c:	eb04 0484 	add.w	r4, r4, r4, lsl #2
   13410:	eb02 0444 	add.w	r4, r2, r4, lsl #1
   13414:	f1a3 0230 	sub.w	r2, r3, #48	; 0x30
   13418:	2a09      	cmp	r2, #9
   1341a:	d9f5      	bls.n	13408 <_svfiprintf_r+0x544>
   1341c:	ea44 74e4 	orr.w	r4, r4, r4, asr #31
   13420:	9403      	str	r4, [sp, #12]
   13422:	46a8      	mov	r8, r5
   13424:	e59e      	b.n	12f64 <_svfiprintf_r+0xa0>
   13426:	f8dd c004 	ldr.w	ip, [sp, #4]
   1342a:	9005      	str	r0, [sp, #20]
   1342c:	f04c 0c10 	orr.w	ip, ip, #16
   13430:	f8cd c004 	str.w	ip, [sp, #4]
   13434:	9c01      	ldr	r4, [sp, #4]
   13436:	06a0      	lsls	r0, r4, #26
   13438:	f53f ae0b 	bmi.w	13052 <_svfiprintf_r+0x18e>
   1343c:	9c01      	ldr	r4, [sp, #4]
   1343e:	06e1      	lsls	r1, r4, #27
   13440:	f100 8223 	bmi.w	1388a <_svfiprintf_r+0x9c6>
   13444:	f8dd c004 	ldr.w	ip, [sp, #4]
   13448:	f01c 0f40 	tst.w	ip, #64	; 0x40
   1344c:	f000 821d 	beq.w	1388a <_svfiprintf_r+0x9c6>
   13450:	f8dd c024 	ldr.w	ip, [sp, #36]	; 0x24
   13454:	2500      	movs	r5, #0
   13456:	f8bc 4000 	ldrh.w	r4, [ip]
   1345a:	f10c 0c04 	add.w	ip, ip, #4
   1345e:	2301      	movs	r3, #1
   13460:	f8cd c024 	str.w	ip, [sp, #36]	; 0x24
   13464:	e600      	b.n	13068 <_svfiprintf_r+0x1a4>
   13466:	9d01      	ldr	r5, [sp, #4]
   13468:	9005      	str	r0, [sp, #20]
   1346a:	f045 0510 	orr.w	r5, r5, #16
   1346e:	9501      	str	r5, [sp, #4]
   13470:	f8dd c004 	ldr.w	ip, [sp, #4]
   13474:	f01c 0320 	ands.w	r3, ip, #32
   13478:	f47f ae28 	bne.w	130cc <_svfiprintf_r+0x208>
   1347c:	f8dd c004 	ldr.w	ip, [sp, #4]
   13480:	f01c 0210 	ands.w	r2, ip, #16
   13484:	f040 81fa 	bne.w	1387c <_svfiprintf_r+0x9b8>
   13488:	f8dd c004 	ldr.w	ip, [sp, #4]
   1348c:	f01c 0340 	ands.w	r3, ip, #64	; 0x40
   13490:	f000 81f4 	beq.w	1387c <_svfiprintf_r+0x9b8>
   13494:	f8dd c024 	ldr.w	ip, [sp, #36]	; 0x24
   13498:	4613      	mov	r3, r2
   1349a:	f8bc 4000 	ldrh.w	r4, [ip]
   1349e:	f10c 0c04 	add.w	ip, ip, #4
   134a2:	2500      	movs	r5, #0
   134a4:	f8cd c024 	str.w	ip, [sp, #36]	; 0x24
   134a8:	e5de      	b.n	13068 <_svfiprintf_r+0x1a4>
   134aa:	9005      	str	r0, [sp, #20]
   134ac:	f88d 1047 	strb.w	r1, [sp, #71]	; 0x47
   134b0:	2b00      	cmp	r3, #0
   134b2:	f000 8111 	beq.w	136d8 <_svfiprintf_r+0x814>
   134b6:	f04f 0c01 	mov.w	ip, #1
   134ba:	f04f 0000 	mov.w	r0, #0
   134be:	f8cd c010 	str.w	ip, [sp, #16]
   134c2:	f88d 3058 	strb.w	r3, [sp, #88]	; 0x58
   134c6:	f88d 0047 	strb.w	r0, [sp, #71]	; 0x47
   134ca:	f8cd c018 	str.w	ip, [sp, #24]
   134ce:	f10d 0958 	add.w	r9, sp, #88	; 0x58
   134d2:	e66c      	b.n	131ae <_svfiprintf_r+0x2ea>
   134d4:	2302      	movs	r3, #2
   134d6:	e5c7      	b.n	13068 <_svfiprintf_r+0x1a4>
   134d8:	9915      	ldr	r1, [sp, #84]	; 0x54
   134da:	9a14      	ldr	r2, [sp, #80]	; 0x50
   134dc:	f89d 3047 	ldrb.w	r3, [sp, #71]	; 0x47
   134e0:	b163      	cbz	r3, 134fc <_svfiprintf_r+0x638>
   134e2:	3201      	adds	r2, #1
   134e4:	3101      	adds	r1, #1
   134e6:	f10d 0047 	add.w	r0, sp, #71	; 0x47
   134ea:	2301      	movs	r3, #1
   134ec:	2a07      	cmp	r2, #7
   134ee:	9115      	str	r1, [sp, #84]	; 0x54
   134f0:	9214      	str	r2, [sp, #80]	; 0x50
   134f2:	e886 0009 	stmia.w	r6, {r0, r3}
   134f6:	f300 8185 	bgt.w	13804 <_svfiprintf_r+0x940>
   134fa:	3608      	adds	r6, #8
   134fc:	9b07      	ldr	r3, [sp, #28]
   134fe:	b15b      	cbz	r3, 13518 <_svfiprintf_r+0x654>
   13500:	3201      	adds	r2, #1
   13502:	3102      	adds	r1, #2
   13504:	a812      	add	r0, sp, #72	; 0x48
   13506:	2302      	movs	r3, #2
   13508:	2a07      	cmp	r2, #7
   1350a:	9115      	str	r1, [sp, #84]	; 0x54
   1350c:	9214      	str	r2, [sp, #80]	; 0x50
   1350e:	e886 0009 	stmia.w	r6, {r0, r3}
   13512:	f300 8183 	bgt.w	1381c <_svfiprintf_r+0x958>
   13516:	3608      	adds	r6, #8
   13518:	9c0a      	ldr	r4, [sp, #40]	; 0x28
   1351a:	2c80      	cmp	r4, #128	; 0x80
   1351c:	f000 80ee 	beq.w	136fc <_svfiprintf_r+0x838>
   13520:	9d03      	ldr	r5, [sp, #12]
   13522:	9b06      	ldr	r3, [sp, #24]
   13524:	1aec      	subs	r4, r5, r3
   13526:	2c00      	cmp	r4, #0
   13528:	dd30      	ble.n	1358c <_svfiprintf_r+0x6c8>
   1352a:	2c10      	cmp	r4, #16
   1352c:	4da4      	ldr	r5, [pc, #656]	; (137c0 <_svfiprintf_r+0x8fc>)
   1352e:	dd23      	ble.n	13578 <_svfiprintf_r+0x6b4>
   13530:	462b      	mov	r3, r5
   13532:	f04f 0b10 	mov.w	fp, #16
   13536:	4625      	mov	r5, r4
   13538:	461c      	mov	r4, r3
   1353a:	e004      	b.n	13546 <_svfiprintf_r+0x682>
   1353c:	3d10      	subs	r5, #16
   1353e:	2d10      	cmp	r5, #16
   13540:	f106 0608 	add.w	r6, r6, #8
   13544:	dd15      	ble.n	13572 <_svfiprintf_r+0x6ae>
   13546:	3201      	adds	r2, #1
   13548:	3110      	adds	r1, #16
   1354a:	2a07      	cmp	r2, #7
   1354c:	9115      	str	r1, [sp, #84]	; 0x54
   1354e:	9214      	str	r2, [sp, #80]	; 0x50
   13550:	e886 0810 	stmia.w	r6, {r4, fp}
   13554:	ddf2      	ble.n	1353c <_svfiprintf_r+0x678>
   13556:	9802      	ldr	r0, [sp, #8]
   13558:	4651      	mov	r1, sl
   1355a:	aa13      	add	r2, sp, #76	; 0x4c
   1355c:	f7ff fc32 	bl	12dc4 <__ssprint_r>
   13560:	2800      	cmp	r0, #0
   13562:	f040 80c0 	bne.w	136e6 <_svfiprintf_r+0x822>
   13566:	3d10      	subs	r5, #16
   13568:	2d10      	cmp	r5, #16
   1356a:	9915      	ldr	r1, [sp, #84]	; 0x54
   1356c:	9a14      	ldr	r2, [sp, #80]	; 0x50
   1356e:	463e      	mov	r6, r7
   13570:	dce9      	bgt.n	13546 <_svfiprintf_r+0x682>
   13572:	4623      	mov	r3, r4
   13574:	462c      	mov	r4, r5
   13576:	461d      	mov	r5, r3
   13578:	3201      	adds	r2, #1
   1357a:	4421      	add	r1, r4
   1357c:	2a07      	cmp	r2, #7
   1357e:	9115      	str	r1, [sp, #84]	; 0x54
   13580:	9214      	str	r2, [sp, #80]	; 0x50
   13582:	6035      	str	r5, [r6, #0]
   13584:	6074      	str	r4, [r6, #4]
   13586:	f300 810f 	bgt.w	137a8 <_svfiprintf_r+0x8e4>
   1358a:	3608      	adds	r6, #8
   1358c:	9c06      	ldr	r4, [sp, #24]
   1358e:	3201      	adds	r2, #1
   13590:	4421      	add	r1, r4
   13592:	2a07      	cmp	r2, #7
   13594:	9115      	str	r1, [sp, #84]	; 0x54
   13596:	9214      	str	r2, [sp, #80]	; 0x50
   13598:	f8c6 9000 	str.w	r9, [r6]
   1359c:	6074      	str	r4, [r6, #4]
   1359e:	f300 80e6 	bgt.w	1376e <_svfiprintf_r+0x8aa>
   135a2:	3608      	adds	r6, #8
   135a4:	9d01      	ldr	r5, [sp, #4]
   135a6:	076b      	lsls	r3, r5, #29
   135a8:	d536      	bpl.n	13618 <_svfiprintf_r+0x754>
   135aa:	9d05      	ldr	r5, [sp, #20]
   135ac:	f8dd c010 	ldr.w	ip, [sp, #16]
   135b0:	ebcc 0405 	rsb	r4, ip, r5
   135b4:	2c00      	cmp	r4, #0
   135b6:	dd2f      	ble.n	13618 <_svfiprintf_r+0x754>
   135b8:	2c10      	cmp	r4, #16
   135ba:	9a14      	ldr	r2, [sp, #80]	; 0x50
   135bc:	f8df b204 	ldr.w	fp, [pc, #516]	; 137c4 <_svfiprintf_r+0x900>
   135c0:	dd20      	ble.n	13604 <_svfiprintf_r+0x740>
   135c2:	2510      	movs	r5, #16
   135c4:	460b      	mov	r3, r1
   135c6:	f8dd 9008 	ldr.w	r9, [sp, #8]
   135ca:	e004      	b.n	135d6 <_svfiprintf_r+0x712>
   135cc:	3c10      	subs	r4, #16
   135ce:	2c10      	cmp	r4, #16
   135d0:	f106 0608 	add.w	r6, r6, #8
   135d4:	dd15      	ble.n	13602 <_svfiprintf_r+0x73e>
   135d6:	3201      	adds	r2, #1
   135d8:	3310      	adds	r3, #16
   135da:	2a07      	cmp	r2, #7
   135dc:	9315      	str	r3, [sp, #84]	; 0x54
   135de:	9214      	str	r2, [sp, #80]	; 0x50
   135e0:	f8c6 b000 	str.w	fp, [r6]
   135e4:	6075      	str	r5, [r6, #4]
   135e6:	ddf1      	ble.n	135cc <_svfiprintf_r+0x708>
   135e8:	4648      	mov	r0, r9
   135ea:	4651      	mov	r1, sl
   135ec:	aa13      	add	r2, sp, #76	; 0x4c
   135ee:	f7ff fbe9 	bl	12dc4 <__ssprint_r>
   135f2:	2800      	cmp	r0, #0
   135f4:	d177      	bne.n	136e6 <_svfiprintf_r+0x822>
   135f6:	3c10      	subs	r4, #16
   135f8:	2c10      	cmp	r4, #16
   135fa:	9b15      	ldr	r3, [sp, #84]	; 0x54
   135fc:	9a14      	ldr	r2, [sp, #80]	; 0x50
   135fe:	463e      	mov	r6, r7
   13600:	dce9      	bgt.n	135d6 <_svfiprintf_r+0x712>
   13602:	4619      	mov	r1, r3
   13604:	3201      	adds	r2, #1
   13606:	4421      	add	r1, r4
   13608:	2a07      	cmp	r2, #7
   1360a:	9115      	str	r1, [sp, #84]	; 0x54
   1360c:	9214      	str	r2, [sp, #80]	; 0x50
   1360e:	f8c6 b000 	str.w	fp, [r6]
   13612:	6074      	str	r4, [r6, #4]
   13614:	f300 8123 	bgt.w	1385e <_svfiprintf_r+0x99a>
   13618:	9c08      	ldr	r4, [sp, #32]
   1361a:	f8dd c010 	ldr.w	ip, [sp, #16]
   1361e:	9d05      	ldr	r5, [sp, #20]
   13620:	45ac      	cmp	ip, r5
   13622:	bfac      	ite	ge
   13624:	4464      	addge	r4, ip
   13626:	1964      	addlt	r4, r4, r5
   13628:	9408      	str	r4, [sp, #32]
   1362a:	2900      	cmp	r1, #0
   1362c:	f040 80a9 	bne.w	13782 <_svfiprintf_r+0x8be>
   13630:	f898 3000 	ldrb.w	r3, [r8]
   13634:	2000      	movs	r0, #0
   13636:	9014      	str	r0, [sp, #80]	; 0x50
   13638:	463e      	mov	r6, r7
   1363a:	2b00      	cmp	r3, #0
   1363c:	f47f ac5e 	bne.w	12efc <_svfiprintf_r+0x38>
   13640:	4644      	mov	r4, r8
   13642:	e47b      	b.n	12f3c <_svfiprintf_r+0x78>
   13644:	2b01      	cmp	r3, #1
   13646:	f000 80bf 	beq.w	137c8 <_svfiprintf_r+0x904>
   1364a:	2b02      	cmp	r3, #2
   1364c:	f10d 037f 	add.w	r3, sp, #127	; 0x7f
   13650:	d119      	bne.n	13686 <_svfiprintf_r+0x7c2>
   13652:	f8dd c02c 	ldr.w	ip, [sp, #44]	; 0x2c
   13656:	4619      	mov	r1, r3
   13658:	f004 000f 	and.w	r0, r4, #15
   1365c:	0922      	lsrs	r2, r4, #4
   1365e:	f81c 0000 	ldrb.w	r0, [ip, r0]
   13662:	ea42 7205 	orr.w	r2, r2, r5, lsl #28
   13666:	092b      	lsrs	r3, r5, #4
   13668:	7008      	strb	r0, [r1, #0]
   1366a:	ea52 0003 	orrs.w	r0, r2, r3
   1366e:	4689      	mov	r9, r1
   13670:	4614      	mov	r4, r2
   13672:	461d      	mov	r5, r3
   13674:	f101 31ff 	add.w	r1, r1, #4294967295
   13678:	d1ee      	bne.n	13658 <_svfiprintf_r+0x794>
   1367a:	e9cd 230e 	strd	r2, r3, [sp, #56]	; 0x38
   1367e:	ebc9 0307 	rsb	r3, r9, r7
   13682:	9306      	str	r3, [sp, #24]
   13684:	e50f      	b.n	130a6 <_svfiprintf_r+0x1e2>
   13686:	08e0      	lsrs	r0, r4, #3
   13688:	ea40 7045 	orr.w	r0, r0, r5, lsl #29
   1368c:	f004 0207 	and.w	r2, r4, #7
   13690:	08e9      	lsrs	r1, r5, #3
   13692:	3230      	adds	r2, #48	; 0x30
   13694:	ea50 0c01 	orrs.w	ip, r0, r1
   13698:	4699      	mov	r9, r3
   1369a:	701a      	strb	r2, [r3, #0]
   1369c:	4604      	mov	r4, r0
   1369e:	460d      	mov	r5, r1
   136a0:	f103 33ff 	add.w	r3, r3, #4294967295
   136a4:	d1ef      	bne.n	13686 <_svfiprintf_r+0x7c2>
   136a6:	9c01      	ldr	r4, [sp, #4]
   136a8:	e9cd 010c 	strd	r0, r1, [sp, #48]	; 0x30
   136ac:	07e0      	lsls	r0, r4, #31
   136ae:	4649      	mov	r1, r9
   136b0:	d50e      	bpl.n	136d0 <_svfiprintf_r+0x80c>
   136b2:	2a30      	cmp	r2, #48	; 0x30
   136b4:	d0e3      	beq.n	1367e <_svfiprintf_r+0x7ba>
   136b6:	4699      	mov	r9, r3
   136b8:	ebc9 0407 	rsb	r4, r9, r7
   136bc:	2330      	movs	r3, #48	; 0x30
   136be:	9406      	str	r4, [sp, #24]
   136c0:	f801 3c01 	strb.w	r3, [r1, #-1]
   136c4:	e4ef      	b.n	130a6 <_svfiprintf_r+0x1e2>
   136c6:	2330      	movs	r3, #48	; 0x30
   136c8:	f10d 09c0 	add.w	r9, sp, #192	; 0xc0
   136cc:	f809 3d41 	strb.w	r3, [r9, #-65]!
   136d0:	ebc9 0507 	rsb	r5, r9, r7
   136d4:	9506      	str	r5, [sp, #24]
   136d6:	e4e6      	b.n	130a6 <_svfiprintf_r+0x1e2>
   136d8:	9b15      	ldr	r3, [sp, #84]	; 0x54
   136da:	b123      	cbz	r3, 136e6 <_svfiprintf_r+0x822>
   136dc:	9802      	ldr	r0, [sp, #8]
   136de:	4651      	mov	r1, sl
   136e0:	aa13      	add	r2, sp, #76	; 0x4c
   136e2:	f7ff fb6f 	bl	12dc4 <__ssprint_r>
   136e6:	f8ba 300c 	ldrh.w	r3, [sl, #12]
   136ea:	9808      	ldr	r0, [sp, #32]
   136ec:	f013 0f40 	tst.w	r3, #64	; 0x40
   136f0:	bf18      	it	ne
   136f2:	f04f 30ff 	movne.w	r0, #4294967295
   136f6:	b031      	add	sp, #196	; 0xc4
   136f8:	e8bd 8ff0 	ldmia.w	sp!, {r4, r5, r6, r7, r8, r9, sl, fp, pc}
   136fc:	9d05      	ldr	r5, [sp, #20]
   136fe:	f8dd c010 	ldr.w	ip, [sp, #16]
   13702:	ebcc 0405 	rsb	r4, ip, r5
   13706:	2c00      	cmp	r4, #0
   13708:	f77f af0a 	ble.w	13520 <_svfiprintf_r+0x65c>
   1370c:	2c10      	cmp	r4, #16
   1370e:	4d2c      	ldr	r5, [pc, #176]	; (137c0 <_svfiprintf_r+0x8fc>)
   13710:	dd22      	ble.n	13758 <_svfiprintf_r+0x894>
   13712:	462b      	mov	r3, r5
   13714:	f04f 0b10 	mov.w	fp, #16
   13718:	4625      	mov	r5, r4
   1371a:	461c      	mov	r4, r3
   1371c:	e004      	b.n	13728 <_svfiprintf_r+0x864>
   1371e:	3d10      	subs	r5, #16
   13720:	2d10      	cmp	r5, #16
   13722:	f106 0608 	add.w	r6, r6, #8
   13726:	dd14      	ble.n	13752 <_svfiprintf_r+0x88e>
   13728:	3201      	adds	r2, #1
   1372a:	3110      	adds	r1, #16
   1372c:	2a07      	cmp	r2, #7
   1372e:	9115      	str	r1, [sp, #84]	; 0x54
   13730:	9214      	str	r2, [sp, #80]	; 0x50
   13732:	e886 0810 	stmia.w	r6, {r4, fp}
   13736:	ddf2      	ble.n	1371e <_svfiprintf_r+0x85a>
   13738:	9802      	ldr	r0, [sp, #8]
   1373a:	4651      	mov	r1, sl
   1373c:	aa13      	add	r2, sp, #76	; 0x4c
   1373e:	f7ff fb41 	bl	12dc4 <__ssprint_r>
   13742:	2800      	cmp	r0, #0
   13744:	d1cf      	bne.n	136e6 <_svfiprintf_r+0x822>
   13746:	3d10      	subs	r5, #16
   13748:	2d10      	cmp	r5, #16
   1374a:	9915      	ldr	r1, [sp, #84]	; 0x54
   1374c:	9a14      	ldr	r2, [sp, #80]	; 0x50
   1374e:	463e      	mov	r6, r7
   13750:	dcea      	bgt.n	13728 <_svfiprintf_r+0x864>
   13752:	4623      	mov	r3, r4
   13754:	462c      	mov	r4, r5
   13756:	461d      	mov	r5, r3
   13758:	3201      	adds	r2, #1
   1375a:	4421      	add	r1, r4
   1375c:	2a07      	cmp	r2, #7
   1375e:	9115      	str	r1, [sp, #84]	; 0x54
   13760:	9214      	str	r2, [sp, #80]	; 0x50
   13762:	6035      	str	r5, [r6, #0]
   13764:	6074      	str	r4, [r6, #4]
   13766:	f300 80d2 	bgt.w	1390e <_svfiprintf_r+0xa4a>
   1376a:	3608      	adds	r6, #8
   1376c:	e6d8      	b.n	13520 <_svfiprintf_r+0x65c>
   1376e:	9802      	ldr	r0, [sp, #8]
   13770:	4651      	mov	r1, sl
   13772:	aa13      	add	r2, sp, #76	; 0x4c
   13774:	f7ff fb26 	bl	12dc4 <__ssprint_r>
   13778:	2800      	cmp	r0, #0
   1377a:	d1b4      	bne.n	136e6 <_svfiprintf_r+0x822>
   1377c:	9915      	ldr	r1, [sp, #84]	; 0x54
   1377e:	463e      	mov	r6, r7
   13780:	e710      	b.n	135a4 <_svfiprintf_r+0x6e0>
   13782:	9802      	ldr	r0, [sp, #8]
   13784:	4651      	mov	r1, sl
   13786:	aa13      	add	r2, sp, #76	; 0x4c
   13788:	f7ff fb1c 	bl	12dc4 <__ssprint_r>
   1378c:	2800      	cmp	r0, #0
   1378e:	f43f af4f 	beq.w	13630 <_svfiprintf_r+0x76c>
   13792:	e7a8      	b.n	136e6 <_svfiprintf_r+0x822>
   13794:	9802      	ldr	r0, [sp, #8]
   13796:	4651      	mov	r1, sl
   13798:	aa13      	add	r2, sp, #76	; 0x4c
   1379a:	f7ff fb13 	bl	12dc4 <__ssprint_r>
   1379e:	2800      	cmp	r0, #0
   137a0:	d1a1      	bne.n	136e6 <_svfiprintf_r+0x822>
   137a2:	463e      	mov	r6, r7
   137a4:	f7ff bbc7 	b.w	12f36 <_svfiprintf_r+0x72>
   137a8:	9802      	ldr	r0, [sp, #8]
   137aa:	4651      	mov	r1, sl
   137ac:	aa13      	add	r2, sp, #76	; 0x4c
   137ae:	f7ff fb09 	bl	12dc4 <__ssprint_r>
   137b2:	2800      	cmp	r0, #0
   137b4:	d197      	bne.n	136e6 <_svfiprintf_r+0x822>
   137b6:	9915      	ldr	r1, [sp, #84]	; 0x54
   137b8:	9a14      	ldr	r2, [sp, #80]	; 0x50
   137ba:	463e      	mov	r6, r7
   137bc:	e6e6      	b.n	1358c <_svfiprintf_r+0x6c8>
   137be:	bf00      	nop
   137c0:	00015068 	.word	0x00015068
   137c4:	00015078 	.word	0x00015078
   137c8:	2d00      	cmp	r5, #0
   137ca:	bf08      	it	eq
   137cc:	2c0a      	cmpeq	r4, #10
   137ce:	d33d      	bcc.n	1384c <_svfiprintf_r+0x988>
   137d0:	f10d 0b7f 	add.w	fp, sp, #127	; 0x7f
   137d4:	4620      	mov	r0, r4
   137d6:	4629      	mov	r1, r5
   137d8:	220a      	movs	r2, #10
   137da:	2300      	movs	r3, #0
   137dc:	f000 fed0 	bl	14580 <__aeabi_uldivmod>
   137e0:	3230      	adds	r2, #48	; 0x30
   137e2:	f88b 2000 	strb.w	r2, [fp]
   137e6:	4620      	mov	r0, r4
   137e8:	4629      	mov	r1, r5
   137ea:	220a      	movs	r2, #10
   137ec:	2300      	movs	r3, #0
   137ee:	f000 fec7 	bl	14580 <__aeabi_uldivmod>
   137f2:	4604      	mov	r4, r0
   137f4:	460d      	mov	r5, r1
   137f6:	ea54 0c05 	orrs.w	ip, r4, r5
   137fa:	46d9      	mov	r9, fp
   137fc:	f10b 3bff 	add.w	fp, fp, #4294967295
   13800:	d1e8      	bne.n	137d4 <_svfiprintf_r+0x910>
   13802:	e73c      	b.n	1367e <_svfiprintf_r+0x7ba>
   13804:	9802      	ldr	r0, [sp, #8]
   13806:	4651      	mov	r1, sl
   13808:	aa13      	add	r2, sp, #76	; 0x4c
   1380a:	f7ff fadb 	bl	12dc4 <__ssprint_r>
   1380e:	2800      	cmp	r0, #0
   13810:	f47f af69 	bne.w	136e6 <_svfiprintf_r+0x822>
   13814:	9915      	ldr	r1, [sp, #84]	; 0x54
   13816:	9a14      	ldr	r2, [sp, #80]	; 0x50
   13818:	463e      	mov	r6, r7
   1381a:	e66f      	b.n	134fc <_svfiprintf_r+0x638>
   1381c:	9802      	ldr	r0, [sp, #8]
   1381e:	4651      	mov	r1, sl
   13820:	aa13      	add	r2, sp, #76	; 0x4c
   13822:	f7ff facf 	bl	12dc4 <__ssprint_r>
   13826:	2800      	cmp	r0, #0
   13828:	f47f af5d 	bne.w	136e6 <_svfiprintf_r+0x822>
   1382c:	9915      	ldr	r1, [sp, #84]	; 0x54
   1382e:	9a14      	ldr	r2, [sp, #80]	; 0x50
   13830:	463e      	mov	r6, r7
   13832:	e671      	b.n	13518 <_svfiprintf_r+0x654>
   13834:	9802      	ldr	r0, [sp, #8]
   13836:	4651      	mov	r1, sl
   13838:	aa13      	add	r2, sp, #76	; 0x4c
   1383a:	f7ff fac3 	bl	12dc4 <__ssprint_r>
   1383e:	2800      	cmp	r0, #0
   13840:	f47f af51 	bne.w	136e6 <_svfiprintf_r+0x822>
   13844:	9915      	ldr	r1, [sp, #84]	; 0x54
   13846:	9a14      	ldr	r2, [sp, #80]	; 0x50
   13848:	463e      	mov	r6, r7
   1384a:	e647      	b.n	134dc <_svfiprintf_r+0x618>
   1384c:	f10d 09c0 	add.w	r9, sp, #192	; 0xc0
   13850:	3430      	adds	r4, #48	; 0x30
   13852:	f809 4d41 	strb.w	r4, [r9, #-65]!
   13856:	ebc9 0507 	rsb	r5, r9, r7
   1385a:	9506      	str	r5, [sp, #24]
   1385c:	e423      	b.n	130a6 <_svfiprintf_r+0x1e2>
   1385e:	9802      	ldr	r0, [sp, #8]
   13860:	4651      	mov	r1, sl
   13862:	aa13      	add	r2, sp, #76	; 0x4c
   13864:	f7ff faae 	bl	12dc4 <__ssprint_r>
   13868:	2800      	cmp	r0, #0
   1386a:	f47f af3c 	bne.w	136e6 <_svfiprintf_r+0x822>
   1386e:	9915      	ldr	r1, [sp, #84]	; 0x54
   13870:	e6d2      	b.n	13618 <_svfiprintf_r+0x754>
   13872:	9309      	str	r3, [sp, #36]	; 0x24
   13874:	f898 3000 	ldrb.w	r3, [r8]
   13878:	f7ff bb72 	b.w	12f60 <_svfiprintf_r+0x9c>
   1387c:	9d09      	ldr	r5, [sp, #36]	; 0x24
   1387e:	682c      	ldr	r4, [r5, #0]
   13880:	3504      	adds	r5, #4
   13882:	9509      	str	r5, [sp, #36]	; 0x24
   13884:	2500      	movs	r5, #0
   13886:	f7ff bbef 	b.w	13068 <_svfiprintf_r+0x1a4>
   1388a:	9d09      	ldr	r5, [sp, #36]	; 0x24
   1388c:	2301      	movs	r3, #1
   1388e:	682c      	ldr	r4, [r5, #0]
   13890:	3504      	adds	r5, #4
   13892:	9509      	str	r5, [sp, #36]	; 0x24
   13894:	2500      	movs	r5, #0
   13896:	f7ff bbe7 	b.w	13068 <_svfiprintf_r+0x1a4>
   1389a:	9d09      	ldr	r5, [sp, #36]	; 0x24
   1389c:	682c      	ldr	r4, [r5, #0]
   1389e:	3504      	adds	r5, #4
   138a0:	9509      	str	r5, [sp, #36]	; 0x24
   138a2:	17e5      	asrs	r5, r4, #31
   138a4:	4622      	mov	r2, r4
   138a6:	462b      	mov	r3, r5
   138a8:	2a00      	cmp	r2, #0
   138aa:	f173 0c00 	sbcs.w	ip, r3, #0
   138ae:	f6bf ad2b 	bge.w	13308 <_svfiprintf_r+0x444>
   138b2:	9a03      	ldr	r2, [sp, #12]
   138b4:	f04f 0b2d 	mov.w	fp, #45	; 0x2d
   138b8:	4264      	negs	r4, r4
   138ba:	eb65 0545 	sbc.w	r5, r5, r5, lsl #1
   138be:	f88d b047 	strb.w	fp, [sp, #71]	; 0x47
   138c2:	f8cd b01c 	str.w	fp, [sp, #28]
   138c6:	9206      	str	r2, [sp, #24]
   138c8:	2301      	movs	r3, #1
   138ca:	f7ff bbd5 	b.w	13078 <_svfiprintf_r+0x1b4>
   138ce:	f8dd c024 	ldr.w	ip, [sp, #36]	; 0x24
   138d2:	2500      	movs	r5, #0
   138d4:	f8dc 4000 	ldr.w	r4, [ip]
   138d8:	f10c 0c04 	add.w	ip, ip, #4
   138dc:	f8cd c024 	str.w	ip, [sp, #36]	; 0x24
   138e0:	e435      	b.n	1314e <_svfiprintf_r+0x28a>
   138e2:	9d09      	ldr	r5, [sp, #36]	; 0x24
   138e4:	9c08      	ldr	r4, [sp, #32]
   138e6:	6829      	ldr	r1, [r5, #0]
   138e8:	17e5      	asrs	r5, r4, #31
   138ea:	462b      	mov	r3, r5
   138ec:	9d09      	ldr	r5, [sp, #36]	; 0x24
   138ee:	4622      	mov	r2, r4
   138f0:	3504      	adds	r5, #4
   138f2:	9509      	str	r5, [sp, #36]	; 0x24
   138f4:	e9c1 2300 	strd	r2, r3, [r1]
   138f8:	f7ff bafb 	b.w	12ef2 <_svfiprintf_r+0x2e>
   138fc:	9c01      	ldr	r4, [sp, #4]
   138fe:	f108 0801 	add.w	r8, r8, #1
   13902:	f044 0420 	orr.w	r4, r4, #32
   13906:	9401      	str	r4, [sp, #4]
   13908:	7853      	ldrb	r3, [r2, #1]
   1390a:	f7ff bb29 	b.w	12f60 <_svfiprintf_r+0x9c>
   1390e:	9802      	ldr	r0, [sp, #8]
   13910:	4651      	mov	r1, sl
   13912:	aa13      	add	r2, sp, #76	; 0x4c
   13914:	f7ff fa56 	bl	12dc4 <__ssprint_r>
   13918:	2800      	cmp	r0, #0
   1391a:	f47f aee4 	bne.w	136e6 <_svfiprintf_r+0x822>
   1391e:	9915      	ldr	r1, [sp, #84]	; 0x54
   13920:	9a14      	ldr	r2, [sp, #80]	; 0x50
   13922:	463e      	mov	r6, r7
   13924:	e5fc      	b.n	13520 <_svfiprintf_r+0x65c>
   13926:	9d09      	ldr	r5, [sp, #36]	; 0x24
   13928:	682c      	ldr	r4, [r5, #0]
   1392a:	3504      	adds	r5, #4
   1392c:	9509      	str	r5, [sp, #36]	; 0x24
   1392e:	2500      	movs	r5, #0
   13930:	e40d      	b.n	1314e <_svfiprintf_r+0x28a>
   13932:	f8dd c004 	ldr.w	ip, [sp, #4]
   13936:	f01c 0f40 	tst.w	ip, #64	; 0x40
   1393a:	d02c      	beq.n	13996 <_svfiprintf_r+0xad2>
   1393c:	9c09      	ldr	r4, [sp, #36]	; 0x24
   1393e:	9d08      	ldr	r5, [sp, #32]
   13940:	6823      	ldr	r3, [r4, #0]
   13942:	3404      	adds	r4, #4
   13944:	9409      	str	r4, [sp, #36]	; 0x24
   13946:	801d      	strh	r5, [r3, #0]
   13948:	f7ff bad3 	b.w	12ef2 <_svfiprintf_r+0x2e>
   1394c:	9409      	str	r4, [sp, #36]	; 0x24
   1394e:	f7f5 fdef 	bl	9530 <strlen>
   13952:	f89d 4047 	ldrb.w	r4, [sp, #71]	; 0x47
   13956:	2500      	movs	r5, #0
   13958:	9006      	str	r0, [sp, #24]
   1395a:	9407      	str	r4, [sp, #28]
   1395c:	9503      	str	r5, [sp, #12]
   1395e:	f7ff bba2 	b.w	130a6 <_svfiprintf_r+0x1e2>
   13962:	2d06      	cmp	r5, #6
   13964:	bf28      	it	cs
   13966:	2506      	movcs	r5, #6
   13968:	ea25 7ce5 	bic.w	ip, r5, r5, asr #31
   1396c:	9506      	str	r5, [sp, #24]
   1396e:	9409      	str	r4, [sp, #36]	; 0x24
   13970:	f8cd c010 	str.w	ip, [sp, #16]
   13974:	f8df 9084 	ldr.w	r9, [pc, #132]	; 139fc <_svfiprintf_r+0xb38>
   13978:	e419      	b.n	131ae <_svfiprintf_r+0x2ea>
   1397a:	2140      	movs	r1, #64	; 0x40
   1397c:	f7f5 fa9a 	bl	8eb4 <_malloc_r>
   13980:	f8ca 0000 	str.w	r0, [sl]
   13984:	f8ca 0010 	str.w	r0, [sl, #16]
   13988:	2800      	cmp	r0, #0
   1398a:	d031      	beq.n	139f0 <_svfiprintf_r+0xb2c>
   1398c:	2340      	movs	r3, #64	; 0x40
   1398e:	f8ca 3014 	str.w	r3, [sl, #20]
   13992:	f7ff baa6 	b.w	12ee2 <_svfiprintf_r+0x1e>
   13996:	f8dd c024 	ldr.w	ip, [sp, #36]	; 0x24
   1399a:	9c08      	ldr	r4, [sp, #32]
   1399c:	f8dc 3000 	ldr.w	r3, [ip]
   139a0:	f10c 0c04 	add.w	ip, ip, #4
   139a4:	f8cd c024 	str.w	ip, [sp, #36]	; 0x24
   139a8:	601c      	str	r4, [r3, #0]
   139aa:	f7ff baa2 	b.w	12ef2 <_svfiprintf_r+0x2e>
   139ae:	f89d 5047 	ldrb.w	r5, [sp, #71]	; 0x47
   139b2:	9409      	str	r4, [sp, #36]	; 0x24
   139b4:	9507      	str	r5, [sp, #28]
   139b6:	9d03      	ldr	r5, [sp, #12]
   139b8:	9003      	str	r0, [sp, #12]
   139ba:	9506      	str	r5, [sp, #24]
   139bc:	f7ff bb73 	b.w	130a6 <_svfiprintf_r+0x1e2>
   139c0:	46a8      	mov	r8, r5
   139c2:	2500      	movs	r5, #0
   139c4:	9503      	str	r5, [sp, #12]
   139c6:	f7ff bacd 	b.w	12f64 <_svfiprintf_r+0xa0>
   139ca:	9c09      	ldr	r4, [sp, #36]	; 0x24
   139cc:	f8dd c024 	ldr.w	ip, [sp, #36]	; 0x24
   139d0:	6824      	ldr	r4, [r4, #0]
   139d2:	f10c 0204 	add.w	r2, ip, #4
   139d6:	2c00      	cmp	r4, #0
   139d8:	f898 3001 	ldrb.w	r3, [r8, #1]
   139dc:	9403      	str	r4, [sp, #12]
   139de:	9209      	str	r2, [sp, #36]	; 0x24
   139e0:	46a8      	mov	r8, r5
   139e2:	f6bf aabd 	bge.w	12f60 <_svfiprintf_r+0x9c>
   139e6:	f04f 34ff 	mov.w	r4, #4294967295
   139ea:	9403      	str	r4, [sp, #12]
   139ec:	f7ff bab8 	b.w	12f60 <_svfiprintf_r+0x9c>
   139f0:	9c02      	ldr	r4, [sp, #8]
   139f2:	230c      	movs	r3, #12
   139f4:	6023      	str	r3, [r4, #0]
   139f6:	f04f 30ff 	mov.w	r0, #4294967295
   139fa:	e67c      	b.n	136f6 <_svfiprintf_r+0x832>
   139fc:	00014c38 	.word	0x00014c38

00013a00 <__swbuf_r>:
   13a00:	b5f8      	push	{r3, r4, r5, r6, r7, lr}
   13a02:	460d      	mov	r5, r1
   13a04:	4614      	mov	r4, r2
   13a06:	4607      	mov	r7, r0
   13a08:	b110      	cbz	r0, 13a10 <__swbuf_r+0x10>
   13a0a:	6b83      	ldr	r3, [r0, #56]	; 0x38
   13a0c:	2b00      	cmp	r3, #0
   13a0e:	d048      	beq.n	13aa2 <__swbuf_r+0xa2>
   13a10:	89a2      	ldrh	r2, [r4, #12]
   13a12:	69a0      	ldr	r0, [r4, #24]
   13a14:	b293      	uxth	r3, r2
   13a16:	60a0      	str	r0, [r4, #8]
   13a18:	0718      	lsls	r0, r3, #28
   13a1a:	d538      	bpl.n	13a8e <__swbuf_r+0x8e>
   13a1c:	6926      	ldr	r6, [r4, #16]
   13a1e:	2e00      	cmp	r6, #0
   13a20:	d035      	beq.n	13a8e <__swbuf_r+0x8e>
   13a22:	0499      	lsls	r1, r3, #18
   13a24:	b2ed      	uxtb	r5, r5
   13a26:	d515      	bpl.n	13a54 <__swbuf_r+0x54>
   13a28:	6823      	ldr	r3, [r4, #0]
   13a2a:	6962      	ldr	r2, [r4, #20]
   13a2c:	1b9e      	subs	r6, r3, r6
   13a2e:	4296      	cmp	r6, r2
   13a30:	da1c      	bge.n	13a6c <__swbuf_r+0x6c>
   13a32:	3601      	adds	r6, #1
   13a34:	68a2      	ldr	r2, [r4, #8]
   13a36:	1c59      	adds	r1, r3, #1
   13a38:	3a01      	subs	r2, #1
   13a3a:	60a2      	str	r2, [r4, #8]
   13a3c:	6021      	str	r1, [r4, #0]
   13a3e:	701d      	strb	r5, [r3, #0]
   13a40:	6963      	ldr	r3, [r4, #20]
   13a42:	42b3      	cmp	r3, r6
   13a44:	d01a      	beq.n	13a7c <__swbuf_r+0x7c>
   13a46:	89a3      	ldrh	r3, [r4, #12]
   13a48:	07db      	lsls	r3, r3, #31
   13a4a:	d501      	bpl.n	13a50 <__swbuf_r+0x50>
   13a4c:	2d0a      	cmp	r5, #10
   13a4e:	d015      	beq.n	13a7c <__swbuf_r+0x7c>
   13a50:	4628      	mov	r0, r5
   13a52:	bdf8      	pop	{r3, r4, r5, r6, r7, pc}
   13a54:	6e63      	ldr	r3, [r4, #100]	; 0x64
   13a56:	f442 5200 	orr.w	r2, r2, #8192	; 0x2000
   13a5a:	f423 5300 	bic.w	r3, r3, #8192	; 0x2000
   13a5e:	6663      	str	r3, [r4, #100]	; 0x64
   13a60:	6823      	ldr	r3, [r4, #0]
   13a62:	81a2      	strh	r2, [r4, #12]
   13a64:	6962      	ldr	r2, [r4, #20]
   13a66:	1b9e      	subs	r6, r3, r6
   13a68:	4296      	cmp	r6, r2
   13a6a:	dbe2      	blt.n	13a32 <__swbuf_r+0x32>
   13a6c:	4638      	mov	r0, r7
   13a6e:	4621      	mov	r1, r4
   13a70:	f7f9 f90a 	bl	cc88 <_fflush_r>
   13a74:	b940      	cbnz	r0, 13a88 <__swbuf_r+0x88>
   13a76:	6823      	ldr	r3, [r4, #0]
   13a78:	2601      	movs	r6, #1
   13a7a:	e7db      	b.n	13a34 <__swbuf_r+0x34>
   13a7c:	4638      	mov	r0, r7
   13a7e:	4621      	mov	r1, r4
   13a80:	f7f9 f902 	bl	cc88 <_fflush_r>
   13a84:	2800      	cmp	r0, #0
   13a86:	d0e3      	beq.n	13a50 <__swbuf_r+0x50>
   13a88:	f04f 30ff 	mov.w	r0, #4294967295
   13a8c:	bdf8      	pop	{r3, r4, r5, r6, r7, pc}
   13a8e:	4638      	mov	r0, r7
   13a90:	4621      	mov	r1, r4
   13a92:	f7f7 ffe1 	bl	ba58 <__swsetup_r>
   13a96:	2800      	cmp	r0, #0
   13a98:	d1f6      	bne.n	13a88 <__swbuf_r+0x88>
   13a9a:	89a2      	ldrh	r2, [r4, #12]
   13a9c:	6926      	ldr	r6, [r4, #16]
   13a9e:	b293      	uxth	r3, r2
   13aa0:	e7bf      	b.n	13a22 <__swbuf_r+0x22>
   13aa2:	f7f5 f8e1 	bl	8c68 <__sinit>
   13aa6:	e7b3      	b.n	13a10 <__swbuf_r+0x10>

00013aa8 <__swbuf>:
   13aa8:	4b02      	ldr	r3, [pc, #8]	; (13ab4 <__swbuf+0xc>)
   13aaa:	460a      	mov	r2, r1
   13aac:	4601      	mov	r1, r0
   13aae:	6818      	ldr	r0, [r3, #0]
   13ab0:	f7ff bfa6 	b.w	13a00 <__swbuf_r>
   13ab4:	0001d5e8 	.word	0x0001d5e8

00013ab8 <_wcrtomb_r>:
   13ab8:	e92d 41f0 	stmdb	sp!, {r4, r5, r6, r7, r8, lr}
   13abc:	461e      	mov	r6, r3
   13abe:	b086      	sub	sp, #24
   13ac0:	460c      	mov	r4, r1
   13ac2:	4605      	mov	r5, r0
   13ac4:	4617      	mov	r7, r2
   13ac6:	4b0f      	ldr	r3, [pc, #60]	; (13b04 <_wcrtomb_r+0x4c>)
   13ac8:	b191      	cbz	r1, 13af0 <_wcrtomb_r+0x38>
   13aca:	f8d3 8000 	ldr.w	r8, [r3]
   13ace:	f7f9 fb25 	bl	d11c <__locale_charset>
   13ad2:	9600      	str	r6, [sp, #0]
   13ad4:	4603      	mov	r3, r0
   13ad6:	4621      	mov	r1, r4
   13ad8:	463a      	mov	r2, r7
   13ada:	4628      	mov	r0, r5
   13adc:	47c0      	blx	r8
   13ade:	1c43      	adds	r3, r0, #1
   13ae0:	d103      	bne.n	13aea <_wcrtomb_r+0x32>
   13ae2:	2200      	movs	r2, #0
   13ae4:	238a      	movs	r3, #138	; 0x8a
   13ae6:	6032      	str	r2, [r6, #0]
   13ae8:	602b      	str	r3, [r5, #0]
   13aea:	b006      	add	sp, #24
   13aec:	e8bd 81f0 	ldmia.w	sp!, {r4, r5, r6, r7, r8, pc}
   13af0:	681f      	ldr	r7, [r3, #0]
   13af2:	f7f9 fb13 	bl	d11c <__locale_charset>
   13af6:	9600      	str	r6, [sp, #0]
   13af8:	4603      	mov	r3, r0
   13afa:	4622      	mov	r2, r4
   13afc:	4628      	mov	r0, r5
   13afe:	a903      	add	r1, sp, #12
   13b00:	47b8      	blx	r7
   13b02:	e7ec      	b.n	13ade <_wcrtomb_r+0x26>
   13b04:	0001da80 	.word	0x0001da80

00013b08 <wcrtomb>:
   13b08:	e92d 41f0 	stmdb	sp!, {r4, r5, r6, r7, r8, lr}
   13b0c:	4b12      	ldr	r3, [pc, #72]	; (13b58 <wcrtomb+0x50>)
   13b0e:	b086      	sub	sp, #24
   13b10:	681d      	ldr	r5, [r3, #0]
   13b12:	4604      	mov	r4, r0
   13b14:	460f      	mov	r7, r1
   13b16:	4616      	mov	r6, r2
   13b18:	4b10      	ldr	r3, [pc, #64]	; (13b5c <wcrtomb+0x54>)
   13b1a:	b190      	cbz	r0, 13b42 <wcrtomb+0x3a>
   13b1c:	f8d3 8000 	ldr.w	r8, [r3]
   13b20:	f7f9 fafc 	bl	d11c <__locale_charset>
   13b24:	9600      	str	r6, [sp, #0]
   13b26:	4603      	mov	r3, r0
   13b28:	4621      	mov	r1, r4
   13b2a:	463a      	mov	r2, r7
   13b2c:	4628      	mov	r0, r5
   13b2e:	47c0      	blx	r8
   13b30:	1c43      	adds	r3, r0, #1
   13b32:	d103      	bne.n	13b3c <wcrtomb+0x34>
   13b34:	2200      	movs	r2, #0
   13b36:	238a      	movs	r3, #138	; 0x8a
   13b38:	6032      	str	r2, [r6, #0]
   13b3a:	602b      	str	r3, [r5, #0]
   13b3c:	b006      	add	sp, #24
   13b3e:	e8bd 81f0 	ldmia.w	sp!, {r4, r5, r6, r7, r8, pc}
   13b42:	681f      	ldr	r7, [r3, #0]
   13b44:	f7f9 faea 	bl	d11c <__locale_charset>
   13b48:	9600      	str	r6, [sp, #0]
   13b4a:	4603      	mov	r3, r0
   13b4c:	4622      	mov	r2, r4
   13b4e:	4628      	mov	r0, r5
   13b50:	a903      	add	r1, sp, #12
   13b52:	47b8      	blx	r7
   13b54:	e7ec      	b.n	13b30 <wcrtomb+0x28>
   13b56:	bf00      	nop
   13b58:	0001d5e8 	.word	0x0001d5e8
   13b5c:	0001da80 	.word	0x0001da80

00013b60 <__ascii_wctomb>:
   13b60:	b121      	cbz	r1, 13b6c <__ascii_wctomb+0xc>
   13b62:	2aff      	cmp	r2, #255	; 0xff
   13b64:	d804      	bhi.n	13b70 <__ascii_wctomb+0x10>
   13b66:	700a      	strb	r2, [r1, #0]
   13b68:	2001      	movs	r0, #1
   13b6a:	4770      	bx	lr
   13b6c:	4608      	mov	r0, r1
   13b6e:	4770      	bx	lr
   13b70:	238a      	movs	r3, #138	; 0x8a
   13b72:	6003      	str	r3, [r0, #0]
   13b74:	f04f 30ff 	mov.w	r0, #4294967295
   13b78:	4770      	bx	lr
   13b7a:	bf00      	nop

00013b7c <_wctomb_r>:
   13b7c:	e92d 41f0 	stmdb	sp!, {r4, r5, r6, r7, r8, lr}
   13b80:	4c09      	ldr	r4, [pc, #36]	; (13ba8 <_wctomb_r+0x2c>)
   13b82:	b082      	sub	sp, #8
   13b84:	4698      	mov	r8, r3
   13b86:	4605      	mov	r5, r0
   13b88:	460f      	mov	r7, r1
   13b8a:	4616      	mov	r6, r2
   13b8c:	6824      	ldr	r4, [r4, #0]
   13b8e:	f7f9 fac5 	bl	d11c <__locale_charset>
   13b92:	f8cd 8000 	str.w	r8, [sp]
   13b96:	4603      	mov	r3, r0
   13b98:	4639      	mov	r1, r7
   13b9a:	4632      	mov	r2, r6
   13b9c:	4628      	mov	r0, r5
   13b9e:	47a0      	blx	r4
   13ba0:	b002      	add	sp, #8
   13ba2:	e8bd 81f0 	ldmia.w	sp!, {r4, r5, r6, r7, r8, pc}
   13ba6:	bf00      	nop
   13ba8:	0001da80 	.word	0x0001da80

00013bac <__aeabi_drsub>:
   13bac:	f081 4100 	eor.w	r1, r1, #2147483648	; 0x80000000
   13bb0:	e002      	b.n	13bb8 <__adddf3>
   13bb2:	bf00      	nop

00013bb4 <__aeabi_dsub>:
   13bb4:	f083 4300 	eor.w	r3, r3, #2147483648	; 0x80000000

00013bb8 <__adddf3>:
   13bb8:	b530      	push	{r4, r5, lr}
   13bba:	ea4f 0441 	mov.w	r4, r1, lsl #1
   13bbe:	ea4f 0543 	mov.w	r5, r3, lsl #1
   13bc2:	ea94 0f05 	teq	r4, r5
   13bc6:	bf08      	it	eq
   13bc8:	ea90 0f02 	teqeq	r0, r2
   13bcc:	bf1f      	itttt	ne
   13bce:	ea54 0c00 	orrsne.w	ip, r4, r0
   13bd2:	ea55 0c02 	orrsne.w	ip, r5, r2
   13bd6:	ea7f 5c64 	mvnsne.w	ip, r4, asr #21
   13bda:	ea7f 5c65 	mvnsne.w	ip, r5, asr #21
   13bde:	f000 80e2 	beq.w	13da6 <__adddf3+0x1ee>
   13be2:	ea4f 5454 	mov.w	r4, r4, lsr #21
   13be6:	ebd4 5555 	rsbs	r5, r4, r5, lsr #21
   13bea:	bfb8      	it	lt
   13bec:	426d      	neglt	r5, r5
   13bee:	dd0c      	ble.n	13c0a <__adddf3+0x52>
   13bf0:	442c      	add	r4, r5
   13bf2:	ea80 0202 	eor.w	r2, r0, r2
   13bf6:	ea81 0303 	eor.w	r3, r1, r3
   13bfa:	ea82 0000 	eor.w	r0, r2, r0
   13bfe:	ea83 0101 	eor.w	r1, r3, r1
   13c02:	ea80 0202 	eor.w	r2, r0, r2
   13c06:	ea81 0303 	eor.w	r3, r1, r3
   13c0a:	2d36      	cmp	r5, #54	; 0x36
   13c0c:	bf88      	it	hi
   13c0e:	bd30      	pophi	{r4, r5, pc}
   13c10:	f011 4f00 	tst.w	r1, #2147483648	; 0x80000000
   13c14:	ea4f 3101 	mov.w	r1, r1, lsl #12
   13c18:	f44f 1c80 	mov.w	ip, #1048576	; 0x100000
   13c1c:	ea4c 3111 	orr.w	r1, ip, r1, lsr #12
   13c20:	d002      	beq.n	13c28 <__adddf3+0x70>
   13c22:	4240      	negs	r0, r0
   13c24:	eb61 0141 	sbc.w	r1, r1, r1, lsl #1
   13c28:	f013 4f00 	tst.w	r3, #2147483648	; 0x80000000
   13c2c:	ea4f 3303 	mov.w	r3, r3, lsl #12
   13c30:	ea4c 3313 	orr.w	r3, ip, r3, lsr #12
   13c34:	d002      	beq.n	13c3c <__adddf3+0x84>
   13c36:	4252      	negs	r2, r2
   13c38:	eb63 0343 	sbc.w	r3, r3, r3, lsl #1
   13c3c:	ea94 0f05 	teq	r4, r5
   13c40:	f000 80a7 	beq.w	13d92 <__adddf3+0x1da>
   13c44:	f1a4 0401 	sub.w	r4, r4, #1
   13c48:	f1d5 0e20 	rsbs	lr, r5, #32
   13c4c:	db0d      	blt.n	13c6a <__adddf3+0xb2>
   13c4e:	fa02 fc0e 	lsl.w	ip, r2, lr
   13c52:	fa22 f205 	lsr.w	r2, r2, r5
   13c56:	1880      	adds	r0, r0, r2
   13c58:	f141 0100 	adc.w	r1, r1, #0
   13c5c:	fa03 f20e 	lsl.w	r2, r3, lr
   13c60:	1880      	adds	r0, r0, r2
   13c62:	fa43 f305 	asr.w	r3, r3, r5
   13c66:	4159      	adcs	r1, r3
   13c68:	e00e      	b.n	13c88 <__adddf3+0xd0>
   13c6a:	f1a5 0520 	sub.w	r5, r5, #32
   13c6e:	f10e 0e20 	add.w	lr, lr, #32
   13c72:	2a01      	cmp	r2, #1
   13c74:	fa03 fc0e 	lsl.w	ip, r3, lr
   13c78:	bf28      	it	cs
   13c7a:	f04c 0c02 	orrcs.w	ip, ip, #2
   13c7e:	fa43 f305 	asr.w	r3, r3, r5
   13c82:	18c0      	adds	r0, r0, r3
   13c84:	eb51 71e3 	adcs.w	r1, r1, r3, asr #31
   13c88:	f001 4500 	and.w	r5, r1, #2147483648	; 0x80000000
   13c8c:	d507      	bpl.n	13c9e <__adddf3+0xe6>
   13c8e:	f04f 0e00 	mov.w	lr, #0
   13c92:	f1dc 0c00 	rsbs	ip, ip, #0
   13c96:	eb7e 0000 	sbcs.w	r0, lr, r0
   13c9a:	eb6e 0101 	sbc.w	r1, lr, r1
   13c9e:	f5b1 1f80 	cmp.w	r1, #1048576	; 0x100000
   13ca2:	d31b      	bcc.n	13cdc <__adddf3+0x124>
   13ca4:	f5b1 1f00 	cmp.w	r1, #2097152	; 0x200000
   13ca8:	d30c      	bcc.n	13cc4 <__adddf3+0x10c>
   13caa:	0849      	lsrs	r1, r1, #1
   13cac:	ea5f 0030 	movs.w	r0, r0, rrx
   13cb0:	ea4f 0c3c 	mov.w	ip, ip, rrx
   13cb4:	f104 0401 	add.w	r4, r4, #1
   13cb8:	ea4f 5244 	mov.w	r2, r4, lsl #21
   13cbc:	f512 0f80 	cmn.w	r2, #4194304	; 0x400000
   13cc0:	f080 809a 	bcs.w	13df8 <__adddf3+0x240>
   13cc4:	f1bc 4f00 	cmp.w	ip, #2147483648	; 0x80000000
   13cc8:	bf08      	it	eq
   13cca:	ea5f 0c50 	movseq.w	ip, r0, lsr #1
   13cce:	f150 0000 	adcs.w	r0, r0, #0
   13cd2:	eb41 5104 	adc.w	r1, r1, r4, lsl #20
   13cd6:	ea41 0105 	orr.w	r1, r1, r5
   13cda:	bd30      	pop	{r4, r5, pc}
   13cdc:	ea5f 0c4c 	movs.w	ip, ip, lsl #1
   13ce0:	4140      	adcs	r0, r0
   13ce2:	eb41 0101 	adc.w	r1, r1, r1
   13ce6:	f411 1f80 	tst.w	r1, #1048576	; 0x100000
   13cea:	f1a4 0401 	sub.w	r4, r4, #1
   13cee:	d1e9      	bne.n	13cc4 <__adddf3+0x10c>
   13cf0:	f091 0f00 	teq	r1, #0
   13cf4:	bf04      	itt	eq
   13cf6:	4601      	moveq	r1, r0
   13cf8:	2000      	moveq	r0, #0
   13cfa:	fab1 f381 	clz	r3, r1
   13cfe:	bf08      	it	eq
   13d00:	3320      	addeq	r3, #32
   13d02:	f1a3 030b 	sub.w	r3, r3, #11
   13d06:	f1b3 0220 	subs.w	r2, r3, #32
   13d0a:	da0c      	bge.n	13d26 <__adddf3+0x16e>
   13d0c:	320c      	adds	r2, #12
   13d0e:	dd08      	ble.n	13d22 <__adddf3+0x16a>
   13d10:	f102 0c14 	add.w	ip, r2, #20
   13d14:	f1c2 020c 	rsb	r2, r2, #12
   13d18:	fa01 f00c 	lsl.w	r0, r1, ip
   13d1c:	fa21 f102 	lsr.w	r1, r1, r2
   13d20:	e00c      	b.n	13d3c <__adddf3+0x184>
   13d22:	f102 0214 	add.w	r2, r2, #20
   13d26:	bfd8      	it	le
   13d28:	f1c2 0c20 	rsble	ip, r2, #32
   13d2c:	fa01 f102 	lsl.w	r1, r1, r2
   13d30:	fa20 fc0c 	lsr.w	ip, r0, ip
   13d34:	bfdc      	itt	le
   13d36:	ea41 010c 	orrle.w	r1, r1, ip
   13d3a:	4090      	lslle	r0, r2
   13d3c:	1ae4      	subs	r4, r4, r3
   13d3e:	bfa2      	ittt	ge
   13d40:	eb01 5104 	addge.w	r1, r1, r4, lsl #20
   13d44:	4329      	orrge	r1, r5
   13d46:	bd30      	popge	{r4, r5, pc}
   13d48:	ea6f 0404 	mvn.w	r4, r4
   13d4c:	3c1f      	subs	r4, #31
   13d4e:	da1c      	bge.n	13d8a <__adddf3+0x1d2>
   13d50:	340c      	adds	r4, #12
   13d52:	dc0e      	bgt.n	13d72 <__adddf3+0x1ba>
   13d54:	f104 0414 	add.w	r4, r4, #20
   13d58:	f1c4 0220 	rsb	r2, r4, #32
   13d5c:	fa20 f004 	lsr.w	r0, r0, r4
   13d60:	fa01 f302 	lsl.w	r3, r1, r2
   13d64:	ea40 0003 	orr.w	r0, r0, r3
   13d68:	fa21 f304 	lsr.w	r3, r1, r4
   13d6c:	ea45 0103 	orr.w	r1, r5, r3
   13d70:	bd30      	pop	{r4, r5, pc}
   13d72:	f1c4 040c 	rsb	r4, r4, #12
   13d76:	f1c4 0220 	rsb	r2, r4, #32
   13d7a:	fa20 f002 	lsr.w	r0, r0, r2
   13d7e:	fa01 f304 	lsl.w	r3, r1, r4
   13d82:	ea40 0003 	orr.w	r0, r0, r3
   13d86:	4629      	mov	r1, r5
   13d88:	bd30      	pop	{r4, r5, pc}
   13d8a:	fa21 f004 	lsr.w	r0, r1, r4
   13d8e:	4629      	mov	r1, r5
   13d90:	bd30      	pop	{r4, r5, pc}
   13d92:	f094 0f00 	teq	r4, #0
   13d96:	f483 1380 	eor.w	r3, r3, #1048576	; 0x100000
   13d9a:	bf06      	itte	eq
   13d9c:	f481 1180 	eoreq.w	r1, r1, #1048576	; 0x100000
   13da0:	3401      	addeq	r4, #1
   13da2:	3d01      	subne	r5, #1
   13da4:	e74e      	b.n	13c44 <__adddf3+0x8c>
   13da6:	ea7f 5c64 	mvns.w	ip, r4, asr #21
   13daa:	bf18      	it	ne
   13dac:	ea7f 5c65 	mvnsne.w	ip, r5, asr #21
   13db0:	d029      	beq.n	13e06 <__adddf3+0x24e>
   13db2:	ea94 0f05 	teq	r4, r5
   13db6:	bf08      	it	eq
   13db8:	ea90 0f02 	teqeq	r0, r2
   13dbc:	d005      	beq.n	13dca <__adddf3+0x212>
   13dbe:	ea54 0c00 	orrs.w	ip, r4, r0
   13dc2:	bf04      	itt	eq
   13dc4:	4619      	moveq	r1, r3
   13dc6:	4610      	moveq	r0, r2
   13dc8:	bd30      	pop	{r4, r5, pc}
   13dca:	ea91 0f03 	teq	r1, r3
   13dce:	bf1e      	ittt	ne
   13dd0:	2100      	movne	r1, #0
   13dd2:	2000      	movne	r0, #0
   13dd4:	bd30      	popne	{r4, r5, pc}
   13dd6:	ea5f 5c54 	movs.w	ip, r4, lsr #21
   13dda:	d105      	bne.n	13de8 <__adddf3+0x230>
   13ddc:	0040      	lsls	r0, r0, #1
   13dde:	4149      	adcs	r1, r1
   13de0:	bf28      	it	cs
   13de2:	f041 4100 	orrcs.w	r1, r1, #2147483648	; 0x80000000
   13de6:	bd30      	pop	{r4, r5, pc}
   13de8:	f514 0480 	adds.w	r4, r4, #4194304	; 0x400000
   13dec:	bf3c      	itt	cc
   13dee:	f501 1180 	addcc.w	r1, r1, #1048576	; 0x100000
   13df2:	bd30      	popcc	{r4, r5, pc}
   13df4:	f001 4500 	and.w	r5, r1, #2147483648	; 0x80000000
   13df8:	f045 41fe 	orr.w	r1, r5, #2130706432	; 0x7f000000
   13dfc:	f441 0170 	orr.w	r1, r1, #15728640	; 0xf00000
   13e00:	f04f 0000 	mov.w	r0, #0
   13e04:	bd30      	pop	{r4, r5, pc}
   13e06:	ea7f 5c64 	mvns.w	ip, r4, asr #21
   13e0a:	bf1a      	itte	ne
   13e0c:	4619      	movne	r1, r3
   13e0e:	4610      	movne	r0, r2
   13e10:	ea7f 5c65 	mvnseq.w	ip, r5, asr #21
   13e14:	bf1c      	itt	ne
   13e16:	460b      	movne	r3, r1
   13e18:	4602      	movne	r2, r0
   13e1a:	ea50 3401 	orrs.w	r4, r0, r1, lsl #12
   13e1e:	bf06      	itte	eq
   13e20:	ea52 3503 	orrseq.w	r5, r2, r3, lsl #12
   13e24:	ea91 0f03 	teqeq	r1, r3
   13e28:	f441 2100 	orrne.w	r1, r1, #524288	; 0x80000
   13e2c:	bd30      	pop	{r4, r5, pc}
   13e2e:	bf00      	nop

00013e30 <__aeabi_ui2d>:
   13e30:	f090 0f00 	teq	r0, #0
   13e34:	bf04      	itt	eq
   13e36:	2100      	moveq	r1, #0
   13e38:	4770      	bxeq	lr
   13e3a:	b530      	push	{r4, r5, lr}
   13e3c:	f44f 6480 	mov.w	r4, #1024	; 0x400
   13e40:	f104 0432 	add.w	r4, r4, #50	; 0x32
   13e44:	f04f 0500 	mov.w	r5, #0
   13e48:	f04f 0100 	mov.w	r1, #0
   13e4c:	e750      	b.n	13cf0 <__adddf3+0x138>
   13e4e:	bf00      	nop

00013e50 <__aeabi_i2d>:
   13e50:	f090 0f00 	teq	r0, #0
   13e54:	bf04      	itt	eq
   13e56:	2100      	moveq	r1, #0
   13e58:	4770      	bxeq	lr
   13e5a:	b530      	push	{r4, r5, lr}
   13e5c:	f44f 6480 	mov.w	r4, #1024	; 0x400
   13e60:	f104 0432 	add.w	r4, r4, #50	; 0x32
   13e64:	f010 4500 	ands.w	r5, r0, #2147483648	; 0x80000000
   13e68:	bf48      	it	mi
   13e6a:	4240      	negmi	r0, r0
   13e6c:	f04f 0100 	mov.w	r1, #0
   13e70:	e73e      	b.n	13cf0 <__adddf3+0x138>
   13e72:	bf00      	nop

00013e74 <__aeabi_f2d>:
   13e74:	0042      	lsls	r2, r0, #1
   13e76:	ea4f 01e2 	mov.w	r1, r2, asr #3
   13e7a:	ea4f 0131 	mov.w	r1, r1, rrx
   13e7e:	ea4f 7002 	mov.w	r0, r2, lsl #28
   13e82:	bf1f      	itttt	ne
   13e84:	f012 437f 	andsne.w	r3, r2, #4278190080	; 0xff000000
   13e88:	f093 4f7f 	teqne	r3, #4278190080	; 0xff000000
   13e8c:	f081 5160 	eorne.w	r1, r1, #939524096	; 0x38000000
   13e90:	4770      	bxne	lr
   13e92:	f092 0f00 	teq	r2, #0
   13e96:	bf14      	ite	ne
   13e98:	f093 4f7f 	teqne	r3, #4278190080	; 0xff000000
   13e9c:	4770      	bxeq	lr
   13e9e:	b530      	push	{r4, r5, lr}
   13ea0:	f44f 7460 	mov.w	r4, #896	; 0x380
   13ea4:	f001 4500 	and.w	r5, r1, #2147483648	; 0x80000000
   13ea8:	f021 4100 	bic.w	r1, r1, #2147483648	; 0x80000000
   13eac:	e720      	b.n	13cf0 <__adddf3+0x138>
   13eae:	bf00      	nop

00013eb0 <__aeabi_ul2d>:
   13eb0:	ea50 0201 	orrs.w	r2, r0, r1
   13eb4:	bf08      	it	eq
   13eb6:	4770      	bxeq	lr
   13eb8:	b530      	push	{r4, r5, lr}
   13eba:	f04f 0500 	mov.w	r5, #0
   13ebe:	e00a      	b.n	13ed6 <__aeabi_l2d+0x16>

00013ec0 <__aeabi_l2d>:
   13ec0:	ea50 0201 	orrs.w	r2, r0, r1
   13ec4:	bf08      	it	eq
   13ec6:	4770      	bxeq	lr
   13ec8:	b530      	push	{r4, r5, lr}
   13eca:	f011 4500 	ands.w	r5, r1, #2147483648	; 0x80000000
   13ece:	d502      	bpl.n	13ed6 <__aeabi_l2d+0x16>
   13ed0:	4240      	negs	r0, r0
   13ed2:	eb61 0141 	sbc.w	r1, r1, r1, lsl #1
   13ed6:	f44f 6480 	mov.w	r4, #1024	; 0x400
   13eda:	f104 0432 	add.w	r4, r4, #50	; 0x32
   13ede:	ea5f 5c91 	movs.w	ip, r1, lsr #22
   13ee2:	f43f aedc 	beq.w	13c9e <__adddf3+0xe6>
   13ee6:	f04f 0203 	mov.w	r2, #3
   13eea:	ea5f 0cdc 	movs.w	ip, ip, lsr #3
   13eee:	bf18      	it	ne
   13ef0:	3203      	addne	r2, #3
   13ef2:	ea5f 0cdc 	movs.w	ip, ip, lsr #3
   13ef6:	bf18      	it	ne
   13ef8:	3203      	addne	r2, #3
   13efa:	eb02 02dc 	add.w	r2, r2, ip, lsr #3
   13efe:	f1c2 0320 	rsb	r3, r2, #32
   13f02:	fa00 fc03 	lsl.w	ip, r0, r3
   13f06:	fa20 f002 	lsr.w	r0, r0, r2
   13f0a:	fa01 fe03 	lsl.w	lr, r1, r3
   13f0e:	ea40 000e 	orr.w	r0, r0, lr
   13f12:	fa21 f102 	lsr.w	r1, r1, r2
   13f16:	4414      	add	r4, r2
   13f18:	e6c1      	b.n	13c9e <__adddf3+0xe6>
   13f1a:	bf00      	nop

00013f1c <__aeabi_dmul>:
   13f1c:	b570      	push	{r4, r5, r6, lr}
   13f1e:	f04f 0cff 	mov.w	ip, #255	; 0xff
   13f22:	f44c 6ce0 	orr.w	ip, ip, #1792	; 0x700
   13f26:	ea1c 5411 	ands.w	r4, ip, r1, lsr #20
   13f2a:	bf1d      	ittte	ne
   13f2c:	ea1c 5513 	andsne.w	r5, ip, r3, lsr #20
   13f30:	ea94 0f0c 	teqne	r4, ip
   13f34:	ea95 0f0c 	teqne	r5, ip
   13f38:	f000 f8de 	bleq	140f8 <__aeabi_dmul+0x1dc>
   13f3c:	442c      	add	r4, r5
   13f3e:	ea81 0603 	eor.w	r6, r1, r3
   13f42:	ea21 514c 	bic.w	r1, r1, ip, lsl #21
   13f46:	ea23 534c 	bic.w	r3, r3, ip, lsl #21
   13f4a:	ea50 3501 	orrs.w	r5, r0, r1, lsl #12
   13f4e:	bf18      	it	ne
   13f50:	ea52 3503 	orrsne.w	r5, r2, r3, lsl #12
   13f54:	f441 1180 	orr.w	r1, r1, #1048576	; 0x100000
   13f58:	f443 1380 	orr.w	r3, r3, #1048576	; 0x100000
   13f5c:	d038      	beq.n	13fd0 <__aeabi_dmul+0xb4>
   13f5e:	fba0 ce02 	umull	ip, lr, r0, r2
   13f62:	f04f 0500 	mov.w	r5, #0
   13f66:	fbe1 e502 	umlal	lr, r5, r1, r2
   13f6a:	f006 4200 	and.w	r2, r6, #2147483648	; 0x80000000
   13f6e:	fbe0 e503 	umlal	lr, r5, r0, r3
   13f72:	f04f 0600 	mov.w	r6, #0
   13f76:	fbe1 5603 	umlal	r5, r6, r1, r3
   13f7a:	f09c 0f00 	teq	ip, #0
   13f7e:	bf18      	it	ne
   13f80:	f04e 0e01 	orrne.w	lr, lr, #1
   13f84:	f1a4 04ff 	sub.w	r4, r4, #255	; 0xff
   13f88:	f5b6 7f00 	cmp.w	r6, #512	; 0x200
   13f8c:	f564 7440 	sbc.w	r4, r4, #768	; 0x300
   13f90:	d204      	bcs.n	13f9c <__aeabi_dmul+0x80>
   13f92:	ea5f 0e4e 	movs.w	lr, lr, lsl #1
   13f96:	416d      	adcs	r5, r5
   13f98:	eb46 0606 	adc.w	r6, r6, r6
   13f9c:	ea42 21c6 	orr.w	r1, r2, r6, lsl #11
   13fa0:	ea41 5155 	orr.w	r1, r1, r5, lsr #21
   13fa4:	ea4f 20c5 	mov.w	r0, r5, lsl #11
   13fa8:	ea40 505e 	orr.w	r0, r0, lr, lsr #21
   13fac:	ea4f 2ece 	mov.w	lr, lr, lsl #11
   13fb0:	f1b4 0cfd 	subs.w	ip, r4, #253	; 0xfd
   13fb4:	bf88      	it	hi
   13fb6:	f5bc 6fe0 	cmphi.w	ip, #1792	; 0x700
   13fba:	d81e      	bhi.n	13ffa <__aeabi_dmul+0xde>
   13fbc:	f1be 4f00 	cmp.w	lr, #2147483648	; 0x80000000
   13fc0:	bf08      	it	eq
   13fc2:	ea5f 0e50 	movseq.w	lr, r0, lsr #1
   13fc6:	f150 0000 	adcs.w	r0, r0, #0
   13fca:	eb41 5104 	adc.w	r1, r1, r4, lsl #20
   13fce:	bd70      	pop	{r4, r5, r6, pc}
   13fd0:	f006 4600 	and.w	r6, r6, #2147483648	; 0x80000000
   13fd4:	ea46 0101 	orr.w	r1, r6, r1
   13fd8:	ea40 0002 	orr.w	r0, r0, r2
   13fdc:	ea81 0103 	eor.w	r1, r1, r3
   13fe0:	ebb4 045c 	subs.w	r4, r4, ip, lsr #1
   13fe4:	bfc2      	ittt	gt
   13fe6:	ebd4 050c 	rsbsgt	r5, r4, ip
   13fea:	ea41 5104 	orrgt.w	r1, r1, r4, lsl #20
   13fee:	bd70      	popgt	{r4, r5, r6, pc}
   13ff0:	f441 1180 	orr.w	r1, r1, #1048576	; 0x100000
   13ff4:	f04f 0e00 	mov.w	lr, #0
   13ff8:	3c01      	subs	r4, #1
   13ffa:	f300 80ab 	bgt.w	14154 <__aeabi_dmul+0x238>
   13ffe:	f114 0f36 	cmn.w	r4, #54	; 0x36
   14002:	bfde      	ittt	le
   14004:	2000      	movle	r0, #0
   14006:	f001 4100 	andle.w	r1, r1, #2147483648	; 0x80000000
   1400a:	bd70      	pople	{r4, r5, r6, pc}
   1400c:	f1c4 0400 	rsb	r4, r4, #0
   14010:	3c20      	subs	r4, #32
   14012:	da35      	bge.n	14080 <__aeabi_dmul+0x164>
   14014:	340c      	adds	r4, #12
   14016:	dc1b      	bgt.n	14050 <__aeabi_dmul+0x134>
   14018:	f104 0414 	add.w	r4, r4, #20
   1401c:	f1c4 0520 	rsb	r5, r4, #32
   14020:	fa00 f305 	lsl.w	r3, r0, r5
   14024:	fa20 f004 	lsr.w	r0, r0, r4
   14028:	fa01 f205 	lsl.w	r2, r1, r5
   1402c:	ea40 0002 	orr.w	r0, r0, r2
   14030:	f001 4200 	and.w	r2, r1, #2147483648	; 0x80000000
   14034:	f021 4100 	bic.w	r1, r1, #2147483648	; 0x80000000
   14038:	eb10 70d3 	adds.w	r0, r0, r3, lsr #31
   1403c:	fa21 f604 	lsr.w	r6, r1, r4
   14040:	eb42 0106 	adc.w	r1, r2, r6
   14044:	ea5e 0e43 	orrs.w	lr, lr, r3, lsl #1
   14048:	bf08      	it	eq
   1404a:	ea20 70d3 	biceq.w	r0, r0, r3, lsr #31
   1404e:	bd70      	pop	{r4, r5, r6, pc}
   14050:	f1c4 040c 	rsb	r4, r4, #12
   14054:	f1c4 0520 	rsb	r5, r4, #32
   14058:	fa00 f304 	lsl.w	r3, r0, r4
   1405c:	fa20 f005 	lsr.w	r0, r0, r5
   14060:	fa01 f204 	lsl.w	r2, r1, r4
   14064:	ea40 0002 	orr.w	r0, r0, r2
   14068:	f001 4100 	and.w	r1, r1, #2147483648	; 0x80000000
   1406c:	eb10 70d3 	adds.w	r0, r0, r3, lsr #31
   14070:	f141 0100 	adc.w	r1, r1, #0
   14074:	ea5e 0e43 	orrs.w	lr, lr, r3, lsl #1
   14078:	bf08      	it	eq
   1407a:	ea20 70d3 	biceq.w	r0, r0, r3, lsr #31
   1407e:	bd70      	pop	{r4, r5, r6, pc}
   14080:	f1c4 0520 	rsb	r5, r4, #32
   14084:	fa00 f205 	lsl.w	r2, r0, r5
   14088:	ea4e 0e02 	orr.w	lr, lr, r2
   1408c:	fa20 f304 	lsr.w	r3, r0, r4
   14090:	fa01 f205 	lsl.w	r2, r1, r5
   14094:	ea43 0302 	orr.w	r3, r3, r2
   14098:	fa21 f004 	lsr.w	r0, r1, r4
   1409c:	f001 4100 	and.w	r1, r1, #2147483648	; 0x80000000
   140a0:	fa21 f204 	lsr.w	r2, r1, r4
   140a4:	ea20 0002 	bic.w	r0, r0, r2
   140a8:	eb00 70d3 	add.w	r0, r0, r3, lsr #31
   140ac:	ea5e 0e43 	orrs.w	lr, lr, r3, lsl #1
   140b0:	bf08      	it	eq
   140b2:	ea20 70d3 	biceq.w	r0, r0, r3, lsr #31
   140b6:	bd70      	pop	{r4, r5, r6, pc}
   140b8:	f094 0f00 	teq	r4, #0
   140bc:	d10f      	bne.n	140de <__aeabi_dmul+0x1c2>
   140be:	f001 4600 	and.w	r6, r1, #2147483648	; 0x80000000
   140c2:	0040      	lsls	r0, r0, #1
   140c4:	eb41 0101 	adc.w	r1, r1, r1
   140c8:	f411 1f80 	tst.w	r1, #1048576	; 0x100000
   140cc:	bf08      	it	eq
   140ce:	3c01      	subeq	r4, #1
   140d0:	d0f7      	beq.n	140c2 <__aeabi_dmul+0x1a6>
   140d2:	ea41 0106 	orr.w	r1, r1, r6
   140d6:	f095 0f00 	teq	r5, #0
   140da:	bf18      	it	ne
   140dc:	4770      	bxne	lr
   140de:	f003 4600 	and.w	r6, r3, #2147483648	; 0x80000000
   140e2:	0052      	lsls	r2, r2, #1
   140e4:	eb43 0303 	adc.w	r3, r3, r3
   140e8:	f413 1f80 	tst.w	r3, #1048576	; 0x100000
   140ec:	bf08      	it	eq
   140ee:	3d01      	subeq	r5, #1
   140f0:	d0f7      	beq.n	140e2 <__aeabi_dmul+0x1c6>
   140f2:	ea43 0306 	orr.w	r3, r3, r6
   140f6:	4770      	bx	lr
   140f8:	ea94 0f0c 	teq	r4, ip
   140fc:	ea0c 5513 	and.w	r5, ip, r3, lsr #20
   14100:	bf18      	it	ne
   14102:	ea95 0f0c 	teqne	r5, ip
   14106:	d00c      	beq.n	14122 <__aeabi_dmul+0x206>
   14108:	ea50 0641 	orrs.w	r6, r0, r1, lsl #1
   1410c:	bf18      	it	ne
   1410e:	ea52 0643 	orrsne.w	r6, r2, r3, lsl #1
   14112:	d1d1      	bne.n	140b8 <__aeabi_dmul+0x19c>
   14114:	ea81 0103 	eor.w	r1, r1, r3
   14118:	f001 4100 	and.w	r1, r1, #2147483648	; 0x80000000
   1411c:	f04f 0000 	mov.w	r0, #0
   14120:	bd70      	pop	{r4, r5, r6, pc}
   14122:	ea50 0641 	orrs.w	r6, r0, r1, lsl #1
   14126:	bf06      	itte	eq
   14128:	4610      	moveq	r0, r2
   1412a:	4619      	moveq	r1, r3
   1412c:	ea52 0643 	orrsne.w	r6, r2, r3, lsl #1
   14130:	d019      	beq.n	14166 <__aeabi_dmul+0x24a>
   14132:	ea94 0f0c 	teq	r4, ip
   14136:	d102      	bne.n	1413e <__aeabi_dmul+0x222>
   14138:	ea50 3601 	orrs.w	r6, r0, r1, lsl #12
   1413c:	d113      	bne.n	14166 <__aeabi_dmul+0x24a>
   1413e:	ea95 0f0c 	teq	r5, ip
   14142:	d105      	bne.n	14150 <__aeabi_dmul+0x234>
   14144:	ea52 3603 	orrs.w	r6, r2, r3, lsl #12
   14148:	bf1c      	itt	ne
   1414a:	4610      	movne	r0, r2
   1414c:	4619      	movne	r1, r3
   1414e:	d10a      	bne.n	14166 <__aeabi_dmul+0x24a>
   14150:	ea81 0103 	eor.w	r1, r1, r3
   14154:	f001 4100 	and.w	r1, r1, #2147483648	; 0x80000000
   14158:	f041 41fe 	orr.w	r1, r1, #2130706432	; 0x7f000000
   1415c:	f441 0170 	orr.w	r1, r1, #15728640	; 0xf00000
   14160:	f04f 0000 	mov.w	r0, #0
   14164:	bd70      	pop	{r4, r5, r6, pc}
   14166:	f041 41fe 	orr.w	r1, r1, #2130706432	; 0x7f000000
   1416a:	f441 0178 	orr.w	r1, r1, #16252928	; 0xf80000
   1416e:	bd70      	pop	{r4, r5, r6, pc}

00014170 <__aeabi_ddiv>:
   14170:	b570      	push	{r4, r5, r6, lr}
   14172:	f04f 0cff 	mov.w	ip, #255	; 0xff
   14176:	f44c 6ce0 	orr.w	ip, ip, #1792	; 0x700
   1417a:	ea1c 5411 	ands.w	r4, ip, r1, lsr #20
   1417e:	bf1d      	ittte	ne
   14180:	ea1c 5513 	andsne.w	r5, ip, r3, lsr #20
   14184:	ea94 0f0c 	teqne	r4, ip
   14188:	ea95 0f0c 	teqne	r5, ip
   1418c:	f000 f8a7 	bleq	142de <__aeabi_ddiv+0x16e>
   14190:	eba4 0405 	sub.w	r4, r4, r5
   14194:	ea81 0e03 	eor.w	lr, r1, r3
   14198:	ea52 3503 	orrs.w	r5, r2, r3, lsl #12
   1419c:	ea4f 3101 	mov.w	r1, r1, lsl #12
   141a0:	f000 8088 	beq.w	142b4 <__aeabi_ddiv+0x144>
   141a4:	ea4f 3303 	mov.w	r3, r3, lsl #12
   141a8:	f04f 5580 	mov.w	r5, #268435456	; 0x10000000
   141ac:	ea45 1313 	orr.w	r3, r5, r3, lsr #4
   141b0:	ea43 6312 	orr.w	r3, r3, r2, lsr #24
   141b4:	ea4f 2202 	mov.w	r2, r2, lsl #8
   141b8:	ea45 1511 	orr.w	r5, r5, r1, lsr #4
   141bc:	ea45 6510 	orr.w	r5, r5, r0, lsr #24
   141c0:	ea4f 2600 	mov.w	r6, r0, lsl #8
   141c4:	f00e 4100 	and.w	r1, lr, #2147483648	; 0x80000000
   141c8:	429d      	cmp	r5, r3
   141ca:	bf08      	it	eq
   141cc:	4296      	cmpeq	r6, r2
   141ce:	f144 04fd 	adc.w	r4, r4, #253	; 0xfd
   141d2:	f504 7440 	add.w	r4, r4, #768	; 0x300
   141d6:	d202      	bcs.n	141de <__aeabi_ddiv+0x6e>
   141d8:	085b      	lsrs	r3, r3, #1
   141da:	ea4f 0232 	mov.w	r2, r2, rrx
   141de:	1ab6      	subs	r6, r6, r2
   141e0:	eb65 0503 	sbc.w	r5, r5, r3
   141e4:	085b      	lsrs	r3, r3, #1
   141e6:	ea4f 0232 	mov.w	r2, r2, rrx
   141ea:	f44f 1080 	mov.w	r0, #1048576	; 0x100000
   141ee:	f44f 2c00 	mov.w	ip, #524288	; 0x80000
   141f2:	ebb6 0e02 	subs.w	lr, r6, r2
   141f6:	eb75 0e03 	sbcs.w	lr, r5, r3
   141fa:	bf22      	ittt	cs
   141fc:	1ab6      	subcs	r6, r6, r2
   141fe:	4675      	movcs	r5, lr
   14200:	ea40 000c 	orrcs.w	r0, r0, ip
   14204:	085b      	lsrs	r3, r3, #1
   14206:	ea4f 0232 	mov.w	r2, r2, rrx
   1420a:	ebb6 0e02 	subs.w	lr, r6, r2
   1420e:	eb75 0e03 	sbcs.w	lr, r5, r3
   14212:	bf22      	ittt	cs
   14214:	1ab6      	subcs	r6, r6, r2
   14216:	4675      	movcs	r5, lr
   14218:	ea40 005c 	orrcs.w	r0, r0, ip, lsr #1
   1421c:	085b      	lsrs	r3, r3, #1
   1421e:	ea4f 0232 	mov.w	r2, r2, rrx
   14222:	ebb6 0e02 	subs.w	lr, r6, r2
   14226:	eb75 0e03 	sbcs.w	lr, r5, r3
   1422a:	bf22      	ittt	cs
   1422c:	1ab6      	subcs	r6, r6, r2
   1422e:	4675      	movcs	r5, lr
   14230:	ea40 009c 	orrcs.w	r0, r0, ip, lsr #2
   14234:	085b      	lsrs	r3, r3, #1
   14236:	ea4f 0232 	mov.w	r2, r2, rrx
   1423a:	ebb6 0e02 	subs.w	lr, r6, r2
   1423e:	eb75 0e03 	sbcs.w	lr, r5, r3
   14242:	bf22      	ittt	cs
   14244:	1ab6      	subcs	r6, r6, r2
   14246:	4675      	movcs	r5, lr
   14248:	ea40 00dc 	orrcs.w	r0, r0, ip, lsr #3
   1424c:	ea55 0e06 	orrs.w	lr, r5, r6
   14250:	d018      	beq.n	14284 <__aeabi_ddiv+0x114>
   14252:	ea4f 1505 	mov.w	r5, r5, lsl #4
   14256:	ea45 7516 	orr.w	r5, r5, r6, lsr #28
   1425a:	ea4f 1606 	mov.w	r6, r6, lsl #4
   1425e:	ea4f 03c3 	mov.w	r3, r3, lsl #3
   14262:	ea43 7352 	orr.w	r3, r3, r2, lsr #29
   14266:	ea4f 02c2 	mov.w	r2, r2, lsl #3
   1426a:	ea5f 1c1c 	movs.w	ip, ip, lsr #4
   1426e:	d1c0      	bne.n	141f2 <__aeabi_ddiv+0x82>
   14270:	f411 1f80 	tst.w	r1, #1048576	; 0x100000
   14274:	d10b      	bne.n	1428e <__aeabi_ddiv+0x11e>
   14276:	ea41 0100 	orr.w	r1, r1, r0
   1427a:	f04f 0000 	mov.w	r0, #0
   1427e:	f04f 4c00 	mov.w	ip, #2147483648	; 0x80000000
   14282:	e7b6      	b.n	141f2 <__aeabi_ddiv+0x82>
   14284:	f411 1f80 	tst.w	r1, #1048576	; 0x100000
   14288:	bf04      	itt	eq
   1428a:	4301      	orreq	r1, r0
   1428c:	2000      	moveq	r0, #0
   1428e:	f1b4 0cfd 	subs.w	ip, r4, #253	; 0xfd
   14292:	bf88      	it	hi
   14294:	f5bc 6fe0 	cmphi.w	ip, #1792	; 0x700
   14298:	f63f aeaf 	bhi.w	13ffa <__aeabi_dmul+0xde>
   1429c:	ebb5 0c03 	subs.w	ip, r5, r3
   142a0:	bf04      	itt	eq
   142a2:	ebb6 0c02 	subseq.w	ip, r6, r2
   142a6:	ea5f 0c50 	movseq.w	ip, r0, lsr #1
   142aa:	f150 0000 	adcs.w	r0, r0, #0
   142ae:	eb41 5104 	adc.w	r1, r1, r4, lsl #20
   142b2:	bd70      	pop	{r4, r5, r6, pc}
   142b4:	f00e 4e00 	and.w	lr, lr, #2147483648	; 0x80000000
   142b8:	ea4e 3111 	orr.w	r1, lr, r1, lsr #12
   142bc:	eb14 045c 	adds.w	r4, r4, ip, lsr #1
   142c0:	bfc2      	ittt	gt
   142c2:	ebd4 050c 	rsbsgt	r5, r4, ip
   142c6:	ea41 5104 	orrgt.w	r1, r1, r4, lsl #20
   142ca:	bd70      	popgt	{r4, r5, r6, pc}
   142cc:	f441 1180 	orr.w	r1, r1, #1048576	; 0x100000
   142d0:	f04f 0e00 	mov.w	lr, #0
   142d4:	3c01      	subs	r4, #1
   142d6:	e690      	b.n	13ffa <__aeabi_dmul+0xde>
   142d8:	ea45 0e06 	orr.w	lr, r5, r6
   142dc:	e68d      	b.n	13ffa <__aeabi_dmul+0xde>
   142de:	ea0c 5513 	and.w	r5, ip, r3, lsr #20
   142e2:	ea94 0f0c 	teq	r4, ip
   142e6:	bf08      	it	eq
   142e8:	ea95 0f0c 	teqeq	r5, ip
   142ec:	f43f af3b 	beq.w	14166 <__aeabi_dmul+0x24a>
   142f0:	ea94 0f0c 	teq	r4, ip
   142f4:	d10a      	bne.n	1430c <__aeabi_ddiv+0x19c>
   142f6:	ea50 3401 	orrs.w	r4, r0, r1, lsl #12
   142fa:	f47f af34 	bne.w	14166 <__aeabi_dmul+0x24a>
   142fe:	ea95 0f0c 	teq	r5, ip
   14302:	f47f af25 	bne.w	14150 <__aeabi_dmul+0x234>
   14306:	4610      	mov	r0, r2
   14308:	4619      	mov	r1, r3
   1430a:	e72c      	b.n	14166 <__aeabi_dmul+0x24a>
   1430c:	ea95 0f0c 	teq	r5, ip
   14310:	d106      	bne.n	14320 <__aeabi_ddiv+0x1b0>
   14312:	ea52 3503 	orrs.w	r5, r2, r3, lsl #12
   14316:	f43f aefd 	beq.w	14114 <__aeabi_dmul+0x1f8>
   1431a:	4610      	mov	r0, r2
   1431c:	4619      	mov	r1, r3
   1431e:	e722      	b.n	14166 <__aeabi_dmul+0x24a>
   14320:	ea50 0641 	orrs.w	r6, r0, r1, lsl #1
   14324:	bf18      	it	ne
   14326:	ea52 0643 	orrsne.w	r6, r2, r3, lsl #1
   1432a:	f47f aec5 	bne.w	140b8 <__aeabi_dmul+0x19c>
   1432e:	ea50 0441 	orrs.w	r4, r0, r1, lsl #1
   14332:	f47f af0d 	bne.w	14150 <__aeabi_dmul+0x234>
   14336:	ea52 0543 	orrs.w	r5, r2, r3, lsl #1
   1433a:	f47f aeeb 	bne.w	14114 <__aeabi_dmul+0x1f8>
   1433e:	e712      	b.n	14166 <__aeabi_dmul+0x24a>

00014340 <__gedf2>:
   14340:	f04f 3cff 	mov.w	ip, #4294967295
   14344:	e006      	b.n	14354 <__cmpdf2+0x4>
   14346:	bf00      	nop

00014348 <__ledf2>:
   14348:	f04f 0c01 	mov.w	ip, #1
   1434c:	e002      	b.n	14354 <__cmpdf2+0x4>
   1434e:	bf00      	nop

00014350 <__cmpdf2>:
   14350:	f04f 0c01 	mov.w	ip, #1
   14354:	f84d cd04 	str.w	ip, [sp, #-4]!
   14358:	ea4f 0c41 	mov.w	ip, r1, lsl #1
   1435c:	ea7f 5c6c 	mvns.w	ip, ip, asr #21
   14360:	ea4f 0c43 	mov.w	ip, r3, lsl #1
   14364:	bf18      	it	ne
   14366:	ea7f 5c6c 	mvnsne.w	ip, ip, asr #21
   1436a:	d01b      	beq.n	143a4 <__cmpdf2+0x54>
   1436c:	b001      	add	sp, #4
   1436e:	ea50 0c41 	orrs.w	ip, r0, r1, lsl #1
   14372:	bf0c      	ite	eq
   14374:	ea52 0c43 	orrseq.w	ip, r2, r3, lsl #1
   14378:	ea91 0f03 	teqne	r1, r3
   1437c:	bf02      	ittt	eq
   1437e:	ea90 0f02 	teqeq	r0, r2
   14382:	2000      	moveq	r0, #0
   14384:	4770      	bxeq	lr
   14386:	f110 0f00 	cmn.w	r0, #0
   1438a:	ea91 0f03 	teq	r1, r3
   1438e:	bf58      	it	pl
   14390:	4299      	cmppl	r1, r3
   14392:	bf08      	it	eq
   14394:	4290      	cmpeq	r0, r2
   14396:	bf2c      	ite	cs
   14398:	17d8      	asrcs	r0, r3, #31
   1439a:	ea6f 70e3 	mvncc.w	r0, r3, asr #31
   1439e:	f040 0001 	orr.w	r0, r0, #1
   143a2:	4770      	bx	lr
   143a4:	ea4f 0c41 	mov.w	ip, r1, lsl #1
   143a8:	ea7f 5c6c 	mvns.w	ip, ip, asr #21
   143ac:	d102      	bne.n	143b4 <__cmpdf2+0x64>
   143ae:	ea50 3c01 	orrs.w	ip, r0, r1, lsl #12
   143b2:	d107      	bne.n	143c4 <__cmpdf2+0x74>
   143b4:	ea4f 0c43 	mov.w	ip, r3, lsl #1
   143b8:	ea7f 5c6c 	mvns.w	ip, ip, asr #21
   143bc:	d1d6      	bne.n	1436c <__cmpdf2+0x1c>
   143be:	ea52 3c03 	orrs.w	ip, r2, r3, lsl #12
   143c2:	d0d3      	beq.n	1436c <__cmpdf2+0x1c>
   143c4:	f85d 0b04 	ldr.w	r0, [sp], #4
   143c8:	4770      	bx	lr
   143ca:	bf00      	nop

000143cc <__aeabi_cdrcmple>:
   143cc:	4684      	mov	ip, r0
   143ce:	4610      	mov	r0, r2
   143d0:	4662      	mov	r2, ip
   143d2:	468c      	mov	ip, r1
   143d4:	4619      	mov	r1, r3
   143d6:	4663      	mov	r3, ip
   143d8:	e000      	b.n	143dc <__aeabi_cdcmpeq>
   143da:	bf00      	nop

000143dc <__aeabi_cdcmpeq>:
   143dc:	b501      	push	{r0, lr}
   143de:	f7ff ffb7 	bl	14350 <__cmpdf2>
   143e2:	2800      	cmp	r0, #0
   143e4:	bf48      	it	mi
   143e6:	f110 0f00 	cmnmi.w	r0, #0
   143ea:	bd01      	pop	{r0, pc}

000143ec <__aeabi_dcmpeq>:
   143ec:	f84d ed08 	str.w	lr, [sp, #-8]!
   143f0:	f7ff fff4 	bl	143dc <__aeabi_cdcmpeq>
   143f4:	bf0c      	ite	eq
   143f6:	2001      	moveq	r0, #1
   143f8:	2000      	movne	r0, #0
   143fa:	f85d fb08 	ldr.w	pc, [sp], #8
   143fe:	bf00      	nop

00014400 <__aeabi_dcmplt>:
   14400:	f84d ed08 	str.w	lr, [sp, #-8]!
   14404:	f7ff ffea 	bl	143dc <__aeabi_cdcmpeq>
   14408:	bf34      	ite	cc
   1440a:	2001      	movcc	r0, #1
   1440c:	2000      	movcs	r0, #0
   1440e:	f85d fb08 	ldr.w	pc, [sp], #8
   14412:	bf00      	nop

00014414 <__aeabi_dcmple>:
   14414:	f84d ed08 	str.w	lr, [sp, #-8]!
   14418:	f7ff ffe0 	bl	143dc <__aeabi_cdcmpeq>
   1441c:	bf94      	ite	ls
   1441e:	2001      	movls	r0, #1
   14420:	2000      	movhi	r0, #0
   14422:	f85d fb08 	ldr.w	pc, [sp], #8
   14426:	bf00      	nop

00014428 <__aeabi_dcmpge>:
   14428:	f84d ed08 	str.w	lr, [sp, #-8]!
   1442c:	f7ff ffce 	bl	143cc <__aeabi_cdrcmple>
   14430:	bf94      	ite	ls
   14432:	2001      	movls	r0, #1
   14434:	2000      	movhi	r0, #0
   14436:	f85d fb08 	ldr.w	pc, [sp], #8
   1443a:	bf00      	nop

0001443c <__aeabi_dcmpgt>:
   1443c:	f84d ed08 	str.w	lr, [sp, #-8]!
   14440:	f7ff ffc4 	bl	143cc <__aeabi_cdrcmple>
   14444:	bf34      	ite	cc
   14446:	2001      	movcc	r0, #1
   14448:	2000      	movcs	r0, #0
   1444a:	f85d fb08 	ldr.w	pc, [sp], #8
   1444e:	bf00      	nop

00014450 <__aeabi_d2iz>:
   14450:	ea4f 0241 	mov.w	r2, r1, lsl #1
   14454:	f512 1200 	adds.w	r2, r2, #2097152	; 0x200000
   14458:	d215      	bcs.n	14486 <__aeabi_d2iz+0x36>
   1445a:	d511      	bpl.n	14480 <__aeabi_d2iz+0x30>
   1445c:	f46f 7378 	mvn.w	r3, #992	; 0x3e0
   14460:	ebb3 5262 	subs.w	r2, r3, r2, asr #21
   14464:	d912      	bls.n	1448c <__aeabi_d2iz+0x3c>
   14466:	ea4f 23c1 	mov.w	r3, r1, lsl #11
   1446a:	f043 4300 	orr.w	r3, r3, #2147483648	; 0x80000000
   1446e:	ea43 5350 	orr.w	r3, r3, r0, lsr #21
   14472:	f011 4f00 	tst.w	r1, #2147483648	; 0x80000000
   14476:	fa23 f002 	lsr.w	r0, r3, r2
   1447a:	bf18      	it	ne
   1447c:	4240      	negne	r0, r0
   1447e:	4770      	bx	lr
   14480:	f04f 0000 	mov.w	r0, #0
   14484:	4770      	bx	lr
   14486:	ea50 3001 	orrs.w	r0, r0, r1, lsl #12
   1448a:	d105      	bne.n	14498 <__aeabi_d2iz+0x48>
   1448c:	f011 4000 	ands.w	r0, r1, #2147483648	; 0x80000000
   14490:	bf08      	it	eq
   14492:	f06f 4000 	mvneq.w	r0, #2147483648	; 0x80000000
   14496:	4770      	bx	lr
   14498:	f04f 0000 	mov.w	r0, #0
   1449c:	4770      	bx	lr
   1449e:	bf00      	nop

000144a0 <__aeabi_d2uiz>:
   144a0:	004a      	lsls	r2, r1, #1
   144a2:	d211      	bcs.n	144c8 <__aeabi_d2uiz+0x28>
   144a4:	f512 1200 	adds.w	r2, r2, #2097152	; 0x200000
   144a8:	d211      	bcs.n	144ce <__aeabi_d2uiz+0x2e>
   144aa:	d50d      	bpl.n	144c8 <__aeabi_d2uiz+0x28>
   144ac:	f46f 7378 	mvn.w	r3, #992	; 0x3e0
   144b0:	ebb3 5262 	subs.w	r2, r3, r2, asr #21
   144b4:	d40e      	bmi.n	144d4 <__aeabi_d2uiz+0x34>
   144b6:	ea4f 23c1 	mov.w	r3, r1, lsl #11
   144ba:	f043 4300 	orr.w	r3, r3, #2147483648	; 0x80000000
   144be:	ea43 5350 	orr.w	r3, r3, r0, lsr #21
   144c2:	fa23 f002 	lsr.w	r0, r3, r2
   144c6:	4770      	bx	lr
   144c8:	f04f 0000 	mov.w	r0, #0
   144cc:	4770      	bx	lr
   144ce:	ea50 3001 	orrs.w	r0, r0, r1, lsl #12
   144d2:	d102      	bne.n	144da <__aeabi_d2uiz+0x3a>
   144d4:	f04f 30ff 	mov.w	r0, #4294967295
   144d8:	4770      	bx	lr
   144da:	f04f 0000 	mov.w	r0, #0
   144de:	4770      	bx	lr

000144e0 <__aeabi_d2f>:
   144e0:	ea4f 0241 	mov.w	r2, r1, lsl #1
   144e4:	f1b2 43e0 	subs.w	r3, r2, #1879048192	; 0x70000000
   144e8:	bf24      	itt	cs
   144ea:	f5b3 1c00 	subscs.w	ip, r3, #2097152	; 0x200000
   144ee:	f1dc 5cfe 	rsbscs	ip, ip, #532676608	; 0x1fc00000
   144f2:	d90d      	bls.n	14510 <__aeabi_d2f+0x30>
   144f4:	f001 4c00 	and.w	ip, r1, #2147483648	; 0x80000000
   144f8:	ea4f 02c0 	mov.w	r2, r0, lsl #3
   144fc:	ea4c 7050 	orr.w	r0, ip, r0, lsr #29
   14500:	f1b2 4f00 	cmp.w	r2, #2147483648	; 0x80000000
   14504:	eb40 0083 	adc.w	r0, r0, r3, lsl #2
   14508:	bf08      	it	eq
   1450a:	f020 0001 	biceq.w	r0, r0, #1
   1450e:	4770      	bx	lr
   14510:	f011 4f80 	tst.w	r1, #1073741824	; 0x40000000
   14514:	d121      	bne.n	1455a <__aeabi_d2f+0x7a>
   14516:	f113 7238 	adds.w	r2, r3, #48234496	; 0x2e00000
   1451a:	bfbc      	itt	lt
   1451c:	f001 4000 	andlt.w	r0, r1, #2147483648	; 0x80000000
   14520:	4770      	bxlt	lr
   14522:	f441 1180 	orr.w	r1, r1, #1048576	; 0x100000
   14526:	ea4f 5252 	mov.w	r2, r2, lsr #21
   1452a:	f1c2 0218 	rsb	r2, r2, #24
   1452e:	f1c2 0c20 	rsb	ip, r2, #32
   14532:	fa10 f30c 	lsls.w	r3, r0, ip
   14536:	fa20 f002 	lsr.w	r0, r0, r2
   1453a:	bf18      	it	ne
   1453c:	f040 0001 	orrne.w	r0, r0, #1
   14540:	ea4f 23c1 	mov.w	r3, r1, lsl #11
   14544:	ea4f 23d3 	mov.w	r3, r3, lsr #11
   14548:	fa03 fc0c 	lsl.w	ip, r3, ip
   1454c:	ea40 000c 	orr.w	r0, r0, ip
   14550:	fa23 f302 	lsr.w	r3, r3, r2
   14554:	ea4f 0343 	mov.w	r3, r3, lsl #1
   14558:	e7cc      	b.n	144f4 <__aeabi_d2f+0x14>
   1455a:	ea7f 5362 	mvns.w	r3, r2, asr #21
   1455e:	d107      	bne.n	14570 <__aeabi_d2f+0x90>
   14560:	ea50 3301 	orrs.w	r3, r0, r1, lsl #12
   14564:	bf1e      	ittt	ne
   14566:	f04f 40fe 	movne.w	r0, #2130706432	; 0x7f000000
   1456a:	f440 0040 	orrne.w	r0, r0, #12582912	; 0xc00000
   1456e:	4770      	bxne	lr
   14570:	f001 4000 	and.w	r0, r1, #2147483648	; 0x80000000
   14574:	f040 40fe 	orr.w	r0, r0, #2130706432	; 0x7f000000
   14578:	f440 0000 	orr.w	r0, r0, #8388608	; 0x800000
   1457c:	4770      	bx	lr
   1457e:	bf00      	nop

00014580 <__aeabi_uldivmod>:
   14580:	b94b      	cbnz	r3, 14596 <__aeabi_uldivmod+0x16>
   14582:	b942      	cbnz	r2, 14596 <__aeabi_uldivmod+0x16>
   14584:	2900      	cmp	r1, #0
   14586:	bf08      	it	eq
   14588:	2800      	cmpeq	r0, #0
   1458a:	d002      	beq.n	14592 <__aeabi_uldivmod+0x12>
   1458c:	f04f 31ff 	mov.w	r1, #4294967295
   14590:	4608      	mov	r0, r1
   14592:	f000 b83b 	b.w	1460c <__aeabi_idiv0>
   14596:	b082      	sub	sp, #8
   14598:	46ec      	mov	ip, sp
   1459a:	e92d 5000 	stmdb	sp!, {ip, lr}
   1459e:	f000 f81d 	bl	145dc <__gnu_uldivmod_helper>
   145a2:	f8dd e004 	ldr.w	lr, [sp, #4]
   145a6:	b002      	add	sp, #8
   145a8:	bc0c      	pop	{r2, r3}
   145aa:	4770      	bx	lr

000145ac <__gnu_ldivmod_helper>:
   145ac:	e92d 4f70 	stmdb	sp!, {r4, r5, r6, r8, r9, sl, fp, lr}
   145b0:	9e08      	ldr	r6, [sp, #32]
   145b2:	4614      	mov	r4, r2
   145b4:	461d      	mov	r5, r3
   145b6:	4680      	mov	r8, r0
   145b8:	4689      	mov	r9, r1
   145ba:	f000 f829 	bl	14610 <__divdi3>
   145be:	fb04 f301 	mul.w	r3, r4, r1
   145c2:	fba4 ab00 	umull	sl, fp, r4, r0
   145c6:	fb00 3205 	mla	r2, r0, r5, r3
   145ca:	4493      	add	fp, r2
   145cc:	ebb8 080a 	subs.w	r8, r8, sl
   145d0:	eb69 090b 	sbc.w	r9, r9, fp
   145d4:	e9c6 8900 	strd	r8, r9, [r6]
   145d8:	e8bd 8f70 	ldmia.w	sp!, {r4, r5, r6, r8, r9, sl, fp, pc}

000145dc <__gnu_uldivmod_helper>:
   145dc:	e92d 4f70 	stmdb	sp!, {r4, r5, r6, r8, r9, sl, fp, lr}
   145e0:	9e08      	ldr	r6, [sp, #32]
   145e2:	4614      	mov	r4, r2
   145e4:	461d      	mov	r5, r3
   145e6:	4680      	mov	r8, r0
   145e8:	4689      	mov	r9, r1
   145ea:	f000 f961 	bl	148b0 <__udivdi3>
   145ee:	fb00 f505 	mul.w	r5, r0, r5
   145f2:	fba0 ab04 	umull	sl, fp, r0, r4
   145f6:	fb04 5401 	mla	r4, r4, r1, r5
   145fa:	44a3      	add	fp, r4
   145fc:	ebb8 080a 	subs.w	r8, r8, sl
   14600:	eb69 090b 	sbc.w	r9, r9, fp
   14604:	e9c6 8900 	strd	r8, r9, [r6]
   14608:	e8bd 8f70 	ldmia.w	sp!, {r4, r5, r6, r8, r9, sl, fp, pc}

0001460c <__aeabi_idiv0>:
   1460c:	4770      	bx	lr
   1460e:	bf00      	nop

00014610 <__divdi3>:
   14610:	2900      	cmp	r1, #0
   14612:	e92d 0ff0 	stmdb	sp!, {r4, r5, r6, r7, r8, r9, sl, fp}
   14616:	f2c0 80a1 	blt.w	1475c <__divdi3+0x14c>
   1461a:	2400      	movs	r4, #0
   1461c:	2b00      	cmp	r3, #0
   1461e:	f2c0 8098 	blt.w	14752 <__divdi3+0x142>
   14622:	4615      	mov	r5, r2
   14624:	4606      	mov	r6, r0
   14626:	460f      	mov	r7, r1
   14628:	2b00      	cmp	r3, #0
   1462a:	d13f      	bne.n	146ac <__divdi3+0x9c>
   1462c:	428a      	cmp	r2, r1
   1462e:	d958      	bls.n	146e2 <__divdi3+0xd2>
   14630:	fab2 f382 	clz	r3, r2
   14634:	b14b      	cbz	r3, 1464a <__divdi3+0x3a>
   14636:	f1c3 0220 	rsb	r2, r3, #32
   1463a:	fa01 f703 	lsl.w	r7, r1, r3
   1463e:	fa20 f202 	lsr.w	r2, r0, r2
   14642:	409d      	lsls	r5, r3
   14644:	fa00 f603 	lsl.w	r6, r0, r3
   14648:	4317      	orrs	r7, r2
   1464a:	0c29      	lsrs	r1, r5, #16
   1464c:	fbb7 f2f1 	udiv	r2, r7, r1
   14650:	fb01 7712 	mls	r7, r1, r2, r7
   14654:	b2a8      	uxth	r0, r5
   14656:	fb00 f302 	mul.w	r3, r0, r2
   1465a:	ea4f 4c16 	mov.w	ip, r6, lsr #16
   1465e:	ea4c 4707 	orr.w	r7, ip, r7, lsl #16
   14662:	42bb      	cmp	r3, r7
   14664:	d909      	bls.n	1467a <__divdi3+0x6a>
   14666:	197f      	adds	r7, r7, r5
   14668:	f102 3cff 	add.w	ip, r2, #4294967295
   1466c:	f080 8105 	bcs.w	1487a <__divdi3+0x26a>
   14670:	42bb      	cmp	r3, r7
   14672:	f240 8102 	bls.w	1487a <__divdi3+0x26a>
   14676:	3a02      	subs	r2, #2
   14678:	442f      	add	r7, r5
   1467a:	1aff      	subs	r7, r7, r3
   1467c:	fbb7 f3f1 	udiv	r3, r7, r1
   14680:	fb01 7113 	mls	r1, r1, r3, r7
   14684:	fb00 f003 	mul.w	r0, r0, r3
   14688:	b2b6      	uxth	r6, r6
   1468a:	ea46 4101 	orr.w	r1, r6, r1, lsl #16
   1468e:	4288      	cmp	r0, r1
   14690:	d908      	bls.n	146a4 <__divdi3+0x94>
   14692:	1949      	adds	r1, r1, r5
   14694:	f103 37ff 	add.w	r7, r3, #4294967295
   14698:	f080 80f1 	bcs.w	1487e <__divdi3+0x26e>
   1469c:	4288      	cmp	r0, r1
   1469e:	f240 80ee 	bls.w	1487e <__divdi3+0x26e>
   146a2:	3b02      	subs	r3, #2
   146a4:	ea43 4202 	orr.w	r2, r3, r2, lsl #16
   146a8:	2300      	movs	r3, #0
   146aa:	e003      	b.n	146b4 <__divdi3+0xa4>
   146ac:	428b      	cmp	r3, r1
   146ae:	d90a      	bls.n	146c6 <__divdi3+0xb6>
   146b0:	2300      	movs	r3, #0
   146b2:	461a      	mov	r2, r3
   146b4:	4610      	mov	r0, r2
   146b6:	4619      	mov	r1, r3
   146b8:	b114      	cbz	r4, 146c0 <__divdi3+0xb0>
   146ba:	4240      	negs	r0, r0
   146bc:	eb61 0141 	sbc.w	r1, r1, r1, lsl #1
   146c0:	e8bd 0ff0 	ldmia.w	sp!, {r4, r5, r6, r7, r8, r9, sl, fp}
   146c4:	4770      	bx	lr
   146c6:	fab3 f883 	clz	r8, r3
   146ca:	f1b8 0f00 	cmp.w	r8, #0
   146ce:	f040 8088 	bne.w	147e2 <__divdi3+0x1d2>
   146d2:	428b      	cmp	r3, r1
   146d4:	d302      	bcc.n	146dc <__divdi3+0xcc>
   146d6:	4282      	cmp	r2, r0
   146d8:	f200 80e2 	bhi.w	148a0 <__divdi3+0x290>
   146dc:	2300      	movs	r3, #0
   146de:	2201      	movs	r2, #1
   146e0:	e7e8      	b.n	146b4 <__divdi3+0xa4>
   146e2:	b912      	cbnz	r2, 146ea <__divdi3+0xda>
   146e4:	2301      	movs	r3, #1
   146e6:	fbb3 f5f2 	udiv	r5, r3, r2
   146ea:	fab5 f285 	clz	r2, r5
   146ee:	2a00      	cmp	r2, #0
   146f0:	d13a      	bne.n	14768 <__divdi3+0x158>
   146f2:	1b7f      	subs	r7, r7, r5
   146f4:	0c28      	lsrs	r0, r5, #16
   146f6:	fa1f fc85 	uxth.w	ip, r5
   146fa:	2301      	movs	r3, #1
   146fc:	fbb7 f1f0 	udiv	r1, r7, r0
   14700:	fb00 7711 	mls	r7, r0, r1, r7
   14704:	fb0c f201 	mul.w	r2, ip, r1
   14708:	ea4f 4816 	mov.w	r8, r6, lsr #16
   1470c:	ea48 4707 	orr.w	r7, r8, r7, lsl #16
   14710:	42ba      	cmp	r2, r7
   14712:	d907      	bls.n	14724 <__divdi3+0x114>
   14714:	197f      	adds	r7, r7, r5
   14716:	f101 38ff 	add.w	r8, r1, #4294967295
   1471a:	d202      	bcs.n	14722 <__divdi3+0x112>
   1471c:	42ba      	cmp	r2, r7
   1471e:	f200 80c4 	bhi.w	148aa <__divdi3+0x29a>
   14722:	4641      	mov	r1, r8
   14724:	1abf      	subs	r7, r7, r2
   14726:	fbb7 f2f0 	udiv	r2, r7, r0
   1472a:	fb00 7012 	mls	r0, r0, r2, r7
   1472e:	fb0c fc02 	mul.w	ip, ip, r2
   14732:	b2b6      	uxth	r6, r6
   14734:	ea46 4000 	orr.w	r0, r6, r0, lsl #16
   14738:	4584      	cmp	ip, r0
   1473a:	d907      	bls.n	1474c <__divdi3+0x13c>
   1473c:	1940      	adds	r0, r0, r5
   1473e:	f102 37ff 	add.w	r7, r2, #4294967295
   14742:	d202      	bcs.n	1474a <__divdi3+0x13a>
   14744:	4584      	cmp	ip, r0
   14746:	f200 80ae 	bhi.w	148a6 <__divdi3+0x296>
   1474a:	463a      	mov	r2, r7
   1474c:	ea42 4201 	orr.w	r2, r2, r1, lsl #16
   14750:	e7b0      	b.n	146b4 <__divdi3+0xa4>
   14752:	43e4      	mvns	r4, r4
   14754:	4252      	negs	r2, r2
   14756:	eb63 0343 	sbc.w	r3, r3, r3, lsl #1
   1475a:	e762      	b.n	14622 <__divdi3+0x12>
   1475c:	4240      	negs	r0, r0
   1475e:	eb61 0141 	sbc.w	r1, r1, r1, lsl #1
   14762:	f04f 34ff 	mov.w	r4, #4294967295
   14766:	e759      	b.n	1461c <__divdi3+0xc>
   14768:	4095      	lsls	r5, r2
   1476a:	f1c2 0920 	rsb	r9, r2, #32
   1476e:	fa27 f109 	lsr.w	r1, r7, r9
   14772:	fa26 f909 	lsr.w	r9, r6, r9
   14776:	4097      	lsls	r7, r2
   14778:	0c28      	lsrs	r0, r5, #16
   1477a:	fbb1 f8f0 	udiv	r8, r1, r0
   1477e:	fb00 1118 	mls	r1, r0, r8, r1
   14782:	fa1f fc85 	uxth.w	ip, r5
   14786:	fb0c f308 	mul.w	r3, ip, r8
   1478a:	ea49 0907 	orr.w	r9, r9, r7
   1478e:	ea4f 4719 	mov.w	r7, r9, lsr #16
   14792:	ea47 4101 	orr.w	r1, r7, r1, lsl #16
   14796:	428b      	cmp	r3, r1
   14798:	fa06 f602 	lsl.w	r6, r6, r2
   1479c:	d908      	bls.n	147b0 <__divdi3+0x1a0>
   1479e:	1949      	adds	r1, r1, r5
   147a0:	f108 32ff 	add.w	r2, r8, #4294967295
   147a4:	d27a      	bcs.n	1489c <__divdi3+0x28c>
   147a6:	428b      	cmp	r3, r1
   147a8:	d978      	bls.n	1489c <__divdi3+0x28c>
   147aa:	f1a8 0802 	sub.w	r8, r8, #2
   147ae:	4429      	add	r1, r5
   147b0:	1ac9      	subs	r1, r1, r3
   147b2:	fbb1 f3f0 	udiv	r3, r1, r0
   147b6:	fb00 1713 	mls	r7, r0, r3, r1
   147ba:	fb0c f203 	mul.w	r2, ip, r3
   147be:	fa1f f989 	uxth.w	r9, r9
   147c2:	ea49 4707 	orr.w	r7, r9, r7, lsl #16
   147c6:	42ba      	cmp	r2, r7
   147c8:	d907      	bls.n	147da <__divdi3+0x1ca>
   147ca:	197f      	adds	r7, r7, r5
   147cc:	f103 31ff 	add.w	r1, r3, #4294967295
   147d0:	d260      	bcs.n	14894 <__divdi3+0x284>
   147d2:	42ba      	cmp	r2, r7
   147d4:	d95e      	bls.n	14894 <__divdi3+0x284>
   147d6:	3b02      	subs	r3, #2
   147d8:	442f      	add	r7, r5
   147da:	1abf      	subs	r7, r7, r2
   147dc:	ea43 4308 	orr.w	r3, r3, r8, lsl #16
   147e0:	e78c      	b.n	146fc <__divdi3+0xec>
   147e2:	f1c8 0220 	rsb	r2, r8, #32
   147e6:	fa25 f102 	lsr.w	r1, r5, r2
   147ea:	fa03 fc08 	lsl.w	ip, r3, r8
   147ee:	fa27 f302 	lsr.w	r3, r7, r2
   147f2:	fa20 f202 	lsr.w	r2, r0, r2
   147f6:	fa07 f708 	lsl.w	r7, r7, r8
   147fa:	ea41 0c0c 	orr.w	ip, r1, ip
   147fe:	ea4f 491c 	mov.w	r9, ip, lsr #16
   14802:	fbb3 f1f9 	udiv	r1, r3, r9
   14806:	fb09 3311 	mls	r3, r9, r1, r3
   1480a:	fa1f fa8c 	uxth.w	sl, ip
   1480e:	fb0a fb01 	mul.w	fp, sl, r1
   14812:	4317      	orrs	r7, r2
   14814:	0c3a      	lsrs	r2, r7, #16
   14816:	ea42 4303 	orr.w	r3, r2, r3, lsl #16
   1481a:	459b      	cmp	fp, r3
   1481c:	fa05 f008 	lsl.w	r0, r5, r8
   14820:	d908      	bls.n	14834 <__divdi3+0x224>
   14822:	eb13 030c 	adds.w	r3, r3, ip
   14826:	f101 32ff 	add.w	r2, r1, #4294967295
   1482a:	d235      	bcs.n	14898 <__divdi3+0x288>
   1482c:	459b      	cmp	fp, r3
   1482e:	d933      	bls.n	14898 <__divdi3+0x288>
   14830:	3902      	subs	r1, #2
   14832:	4463      	add	r3, ip
   14834:	ebcb 0303 	rsb	r3, fp, r3
   14838:	fbb3 f2f9 	udiv	r2, r3, r9
   1483c:	fb09 3312 	mls	r3, r9, r2, r3
   14840:	fb0a fa02 	mul.w	sl, sl, r2
   14844:	b2bf      	uxth	r7, r7
   14846:	ea47 4703 	orr.w	r7, r7, r3, lsl #16
   1484a:	45ba      	cmp	sl, r7
   1484c:	d908      	bls.n	14860 <__divdi3+0x250>
   1484e:	eb17 070c 	adds.w	r7, r7, ip
   14852:	f102 33ff 	add.w	r3, r2, #4294967295
   14856:	d21b      	bcs.n	14890 <__divdi3+0x280>
   14858:	45ba      	cmp	sl, r7
   1485a:	d919      	bls.n	14890 <__divdi3+0x280>
   1485c:	3a02      	subs	r2, #2
   1485e:	4467      	add	r7, ip
   14860:	ea42 4501 	orr.w	r5, r2, r1, lsl #16
   14864:	fba5 0100 	umull	r0, r1, r5, r0
   14868:	ebca 0707 	rsb	r7, sl, r7
   1486c:	428f      	cmp	r7, r1
   1486e:	f04f 0300 	mov.w	r3, #0
   14872:	d30a      	bcc.n	1488a <__divdi3+0x27a>
   14874:	d005      	beq.n	14882 <__divdi3+0x272>
   14876:	462a      	mov	r2, r5
   14878:	e71c      	b.n	146b4 <__divdi3+0xa4>
   1487a:	4662      	mov	r2, ip
   1487c:	e6fd      	b.n	1467a <__divdi3+0x6a>
   1487e:	463b      	mov	r3, r7
   14880:	e710      	b.n	146a4 <__divdi3+0x94>
   14882:	fa06 f608 	lsl.w	r6, r6, r8
   14886:	4286      	cmp	r6, r0
   14888:	d2f5      	bcs.n	14876 <__divdi3+0x266>
   1488a:	1e6a      	subs	r2, r5, #1
   1488c:	2300      	movs	r3, #0
   1488e:	e711      	b.n	146b4 <__divdi3+0xa4>
   14890:	461a      	mov	r2, r3
   14892:	e7e5      	b.n	14860 <__divdi3+0x250>
   14894:	460b      	mov	r3, r1
   14896:	e7a0      	b.n	147da <__divdi3+0x1ca>
   14898:	4611      	mov	r1, r2
   1489a:	e7cb      	b.n	14834 <__divdi3+0x224>
   1489c:	4690      	mov	r8, r2
   1489e:	e787      	b.n	147b0 <__divdi3+0x1a0>
   148a0:	4643      	mov	r3, r8
   148a2:	4642      	mov	r2, r8
   148a4:	e706      	b.n	146b4 <__divdi3+0xa4>
   148a6:	3a02      	subs	r2, #2
   148a8:	e750      	b.n	1474c <__divdi3+0x13c>
   148aa:	3902      	subs	r1, #2
   148ac:	442f      	add	r7, r5
   148ae:	e739      	b.n	14724 <__divdi3+0x114>

000148b0 <__udivdi3>:
   148b0:	e92d 0ff0 	stmdb	sp!, {r4, r5, r6, r7, r8, r9, sl, fp}
   148b4:	4614      	mov	r4, r2
   148b6:	4605      	mov	r5, r0
   148b8:	460e      	mov	r6, r1
   148ba:	2b00      	cmp	r3, #0
   148bc:	d143      	bne.n	14946 <__udivdi3+0x96>
   148be:	428a      	cmp	r2, r1
   148c0:	d953      	bls.n	1496a <__udivdi3+0xba>
   148c2:	fab2 f782 	clz	r7, r2
   148c6:	b157      	cbz	r7, 148de <__udivdi3+0x2e>
   148c8:	f1c7 0620 	rsb	r6, r7, #32
   148cc:	fa20 f606 	lsr.w	r6, r0, r6
   148d0:	fa01 f307 	lsl.w	r3, r1, r7
   148d4:	fa02 f407 	lsl.w	r4, r2, r7
   148d8:	fa00 f507 	lsl.w	r5, r0, r7
   148dc:	431e      	orrs	r6, r3
   148de:	0c21      	lsrs	r1, r4, #16
   148e0:	fbb6 f2f1 	udiv	r2, r6, r1
   148e4:	fb01 6612 	mls	r6, r1, r2, r6
   148e8:	b2a0      	uxth	r0, r4
   148ea:	fb00 f302 	mul.w	r3, r0, r2
   148ee:	0c2f      	lsrs	r7, r5, #16
   148f0:	ea47 4606 	orr.w	r6, r7, r6, lsl #16
   148f4:	42b3      	cmp	r3, r6
   148f6:	d909      	bls.n	1490c <__udivdi3+0x5c>
   148f8:	1936      	adds	r6, r6, r4
   148fa:	f102 37ff 	add.w	r7, r2, #4294967295
   148fe:	f080 80fd 	bcs.w	14afc <__udivdi3+0x24c>
   14902:	42b3      	cmp	r3, r6
   14904:	f240 80fa 	bls.w	14afc <__udivdi3+0x24c>
   14908:	3a02      	subs	r2, #2
   1490a:	4426      	add	r6, r4
   1490c:	1af6      	subs	r6, r6, r3
   1490e:	fbb6 f3f1 	udiv	r3, r6, r1
   14912:	fb01 6113 	mls	r1, r1, r3, r6
   14916:	fb00 f003 	mul.w	r0, r0, r3
   1491a:	b2ad      	uxth	r5, r5
   1491c:	ea45 4101 	orr.w	r1, r5, r1, lsl #16
   14920:	4288      	cmp	r0, r1
   14922:	d908      	bls.n	14936 <__udivdi3+0x86>
   14924:	1909      	adds	r1, r1, r4
   14926:	f103 36ff 	add.w	r6, r3, #4294967295
   1492a:	f080 80e9 	bcs.w	14b00 <__udivdi3+0x250>
   1492e:	4288      	cmp	r0, r1
   14930:	f240 80e6 	bls.w	14b00 <__udivdi3+0x250>
   14934:	3b02      	subs	r3, #2
   14936:	ea43 4202 	orr.w	r2, r3, r2, lsl #16
   1493a:	2300      	movs	r3, #0
   1493c:	4610      	mov	r0, r2
   1493e:	4619      	mov	r1, r3
   14940:	e8bd 0ff0 	ldmia.w	sp!, {r4, r5, r6, r7, r8, r9, sl, fp}
   14944:	4770      	bx	lr
   14946:	428b      	cmp	r3, r1
   14948:	d84c      	bhi.n	149e4 <__udivdi3+0x134>
   1494a:	fab3 f683 	clz	r6, r3
   1494e:	2e00      	cmp	r6, #0
   14950:	d14f      	bne.n	149f2 <__udivdi3+0x142>
   14952:	428b      	cmp	r3, r1
   14954:	d302      	bcc.n	1495c <__udivdi3+0xac>
   14956:	4282      	cmp	r2, r0
   14958:	f200 80dd 	bhi.w	14b16 <__udivdi3+0x266>
   1495c:	e8bd 0ff0 	ldmia.w	sp!, {r4, r5, r6, r7, r8, r9, sl, fp}
   14960:	2300      	movs	r3, #0
   14962:	2201      	movs	r2, #1
   14964:	4610      	mov	r0, r2
   14966:	4619      	mov	r1, r3
   14968:	4770      	bx	lr
   1496a:	b912      	cbnz	r2, 14972 <__udivdi3+0xc2>
   1496c:	2401      	movs	r4, #1
   1496e:	fbb4 f4f2 	udiv	r4, r4, r2
   14972:	fab4 f284 	clz	r2, r4
   14976:	2a00      	cmp	r2, #0
   14978:	f040 8082 	bne.w	14a80 <__udivdi3+0x1d0>
   1497c:	1b09      	subs	r1, r1, r4
   1497e:	0c26      	lsrs	r6, r4, #16
   14980:	b2a7      	uxth	r7, r4
   14982:	2301      	movs	r3, #1
   14984:	fbb1 f0f6 	udiv	r0, r1, r6
   14988:	fb06 1110 	mls	r1, r6, r0, r1
   1498c:	fb07 f200 	mul.w	r2, r7, r0
   14990:	ea4f 4c15 	mov.w	ip, r5, lsr #16
   14994:	ea4c 4101 	orr.w	r1, ip, r1, lsl #16
   14998:	428a      	cmp	r2, r1
   1499a:	d907      	bls.n	149ac <__udivdi3+0xfc>
   1499c:	1909      	adds	r1, r1, r4
   1499e:	f100 3cff 	add.w	ip, r0, #4294967295
   149a2:	d202      	bcs.n	149aa <__udivdi3+0xfa>
   149a4:	428a      	cmp	r2, r1
   149a6:	f200 80c8 	bhi.w	14b3a <__udivdi3+0x28a>
   149aa:	4660      	mov	r0, ip
   149ac:	1a89      	subs	r1, r1, r2
   149ae:	fbb1 f2f6 	udiv	r2, r1, r6
   149b2:	fb06 1112 	mls	r1, r6, r2, r1
   149b6:	fb07 f702 	mul.w	r7, r7, r2
   149ba:	b2ad      	uxth	r5, r5
   149bc:	ea45 4501 	orr.w	r5, r5, r1, lsl #16
   149c0:	42af      	cmp	r7, r5
   149c2:	d908      	bls.n	149d6 <__udivdi3+0x126>
   149c4:	192c      	adds	r4, r5, r4
   149c6:	f102 31ff 	add.w	r1, r2, #4294967295
   149ca:	f080 809b 	bcs.w	14b04 <__udivdi3+0x254>
   149ce:	42a7      	cmp	r7, r4
   149d0:	f240 8098 	bls.w	14b04 <__udivdi3+0x254>
   149d4:	3a02      	subs	r2, #2
   149d6:	ea42 4200 	orr.w	r2, r2, r0, lsl #16
   149da:	4610      	mov	r0, r2
   149dc:	4619      	mov	r1, r3
   149de:	e8bd 0ff0 	ldmia.w	sp!, {r4, r5, r6, r7, r8, r9, sl, fp}
   149e2:	4770      	bx	lr
   149e4:	2300      	movs	r3, #0
   149e6:	461a      	mov	r2, r3
   149e8:	4610      	mov	r0, r2
   149ea:	4619      	mov	r1, r3
   149ec:	e8bd 0ff0 	ldmia.w	sp!, {r4, r5, r6, r7, r8, r9, sl, fp}
   149f0:	4770      	bx	lr
   149f2:	f1c6 0520 	rsb	r5, r6, #32
   149f6:	fa22 f705 	lsr.w	r7, r2, r5
   149fa:	fa03 f406 	lsl.w	r4, r3, r6
   149fe:	fa21 f305 	lsr.w	r3, r1, r5
   14a02:	fa01 fb06 	lsl.w	fp, r1, r6
   14a06:	fa20 f505 	lsr.w	r5, r0, r5
   14a0a:	433c      	orrs	r4, r7
   14a0c:	ea4f 4814 	mov.w	r8, r4, lsr #16
   14a10:	fbb3 fcf8 	udiv	ip, r3, r8
   14a14:	fb08 331c 	mls	r3, r8, ip, r3
   14a18:	fa1f f984 	uxth.w	r9, r4
   14a1c:	fb09 fa0c 	mul.w	sl, r9, ip
   14a20:	ea45 0b0b 	orr.w	fp, r5, fp
   14a24:	ea4f 451b 	mov.w	r5, fp, lsr #16
   14a28:	ea45 4303 	orr.w	r3, r5, r3, lsl #16
   14a2c:	459a      	cmp	sl, r3
   14a2e:	fa02 f206 	lsl.w	r2, r2, r6
   14a32:	d904      	bls.n	14a3e <__udivdi3+0x18e>
   14a34:	191b      	adds	r3, r3, r4
   14a36:	f10c 35ff 	add.w	r5, ip, #4294967295
   14a3a:	d36f      	bcc.n	14b1c <__udivdi3+0x26c>
   14a3c:	46ac      	mov	ip, r5
   14a3e:	ebca 0303 	rsb	r3, sl, r3
   14a42:	fbb3 f5f8 	udiv	r5, r3, r8
   14a46:	fb08 3315 	mls	r3, r8, r5, r3
   14a4a:	fb09 f905 	mul.w	r9, r9, r5
   14a4e:	fa1f fb8b 	uxth.w	fp, fp
   14a52:	ea4b 4703 	orr.w	r7, fp, r3, lsl #16
   14a56:	45b9      	cmp	r9, r7
   14a58:	d904      	bls.n	14a64 <__udivdi3+0x1b4>
   14a5a:	193f      	adds	r7, r7, r4
   14a5c:	f105 33ff 	add.w	r3, r5, #4294967295
   14a60:	d362      	bcc.n	14b28 <__udivdi3+0x278>
   14a62:	461d      	mov	r5, r3
   14a64:	ea45 4c0c 	orr.w	ip, r5, ip, lsl #16
   14a68:	fbac 2302 	umull	r2, r3, ip, r2
   14a6c:	ebc9 0707 	rsb	r7, r9, r7
   14a70:	429f      	cmp	r7, r3
   14a72:	f04f 0500 	mov.w	r5, #0
   14a76:	d34a      	bcc.n	14b0e <__udivdi3+0x25e>
   14a78:	d046      	beq.n	14b08 <__udivdi3+0x258>
   14a7a:	4662      	mov	r2, ip
   14a7c:	462b      	mov	r3, r5
   14a7e:	e75d      	b.n	1493c <__udivdi3+0x8c>
   14a80:	4094      	lsls	r4, r2
   14a82:	f1c2 0920 	rsb	r9, r2, #32
   14a86:	fa21 fc09 	lsr.w	ip, r1, r9
   14a8a:	4091      	lsls	r1, r2
   14a8c:	fa20 f909 	lsr.w	r9, r0, r9
   14a90:	0c26      	lsrs	r6, r4, #16
   14a92:	fbbc f8f6 	udiv	r8, ip, r6
   14a96:	fb06 cc18 	mls	ip, r6, r8, ip
   14a9a:	b2a7      	uxth	r7, r4
   14a9c:	fb07 f308 	mul.w	r3, r7, r8
   14aa0:	ea49 0901 	orr.w	r9, r9, r1
   14aa4:	ea4f 4119 	mov.w	r1, r9, lsr #16
   14aa8:	ea41 4c0c 	orr.w	ip, r1, ip, lsl #16
   14aac:	4563      	cmp	r3, ip
   14aae:	fa00 f502 	lsl.w	r5, r0, r2
   14ab2:	d909      	bls.n	14ac8 <__udivdi3+0x218>
   14ab4:	eb1c 0c04 	adds.w	ip, ip, r4
   14ab8:	f108 32ff 	add.w	r2, r8, #4294967295
   14abc:	d23b      	bcs.n	14b36 <__udivdi3+0x286>
   14abe:	4563      	cmp	r3, ip
   14ac0:	d939      	bls.n	14b36 <__udivdi3+0x286>
   14ac2:	f1a8 0802 	sub.w	r8, r8, #2
   14ac6:	44a4      	add	ip, r4
   14ac8:	ebc3 0c0c 	rsb	ip, r3, ip
   14acc:	fbbc f3f6 	udiv	r3, ip, r6
   14ad0:	fb06 c113 	mls	r1, r6, r3, ip
   14ad4:	fb07 f203 	mul.w	r2, r7, r3
   14ad8:	fa1f f989 	uxth.w	r9, r9
   14adc:	ea49 4101 	orr.w	r1, r9, r1, lsl #16
   14ae0:	428a      	cmp	r2, r1
   14ae2:	d907      	bls.n	14af4 <__udivdi3+0x244>
   14ae4:	1909      	adds	r1, r1, r4
   14ae6:	f103 30ff 	add.w	r0, r3, #4294967295
   14aea:	d222      	bcs.n	14b32 <__udivdi3+0x282>
   14aec:	428a      	cmp	r2, r1
   14aee:	d920      	bls.n	14b32 <__udivdi3+0x282>
   14af0:	3b02      	subs	r3, #2
   14af2:	4421      	add	r1, r4
   14af4:	1a89      	subs	r1, r1, r2
   14af6:	ea43 4308 	orr.w	r3, r3, r8, lsl #16
   14afa:	e743      	b.n	14984 <__udivdi3+0xd4>
   14afc:	463a      	mov	r2, r7
   14afe:	e705      	b.n	1490c <__udivdi3+0x5c>
   14b00:	4633      	mov	r3, r6
   14b02:	e718      	b.n	14936 <__udivdi3+0x86>
   14b04:	460a      	mov	r2, r1
   14b06:	e766      	b.n	149d6 <__udivdi3+0x126>
   14b08:	40b0      	lsls	r0, r6
   14b0a:	4290      	cmp	r0, r2
   14b0c:	d2b5      	bcs.n	14a7a <__udivdi3+0x1ca>
   14b0e:	f10c 32ff 	add.w	r2, ip, #4294967295
   14b12:	2300      	movs	r3, #0
   14b14:	e712      	b.n	1493c <__udivdi3+0x8c>
   14b16:	4633      	mov	r3, r6
   14b18:	4632      	mov	r2, r6
   14b1a:	e70f      	b.n	1493c <__udivdi3+0x8c>
   14b1c:	459a      	cmp	sl, r3
   14b1e:	d98d      	bls.n	14a3c <__udivdi3+0x18c>
   14b20:	f1ac 0c02 	sub.w	ip, ip, #2
   14b24:	4423      	add	r3, r4
   14b26:	e78a      	b.n	14a3e <__udivdi3+0x18e>
   14b28:	45b9      	cmp	r9, r7
   14b2a:	d99a      	bls.n	14a62 <__udivdi3+0x1b2>
   14b2c:	3d02      	subs	r5, #2
   14b2e:	4427      	add	r7, r4
   14b30:	e798      	b.n	14a64 <__udivdi3+0x1b4>
   14b32:	4603      	mov	r3, r0
   14b34:	e7de      	b.n	14af4 <__udivdi3+0x244>
   14b36:	4690      	mov	r8, r2
   14b38:	e7c6      	b.n	14ac8 <__udivdi3+0x218>
   14b3a:	3802      	subs	r0, #2
   14b3c:	4421      	add	r1, r4
   14b3e:	e735      	b.n	149ac <__udivdi3+0xfc>

Disassembly of section .fini:

00014b40 <_fini>:
   14b40:	b5f8      	push	{r3, r4, r5, r6, r7, lr}
   14b42:	bf00      	nop
   14b44:	bcf8      	pop	{r3, r4, r5, r6, r7}
   14b46:	bc08      	pop	{r3}
   14b48:	469e      	mov	lr, r3
   14b4a:	4770      	bx	lr
