
desafio3:     file format elf32-littlearm


Disassembly of section .init:

00008000 <_init>:
    8000:	b5f8      	push	{r3, r4, r5, r6, r7, lr}
    8002:	bf00      	nop
    8004:	bcf8      	pop	{r3, r4, r5, r6, r7}
    8006:	bc08      	pop	{r3}
    8008:	469e      	mov	lr, r3
    800a:	4770      	bx	lr

Disassembly of section .text:

00008010 <exit>:
    8010:	b508      	push	{r3, lr}
    8012:	2100      	movs	r1, #0
    8014:	4604      	mov	r4, r0
    8016:	f000 f92d 	bl	8274 <__call_exitprocs>
    801a:	4b04      	ldr	r3, [pc, #16]	; (802c <exit+0x1c>)
    801c:	6818      	ldr	r0, [r3, #0]
    801e:	6bc3      	ldr	r3, [r0, #60]	; 0x3c
    8020:	b103      	cbz	r3, 8024 <exit+0x14>
    8022:	4798      	blx	r3
    8024:	4620      	mov	r0, r4
    8026:	f000 fd17 	bl	8a58 <_exit>
    802a:	bf00      	nop
    802c:	0000f3fc 	.word	0x0000f3fc

00008030 <register_fini>:
    8030:	4b02      	ldr	r3, [pc, #8]	; (803c <register_fini+0xc>)
    8032:	b113      	cbz	r3, 803a <register_fini+0xa>
    8034:	4802      	ldr	r0, [pc, #8]	; (8040 <register_fini+0x10>)
    8036:	f000 b987 	b.w	8348 <atexit>
    803a:	4770      	bx	lr
    803c:	00000000 	.word	0x00000000
    8040:	00008355 	.word	0x00008355

00008044 <__do_global_dtors_aux>:
    8044:	b510      	push	{r4, lr}
    8046:	4c05      	ldr	r4, [pc, #20]	; (805c <__do_global_dtors_aux+0x18>)
    8048:	7823      	ldrb	r3, [r4, #0]
    804a:	b933      	cbnz	r3, 805a <__do_global_dtors_aux+0x16>
    804c:	4b04      	ldr	r3, [pc, #16]	; (8060 <__do_global_dtors_aux+0x1c>)
    804e:	b113      	cbz	r3, 8056 <__do_global_dtors_aux+0x12>
    8050:	4804      	ldr	r0, [pc, #16]	; (8064 <__do_global_dtors_aux+0x20>)
    8052:	f3af 8000 	nop.w
    8056:	2301      	movs	r3, #1
    8058:	7023      	strb	r3, [r4, #0]
    805a:	bd10      	pop	{r4, pc}
    805c:	00018018 	.word	0x00018018
    8060:	00000000 	.word	0x00000000
    8064:	0000f5d8 	.word	0x0000f5d8

00008068 <frame_dummy>:
    8068:	4b08      	ldr	r3, [pc, #32]	; (808c <frame_dummy+0x24>)
    806a:	b510      	push	{r4, lr}
    806c:	b11b      	cbz	r3, 8076 <frame_dummy+0xe>
    806e:	4808      	ldr	r0, [pc, #32]	; (8090 <frame_dummy+0x28>)
    8070:	4908      	ldr	r1, [pc, #32]	; (8094 <frame_dummy+0x2c>)
    8072:	f3af 8000 	nop.w
    8076:	4808      	ldr	r0, [pc, #32]	; (8098 <frame_dummy+0x30>)
    8078:	6803      	ldr	r3, [r0, #0]
    807a:	b903      	cbnz	r3, 807e <frame_dummy+0x16>
    807c:	bd10      	pop	{r4, pc}
    807e:	4b07      	ldr	r3, [pc, #28]	; (809c <frame_dummy+0x34>)
    8080:	2b00      	cmp	r3, #0
    8082:	d0fb      	beq.n	807c <frame_dummy+0x14>
    8084:	e8bd 4010 	ldmia.w	sp!, {r4, lr}
    8088:	4718      	bx	r3
    808a:	bf00      	nop
    808c:	00000000 	.word	0x00000000
    8090:	0000f5d8 	.word	0x0000f5d8
    8094:	0001801c 	.word	0x0001801c
    8098:	00017620 	.word	0x00017620
    809c:	00000000 	.word	0x00000000

000080a0 <_mainCRTStartup>:
    80a0:	2016      	movs	r0, #22
    80a2:	a130      	add	r1, pc, #192	; (adr r1, 8164 <_mainCRTStartup+0xc4>)
    80a4:	beab      	bkpt	0x00ab
    80a6:	482f      	ldr	r0, [pc, #188]	; (8164 <_mainCRTStartup+0xc4>)
    80a8:	6841      	ldr	r1, [r0, #4]
    80aa:	4a36      	ldr	r2, [pc, #216]	; (8184 <_mainCRTStartup+0xe4>)
    80ac:	6011      	str	r1, [r2, #0]
    80ae:	6801      	ldr	r1, [r0, #0]
    80b0:	2900      	cmp	r1, #0
    80b2:	d101      	bne.n	80b8 <_mainCRTStartup+0x18>
    80b4:	4932      	ldr	r1, [pc, #200]	; (8180 <_mainCRTStartup+0xe0>)
    80b6:	6001      	str	r1, [r0, #0]
    80b8:	6881      	ldr	r1, [r0, #8]
    80ba:	68c2      	ldr	r2, [r0, #12]
    80bc:	2900      	cmp	r1, #0
    80be:	d000      	beq.n	80c2 <_mainCRTStartup+0x22>
    80c0:	468d      	mov	sp, r1
    80c2:	2a00      	cmp	r2, #0
    80c4:	d001      	beq.n	80ca <_mainCRTStartup+0x2a>
    80c6:	f502 7a80 	add.w	sl, r2, #256	; 0x100
    80ca:	2100      	movs	r1, #0
    80cc:	468b      	mov	fp, r1
    80ce:	460f      	mov	r7, r1
    80d0:	4825      	ldr	r0, [pc, #148]	; (8168 <_mainCRTStartup+0xc8>)
    80d2:	4a26      	ldr	r2, [pc, #152]	; (816c <_mainCRTStartup+0xcc>)
    80d4:	1a12      	subs	r2, r2, r0
    80d6:	f000 f87f 	bl	81d8 <memset>
    80da:	f000 f9cd 	bl	8478 <initialise_monitor_handles>
    80de:	2015      	movs	r0, #21
    80e0:	a125      	add	r1, pc, #148	; (adr r1, 8178 <_mainCRTStartup+0xd8>)
    80e2:	beab      	bkpt	0x00ab
    80e4:	4924      	ldr	r1, [pc, #144]	; (8178 <_mainCRTStartup+0xd8>)
    80e6:	2000      	movs	r0, #0
    80e8:	b401      	push	{r0}
    80ea:	780b      	ldrb	r3, [r1, #0]
    80ec:	3101      	adds	r1, #1
    80ee:	2b00      	cmp	r3, #0
    80f0:	d015      	beq.n	811e <_mainCRTStartup+0x7e>
    80f2:	2b20      	cmp	r3, #32
    80f4:	d0f9      	beq.n	80ea <_mainCRTStartup+0x4a>
    80f6:	2b22      	cmp	r3, #34	; 0x22
    80f8:	d001      	beq.n	80fe <_mainCRTStartup+0x5e>
    80fa:	2b27      	cmp	r3, #39	; 0x27
    80fc:	d101      	bne.n	8102 <_mainCRTStartup+0x62>
    80fe:	001a      	movs	r2, r3
    8100:	e001      	b.n	8106 <_mainCRTStartup+0x66>
    8102:	2220      	movs	r2, #32
    8104:	3901      	subs	r1, #1
    8106:	b402      	push	{r1}
    8108:	3001      	adds	r0, #1
    810a:	780b      	ldrb	r3, [r1, #0]
    810c:	3101      	adds	r1, #1
    810e:	2b00      	cmp	r3, #0
    8110:	d005      	beq.n	811e <_mainCRTStartup+0x7e>
    8112:	429a      	cmp	r2, r3
    8114:	d1f9      	bne.n	810a <_mainCRTStartup+0x6a>
    8116:	2200      	movs	r2, #0
    8118:	1e4b      	subs	r3, r1, #1
    811a:	701a      	strb	r2, [r3, #0]
    811c:	e7e5      	b.n	80ea <_mainCRTStartup+0x4a>
    811e:	4669      	mov	r1, sp
    8120:	0002      	movs	r2, r0
    8122:	0092      	lsls	r2, r2, #2
    8124:	446a      	add	r2, sp
    8126:	466b      	mov	r3, sp
    8128:	429a      	cmp	r2, r3
    812a:	d906      	bls.n	813a <_mainCRTStartup+0x9a>
    812c:	3a04      	subs	r2, #4
    812e:	6814      	ldr	r4, [r2, #0]
    8130:	681d      	ldr	r5, [r3, #0]
    8132:	6015      	str	r5, [r2, #0]
    8134:	601c      	str	r4, [r3, #0]
    8136:	3304      	adds	r3, #4
    8138:	e7f6      	b.n	8128 <_mainCRTStartup+0x88>
    813a:	466c      	mov	r4, sp
    813c:	2507      	movs	r5, #7
    813e:	43ac      	bics	r4, r5
    8140:	46a5      	mov	sp, r4
    8142:	0004      	movs	r4, r0
    8144:	000d      	movs	r5, r1
    8146:	480a      	ldr	r0, [pc, #40]	; (8170 <_mainCRTStartup+0xd0>)
    8148:	2800      	cmp	r0, #0
    814a:	d002      	beq.n	8152 <_mainCRTStartup+0xb2>
    814c:	4809      	ldr	r0, [pc, #36]	; (8174 <_mainCRTStartup+0xd4>)
    814e:	f000 f8fb 	bl	8348 <atexit>
    8152:	f000 f819 	bl	8188 <__libc_init_array>
    8156:	0020      	movs	r0, r4
    8158:	0029      	movs	r1, r5
    815a:	f000 fc91 	bl	8a80 <main>
    815e:	f7ff ff57 	bl	8010 <exit>
    8162:	bf00      	nop
    8164:	0001762c 	.word	0x0001762c
    8168:	00018018 	.word	0x00018018
    816c:	00018128 	.word	0x00018128
    8170:	00008349 	.word	0x00008349
    8174:	00008355 	.word	0x00008355
    8178:	0001763c 	.word	0x0001763c
    817c:	000000ff 	.word	0x000000ff
    8180:	00018128 	.word	0x00018128
    8184:	00017b6c 	.word	0x00017b6c

00008188 <__libc_init_array>:
    8188:	b570      	push	{r4, r5, r6, lr}
    818a:	4e0f      	ldr	r6, [pc, #60]	; (81c8 <__libc_init_array+0x40>)
    818c:	4d0f      	ldr	r5, [pc, #60]	; (81cc <__libc_init_array+0x44>)
    818e:	1b76      	subs	r6, r6, r5
    8190:	10b6      	asrs	r6, r6, #2
    8192:	bf18      	it	ne
    8194:	2400      	movne	r4, #0
    8196:	d005      	beq.n	81a4 <__libc_init_array+0x1c>
    8198:	3401      	adds	r4, #1
    819a:	f855 3b04 	ldr.w	r3, [r5], #4
    819e:	4798      	blx	r3
    81a0:	42a6      	cmp	r6, r4
    81a2:	d1f9      	bne.n	8198 <__libc_init_array+0x10>
    81a4:	4e0a      	ldr	r6, [pc, #40]	; (81d0 <__libc_init_array+0x48>)
    81a6:	4d0b      	ldr	r5, [pc, #44]	; (81d4 <__libc_init_array+0x4c>)
    81a8:	f7ff ff2a 	bl	8000 <_init>
    81ac:	1b76      	subs	r6, r6, r5
    81ae:	10b6      	asrs	r6, r6, #2
    81b0:	bf18      	it	ne
    81b2:	2400      	movne	r4, #0
    81b4:	d006      	beq.n	81c4 <__libc_init_array+0x3c>
    81b6:	3401      	adds	r4, #1
    81b8:	f855 3b04 	ldr.w	r3, [r5], #4
    81bc:	4798      	blx	r3
    81be:	42a6      	cmp	r6, r4
    81c0:	d1f9      	bne.n	81b6 <__libc_init_array+0x2e>
    81c2:	bd70      	pop	{r4, r5, r6, pc}
    81c4:	bd70      	pop	{r4, r5, r6, pc}
    81c6:	bf00      	nop
    81c8:	00017614 	.word	0x00017614
    81cc:	00017614 	.word	0x00017614
    81d0:	0001761c 	.word	0x0001761c
    81d4:	00017614 	.word	0x00017614

000081d8 <memset>:
    81d8:	b470      	push	{r4, r5, r6}
    81da:	0784      	lsls	r4, r0, #30
    81dc:	d046      	beq.n	826c <memset+0x94>
    81de:	1e54      	subs	r4, r2, #1
    81e0:	2a00      	cmp	r2, #0
    81e2:	d041      	beq.n	8268 <memset+0x90>
    81e4:	b2cd      	uxtb	r5, r1
    81e6:	4603      	mov	r3, r0
    81e8:	e002      	b.n	81f0 <memset+0x18>
    81ea:	1e62      	subs	r2, r4, #1
    81ec:	b3e4      	cbz	r4, 8268 <memset+0x90>
    81ee:	4614      	mov	r4, r2
    81f0:	f803 5b01 	strb.w	r5, [r3], #1
    81f4:	079a      	lsls	r2, r3, #30
    81f6:	d1f8      	bne.n	81ea <memset+0x12>
    81f8:	2c03      	cmp	r4, #3
    81fa:	d92e      	bls.n	825a <memset+0x82>
    81fc:	b2cd      	uxtb	r5, r1
    81fe:	ea45 2505 	orr.w	r5, r5, r5, lsl #8
    8202:	2c0f      	cmp	r4, #15
    8204:	ea45 4505 	orr.w	r5, r5, r5, lsl #16
    8208:	d919      	bls.n	823e <memset+0x66>
    820a:	4626      	mov	r6, r4
    820c:	f103 0210 	add.w	r2, r3, #16
    8210:	3e10      	subs	r6, #16
    8212:	2e0f      	cmp	r6, #15
    8214:	f842 5c10 	str.w	r5, [r2, #-16]
    8218:	f842 5c0c 	str.w	r5, [r2, #-12]
    821c:	f842 5c08 	str.w	r5, [r2, #-8]
    8220:	f842 5c04 	str.w	r5, [r2, #-4]
    8224:	f102 0210 	add.w	r2, r2, #16
    8228:	d8f2      	bhi.n	8210 <memset+0x38>
    822a:	f1a4 0210 	sub.w	r2, r4, #16
    822e:	f022 020f 	bic.w	r2, r2, #15
    8232:	f004 040f 	and.w	r4, r4, #15
    8236:	3210      	adds	r2, #16
    8238:	2c03      	cmp	r4, #3
    823a:	4413      	add	r3, r2
    823c:	d90d      	bls.n	825a <memset+0x82>
    823e:	461e      	mov	r6, r3
    8240:	4622      	mov	r2, r4
    8242:	3a04      	subs	r2, #4
    8244:	2a03      	cmp	r2, #3
    8246:	f846 5b04 	str.w	r5, [r6], #4
    824a:	d8fa      	bhi.n	8242 <memset+0x6a>
    824c:	1f22      	subs	r2, r4, #4
    824e:	f022 0203 	bic.w	r2, r2, #3
    8252:	3204      	adds	r2, #4
    8254:	4413      	add	r3, r2
    8256:	f004 0403 	and.w	r4, r4, #3
    825a:	b12c      	cbz	r4, 8268 <memset+0x90>
    825c:	b2c9      	uxtb	r1, r1
    825e:	441c      	add	r4, r3
    8260:	f803 1b01 	strb.w	r1, [r3], #1
    8264:	42a3      	cmp	r3, r4
    8266:	d1fb      	bne.n	8260 <memset+0x88>
    8268:	bc70      	pop	{r4, r5, r6}
    826a:	4770      	bx	lr
    826c:	4614      	mov	r4, r2
    826e:	4603      	mov	r3, r0
    8270:	e7c2      	b.n	81f8 <memset+0x20>
    8272:	bf00      	nop

00008274 <__call_exitprocs>:
    8274:	e92d 4ff0 	stmdb	sp!, {r4, r5, r6, r7, r8, r9, sl, fp, lr}
    8278:	4681      	mov	r9, r0
    827a:	460e      	mov	r6, r1
    827c:	4b30      	ldr	r3, [pc, #192]	; (8340 <__call_exitprocs+0xcc>)
    827e:	b083      	sub	sp, #12
    8280:	681b      	ldr	r3, [r3, #0]
    8282:	9300      	str	r3, [sp, #0]
    8284:	f503 73a4 	add.w	r3, r3, #328	; 0x148
    8288:	9301      	str	r3, [sp, #4]
    828a:	9b00      	ldr	r3, [sp, #0]
    828c:	f8d3 7148 	ldr.w	r7, [r3, #328]	; 0x148
    8290:	b327      	cbz	r7, 82dc <__call_exitprocs+0x68>
    8292:	f8dd a004 	ldr.w	sl, [sp, #4]
    8296:	687c      	ldr	r4, [r7, #4]
    8298:	1e65      	subs	r5, r4, #1
    829a:	d40e      	bmi.n	82ba <__call_exitprocs+0x46>
    829c:	3401      	adds	r4, #1
    829e:	eb07 0484 	add.w	r4, r7, r4, lsl #2
    82a2:	f04f 0800 	mov.w	r8, #0
    82a6:	b1e6      	cbz	r6, 82e2 <__call_exitprocs+0x6e>
    82a8:	f8d4 3100 	ldr.w	r3, [r4, #256]	; 0x100
    82ac:	42b3      	cmp	r3, r6
    82ae:	d018      	beq.n	82e2 <__call_exitprocs+0x6e>
    82b0:	3d01      	subs	r5, #1
    82b2:	1c6b      	adds	r3, r5, #1
    82b4:	f1a4 0404 	sub.w	r4, r4, #4
    82b8:	d1f5      	bne.n	82a6 <__call_exitprocs+0x32>
    82ba:	4b22      	ldr	r3, [pc, #136]	; (8344 <__call_exitprocs+0xd0>)
    82bc:	b173      	cbz	r3, 82dc <__call_exitprocs+0x68>
    82be:	687b      	ldr	r3, [r7, #4]
    82c0:	2b00      	cmp	r3, #0
    82c2:	d136      	bne.n	8332 <__call_exitprocs+0xbe>
    82c4:	683b      	ldr	r3, [r7, #0]
    82c6:	2b00      	cmp	r3, #0
    82c8:	d034      	beq.n	8334 <__call_exitprocs+0xc0>
    82ca:	4638      	mov	r0, r7
    82cc:	f8ca 3000 	str.w	r3, [sl]
    82d0:	f3af 8000 	nop.w
    82d4:	f8da 7000 	ldr.w	r7, [sl]
    82d8:	2f00      	cmp	r7, #0
    82da:	d1dc      	bne.n	8296 <__call_exitprocs+0x22>
    82dc:	b003      	add	sp, #12
    82de:	e8bd 8ff0 	ldmia.w	sp!, {r4, r5, r6, r7, r8, r9, sl, fp, pc}
    82e2:	687b      	ldr	r3, [r7, #4]
    82e4:	6822      	ldr	r2, [r4, #0]
    82e6:	3b01      	subs	r3, #1
    82e8:	42ab      	cmp	r3, r5
    82ea:	bf0c      	ite	eq
    82ec:	607d      	streq	r5, [r7, #4]
    82ee:	f8c4 8000 	strne.w	r8, [r4]
    82f2:	2a00      	cmp	r2, #0
    82f4:	d0dc      	beq.n	82b0 <__call_exitprocs+0x3c>
    82f6:	f8d7 3188 	ldr.w	r3, [r7, #392]	; 0x188
    82fa:	2101      	movs	r1, #1
    82fc:	40a9      	lsls	r1, r5
    82fe:	4219      	tst	r1, r3
    8300:	f8d7 b004 	ldr.w	fp, [r7, #4]
    8304:	d108      	bne.n	8318 <__call_exitprocs+0xa4>
    8306:	4790      	blx	r2
    8308:	687b      	ldr	r3, [r7, #4]
    830a:	455b      	cmp	r3, fp
    830c:	d1bd      	bne.n	828a <__call_exitprocs+0x16>
    830e:	f8da 3000 	ldr.w	r3, [sl]
    8312:	42bb      	cmp	r3, r7
    8314:	d0cc      	beq.n	82b0 <__call_exitprocs+0x3c>
    8316:	e7b8      	b.n	828a <__call_exitprocs+0x16>
    8318:	f8d7 318c 	ldr.w	r3, [r7, #396]	; 0x18c
    831c:	4219      	tst	r1, r3
    831e:	d104      	bne.n	832a <__call_exitprocs+0xb6>
    8320:	4648      	mov	r0, r9
    8322:	f8d4 1080 	ldr.w	r1, [r4, #128]	; 0x80
    8326:	4790      	blx	r2
    8328:	e7ee      	b.n	8308 <__call_exitprocs+0x94>
    832a:	f8d4 0080 	ldr.w	r0, [r4, #128]	; 0x80
    832e:	4790      	blx	r2
    8330:	e7ea      	b.n	8308 <__call_exitprocs+0x94>
    8332:	683b      	ldr	r3, [r7, #0]
    8334:	46ba      	mov	sl, r7
    8336:	461f      	mov	r7, r3
    8338:	2f00      	cmp	r7, #0
    833a:	d1ac      	bne.n	8296 <__call_exitprocs+0x22>
    833c:	e7ce      	b.n	82dc <__call_exitprocs+0x68>
    833e:	bf00      	nop
    8340:	0000f3fc 	.word	0x0000f3fc
    8344:	00000000 	.word	0x00000000

00008348 <atexit>:
    8348:	4601      	mov	r1, r0
    834a:	2000      	movs	r0, #0
    834c:	4602      	mov	r2, r0
    834e:	4603      	mov	r3, r0
    8350:	f000 b816 	b.w	8380 <__register_exitproc>

00008354 <__libc_fini_array>:
    8354:	b538      	push	{r3, r4, r5, lr}
    8356:	4b08      	ldr	r3, [pc, #32]	; (8378 <__libc_fini_array+0x24>)
    8358:	4d08      	ldr	r5, [pc, #32]	; (837c <__libc_fini_array+0x28>)
    835a:	1aed      	subs	r5, r5, r3
    835c:	10ac      	asrs	r4, r5, #2
    835e:	bf18      	it	ne
    8360:	18ed      	addne	r5, r5, r3
    8362:	d005      	beq.n	8370 <__libc_fini_array+0x1c>
    8364:	3c01      	subs	r4, #1
    8366:	f855 3d04 	ldr.w	r3, [r5, #-4]!
    836a:	4798      	blx	r3
    836c:	2c00      	cmp	r4, #0
    836e:	d1f9      	bne.n	8364 <__libc_fini_array+0x10>
    8370:	e8bd 4038 	ldmia.w	sp!, {r3, r4, r5, lr}
    8374:	f007 b838 	b.w	f3e8 <_fini>
    8378:	0001761c 	.word	0x0001761c
    837c:	00017620 	.word	0x00017620

00008380 <__register_exitproc>:
    8380:	e92d 47f0 	stmdb	sp!, {r4, r5, r6, r7, r8, r9, sl, lr}
    8384:	4c25      	ldr	r4, [pc, #148]	; (841c <__register_exitproc+0x9c>)
    8386:	4606      	mov	r6, r0
    8388:	6825      	ldr	r5, [r4, #0]
    838a:	4688      	mov	r8, r1
    838c:	f8d5 4148 	ldr.w	r4, [r5, #328]	; 0x148
    8390:	4692      	mov	sl, r2
    8392:	4699      	mov	r9, r3
    8394:	b3c4      	cbz	r4, 8408 <__register_exitproc+0x88>
    8396:	6860      	ldr	r0, [r4, #4]
    8398:	281f      	cmp	r0, #31
    839a:	dc17      	bgt.n	83cc <__register_exitproc+0x4c>
    839c:	1c41      	adds	r1, r0, #1
    839e:	b176      	cbz	r6, 83be <__register_exitproc+0x3e>
    83a0:	eb04 0380 	add.w	r3, r4, r0, lsl #2
    83a4:	f8c3 a088 	str.w	sl, [r3, #136]	; 0x88
    83a8:	f8d4 5188 	ldr.w	r5, [r4, #392]	; 0x188
    83ac:	2201      	movs	r2, #1
    83ae:	4082      	lsls	r2, r0
    83b0:	4315      	orrs	r5, r2
    83b2:	2e02      	cmp	r6, #2
    83b4:	f8c4 5188 	str.w	r5, [r4, #392]	; 0x188
    83b8:	f8c3 9108 	str.w	r9, [r3, #264]	; 0x108
    83bc:	d01e      	beq.n	83fc <__register_exitproc+0x7c>
    83be:	1c83      	adds	r3, r0, #2
    83c0:	6061      	str	r1, [r4, #4]
    83c2:	2000      	movs	r0, #0
    83c4:	f844 8023 	str.w	r8, [r4, r3, lsl #2]
    83c8:	e8bd 87f0 	ldmia.w	sp!, {r4, r5, r6, r7, r8, r9, sl, pc}
    83cc:	4b14      	ldr	r3, [pc, #80]	; (8420 <__register_exitproc+0xa0>)
    83ce:	b303      	cbz	r3, 8412 <__register_exitproc+0x92>
    83d0:	f44f 70c8 	mov.w	r0, #400	; 0x190
    83d4:	f3af 8000 	nop.w
    83d8:	4604      	mov	r4, r0
    83da:	b1d0      	cbz	r0, 8412 <__register_exitproc+0x92>
    83dc:	f8d5 3148 	ldr.w	r3, [r5, #328]	; 0x148
    83e0:	2700      	movs	r7, #0
    83e2:	e884 0088 	stmia.w	r4, {r3, r7}
    83e6:	4638      	mov	r0, r7
    83e8:	f8c5 4148 	str.w	r4, [r5, #328]	; 0x148
    83ec:	2101      	movs	r1, #1
    83ee:	f8c4 7188 	str.w	r7, [r4, #392]	; 0x188
    83f2:	f8c4 718c 	str.w	r7, [r4, #396]	; 0x18c
    83f6:	2e00      	cmp	r6, #0
    83f8:	d0e1      	beq.n	83be <__register_exitproc+0x3e>
    83fa:	e7d1      	b.n	83a0 <__register_exitproc+0x20>
    83fc:	f8d4 318c 	ldr.w	r3, [r4, #396]	; 0x18c
    8400:	431a      	orrs	r2, r3
    8402:	f8c4 218c 	str.w	r2, [r4, #396]	; 0x18c
    8406:	e7da      	b.n	83be <__register_exitproc+0x3e>
    8408:	f505 74a6 	add.w	r4, r5, #332	; 0x14c
    840c:	f8c5 4148 	str.w	r4, [r5, #328]	; 0x148
    8410:	e7c1      	b.n	8396 <__register_exitproc+0x16>
    8412:	f04f 30ff 	mov.w	r0, #4294967295
    8416:	e8bd 87f0 	ldmia.w	sp!, {r4, r5, r6, r7, r8, r9, sl, pc}
    841a:	bf00      	nop
    841c:	0000f3fc 	.word	0x0000f3fc
    8420:	00000000 	.word	0x00000000

00008424 <findslot>:
    8424:	4b0b      	ldr	r3, [pc, #44]	; (8454 <findslot+0x30>)
    8426:	b510      	push	{r4, lr}
    8428:	4604      	mov	r4, r0
    842a:	6818      	ldr	r0, [r3, #0]
    842c:	b108      	cbz	r0, 8432 <findslot+0xe>
    842e:	6b83      	ldr	r3, [r0, #56]	; 0x38
    8430:	b14b      	cbz	r3, 8446 <findslot+0x22>
    8432:	2c13      	cmp	r4, #19
    8434:	d80b      	bhi.n	844e <findslot+0x2a>
    8436:	4808      	ldr	r0, [pc, #32]	; (8458 <findslot+0x34>)
    8438:	f850 3034 	ldr.w	r3, [r0, r4, lsl #3]
    843c:	3301      	adds	r3, #1
    843e:	d006      	beq.n	844e <findslot+0x2a>
    8440:	eb00 00c4 	add.w	r0, r0, r4, lsl #3
    8444:	bd10      	pop	{r4, pc}
    8446:	f000 fc35 	bl	8cb4 <__sinit>
    844a:	2c13      	cmp	r4, #19
    844c:	d9f3      	bls.n	8436 <findslot+0x12>
    844e:	2000      	movs	r0, #0
    8450:	bd10      	pop	{r4, pc}
    8452:	bf00      	nop
    8454:	00017b68 	.word	0x00017b68
    8458:	00018044 	.word	0x00018044

0000845c <checkerror.part.0>:
    845c:	b570      	push	{r4, r5, r6, lr}
    845e:	f000 fb3b 	bl	8ad8 <__errno>
    8462:	2413      	movs	r4, #19
    8464:	4605      	mov	r5, r0
    8466:	2600      	movs	r6, #0
    8468:	4620      	mov	r0, r4
    846a:	4631      	mov	r1, r6
    846c:	beab      	bkpt	0x00ab
    846e:	4604      	mov	r4, r0
    8470:	f04f 30ff 	mov.w	r0, #4294967295
    8474:	602c      	str	r4, [r5, #0]
    8476:	bd70      	pop	{r4, r5, r6, pc}

00008478 <initialise_monitor_handles>:
    8478:	e92d 47f0 	stmdb	sp!, {r4, r5, r6, r7, r8, r9, sl, lr}
    847c:	f8df 8094 	ldr.w	r8, [pc, #148]	; 8514 <initialise_monitor_handles+0x9c>
    8480:	b084      	sub	sp, #16
    8482:	2703      	movs	r7, #3
    8484:	2300      	movs	r3, #0
    8486:	f8cd 8004 	str.w	r8, [sp, #4]
    848a:	2401      	movs	r4, #1
    848c:	9703      	str	r7, [sp, #12]
    848e:	ae01      	add	r6, sp, #4
    8490:	9302      	str	r3, [sp, #8]
    8492:	4620      	mov	r0, r4
    8494:	4631      	mov	r1, r6
    8496:	beab      	bkpt	0x00ab
    8498:	4681      	mov	r9, r0
    849a:	4d1b      	ldr	r5, [pc, #108]	; (8508 <initialise_monitor_handles+0x90>)
    849c:	2304      	movs	r3, #4
    849e:	f8cd 8004 	str.w	r8, [sp, #4]
    84a2:	f8c5 9000 	str.w	r9, [r5]
    84a6:	9703      	str	r7, [sp, #12]
    84a8:	9302      	str	r3, [sp, #8]
    84aa:	4620      	mov	r0, r4
    84ac:	4631      	mov	r1, r6
    84ae:	beab      	bkpt	0x00ab
    84b0:	4682      	mov	sl, r0
    84b2:	f8df 9064 	ldr.w	r9, [pc, #100]	; 8518 <initialise_monitor_handles+0xa0>
    84b6:	2308      	movs	r3, #8
    84b8:	f8cd 8004 	str.w	r8, [sp, #4]
    84bc:	f8c9 a000 	str.w	sl, [r9]
    84c0:	9703      	str	r7, [sp, #12]
    84c2:	9302      	str	r3, [sp, #8]
    84c4:	4620      	mov	r0, r4
    84c6:	4631      	mov	r1, r6
    84c8:	beab      	bkpt	0x00ab
    84ca:	4604      	mov	r4, r0
    84cc:	4b0f      	ldr	r3, [pc, #60]	; (850c <initialise_monitor_handles+0x94>)
    84ce:	f8d9 6000 	ldr.w	r6, [r9]
    84d2:	1c62      	adds	r2, r4, #1
    84d4:	601c      	str	r4, [r3, #0]
    84d6:	bf08      	it	eq
    84d8:	4634      	moveq	r4, r6
    84da:	480d      	ldr	r0, [pc, #52]	; (8510 <initialise_monitor_handles+0x98>)
    84dc:	bf08      	it	eq
    84de:	601e      	streq	r6, [r3, #0]
    84e0:	f04f 31ff 	mov.w	r1, #4294967295
    84e4:	2300      	movs	r3, #0
    84e6:	f840 1033 	str.w	r1, [r0, r3, lsl #3]
    84ea:	3301      	adds	r3, #1
    84ec:	2b14      	cmp	r3, #20
    84ee:	4a08      	ldr	r2, [pc, #32]	; (8510 <initialise_monitor_handles+0x98>)
    84f0:	d1f9      	bne.n	84e6 <initialise_monitor_handles+0x6e>
    84f2:	6829      	ldr	r1, [r5, #0]
    84f4:	2300      	movs	r3, #0
    84f6:	6011      	str	r1, [r2, #0]
    84f8:	6096      	str	r6, [r2, #8]
    84fa:	6114      	str	r4, [r2, #16]
    84fc:	6053      	str	r3, [r2, #4]
    84fe:	60d3      	str	r3, [r2, #12]
    8500:	6153      	str	r3, [r2, #20]
    8502:	b004      	add	sp, #16
    8504:	e8bd 87f0 	ldmia.w	sp!, {r4, r5, r6, r7, r8, r9, sl, pc}
    8508:	0001803c 	.word	0x0001803c
    850c:	00018040 	.word	0x00018040
    8510:	00018044 	.word	0x00018044
    8514:	0000f400 	.word	0x0000f400
    8518:	00018034 	.word	0x00018034

0000851c <_swiread>:
    851c:	b530      	push	{r4, r5, lr}
    851e:	b085      	sub	sp, #20
    8520:	9001      	str	r0, [sp, #4]
    8522:	9102      	str	r1, [sp, #8]
    8524:	9203      	str	r2, [sp, #12]
    8526:	2406      	movs	r4, #6
    8528:	ad01      	add	r5, sp, #4
    852a:	4620      	mov	r0, r4
    852c:	4629      	mov	r1, r5
    852e:	beab      	bkpt	0x00ab
    8530:	4604      	mov	r4, r0
    8532:	1c63      	adds	r3, r4, #1
    8534:	d002      	beq.n	853c <_swiread+0x20>
    8536:	4620      	mov	r0, r4
    8538:	b005      	add	sp, #20
    853a:	bd30      	pop	{r4, r5, pc}
    853c:	f7ff ff8e 	bl	845c <checkerror.part.0>
    8540:	b005      	add	sp, #20
    8542:	bd30      	pop	{r4, r5, pc}

00008544 <_read>:
    8544:	b570      	push	{r4, r5, r6, lr}
    8546:	460e      	mov	r6, r1
    8548:	4615      	mov	r5, r2
    854a:	f7ff ff6b 	bl	8424 <findslot>
    854e:	4604      	mov	r4, r0
    8550:	b158      	cbz	r0, 856a <_read+0x26>
    8552:	4631      	mov	r1, r6
    8554:	6800      	ldr	r0, [r0, #0]
    8556:	462a      	mov	r2, r5
    8558:	f7ff ffe0 	bl	851c <_swiread>
    855c:	1c43      	adds	r3, r0, #1
    855e:	d003      	beq.n	8568 <_read+0x24>
    8560:	6863      	ldr	r3, [r4, #4]
    8562:	1a28      	subs	r0, r5, r0
    8564:	4403      	add	r3, r0
    8566:	6063      	str	r3, [r4, #4]
    8568:	bd70      	pop	{r4, r5, r6, pc}
    856a:	f000 fab5 	bl	8ad8 <__errno>
    856e:	2309      	movs	r3, #9
    8570:	6003      	str	r3, [r0, #0]
    8572:	f04f 30ff 	mov.w	r0, #4294967295
    8576:	bd70      	pop	{r4, r5, r6, pc}

00008578 <_swilseek>:
    8578:	b5f0      	push	{r4, r5, r6, r7, lr}
    857a:	b083      	sub	sp, #12
    857c:	460d      	mov	r5, r1
    857e:	4614      	mov	r4, r2
    8580:	f7ff ff50 	bl	8424 <findslot>
    8584:	4606      	mov	r6, r0
    8586:	2800      	cmp	r0, #0
    8588:	d039      	beq.n	85fe <_swilseek+0x86>
    858a:	2c02      	cmp	r4, #2
    858c:	d826      	bhi.n	85dc <_swilseek+0x64>
    858e:	2c01      	cmp	r4, #1
    8590:	d021      	beq.n	85d6 <_swilseek+0x5e>
    8592:	2c02      	cmp	r4, #2
    8594:	d011      	beq.n	85ba <_swilseek+0x42>
    8596:	466f      	mov	r7, sp
    8598:	6833      	ldr	r3, [r6, #0]
    859a:	240a      	movs	r4, #10
    859c:	e88d 0028 	stmia.w	sp, {r3, r5}
    85a0:	4620      	mov	r0, r4
    85a2:	4639      	mov	r1, r7
    85a4:	beab      	bkpt	0x00ab
    85a6:	4604      	mov	r4, r0
    85a8:	1c63      	adds	r3, r4, #1
    85aa:	d01e      	beq.n	85ea <_swilseek+0x72>
    85ac:	4620      	mov	r0, r4
    85ae:	2800      	cmp	r0, #0
    85b0:	db22      	blt.n	85f8 <_swilseek+0x80>
    85b2:	4628      	mov	r0, r5
    85b4:	6075      	str	r5, [r6, #4]
    85b6:	b003      	add	sp, #12
    85b8:	bdf0      	pop	{r4, r5, r6, r7, pc}
    85ba:	6803      	ldr	r3, [r0, #0]
    85bc:	af02      	add	r7, sp, #8
    85be:	240c      	movs	r4, #12
    85c0:	f847 3d08 	str.w	r3, [r7, #-8]!
    85c4:	4620      	mov	r0, r4
    85c6:	4639      	mov	r1, r7
    85c8:	beab      	bkpt	0x00ab
    85ca:	4604      	mov	r4, r0
    85cc:	1c61      	adds	r1, r4, #1
    85ce:	d00f      	beq.n	85f0 <_swilseek+0x78>
    85d0:	4620      	mov	r0, r4
    85d2:	4405      	add	r5, r0
    85d4:	e7e0      	b.n	8598 <_swilseek+0x20>
    85d6:	6843      	ldr	r3, [r0, #4]
    85d8:	18ed      	adds	r5, r5, r3
    85da:	d5dc      	bpl.n	8596 <_swilseek+0x1e>
    85dc:	f000 fa7c 	bl	8ad8 <__errno>
    85e0:	2316      	movs	r3, #22
    85e2:	6003      	str	r3, [r0, #0]
    85e4:	f04f 30ff 	mov.w	r0, #4294967295
    85e8:	e7e5      	b.n	85b6 <_swilseek+0x3e>
    85ea:	f7ff ff37 	bl	845c <checkerror.part.0>
    85ee:	e7de      	b.n	85ae <_swilseek+0x36>
    85f0:	f7ff ff34 	bl	845c <checkerror.part.0>
    85f4:	1c42      	adds	r2, r0, #1
    85f6:	d1ec      	bne.n	85d2 <_swilseek+0x5a>
    85f8:	f04f 30ff 	mov.w	r0, #4294967295
    85fc:	e7db      	b.n	85b6 <_swilseek+0x3e>
    85fe:	f000 fa6b 	bl	8ad8 <__errno>
    8602:	2309      	movs	r3, #9
    8604:	6003      	str	r3, [r0, #0]
    8606:	f04f 30ff 	mov.w	r0, #4294967295
    860a:	e7d4      	b.n	85b6 <_swilseek+0x3e>

0000860c <_lseek>:
    860c:	f7ff bfb4 	b.w	8578 <_swilseek>

00008610 <_swiwrite>:
    8610:	b530      	push	{r4, r5, lr}
    8612:	b085      	sub	sp, #20
    8614:	9001      	str	r0, [sp, #4]
    8616:	9102      	str	r1, [sp, #8]
    8618:	9203      	str	r2, [sp, #12]
    861a:	2405      	movs	r4, #5
    861c:	ad01      	add	r5, sp, #4
    861e:	4620      	mov	r0, r4
    8620:	4629      	mov	r1, r5
    8622:	beab      	bkpt	0x00ab
    8624:	4604      	mov	r4, r0
    8626:	1c63      	adds	r3, r4, #1
    8628:	d002      	beq.n	8630 <_swiwrite+0x20>
    862a:	4620      	mov	r0, r4
    862c:	b005      	add	sp, #20
    862e:	bd30      	pop	{r4, r5, pc}
    8630:	f7ff ff14 	bl	845c <checkerror.part.0>
    8634:	b005      	add	sp, #20
    8636:	bd30      	pop	{r4, r5, pc}

00008638 <_write>:
    8638:	b570      	push	{r4, r5, r6, lr}
    863a:	460e      	mov	r6, r1
    863c:	4615      	mov	r5, r2
    863e:	f7ff fef1 	bl	8424 <findslot>
    8642:	4604      	mov	r4, r0
    8644:	b1e0      	cbz	r0, 8680 <_write+0x48>
    8646:	462a      	mov	r2, r5
    8648:	4631      	mov	r1, r6
    864a:	6800      	ldr	r0, [r0, #0]
    864c:	f7ff ffe0 	bl	8610 <_swiwrite>
    8650:	1e02      	subs	r2, r0, #0
    8652:	db12      	blt.n	867a <_write+0x42>
    8654:	6863      	ldr	r3, [r4, #4]
    8656:	1aa8      	subs	r0, r5, r2
    8658:	4403      	add	r3, r0
    865a:	4295      	cmp	r5, r2
    865c:	6063      	str	r3, [r4, #4]
    865e:	d000      	beq.n	8662 <_write+0x2a>
    8660:	bd70      	pop	{r4, r5, r6, pc}
    8662:	f000 fa39 	bl	8ad8 <__errno>
    8666:	2513      	movs	r5, #19
    8668:	4606      	mov	r6, r0
    866a:	2400      	movs	r4, #0
    866c:	4628      	mov	r0, r5
    866e:	4621      	mov	r1, r4
    8670:	beab      	bkpt	0x00ab
    8672:	4605      	mov	r5, r0
    8674:	6035      	str	r5, [r6, #0]
    8676:	4620      	mov	r0, r4
    8678:	bd70      	pop	{r4, r5, r6, pc}
    867a:	f04f 30ff 	mov.w	r0, #4294967295
    867e:	e7ef      	b.n	8660 <_write+0x28>
    8680:	f000 fa2a 	bl	8ad8 <__errno>
    8684:	2309      	movs	r3, #9
    8686:	6003      	str	r3, [r0, #0]
    8688:	f04f 30ff 	mov.w	r0, #4294967295
    868c:	bd70      	pop	{r4, r5, r6, pc}
    868e:	bf00      	nop

00008690 <_swiclose>:
    8690:	b530      	push	{r4, r5, lr}
    8692:	b083      	sub	sp, #12
    8694:	ad02      	add	r5, sp, #8
    8696:	2402      	movs	r4, #2
    8698:	f845 0d04 	str.w	r0, [r5, #-4]!
    869c:	4620      	mov	r0, r4
    869e:	4629      	mov	r1, r5
    86a0:	beab      	bkpt	0x00ab
    86a2:	4604      	mov	r4, r0
    86a4:	1c63      	adds	r3, r4, #1
    86a6:	d002      	beq.n	86ae <_swiclose+0x1e>
    86a8:	4620      	mov	r0, r4
    86aa:	b003      	add	sp, #12
    86ac:	bd30      	pop	{r4, r5, pc}
    86ae:	f7ff fed5 	bl	845c <checkerror.part.0>
    86b2:	b003      	add	sp, #12
    86b4:	bd30      	pop	{r4, r5, pc}
    86b6:	bf00      	nop

000086b8 <_close>:
    86b8:	b570      	push	{r4, r5, r6, lr}
    86ba:	b082      	sub	sp, #8
    86bc:	4604      	mov	r4, r0
    86be:	f7ff feb1 	bl	8424 <findslot>
    86c2:	4606      	mov	r6, r0
    86c4:	b318      	cbz	r0, 870e <_close+0x56>
    86c6:	3c01      	subs	r4, #1
    86c8:	2c01      	cmp	r4, #1
    86ca:	d911      	bls.n	86f0 <_close+0x38>
    86cc:	6833      	ldr	r3, [r6, #0]
    86ce:	ad02      	add	r5, sp, #8
    86d0:	2402      	movs	r4, #2
    86d2:	f845 3d04 	str.w	r3, [r5, #-4]!
    86d6:	4620      	mov	r0, r4
    86d8:	4629      	mov	r1, r5
    86da:	beab      	bkpt	0x00ab
    86dc:	4604      	mov	r4, r0
    86de:	1c63      	adds	r3, r4, #1
    86e0:	d010      	beq.n	8704 <_close+0x4c>
    86e2:	4620      	mov	r0, r4
    86e4:	b910      	cbnz	r0, 86ec <_close+0x34>
    86e6:	f04f 33ff 	mov.w	r3, #4294967295
    86ea:	6033      	str	r3, [r6, #0]
    86ec:	b002      	add	sp, #8
    86ee:	bd70      	pop	{r4, r5, r6, pc}
    86f0:	4b0a      	ldr	r3, [pc, #40]	; (871c <_close+0x64>)
    86f2:	689a      	ldr	r2, [r3, #8]
    86f4:	691b      	ldr	r3, [r3, #16]
    86f6:	429a      	cmp	r2, r3
    86f8:	d1e8      	bne.n	86cc <_close+0x14>
    86fa:	f04f 33ff 	mov.w	r3, #4294967295
    86fe:	6003      	str	r3, [r0, #0]
    8700:	2000      	movs	r0, #0
    8702:	e7f3      	b.n	86ec <_close+0x34>
    8704:	f7ff feaa 	bl	845c <checkerror.part.0>
    8708:	2800      	cmp	r0, #0
    870a:	d1ef      	bne.n	86ec <_close+0x34>
    870c:	e7eb      	b.n	86e6 <_close+0x2e>
    870e:	f000 f9e3 	bl	8ad8 <__errno>
    8712:	2309      	movs	r3, #9
    8714:	6003      	str	r3, [r0, #0]
    8716:	f04f 30ff 	mov.w	r0, #4294967295
    871a:	e7e7      	b.n	86ec <_close+0x34>
    871c:	00018044 	.word	0x00018044

00008720 <_getpid>:
    8720:	2001      	movs	r0, #1
    8722:	4770      	bx	lr

00008724 <_sbrk>:
    8724:	4a0e      	ldr	r2, [pc, #56]	; (8760 <_sbrk+0x3c>)
    8726:	4603      	mov	r3, r0
    8728:	6810      	ldr	r0, [r2, #0]
    872a:	b510      	push	{r4, lr}
    872c:	b198      	cbz	r0, 8756 <_sbrk+0x32>
    872e:	4669      	mov	r1, sp
    8730:	4403      	add	r3, r0
    8732:	428b      	cmp	r3, r1
    8734:	d808      	bhi.n	8748 <_sbrk+0x24>
    8736:	490b      	ldr	r1, [pc, #44]	; (8764 <_sbrk+0x40>)
    8738:	4c0b      	ldr	r4, [pc, #44]	; (8768 <_sbrk+0x44>)
    873a:	6809      	ldr	r1, [r1, #0]
    873c:	42a1      	cmp	r1, r4
    873e:	d001      	beq.n	8744 <_sbrk+0x20>
    8740:	428b      	cmp	r3, r1
    8742:	d801      	bhi.n	8748 <_sbrk+0x24>
    8744:	6013      	str	r3, [r2, #0]
    8746:	bd10      	pop	{r4, pc}
    8748:	f000 f9c6 	bl	8ad8 <__errno>
    874c:	230c      	movs	r3, #12
    874e:	6003      	str	r3, [r0, #0]
    8750:	f04f 30ff 	mov.w	r0, #4294967295
    8754:	bd10      	pop	{r4, pc}
    8756:	4905      	ldr	r1, [pc, #20]	; (876c <_sbrk+0x48>)
    8758:	4608      	mov	r0, r1
    875a:	6011      	str	r1, [r2, #0]
    875c:	e7e7      	b.n	872e <_sbrk+0xa>
    875e:	bf00      	nop
    8760:	00018038 	.word	0x00018038
    8764:	00017b6c 	.word	0x00017b6c
    8768:	cafedead 	.word	0xcafedead
    876c:	00018128 	.word	0x00018128

00008770 <_swistat>:
    8770:	b570      	push	{r4, r5, r6, lr}
    8772:	460d      	mov	r5, r1
    8774:	f7ff fe56 	bl	8424 <findslot>
    8778:	4606      	mov	r6, r0
    877a:	b1b0      	cbz	r0, 87aa <_swistat+0x3a>
    877c:	686b      	ldr	r3, [r5, #4]
    877e:	f44f 6280 	mov.w	r2, #1024	; 0x400
    8782:	f443 5300 	orr.w	r3, r3, #8192	; 0x2000
    8786:	606b      	str	r3, [r5, #4]
    8788:	62ea      	str	r2, [r5, #44]	; 0x2c
    878a:	240c      	movs	r4, #12
    878c:	4620      	mov	r0, r4
    878e:	4631      	mov	r1, r6
    8790:	beab      	bkpt	0x00ab
    8792:	4604      	mov	r4, r0
    8794:	1c62      	adds	r2, r4, #1
    8796:	d003      	beq.n	87a0 <_swistat+0x30>
    8798:	4620      	mov	r0, r4
    879a:	6128      	str	r0, [r5, #16]
    879c:	2000      	movs	r0, #0
    879e:	bd70      	pop	{r4, r5, r6, pc}
    87a0:	f7ff fe5c 	bl	845c <checkerror.part.0>
    87a4:	1c43      	adds	r3, r0, #1
    87a6:	d1f8      	bne.n	879a <_swistat+0x2a>
    87a8:	bd70      	pop	{r4, r5, r6, pc}
    87aa:	f000 f995 	bl	8ad8 <__errno>
    87ae:	2309      	movs	r3, #9
    87b0:	6003      	str	r3, [r0, #0]
    87b2:	f04f 30ff 	mov.w	r0, #4294967295
    87b6:	bd70      	pop	{r4, r5, r6, pc}

000087b8 <_fstat>:
    87b8:	b538      	push	{r3, r4, r5, lr}
    87ba:	460c      	mov	r4, r1
    87bc:	4605      	mov	r5, r0
    87be:	2100      	movs	r1, #0
    87c0:	4620      	mov	r0, r4
    87c2:	223c      	movs	r2, #60	; 0x3c
    87c4:	f7ff fd08 	bl	81d8 <memset>
    87c8:	4628      	mov	r0, r5
    87ca:	4621      	mov	r1, r4
    87cc:	e8bd 4038 	ldmia.w	sp!, {r3, r4, r5, lr}
    87d0:	f7ff bfce 	b.w	8770 <_swistat>

000087d4 <_stat>:
    87d4:	b538      	push	{r3, r4, r5, lr}
    87d6:	460d      	mov	r5, r1
    87d8:	4604      	mov	r4, r0
    87da:	2100      	movs	r1, #0
    87dc:	223c      	movs	r2, #60	; 0x3c
    87de:	4628      	mov	r0, r5
    87e0:	f7ff fcfa 	bl	81d8 <memset>
    87e4:	4620      	mov	r0, r4
    87e6:	2100      	movs	r1, #0
    87e8:	f000 f812 	bl	8810 <_swiopen>
    87ec:	1c43      	adds	r3, r0, #1
    87ee:	4604      	mov	r4, r0
    87f0:	d00b      	beq.n	880a <_stat+0x36>
    87f2:	686b      	ldr	r3, [r5, #4]
    87f4:	4629      	mov	r1, r5
    87f6:	f443 4301 	orr.w	r3, r3, #33024	; 0x8100
    87fa:	606b      	str	r3, [r5, #4]
    87fc:	f7ff ffb8 	bl	8770 <_swistat>
    8800:	4605      	mov	r5, r0
    8802:	4620      	mov	r0, r4
    8804:	f7ff ff58 	bl	86b8 <_close>
    8808:	462c      	mov	r4, r5
    880a:	4620      	mov	r0, r4
    880c:	bd38      	pop	{r3, r4, r5, pc}
    880e:	bf00      	nop

00008810 <_swiopen>:
    8810:	e92d 47f0 	stmdb	sp!, {r4, r5, r6, r7, r8, r9, sl, lr}
    8814:	4682      	mov	sl, r0
    8816:	4688      	mov	r8, r1
    8818:	4e31      	ldr	r6, [pc, #196]	; (88e0 <_swiopen+0xd0>)
    881a:	b090      	sub	sp, #64	; 0x40
    881c:	2400      	movs	r4, #0
    881e:	f856 5034 	ldr.w	r5, [r6, r4, lsl #3]
    8822:	00e7      	lsls	r7, r4, #3
    8824:	1c6b      	adds	r3, r5, #1
    8826:	d00c      	beq.n	8842 <_swiopen+0x32>
    8828:	3401      	adds	r4, #1
    882a:	2c14      	cmp	r4, #20
    882c:	d1f7      	bne.n	881e <_swiopen+0xe>
    882e:	f000 f953 	bl	8ad8 <__errno>
    8832:	2318      	movs	r3, #24
    8834:	6003      	str	r3, [r0, #0]
    8836:	f04f 35ff 	mov.w	r5, #4294967295
    883a:	4628      	mov	r0, r5
    883c:	b010      	add	sp, #64	; 0x40
    883e:	e8bd 87f0 	ldmia.w	sp!, {r4, r5, r6, r7, r8, r9, sl, pc}
    8842:	f408 6320 	and.w	r3, r8, #2560	; 0xa00
    8846:	f5b3 6f20 	cmp.w	r3, #2560	; 0xa00
    884a:	f10d 0904 	add.w	r9, sp, #4
    884e:	d03b      	beq.n	88c8 <_swiopen+0xb8>
    8850:	f240 6301 	movw	r3, #1537	; 0x601
    8854:	f3c8 4500 	ubfx	r5, r8, #16, #1
    8858:	f018 0f02 	tst.w	r8, #2
    885c:	ea08 0303 	and.w	r3, r8, r3
    8860:	bf18      	it	ne
    8862:	f045 0502 	orrne.w	r5, r5, #2
    8866:	b10b      	cbz	r3, 886c <_swiopen+0x5c>
    8868:	f045 0504 	orr.w	r5, r5, #4
    886c:	f018 0f08 	tst.w	r8, #8
    8870:	bf18      	it	ne
    8872:	f025 0304 	bicne.w	r3, r5, #4
    8876:	4650      	mov	r0, sl
    8878:	bf18      	it	ne
    887a:	f043 0508 	orrne.w	r5, r3, #8
    887e:	f8cd a004 	str.w	sl, [sp, #4]
    8882:	f000 fd89 	bl	9398 <strlen>
    8886:	9502      	str	r5, [sp, #8]
    8888:	9003      	str	r0, [sp, #12]
    888a:	2501      	movs	r5, #1
    888c:	4628      	mov	r0, r5
    888e:	4649      	mov	r1, r9
    8890:	beab      	bkpt	0x00ab
    8892:	4605      	mov	r5, r0
    8894:	2d00      	cmp	r5, #0
    8896:	db09      	blt.n	88ac <_swiopen+0x9c>
    8898:	f846 5034 	str.w	r5, [r6, r4, lsl #3]
    889c:	4625      	mov	r5, r4
    889e:	4628      	mov	r0, r5
    88a0:	4437      	add	r7, r6
    88a2:	2300      	movs	r3, #0
    88a4:	607b      	str	r3, [r7, #4]
    88a6:	b010      	add	sp, #64	; 0x40
    88a8:	e8bd 87f0 	ldmia.w	sp!, {r4, r5, r6, r7, r8, r9, sl, pc}
    88ac:	f000 f914 	bl	8ad8 <__errno>
    88b0:	2413      	movs	r4, #19
    88b2:	4606      	mov	r6, r0
    88b4:	2700      	movs	r7, #0
    88b6:	4620      	mov	r0, r4
    88b8:	4639      	mov	r1, r7
    88ba:	beab      	bkpt	0x00ab
    88bc:	4604      	mov	r4, r0
    88be:	4628      	mov	r0, r5
    88c0:	6034      	str	r4, [r6, #0]
    88c2:	b010      	add	sp, #64	; 0x40
    88c4:	e8bd 87f0 	ldmia.w	sp!, {r4, r5, r6, r7, r8, r9, sl, pc}
    88c8:	4649      	mov	r1, r9
    88ca:	4650      	mov	r0, sl
    88cc:	f7ff ff82 	bl	87d4 <_stat>
    88d0:	3001      	adds	r0, #1
    88d2:	d0bd      	beq.n	8850 <_swiopen+0x40>
    88d4:	f000 f900 	bl	8ad8 <__errno>
    88d8:	2311      	movs	r3, #17
    88da:	6003      	str	r3, [r0, #0]
    88dc:	e7ad      	b.n	883a <_swiopen+0x2a>
    88de:	bf00      	nop
    88e0:	00018044 	.word	0x00018044

000088e4 <_open>:
    88e4:	b40e      	push	{r1, r2, r3}
    88e6:	b500      	push	{lr}
    88e8:	9901      	ldr	r1, [sp, #4]
    88ea:	f7ff ff91 	bl	8810 <_swiopen>
    88ee:	f85d eb04 	ldr.w	lr, [sp], #4
    88f2:	b003      	add	sp, #12
    88f4:	4770      	bx	lr
    88f6:	bf00      	nop

000088f8 <_link>:
    88f8:	b508      	push	{r3, lr}
    88fa:	f000 f8ed 	bl	8ad8 <__errno>
    88fe:	2358      	movs	r3, #88	; 0x58
    8900:	6003      	str	r3, [r0, #0]
    8902:	f04f 30ff 	mov.w	r0, #4294967295
    8906:	bd08      	pop	{r3, pc}

00008908 <_unlink>:
    8908:	b5f0      	push	{r4, r5, r6, r7, lr}
    890a:	b083      	sub	sp, #12
    890c:	9000      	str	r0, [sp, #0]
    890e:	f000 fd43 	bl	9398 <strlen>
    8912:	240e      	movs	r4, #14
    8914:	9001      	str	r0, [sp, #4]
    8916:	466d      	mov	r5, sp
    8918:	4620      	mov	r0, r4
    891a:	4629      	mov	r1, r5
    891c:	beab      	bkpt	0x00ab
    891e:	4604      	mov	r4, r0
    8920:	1c63      	adds	r3, r4, #1
    8922:	d002      	beq.n	892a <_unlink+0x22>
    8924:	2000      	movs	r0, #0
    8926:	b003      	add	sp, #12
    8928:	bdf0      	pop	{r4, r5, r6, r7, pc}
    892a:	f000 f8d5 	bl	8ad8 <__errno>
    892e:	2513      	movs	r5, #19
    8930:	4606      	mov	r6, r0
    8932:	2700      	movs	r7, #0
    8934:	4628      	mov	r0, r5
    8936:	4639      	mov	r1, r7
    8938:	beab      	bkpt	0x00ab
    893a:	4605      	mov	r5, r0
    893c:	4620      	mov	r0, r4
    893e:	6035      	str	r5, [r6, #0]
    8940:	b003      	add	sp, #12
    8942:	bdf0      	pop	{r4, r5, r6, r7, pc}

00008944 <_gettimeofday>:
    8944:	b5f0      	push	{r4, r5, r6, r7, lr}
    8946:	460c      	mov	r4, r1
    8948:	4605      	mov	r5, r0
    894a:	b138      	cbz	r0, 895c <_gettimeofday+0x18>
    894c:	2611      	movs	r6, #17
    894e:	2700      	movs	r7, #0
    8950:	4630      	mov	r0, r6
    8952:	4639      	mov	r1, r7
    8954:	beab      	bkpt	0x00ab
    8956:	4606      	mov	r6, r0
    8958:	e885 00c0 	stmia.w	r5, {r6, r7}
    895c:	b114      	cbz	r4, 8964 <_gettimeofday+0x20>
    895e:	2300      	movs	r3, #0
    8960:	6023      	str	r3, [r4, #0]
    8962:	6063      	str	r3, [r4, #4]
    8964:	2000      	movs	r0, #0
    8966:	bdf0      	pop	{r4, r5, r6, r7, pc}

00008968 <_clock>:
    8968:	b530      	push	{r4, r5, lr}
    896a:	2410      	movs	r4, #16
    896c:	2500      	movs	r5, #0
    896e:	4620      	mov	r0, r4
    8970:	4629      	mov	r1, r5
    8972:	beab      	bkpt	0x00ab
    8974:	4604      	mov	r4, r0
    8976:	4620      	mov	r0, r4
    8978:	bd30      	pop	{r4, r5, pc}
    897a:	bf00      	nop

0000897c <_times>:
    897c:	b570      	push	{r4, r5, r6, lr}
    897e:	4604      	mov	r4, r0
    8980:	2510      	movs	r5, #16
    8982:	2600      	movs	r6, #0
    8984:	4628      	mov	r0, r5
    8986:	4631      	mov	r1, r6
    8988:	beab      	bkpt	0x00ab
    898a:	4605      	mov	r5, r0
    898c:	b11c      	cbz	r4, 8996 <_times+0x1a>
    898e:	e884 0060 	stmia.w	r4, {r5, r6}
    8992:	60a6      	str	r6, [r4, #8]
    8994:	60e6      	str	r6, [r4, #12]
    8996:	4628      	mov	r0, r5
    8998:	bd70      	pop	{r4, r5, r6, pc}
    899a:	bf00      	nop

0000899c <_isatty>:
    899c:	b570      	push	{r4, r5, r6, lr}
    899e:	f7ff fd41 	bl	8424 <findslot>
    89a2:	4604      	mov	r4, r0
    89a4:	b190      	cbz	r0, 89cc <_isatty+0x30>
    89a6:	2509      	movs	r5, #9
    89a8:	4628      	mov	r0, r5
    89aa:	4621      	mov	r1, r4
    89ac:	beab      	bkpt	0x00ab
    89ae:	4604      	mov	r4, r0
    89b0:	2c01      	cmp	r4, #1
    89b2:	d009      	beq.n	89c8 <_isatty+0x2c>
    89b4:	f000 f890 	bl	8ad8 <__errno>
    89b8:	2513      	movs	r5, #19
    89ba:	4606      	mov	r6, r0
    89bc:	2400      	movs	r4, #0
    89be:	4628      	mov	r0, r5
    89c0:	4621      	mov	r1, r4
    89c2:	beab      	bkpt	0x00ab
    89c4:	4605      	mov	r5, r0
    89c6:	6035      	str	r5, [r6, #0]
    89c8:	4620      	mov	r0, r4
    89ca:	bd70      	pop	{r4, r5, r6, pc}
    89cc:	f000 f884 	bl	8ad8 <__errno>
    89d0:	2309      	movs	r3, #9
    89d2:	6003      	str	r3, [r0, #0]
    89d4:	e7f8      	b.n	89c8 <_isatty+0x2c>
    89d6:	bf00      	nop

000089d8 <_system>:
    89d8:	b1e8      	cbz	r0, 8a16 <_system+0x3e>
    89da:	b530      	push	{r4, r5, lr}
    89dc:	b083      	sub	sp, #12
    89de:	9000      	str	r0, [sp, #0]
    89e0:	f000 fcda 	bl	9398 <strlen>
    89e4:	2412      	movs	r4, #18
    89e6:	9001      	str	r0, [sp, #4]
    89e8:	466d      	mov	r5, sp
    89ea:	4620      	mov	r0, r4
    89ec:	4629      	mov	r1, r5
    89ee:	beab      	bkpt	0x00ab
    89f0:	4604      	mov	r4, r0
    89f2:	1c63      	adds	r3, r4, #1
    89f4:	d00b      	beq.n	8a0e <_system+0x36>
    89f6:	2cff      	cmp	r4, #255	; 0xff
    89f8:	4620      	mov	r0, r4
    89fa:	d806      	bhi.n	8a0a <_system+0x32>
    89fc:	b12c      	cbz	r4, 8a0a <_system+0x32>
    89fe:	0040      	lsls	r0, r0, #1
    8a00:	f3c0 2307 	ubfx	r3, r0, #8, #8
    8a04:	d001      	beq.n	8a0a <_system+0x32>
    8a06:	42a3      	cmp	r3, r4
    8a08:	d1f9      	bne.n	89fe <_system+0x26>
    8a0a:	b003      	add	sp, #12
    8a0c:	bd30      	pop	{r4, r5, pc}
    8a0e:	f7ff fd25 	bl	845c <checkerror.part.0>
    8a12:	4604      	mov	r4, r0
    8a14:	e7ef      	b.n	89f6 <_system+0x1e>
    8a16:	2001      	movs	r0, #1
    8a18:	4770      	bx	lr
    8a1a:	bf00      	nop

00008a1c <_rename>:
    8a1c:	b530      	push	{r4, r5, lr}
    8a1e:	b085      	sub	sp, #20
    8a20:	460c      	mov	r4, r1
    8a22:	9000      	str	r0, [sp, #0]
    8a24:	f000 fcb8 	bl	9398 <strlen>
    8a28:	9001      	str	r0, [sp, #4]
    8a2a:	4620      	mov	r0, r4
    8a2c:	9402      	str	r4, [sp, #8]
    8a2e:	f000 fcb3 	bl	9398 <strlen>
    8a32:	240f      	movs	r4, #15
    8a34:	9003      	str	r0, [sp, #12]
    8a36:	466d      	mov	r5, sp
    8a38:	4620      	mov	r0, r4
    8a3a:	4629      	mov	r1, r5
    8a3c:	beab      	bkpt	0x00ab
    8a3e:	4604      	mov	r4, r0
    8a40:	1c63      	adds	r3, r4, #1
    8a42:	d006      	beq.n	8a52 <_rename+0x36>
    8a44:	4620      	mov	r0, r4
    8a46:	3000      	adds	r0, #0
    8a48:	bf18      	it	ne
    8a4a:	2001      	movne	r0, #1
    8a4c:	4240      	negs	r0, r0
    8a4e:	b005      	add	sp, #20
    8a50:	bd30      	pop	{r4, r5, pc}
    8a52:	f7ff fd03 	bl	845c <checkerror.part.0>
    8a56:	e7f6      	b.n	8a46 <_rename+0x2a>

00008a58 <_exit>:
    8a58:	f04f 31ff 	mov.w	r1, #4294967295
    8a5c:	f000 b800 	b.w	8a60 <_kill>

00008a60 <_kill>:
    8a60:	2906      	cmp	r1, #6
    8a62:	b530      	push	{r4, r5, lr}
    8a64:	bf0c      	ite	eq
    8a66:	4d04      	ldreq	r5, [pc, #16]	; (8a78 <_kill+0x18>)
    8a68:	4d04      	ldrne	r5, [pc, #16]	; (8a7c <_kill+0x1c>)
    8a6a:	2418      	movs	r4, #24
    8a6c:	4620      	mov	r0, r4
    8a6e:	4629      	mov	r1, r5
    8a70:	beab      	bkpt	0x00ab
    8a72:	4604      	mov	r4, r0
    8a74:	4620      	mov	r0, r4
    8a76:	bd30      	pop	{r4, r5, pc}
    8a78:	00020023 	.word	0x00020023
    8a7c:	00020026 	.word	0x00020026

00008a80 <main>:
    8a80:	b500      	push	{lr}
    8a82:	4912      	ldr	r1, [pc, #72]	; (8acc <insinwd+0x32>)
    8a84:	4a12      	ldr	r2, [pc, #72]	; (8ad0 <insinwd+0x36>)
    8a86:	f04f 0300 	mov.w	r3, #0
    8a8a:	f04f 0404 	mov.w	r4, #4
    8a8e:	f000 f804 	bl	8a9a <insinwd>
    8a92:	4810      	ldr	r0, [pc, #64]	; (8ad4 <insinwd+0x3a>)
    8a94:	f000 fc16 	bl	92c4 <printf>

00008a98 <exit>:
    8a98:	bd00      	pop	{pc}

00008a9a <insinwd>:
    8a9a:	b500      	push	{lr}
    8a9c:	4d0c      	ldr	r5, [pc, #48]	; (8ad0 <insinwd+0x36>)
    8a9e:	f04f 0620 	mov.w	r6, #32
    8aa2:	eba6 0604 	sub.w	r6, r6, r4
    8aa6:	eba6 0603 	sub.w	r6, r6, r3
    8aaa:	fa05 f504 	lsl.w	r5, r5, r4
    8aae:	441e      	add	r6, r3
    8ab0:	fa25 f506 	lsr.w	r5, r5, r6
    8ab4:	f085 35ff 	eor.w	r5, r5, #4294967295
    8ab8:	ea01 0105 	and.w	r1, r1, r5
    8abc:	f085 35ff 	eor.w	r5, r5, #4294967295
    8ac0:	ea02 0205 	and.w	r2, r2, r5
    8ac4:	ea41 0102 	orr.w	r1, r1, r2
    8ac8:	bd00      	pop	{pc}
    8aca:	0000      	.short	0x0000
    8acc:	fffffff0 	.word	0xfffffff0
    8ad0:	ffffffff 	.word	0xffffffff
    8ad4:	00017b70 	.word	0x00017b70

00008ad8 <__errno>:
    8ad8:	4b01      	ldr	r3, [pc, #4]	; (8ae0 <__errno+0x8>)
    8ada:	6818      	ldr	r0, [r3, #0]
    8adc:	4770      	bx	lr
    8ade:	bf00      	nop
    8ae0:	00017b68 	.word	0x00017b68

00008ae4 <__fp_lock>:
    8ae4:	2000      	movs	r0, #0
    8ae6:	4770      	bx	lr

00008ae8 <__fp_unlock>:
    8ae8:	2000      	movs	r0, #0
    8aea:	4770      	bx	lr

00008aec <_cleanup_r>:
    8aec:	4901      	ldr	r1, [pc, #4]	; (8af4 <_cleanup_r+0x8>)
    8aee:	f000 b927 	b.w	8d40 <_fwalk_reent>
    8af2:	bf00      	nop
    8af4:	0000b9b5 	.word	0x0000b9b5

00008af8 <__sinit.part.1>:
    8af8:	e92d 4ff0 	stmdb	sp!, {r4, r5, r6, r7, r8, r9, sl, fp, lr}
    8afc:	4607      	mov	r7, r0
    8afe:	4835      	ldr	r0, [pc, #212]	; (8bd4 <__sinit.part.1+0xdc>)
    8b00:	687d      	ldr	r5, [r7, #4]
    8b02:	2400      	movs	r4, #0
    8b04:	f507 723b 	add.w	r2, r7, #748	; 0x2ec
    8b08:	2304      	movs	r3, #4
    8b0a:	2103      	movs	r1, #3
    8b0c:	63f8      	str	r0, [r7, #60]	; 0x3c
    8b0e:	f8c7 12e4 	str.w	r1, [r7, #740]	; 0x2e4
    8b12:	f8c7 22e8 	str.w	r2, [r7, #744]	; 0x2e8
    8b16:	f8c7 42e0 	str.w	r4, [r7, #736]	; 0x2e0
    8b1a:	b083      	sub	sp, #12
    8b1c:	602c      	str	r4, [r5, #0]
    8b1e:	606c      	str	r4, [r5, #4]
    8b20:	60ac      	str	r4, [r5, #8]
    8b22:	666c      	str	r4, [r5, #100]	; 0x64
    8b24:	81ec      	strh	r4, [r5, #14]
    8b26:	612c      	str	r4, [r5, #16]
    8b28:	616c      	str	r4, [r5, #20]
    8b2a:	61ac      	str	r4, [r5, #24]
    8b2c:	81ab      	strh	r3, [r5, #12]
    8b2e:	4621      	mov	r1, r4
    8b30:	f105 005c 	add.w	r0, r5, #92	; 0x5c
    8b34:	2208      	movs	r2, #8
    8b36:	f7ff fb4f 	bl	81d8 <memset>
    8b3a:	f8df b09c 	ldr.w	fp, [pc, #156]	; 8bd8 <__sinit.part.1+0xe0>
    8b3e:	68be      	ldr	r6, [r7, #8]
    8b40:	f8df a098 	ldr.w	sl, [pc, #152]	; 8bdc <__sinit.part.1+0xe4>
    8b44:	f8df 9098 	ldr.w	r9, [pc, #152]	; 8be0 <__sinit.part.1+0xe8>
    8b48:	f8df 8098 	ldr.w	r8, [pc, #152]	; 8be4 <__sinit.part.1+0xec>
    8b4c:	2301      	movs	r3, #1
    8b4e:	2209      	movs	r2, #9
    8b50:	f8c5 b020 	str.w	fp, [r5, #32]
    8b54:	f8c5 a024 	str.w	sl, [r5, #36]	; 0x24
    8b58:	f8c5 9028 	str.w	r9, [r5, #40]	; 0x28
    8b5c:	f8c5 802c 	str.w	r8, [r5, #44]	; 0x2c
    8b60:	61ed      	str	r5, [r5, #28]
    8b62:	4621      	mov	r1, r4
    8b64:	81f3      	strh	r3, [r6, #14]
    8b66:	81b2      	strh	r2, [r6, #12]
    8b68:	f106 005c 	add.w	r0, r6, #92	; 0x5c
    8b6c:	6034      	str	r4, [r6, #0]
    8b6e:	6074      	str	r4, [r6, #4]
    8b70:	60b4      	str	r4, [r6, #8]
    8b72:	6674      	str	r4, [r6, #100]	; 0x64
    8b74:	6134      	str	r4, [r6, #16]
    8b76:	6174      	str	r4, [r6, #20]
    8b78:	61b4      	str	r4, [r6, #24]
    8b7a:	2208      	movs	r2, #8
    8b7c:	9301      	str	r3, [sp, #4]
    8b7e:	f7ff fb2b 	bl	81d8 <memset>
    8b82:	68fd      	ldr	r5, [r7, #12]
    8b84:	2012      	movs	r0, #18
    8b86:	2202      	movs	r2, #2
    8b88:	61f6      	str	r6, [r6, #28]
    8b8a:	f8c6 b020 	str.w	fp, [r6, #32]
    8b8e:	f8c6 a024 	str.w	sl, [r6, #36]	; 0x24
    8b92:	f8c6 9028 	str.w	r9, [r6, #40]	; 0x28
    8b96:	f8c6 802c 	str.w	r8, [r6, #44]	; 0x2c
    8b9a:	4621      	mov	r1, r4
    8b9c:	81a8      	strh	r0, [r5, #12]
    8b9e:	81ea      	strh	r2, [r5, #14]
    8ba0:	602c      	str	r4, [r5, #0]
    8ba2:	606c      	str	r4, [r5, #4]
    8ba4:	60ac      	str	r4, [r5, #8]
    8ba6:	666c      	str	r4, [r5, #100]	; 0x64
    8ba8:	612c      	str	r4, [r5, #16]
    8baa:	616c      	str	r4, [r5, #20]
    8bac:	61ac      	str	r4, [r5, #24]
    8bae:	f105 005c 	add.w	r0, r5, #92	; 0x5c
    8bb2:	2208      	movs	r2, #8
    8bb4:	f7ff fb10 	bl	81d8 <memset>
    8bb8:	9b01      	ldr	r3, [sp, #4]
    8bba:	61ed      	str	r5, [r5, #28]
    8bbc:	f8c5 b020 	str.w	fp, [r5, #32]
    8bc0:	f8c5 a024 	str.w	sl, [r5, #36]	; 0x24
    8bc4:	f8c5 9028 	str.w	r9, [r5, #40]	; 0x28
    8bc8:	f8c5 802c 	str.w	r8, [r5, #44]	; 0x2c
    8bcc:	63bb      	str	r3, [r7, #56]	; 0x38
    8bce:	b003      	add	sp, #12
    8bd0:	e8bd 8ff0 	ldmia.w	sp!, {r4, r5, r6, r7, r8, r9, sl, fp, pc}
    8bd4:	00008aed 	.word	0x00008aed
    8bd8:	00009311 	.word	0x00009311
    8bdc:	00009339 	.word	0x00009339
    8be0:	00009371 	.word	0x00009371
    8be4:	00009391 	.word	0x00009391

00008be8 <__sfmoreglue>:
    8be8:	b570      	push	{r4, r5, r6, lr}
    8bea:	2368      	movs	r3, #104	; 0x68
    8bec:	1e4d      	subs	r5, r1, #1
    8bee:	fb03 f505 	mul.w	r5, r3, r5
    8bf2:	460e      	mov	r6, r1
    8bf4:	f105 0174 	add.w	r1, r5, #116	; 0x74
    8bf8:	f000 f8ca 	bl	8d90 <_malloc_r>
    8bfc:	4604      	mov	r4, r0
    8bfe:	b140      	cbz	r0, 8c12 <__sfmoreglue+0x2a>
    8c00:	2100      	movs	r1, #0
    8c02:	300c      	adds	r0, #12
    8c04:	6066      	str	r6, [r4, #4]
    8c06:	f105 0268 	add.w	r2, r5, #104	; 0x68
    8c0a:	6021      	str	r1, [r4, #0]
    8c0c:	60a0      	str	r0, [r4, #8]
    8c0e:	f7ff fae3 	bl	81d8 <memset>
    8c12:	4620      	mov	r0, r4
    8c14:	bd70      	pop	{r4, r5, r6, pc}
    8c16:	bf00      	nop

00008c18 <__sfp>:
    8c18:	4b20      	ldr	r3, [pc, #128]	; (8c9c <__sfp+0x84>)
    8c1a:	b570      	push	{r4, r5, r6, lr}
    8c1c:	681d      	ldr	r5, [r3, #0]
    8c1e:	4606      	mov	r6, r0
    8c20:	6bab      	ldr	r3, [r5, #56]	; 0x38
    8c22:	b913      	cbnz	r3, 8c2a <__sfp+0x12>
    8c24:	4628      	mov	r0, r5
    8c26:	f7ff ff67 	bl	8af8 <__sinit.part.1>
    8c2a:	f505 7538 	add.w	r5, r5, #736	; 0x2e0
    8c2e:	686b      	ldr	r3, [r5, #4]
    8c30:	68ac      	ldr	r4, [r5, #8]
    8c32:	3b01      	subs	r3, #1
    8c34:	d505      	bpl.n	8c42 <__sfp+0x2a>
    8c36:	e021      	b.n	8c7c <__sfp+0x64>
    8c38:	3b01      	subs	r3, #1
    8c3a:	1c5a      	adds	r2, r3, #1
    8c3c:	f104 0468 	add.w	r4, r4, #104	; 0x68
    8c40:	d01c      	beq.n	8c7c <__sfp+0x64>
    8c42:	f9b4 200c 	ldrsh.w	r2, [r4, #12]
    8c46:	2a00      	cmp	r2, #0
    8c48:	d1f6      	bne.n	8c38 <__sfp+0x20>
    8c4a:	f64f 72ff 	movw	r2, #65535	; 0xffff
    8c4e:	2500      	movs	r5, #0
    8c50:	2301      	movs	r3, #1
    8c52:	81e2      	strh	r2, [r4, #14]
    8c54:	81a3      	strh	r3, [r4, #12]
    8c56:	6665      	str	r5, [r4, #100]	; 0x64
    8c58:	6025      	str	r5, [r4, #0]
    8c5a:	60a5      	str	r5, [r4, #8]
    8c5c:	6065      	str	r5, [r4, #4]
    8c5e:	6125      	str	r5, [r4, #16]
    8c60:	6165      	str	r5, [r4, #20]
    8c62:	61a5      	str	r5, [r4, #24]
    8c64:	4629      	mov	r1, r5
    8c66:	f104 005c 	add.w	r0, r4, #92	; 0x5c
    8c6a:	2208      	movs	r2, #8
    8c6c:	f7ff fab4 	bl	81d8 <memset>
    8c70:	4620      	mov	r0, r4
    8c72:	6325      	str	r5, [r4, #48]	; 0x30
    8c74:	6365      	str	r5, [r4, #52]	; 0x34
    8c76:	6465      	str	r5, [r4, #68]	; 0x44
    8c78:	64a5      	str	r5, [r4, #72]	; 0x48
    8c7a:	bd70      	pop	{r4, r5, r6, pc}
    8c7c:	682b      	ldr	r3, [r5, #0]
    8c7e:	b10b      	cbz	r3, 8c84 <__sfp+0x6c>
    8c80:	461d      	mov	r5, r3
    8c82:	e7d4      	b.n	8c2e <__sfp+0x16>
    8c84:	4630      	mov	r0, r6
    8c86:	2104      	movs	r1, #4
    8c88:	f7ff ffae 	bl	8be8 <__sfmoreglue>
    8c8c:	6028      	str	r0, [r5, #0]
    8c8e:	b108      	cbz	r0, 8c94 <__sfp+0x7c>
    8c90:	4605      	mov	r5, r0
    8c92:	e7cc      	b.n	8c2e <__sfp+0x16>
    8c94:	230c      	movs	r3, #12
    8c96:	6033      	str	r3, [r6, #0]
    8c98:	bd70      	pop	{r4, r5, r6, pc}
    8c9a:	bf00      	nop
    8c9c:	0000f3fc 	.word	0x0000f3fc

00008ca0 <_cleanup>:
    8ca0:	4b02      	ldr	r3, [pc, #8]	; (8cac <_cleanup+0xc>)
    8ca2:	4903      	ldr	r1, [pc, #12]	; (8cb0 <_cleanup+0x10>)
    8ca4:	6818      	ldr	r0, [r3, #0]
    8ca6:	f000 b84b 	b.w	8d40 <_fwalk_reent>
    8caa:	bf00      	nop
    8cac:	0000f3fc 	.word	0x0000f3fc
    8cb0:	0000b9b5 	.word	0x0000b9b5

00008cb4 <__sinit>:
    8cb4:	6b83      	ldr	r3, [r0, #56]	; 0x38
    8cb6:	b103      	cbz	r3, 8cba <__sinit+0x6>
    8cb8:	4770      	bx	lr
    8cba:	f7ff bf1d 	b.w	8af8 <__sinit.part.1>
    8cbe:	bf00      	nop

00008cc0 <__sfp_lock_acquire>:
    8cc0:	4770      	bx	lr
    8cc2:	bf00      	nop

00008cc4 <__sfp_lock_release>:
    8cc4:	4770      	bx	lr
    8cc6:	bf00      	nop

00008cc8 <__sinit_lock_acquire>:
    8cc8:	4770      	bx	lr
    8cca:	bf00      	nop

00008ccc <__sinit_lock_release>:
    8ccc:	4770      	bx	lr
    8cce:	bf00      	nop

00008cd0 <__fp_lock_all>:
    8cd0:	4b02      	ldr	r3, [pc, #8]	; (8cdc <__fp_lock_all+0xc>)
    8cd2:	4903      	ldr	r1, [pc, #12]	; (8ce0 <__fp_lock_all+0x10>)
    8cd4:	6818      	ldr	r0, [r3, #0]
    8cd6:	f000 b80f 	b.w	8cf8 <_fwalk>
    8cda:	bf00      	nop
    8cdc:	00017b68 	.word	0x00017b68
    8ce0:	00008ae5 	.word	0x00008ae5

00008ce4 <__fp_unlock_all>:
    8ce4:	4b02      	ldr	r3, [pc, #8]	; (8cf0 <__fp_unlock_all+0xc>)
    8ce6:	4903      	ldr	r1, [pc, #12]	; (8cf4 <__fp_unlock_all+0x10>)
    8ce8:	6818      	ldr	r0, [r3, #0]
    8cea:	f000 b805 	b.w	8cf8 <_fwalk>
    8cee:	bf00      	nop
    8cf0:	00017b68 	.word	0x00017b68
    8cf4:	00008ae9 	.word	0x00008ae9

00008cf8 <_fwalk>:
    8cf8:	e92d 41f0 	stmdb	sp!, {r4, r5, r6, r7, r8, lr}
    8cfc:	f510 7738 	adds.w	r7, r0, #736	; 0x2e0
    8d00:	d01a      	beq.n	8d38 <_fwalk+0x40>
    8d02:	4688      	mov	r8, r1
    8d04:	2600      	movs	r6, #0
    8d06:	687d      	ldr	r5, [r7, #4]
    8d08:	68bc      	ldr	r4, [r7, #8]
    8d0a:	3d01      	subs	r5, #1
    8d0c:	d40e      	bmi.n	8d2c <_fwalk+0x34>
    8d0e:	89a3      	ldrh	r3, [r4, #12]
    8d10:	3d01      	subs	r5, #1
    8d12:	2b01      	cmp	r3, #1
    8d14:	d906      	bls.n	8d24 <_fwalk+0x2c>
    8d16:	f9b4 300e 	ldrsh.w	r3, [r4, #14]
    8d1a:	3301      	adds	r3, #1
    8d1c:	d002      	beq.n	8d24 <_fwalk+0x2c>
    8d1e:	4620      	mov	r0, r4
    8d20:	47c0      	blx	r8
    8d22:	4306      	orrs	r6, r0
    8d24:	1c6b      	adds	r3, r5, #1
    8d26:	f104 0468 	add.w	r4, r4, #104	; 0x68
    8d2a:	d1f0      	bne.n	8d0e <_fwalk+0x16>
    8d2c:	683f      	ldr	r7, [r7, #0]
    8d2e:	2f00      	cmp	r7, #0
    8d30:	d1e9      	bne.n	8d06 <_fwalk+0xe>
    8d32:	4630      	mov	r0, r6
    8d34:	e8bd 81f0 	ldmia.w	sp!, {r4, r5, r6, r7, r8, pc}
    8d38:	463e      	mov	r6, r7
    8d3a:	4630      	mov	r0, r6
    8d3c:	e8bd 81f0 	ldmia.w	sp!, {r4, r5, r6, r7, r8, pc}

00008d40 <_fwalk_reent>:
    8d40:	e92d 43f8 	stmdb	sp!, {r3, r4, r5, r6, r7, r8, r9, lr}
    8d44:	f510 7638 	adds.w	r6, r0, #736	; 0x2e0
    8d48:	d01e      	beq.n	8d88 <_fwalk_reent+0x48>
    8d4a:	4688      	mov	r8, r1
    8d4c:	4607      	mov	r7, r0
    8d4e:	f04f 0900 	mov.w	r9, #0
    8d52:	6875      	ldr	r5, [r6, #4]
    8d54:	68b4      	ldr	r4, [r6, #8]
    8d56:	3d01      	subs	r5, #1
    8d58:	d410      	bmi.n	8d7c <_fwalk_reent+0x3c>
    8d5a:	89a3      	ldrh	r3, [r4, #12]
    8d5c:	3d01      	subs	r5, #1
    8d5e:	2b01      	cmp	r3, #1
    8d60:	d908      	bls.n	8d74 <_fwalk_reent+0x34>
    8d62:	f9b4 300e 	ldrsh.w	r3, [r4, #14]
    8d66:	3301      	adds	r3, #1
    8d68:	d004      	beq.n	8d74 <_fwalk_reent+0x34>
    8d6a:	4638      	mov	r0, r7
    8d6c:	4621      	mov	r1, r4
    8d6e:	47c0      	blx	r8
    8d70:	ea49 0900 	orr.w	r9, r9, r0
    8d74:	1c6b      	adds	r3, r5, #1
    8d76:	f104 0468 	add.w	r4, r4, #104	; 0x68
    8d7a:	d1ee      	bne.n	8d5a <_fwalk_reent+0x1a>
    8d7c:	6836      	ldr	r6, [r6, #0]
    8d7e:	2e00      	cmp	r6, #0
    8d80:	d1e7      	bne.n	8d52 <_fwalk_reent+0x12>
    8d82:	4648      	mov	r0, r9
    8d84:	e8bd 83f8 	ldmia.w	sp!, {r3, r4, r5, r6, r7, r8, r9, pc}
    8d88:	46b1      	mov	r9, r6
    8d8a:	4648      	mov	r0, r9
    8d8c:	e8bd 83f8 	ldmia.w	sp!, {r3, r4, r5, r6, r7, r8, r9, pc}

00008d90 <_malloc_r>:
    8d90:	e92d 4ff0 	stmdb	sp!, {r4, r5, r6, r7, r8, r9, sl, fp, lr}
    8d94:	f101 050b 	add.w	r5, r1, #11
    8d98:	2d16      	cmp	r5, #22
    8d9a:	b083      	sub	sp, #12
    8d9c:	4606      	mov	r6, r0
    8d9e:	d927      	bls.n	8df0 <_malloc_r+0x60>
    8da0:	f035 0507 	bics.w	r5, r5, #7
    8da4:	f100 80b6 	bmi.w	8f14 <_malloc_r+0x184>
    8da8:	42a9      	cmp	r1, r5
    8daa:	f200 80b3 	bhi.w	8f14 <_malloc_r+0x184>
    8dae:	f000 fa75 	bl	929c <__malloc_lock>
    8db2:	f5b5 7ffc 	cmp.w	r5, #504	; 0x1f8
    8db6:	d222      	bcs.n	8dfe <_malloc_r+0x6e>
    8db8:	4fbc      	ldr	r7, [pc, #752]	; (90ac <_malloc_r+0x31c>)
    8dba:	08e8      	lsrs	r0, r5, #3
    8dbc:	eb07 03c0 	add.w	r3, r7, r0, lsl #3
    8dc0:	68dc      	ldr	r4, [r3, #12]
    8dc2:	429c      	cmp	r4, r3
    8dc4:	f000 81bc 	beq.w	9140 <_malloc_r+0x3b0>
    8dc8:	6863      	ldr	r3, [r4, #4]
    8dca:	68e1      	ldr	r1, [r4, #12]
    8dcc:	f023 0303 	bic.w	r3, r3, #3
    8dd0:	4423      	add	r3, r4
    8dd2:	685a      	ldr	r2, [r3, #4]
    8dd4:	68a5      	ldr	r5, [r4, #8]
    8dd6:	f042 0201 	orr.w	r2, r2, #1
    8dda:	60e9      	str	r1, [r5, #12]
    8ddc:	4630      	mov	r0, r6
    8dde:	608d      	str	r5, [r1, #8]
    8de0:	605a      	str	r2, [r3, #4]
    8de2:	f000 fa5d 	bl	92a0 <__malloc_unlock>
    8de6:	3408      	adds	r4, #8
    8de8:	4620      	mov	r0, r4
    8dea:	b003      	add	sp, #12
    8dec:	e8bd 8ff0 	ldmia.w	sp!, {r4, r5, r6, r7, r8, r9, sl, fp, pc}
    8df0:	2910      	cmp	r1, #16
    8df2:	f200 808f 	bhi.w	8f14 <_malloc_r+0x184>
    8df6:	f000 fa51 	bl	929c <__malloc_lock>
    8dfa:	2510      	movs	r5, #16
    8dfc:	e7dc      	b.n	8db8 <_malloc_r+0x28>
    8dfe:	0a68      	lsrs	r0, r5, #9
    8e00:	f000 808f 	beq.w	8f22 <_malloc_r+0x192>
    8e04:	2804      	cmp	r0, #4
    8e06:	f200 8147 	bhi.w	9098 <_malloc_r+0x308>
    8e0a:	09a8      	lsrs	r0, r5, #6
    8e0c:	3038      	adds	r0, #56	; 0x38
    8e0e:	0041      	lsls	r1, r0, #1
    8e10:	4fa6      	ldr	r7, [pc, #664]	; (90ac <_malloc_r+0x31c>)
    8e12:	eb07 0181 	add.w	r1, r7, r1, lsl #2
    8e16:	68cc      	ldr	r4, [r1, #12]
    8e18:	42a1      	cmp	r1, r4
    8e1a:	d106      	bne.n	8e2a <_malloc_r+0x9a>
    8e1c:	e00c      	b.n	8e38 <_malloc_r+0xa8>
    8e1e:	2a00      	cmp	r2, #0
    8e20:	f280 8082 	bge.w	8f28 <_malloc_r+0x198>
    8e24:	68e4      	ldr	r4, [r4, #12]
    8e26:	42a1      	cmp	r1, r4
    8e28:	d006      	beq.n	8e38 <_malloc_r+0xa8>
    8e2a:	6863      	ldr	r3, [r4, #4]
    8e2c:	f023 0303 	bic.w	r3, r3, #3
    8e30:	1b5a      	subs	r2, r3, r5
    8e32:	2a0f      	cmp	r2, #15
    8e34:	ddf3      	ble.n	8e1e <_malloc_r+0x8e>
    8e36:	3801      	subs	r0, #1
    8e38:	3001      	adds	r0, #1
    8e3a:	499c      	ldr	r1, [pc, #624]	; (90ac <_malloc_r+0x31c>)
    8e3c:	693c      	ldr	r4, [r7, #16]
    8e3e:	f101 0e08 	add.w	lr, r1, #8
    8e42:	4574      	cmp	r4, lr
    8e44:	f000 8171 	beq.w	912a <_malloc_r+0x39a>
    8e48:	6863      	ldr	r3, [r4, #4]
    8e4a:	f023 0303 	bic.w	r3, r3, #3
    8e4e:	1b5a      	subs	r2, r3, r5
    8e50:	2a0f      	cmp	r2, #15
    8e52:	f300 8157 	bgt.w	9104 <_malloc_r+0x374>
    8e56:	2a00      	cmp	r2, #0
    8e58:	f8c1 e014 	str.w	lr, [r1, #20]
    8e5c:	f8c1 e010 	str.w	lr, [r1, #16]
    8e60:	da66      	bge.n	8f30 <_malloc_r+0x1a0>
    8e62:	f5b3 7f00 	cmp.w	r3, #512	; 0x200
    8e66:	f080 812d 	bcs.w	90c4 <_malloc_r+0x334>
    8e6a:	08db      	lsrs	r3, r3, #3
    8e6c:	eb01 08c3 	add.w	r8, r1, r3, lsl #3
    8e70:	ea4f 0ca3 	mov.w	ip, r3, asr #2
    8e74:	684a      	ldr	r2, [r1, #4]
    8e76:	2301      	movs	r3, #1
    8e78:	fa03 f30c 	lsl.w	r3, r3, ip
    8e7c:	f8d8 c008 	ldr.w	ip, [r8, #8]
    8e80:	4313      	orrs	r3, r2
    8e82:	f8c4 c008 	str.w	ip, [r4, #8]
    8e86:	f8c4 800c 	str.w	r8, [r4, #12]
    8e8a:	604b      	str	r3, [r1, #4]
    8e8c:	f8c8 4008 	str.w	r4, [r8, #8]
    8e90:	f8cc 400c 	str.w	r4, [ip, #12]
    8e94:	1082      	asrs	r2, r0, #2
    8e96:	2401      	movs	r4, #1
    8e98:	4094      	lsls	r4, r2
    8e9a:	429c      	cmp	r4, r3
    8e9c:	d855      	bhi.n	8f4a <_malloc_r+0x1ba>
    8e9e:	4223      	tst	r3, r4
    8ea0:	d106      	bne.n	8eb0 <_malloc_r+0x120>
    8ea2:	f020 0003 	bic.w	r0, r0, #3
    8ea6:	0064      	lsls	r4, r4, #1
    8ea8:	4223      	tst	r3, r4
    8eaa:	f100 0004 	add.w	r0, r0, #4
    8eae:	d0fa      	beq.n	8ea6 <_malloc_r+0x116>
    8eb0:	eb07 08c0 	add.w	r8, r7, r0, lsl #3
    8eb4:	46c4      	mov	ip, r8
    8eb6:	4681      	mov	r9, r0
    8eb8:	f8dc 300c 	ldr.w	r3, [ip, #12]
    8ebc:	459c      	cmp	ip, r3
    8ebe:	d107      	bne.n	8ed0 <_malloc_r+0x140>
    8ec0:	e135      	b.n	912e <_malloc_r+0x39e>
    8ec2:	2900      	cmp	r1, #0
    8ec4:	f280 8145 	bge.w	9152 <_malloc_r+0x3c2>
    8ec8:	68db      	ldr	r3, [r3, #12]
    8eca:	459c      	cmp	ip, r3
    8ecc:	f000 812f 	beq.w	912e <_malloc_r+0x39e>
    8ed0:	685a      	ldr	r2, [r3, #4]
    8ed2:	f022 0203 	bic.w	r2, r2, #3
    8ed6:	1b51      	subs	r1, r2, r5
    8ed8:	290f      	cmp	r1, #15
    8eda:	ddf2      	ble.n	8ec2 <_malloc_r+0x132>
    8edc:	461c      	mov	r4, r3
    8ede:	68da      	ldr	r2, [r3, #12]
    8ee0:	f854 cf08 	ldr.w	ip, [r4, #8]!
    8ee4:	f045 0901 	orr.w	r9, r5, #1
    8ee8:	f041 0801 	orr.w	r8, r1, #1
    8eec:	441d      	add	r5, r3
    8eee:	f8c3 9004 	str.w	r9, [r3, #4]
    8ef2:	4630      	mov	r0, r6
    8ef4:	f8cc 200c 	str.w	r2, [ip, #12]
    8ef8:	f8c2 c008 	str.w	ip, [r2, #8]
    8efc:	617d      	str	r5, [r7, #20]
    8efe:	613d      	str	r5, [r7, #16]
    8f00:	f8c5 e00c 	str.w	lr, [r5, #12]
    8f04:	f8c5 e008 	str.w	lr, [r5, #8]
    8f08:	f8c5 8004 	str.w	r8, [r5, #4]
    8f0c:	5069      	str	r1, [r5, r1]
    8f0e:	f000 f9c7 	bl	92a0 <__malloc_unlock>
    8f12:	e769      	b.n	8de8 <_malloc_r+0x58>
    8f14:	2400      	movs	r4, #0
    8f16:	4620      	mov	r0, r4
    8f18:	230c      	movs	r3, #12
    8f1a:	6033      	str	r3, [r6, #0]
    8f1c:	b003      	add	sp, #12
    8f1e:	e8bd 8ff0 	ldmia.w	sp!, {r4, r5, r6, r7, r8, r9, sl, fp, pc}
    8f22:	217e      	movs	r1, #126	; 0x7e
    8f24:	203f      	movs	r0, #63	; 0x3f
    8f26:	e773      	b.n	8e10 <_malloc_r+0x80>
    8f28:	4423      	add	r3, r4
    8f2a:	685a      	ldr	r2, [r3, #4]
    8f2c:	68e1      	ldr	r1, [r4, #12]
    8f2e:	e751      	b.n	8dd4 <_malloc_r+0x44>
    8f30:	4423      	add	r3, r4
    8f32:	685a      	ldr	r2, [r3, #4]
    8f34:	4630      	mov	r0, r6
    8f36:	f042 0201 	orr.w	r2, r2, #1
    8f3a:	605a      	str	r2, [r3, #4]
    8f3c:	3408      	adds	r4, #8
    8f3e:	f000 f9af 	bl	92a0 <__malloc_unlock>
    8f42:	4620      	mov	r0, r4
    8f44:	b003      	add	sp, #12
    8f46:	e8bd 8ff0 	ldmia.w	sp!, {r4, r5, r6, r7, r8, r9, sl, fp, pc}
    8f4a:	68bc      	ldr	r4, [r7, #8]
    8f4c:	6863      	ldr	r3, [r4, #4]
    8f4e:	f023 0803 	bic.w	r8, r3, #3
    8f52:	4545      	cmp	r5, r8
    8f54:	d804      	bhi.n	8f60 <_malloc_r+0x1d0>
    8f56:	ebc5 0308 	rsb	r3, r5, r8
    8f5a:	2b0f      	cmp	r3, #15
    8f5c:	f300 808c 	bgt.w	9078 <_malloc_r+0x2e8>
    8f60:	4b53      	ldr	r3, [pc, #332]	; (90b0 <_malloc_r+0x320>)
    8f62:	f8df a15c 	ldr.w	sl, [pc, #348]	; 90c0 <_malloc_r+0x330>
    8f66:	681a      	ldr	r2, [r3, #0]
    8f68:	f8da 3000 	ldr.w	r3, [sl]
    8f6c:	442a      	add	r2, r5
    8f6e:	3301      	adds	r3, #1
    8f70:	eb04 0b08 	add.w	fp, r4, r8
    8f74:	f000 8151 	beq.w	921a <_malloc_r+0x48a>
    8f78:	f502 5280 	add.w	r2, r2, #4096	; 0x1000
    8f7c:	320f      	adds	r2, #15
    8f7e:	f422 627f 	bic.w	r2, r2, #4080	; 0xff0
    8f82:	f022 020f 	bic.w	r2, r2, #15
    8f86:	4611      	mov	r1, r2
    8f88:	4630      	mov	r0, r6
    8f8a:	9201      	str	r2, [sp, #4]
    8f8c:	f000 f9ae 	bl	92ec <_sbrk_r>
    8f90:	f1b0 3fff 	cmp.w	r0, #4294967295
    8f94:	4681      	mov	r9, r0
    8f96:	9a01      	ldr	r2, [sp, #4]
    8f98:	f000 8148 	beq.w	922c <_malloc_r+0x49c>
    8f9c:	4583      	cmp	fp, r0
    8f9e:	f200 80ef 	bhi.w	9180 <_malloc_r+0x3f0>
    8fa2:	4b44      	ldr	r3, [pc, #272]	; (90b4 <_malloc_r+0x324>)
    8fa4:	45cb      	cmp	fp, r9
    8fa6:	6819      	ldr	r1, [r3, #0]
    8fa8:	4411      	add	r1, r2
    8faa:	6019      	str	r1, [r3, #0]
    8fac:	f000 8143 	beq.w	9236 <_malloc_r+0x4a6>
    8fb0:	f8da 0000 	ldr.w	r0, [sl]
    8fb4:	f8df e108 	ldr.w	lr, [pc, #264]	; 90c0 <_malloc_r+0x330>
    8fb8:	3001      	adds	r0, #1
    8fba:	bf1b      	ittet	ne
    8fbc:	ebcb 0b09 	rsbne	fp, fp, r9
    8fc0:	4459      	addne	r1, fp
    8fc2:	f8ce 9000 	streq.w	r9, [lr]
    8fc6:	6019      	strne	r1, [r3, #0]
    8fc8:	f019 0107 	ands.w	r1, r9, #7
    8fcc:	f000 8108 	beq.w	91e0 <_malloc_r+0x450>
    8fd0:	f1c1 0008 	rsb	r0, r1, #8
    8fd4:	f5c1 5180 	rsb	r1, r1, #4096	; 0x1000
    8fd8:	4481      	add	r9, r0
    8fda:	3108      	adds	r1, #8
    8fdc:	444a      	add	r2, r9
    8fde:	f3c2 020b 	ubfx	r2, r2, #0, #12
    8fe2:	ebc2 0a01 	rsb	sl, r2, r1
    8fe6:	4651      	mov	r1, sl
    8fe8:	4630      	mov	r0, r6
    8fea:	9301      	str	r3, [sp, #4]
    8fec:	f000 f97e 	bl	92ec <_sbrk_r>
    8ff0:	1c43      	adds	r3, r0, #1
    8ff2:	9b01      	ldr	r3, [sp, #4]
    8ff4:	f000 812d 	beq.w	9252 <_malloc_r+0x4c2>
    8ff8:	ebc9 0200 	rsb	r2, r9, r0
    8ffc:	4452      	add	r2, sl
    8ffe:	f042 0201 	orr.w	r2, r2, #1
    9002:	6819      	ldr	r1, [r3, #0]
    9004:	42bc      	cmp	r4, r7
    9006:	4451      	add	r1, sl
    9008:	f8c7 9008 	str.w	r9, [r7, #8]
    900c:	6019      	str	r1, [r3, #0]
    900e:	f8c9 2004 	str.w	r2, [r9, #4]
    9012:	f8df a0a0 	ldr.w	sl, [pc, #160]	; 90b4 <_malloc_r+0x324>
    9016:	d016      	beq.n	9046 <_malloc_r+0x2b6>
    9018:	f1b8 0f0f 	cmp.w	r8, #15
    901c:	f240 80ef 	bls.w	91fe <_malloc_r+0x46e>
    9020:	6862      	ldr	r2, [r4, #4]
    9022:	f1a8 030c 	sub.w	r3, r8, #12
    9026:	f023 0307 	bic.w	r3, r3, #7
    902a:	f002 0201 	and.w	r2, r2, #1
    902e:	18e0      	adds	r0, r4, r3
    9030:	f04f 0e05 	mov.w	lr, #5
    9034:	431a      	orrs	r2, r3
    9036:	2b0f      	cmp	r3, #15
    9038:	6062      	str	r2, [r4, #4]
    903a:	f8c0 e004 	str.w	lr, [r0, #4]
    903e:	f8c0 e008 	str.w	lr, [r0, #8]
    9042:	f200 810a 	bhi.w	925a <_malloc_r+0x4ca>
    9046:	4b1c      	ldr	r3, [pc, #112]	; (90b8 <_malloc_r+0x328>)
    9048:	68bc      	ldr	r4, [r7, #8]
    904a:	681a      	ldr	r2, [r3, #0]
    904c:	4291      	cmp	r1, r2
    904e:	bf88      	it	hi
    9050:	6019      	strhi	r1, [r3, #0]
    9052:	4b1a      	ldr	r3, [pc, #104]	; (90bc <_malloc_r+0x32c>)
    9054:	681a      	ldr	r2, [r3, #0]
    9056:	4291      	cmp	r1, r2
    9058:	6862      	ldr	r2, [r4, #4]
    905a:	bf88      	it	hi
    905c:	6019      	strhi	r1, [r3, #0]
    905e:	f022 0203 	bic.w	r2, r2, #3
    9062:	4295      	cmp	r5, r2
    9064:	eba2 0305 	sub.w	r3, r2, r5
    9068:	d801      	bhi.n	906e <_malloc_r+0x2de>
    906a:	2b0f      	cmp	r3, #15
    906c:	dc04      	bgt.n	9078 <_malloc_r+0x2e8>
    906e:	4630      	mov	r0, r6
    9070:	f000 f916 	bl	92a0 <__malloc_unlock>
    9074:	2400      	movs	r4, #0
    9076:	e6b7      	b.n	8de8 <_malloc_r+0x58>
    9078:	f045 0201 	orr.w	r2, r5, #1
    907c:	f043 0301 	orr.w	r3, r3, #1
    9080:	4425      	add	r5, r4
    9082:	6062      	str	r2, [r4, #4]
    9084:	4630      	mov	r0, r6
    9086:	60bd      	str	r5, [r7, #8]
    9088:	3408      	adds	r4, #8
    908a:	606b      	str	r3, [r5, #4]
    908c:	f000 f908 	bl	92a0 <__malloc_unlock>
    9090:	4620      	mov	r0, r4
    9092:	b003      	add	sp, #12
    9094:	e8bd 8ff0 	ldmia.w	sp!, {r4, r5, r6, r7, r8, r9, sl, fp, pc}
    9098:	2814      	cmp	r0, #20
    909a:	d969      	bls.n	9170 <_malloc_r+0x3e0>
    909c:	2854      	cmp	r0, #84	; 0x54
    909e:	f200 8098 	bhi.w	91d2 <_malloc_r+0x442>
    90a2:	0b28      	lsrs	r0, r5, #12
    90a4:	306e      	adds	r0, #110	; 0x6e
    90a6:	0041      	lsls	r1, r0, #1
    90a8:	e6b2      	b.n	8e10 <_malloc_r+0x80>
    90aa:	bf00      	nop
    90ac:	00017b88 	.word	0x00017b88
    90b0:	000180ec 	.word	0x000180ec
    90b4:	000180f0 	.word	0x000180f0
    90b8:	000180e8 	.word	0x000180e8
    90bc:	000180e4 	.word	0x000180e4
    90c0:	00017f94 	.word	0x00017f94
    90c4:	0a5a      	lsrs	r2, r3, #9
    90c6:	2a04      	cmp	r2, #4
    90c8:	d955      	bls.n	9176 <_malloc_r+0x3e6>
    90ca:	2a14      	cmp	r2, #20
    90cc:	f200 80a7 	bhi.w	921e <_malloc_r+0x48e>
    90d0:	325b      	adds	r2, #91	; 0x5b
    90d2:	ea4f 0c42 	mov.w	ip, r2, lsl #1
    90d6:	eb07 0c8c 	add.w	ip, r7, ip, lsl #2
    90da:	f8dc 1008 	ldr.w	r1, [ip, #8]
    90de:	f8df 81b8 	ldr.w	r8, [pc, #440]	; 9298 <_malloc_r+0x508>
    90e2:	4561      	cmp	r1, ip
    90e4:	d07f      	beq.n	91e6 <_malloc_r+0x456>
    90e6:	684a      	ldr	r2, [r1, #4]
    90e8:	f022 0203 	bic.w	r2, r2, #3
    90ec:	4293      	cmp	r3, r2
    90ee:	d202      	bcs.n	90f6 <_malloc_r+0x366>
    90f0:	6889      	ldr	r1, [r1, #8]
    90f2:	458c      	cmp	ip, r1
    90f4:	d1f7      	bne.n	90e6 <_malloc_r+0x356>
    90f6:	68ca      	ldr	r2, [r1, #12]
    90f8:	687b      	ldr	r3, [r7, #4]
    90fa:	60e2      	str	r2, [r4, #12]
    90fc:	60a1      	str	r1, [r4, #8]
    90fe:	6094      	str	r4, [r2, #8]
    9100:	60cc      	str	r4, [r1, #12]
    9102:	e6c7      	b.n	8e94 <_malloc_r+0x104>
    9104:	f045 0701 	orr.w	r7, r5, #1
    9108:	f042 0301 	orr.w	r3, r2, #1
    910c:	4425      	add	r5, r4
    910e:	6067      	str	r7, [r4, #4]
    9110:	4630      	mov	r0, r6
    9112:	614d      	str	r5, [r1, #20]
    9114:	610d      	str	r5, [r1, #16]
    9116:	f8c5 e00c 	str.w	lr, [r5, #12]
    911a:	f8c5 e008 	str.w	lr, [r5, #8]
    911e:	606b      	str	r3, [r5, #4]
    9120:	50aa      	str	r2, [r5, r2]
    9122:	3408      	adds	r4, #8
    9124:	f000 f8bc 	bl	92a0 <__malloc_unlock>
    9128:	e65e      	b.n	8de8 <_malloc_r+0x58>
    912a:	684b      	ldr	r3, [r1, #4]
    912c:	e6b2      	b.n	8e94 <_malloc_r+0x104>
    912e:	f109 0901 	add.w	r9, r9, #1
    9132:	f019 0f03 	tst.w	r9, #3
    9136:	f10c 0c08 	add.w	ip, ip, #8
    913a:	f47f aebd 	bne.w	8eb8 <_malloc_r+0x128>
    913e:	e02c      	b.n	919a <_malloc_r+0x40a>
    9140:	f104 0308 	add.w	r3, r4, #8
    9144:	6964      	ldr	r4, [r4, #20]
    9146:	42a3      	cmp	r3, r4
    9148:	bf08      	it	eq
    914a:	3002      	addeq	r0, #2
    914c:	f43f ae75 	beq.w	8e3a <_malloc_r+0xaa>
    9150:	e63a      	b.n	8dc8 <_malloc_r+0x38>
    9152:	461c      	mov	r4, r3
    9154:	441a      	add	r2, r3
    9156:	6851      	ldr	r1, [r2, #4]
    9158:	68db      	ldr	r3, [r3, #12]
    915a:	f854 5f08 	ldr.w	r5, [r4, #8]!
    915e:	f041 0101 	orr.w	r1, r1, #1
    9162:	6051      	str	r1, [r2, #4]
    9164:	4630      	mov	r0, r6
    9166:	60eb      	str	r3, [r5, #12]
    9168:	609d      	str	r5, [r3, #8]
    916a:	f000 f899 	bl	92a0 <__malloc_unlock>
    916e:	e63b      	b.n	8de8 <_malloc_r+0x58>
    9170:	305b      	adds	r0, #91	; 0x5b
    9172:	0041      	lsls	r1, r0, #1
    9174:	e64c      	b.n	8e10 <_malloc_r+0x80>
    9176:	099a      	lsrs	r2, r3, #6
    9178:	3238      	adds	r2, #56	; 0x38
    917a:	ea4f 0c42 	mov.w	ip, r2, lsl #1
    917e:	e7aa      	b.n	90d6 <_malloc_r+0x346>
    9180:	42bc      	cmp	r4, r7
    9182:	4b45      	ldr	r3, [pc, #276]	; (9298 <_malloc_r+0x508>)
    9184:	f43f af0d 	beq.w	8fa2 <_malloc_r+0x212>
    9188:	689c      	ldr	r4, [r3, #8]
    918a:	6862      	ldr	r2, [r4, #4]
    918c:	f022 0203 	bic.w	r2, r2, #3
    9190:	e767      	b.n	9062 <_malloc_r+0x2d2>
    9192:	f8d8 8000 	ldr.w	r8, [r8]
    9196:	4598      	cmp	r8, r3
    9198:	d17c      	bne.n	9294 <_malloc_r+0x504>
    919a:	f010 0f03 	tst.w	r0, #3
    919e:	f1a8 0308 	sub.w	r3, r8, #8
    91a2:	f100 30ff 	add.w	r0, r0, #4294967295
    91a6:	d1f4      	bne.n	9192 <_malloc_r+0x402>
    91a8:	687b      	ldr	r3, [r7, #4]
    91aa:	ea23 0304 	bic.w	r3, r3, r4
    91ae:	607b      	str	r3, [r7, #4]
    91b0:	0064      	lsls	r4, r4, #1
    91b2:	429c      	cmp	r4, r3
    91b4:	f63f aec9 	bhi.w	8f4a <_malloc_r+0x1ba>
    91b8:	2c00      	cmp	r4, #0
    91ba:	f43f aec6 	beq.w	8f4a <_malloc_r+0x1ba>
    91be:	4223      	tst	r3, r4
    91c0:	4648      	mov	r0, r9
    91c2:	f47f ae75 	bne.w	8eb0 <_malloc_r+0x120>
    91c6:	0064      	lsls	r4, r4, #1
    91c8:	4223      	tst	r3, r4
    91ca:	f100 0004 	add.w	r0, r0, #4
    91ce:	d0fa      	beq.n	91c6 <_malloc_r+0x436>
    91d0:	e66e      	b.n	8eb0 <_malloc_r+0x120>
    91d2:	f5b0 7faa 	cmp.w	r0, #340	; 0x154
    91d6:	d818      	bhi.n	920a <_malloc_r+0x47a>
    91d8:	0be8      	lsrs	r0, r5, #15
    91da:	3077      	adds	r0, #119	; 0x77
    91dc:	0041      	lsls	r1, r0, #1
    91de:	e617      	b.n	8e10 <_malloc_r+0x80>
    91e0:	f44f 5180 	mov.w	r1, #4096	; 0x1000
    91e4:	e6fa      	b.n	8fdc <_malloc_r+0x24c>
    91e6:	f8d8 3004 	ldr.w	r3, [r8, #4]
    91ea:	1092      	asrs	r2, r2, #2
    91ec:	f04f 0c01 	mov.w	ip, #1
    91f0:	fa0c f202 	lsl.w	r2, ip, r2
    91f4:	4313      	orrs	r3, r2
    91f6:	f8c8 3004 	str.w	r3, [r8, #4]
    91fa:	460a      	mov	r2, r1
    91fc:	e77d      	b.n	90fa <_malloc_r+0x36a>
    91fe:	2301      	movs	r3, #1
    9200:	f8c9 3004 	str.w	r3, [r9, #4]
    9204:	464c      	mov	r4, r9
    9206:	2200      	movs	r2, #0
    9208:	e72b      	b.n	9062 <_malloc_r+0x2d2>
    920a:	f240 5354 	movw	r3, #1364	; 0x554
    920e:	4298      	cmp	r0, r3
    9210:	d81c      	bhi.n	924c <_malloc_r+0x4bc>
    9212:	0ca8      	lsrs	r0, r5, #18
    9214:	307c      	adds	r0, #124	; 0x7c
    9216:	0041      	lsls	r1, r0, #1
    9218:	e5fa      	b.n	8e10 <_malloc_r+0x80>
    921a:	3210      	adds	r2, #16
    921c:	e6b3      	b.n	8f86 <_malloc_r+0x1f6>
    921e:	2a54      	cmp	r2, #84	; 0x54
    9220:	d823      	bhi.n	926a <_malloc_r+0x4da>
    9222:	0b1a      	lsrs	r2, r3, #12
    9224:	326e      	adds	r2, #110	; 0x6e
    9226:	ea4f 0c42 	mov.w	ip, r2, lsl #1
    922a:	e754      	b.n	90d6 <_malloc_r+0x346>
    922c:	68bc      	ldr	r4, [r7, #8]
    922e:	6862      	ldr	r2, [r4, #4]
    9230:	f022 0203 	bic.w	r2, r2, #3
    9234:	e715      	b.n	9062 <_malloc_r+0x2d2>
    9236:	f3cb 000b 	ubfx	r0, fp, #0, #12
    923a:	2800      	cmp	r0, #0
    923c:	f47f aeb8 	bne.w	8fb0 <_malloc_r+0x220>
    9240:	4442      	add	r2, r8
    9242:	68bb      	ldr	r3, [r7, #8]
    9244:	f042 0201 	orr.w	r2, r2, #1
    9248:	605a      	str	r2, [r3, #4]
    924a:	e6fc      	b.n	9046 <_malloc_r+0x2b6>
    924c:	21fc      	movs	r1, #252	; 0xfc
    924e:	207e      	movs	r0, #126	; 0x7e
    9250:	e5de      	b.n	8e10 <_malloc_r+0x80>
    9252:	2201      	movs	r2, #1
    9254:	f04f 0a00 	mov.w	sl, #0
    9258:	e6d3      	b.n	9002 <_malloc_r+0x272>
    925a:	f104 0108 	add.w	r1, r4, #8
    925e:	4630      	mov	r0, r6
    9260:	f002 fd0c 	bl	bc7c <_free_r>
    9264:	f8da 1000 	ldr.w	r1, [sl]
    9268:	e6ed      	b.n	9046 <_malloc_r+0x2b6>
    926a:	f5b2 7faa 	cmp.w	r2, #340	; 0x154
    926e:	d804      	bhi.n	927a <_malloc_r+0x4ea>
    9270:	0bda      	lsrs	r2, r3, #15
    9272:	3277      	adds	r2, #119	; 0x77
    9274:	ea4f 0c42 	mov.w	ip, r2, lsl #1
    9278:	e72d      	b.n	90d6 <_malloc_r+0x346>
    927a:	f240 5154 	movw	r1, #1364	; 0x554
    927e:	428a      	cmp	r2, r1
    9280:	d804      	bhi.n	928c <_malloc_r+0x4fc>
    9282:	0c9a      	lsrs	r2, r3, #18
    9284:	327c      	adds	r2, #124	; 0x7c
    9286:	ea4f 0c42 	mov.w	ip, r2, lsl #1
    928a:	e724      	b.n	90d6 <_malloc_r+0x346>
    928c:	f04f 0cfc 	mov.w	ip, #252	; 0xfc
    9290:	227e      	movs	r2, #126	; 0x7e
    9292:	e720      	b.n	90d6 <_malloc_r+0x346>
    9294:	687b      	ldr	r3, [r7, #4]
    9296:	e78b      	b.n	91b0 <_malloc_r+0x420>
    9298:	00017b88 	.word	0x00017b88

0000929c <__malloc_lock>:
    929c:	4770      	bx	lr
    929e:	bf00      	nop

000092a0 <__malloc_unlock>:
    92a0:	4770      	bx	lr
    92a2:	bf00      	nop

000092a4 <_printf_r>:
    92a4:	b40e      	push	{r1, r2, r3}
    92a6:	b510      	push	{r4, lr}
    92a8:	b083      	sub	sp, #12
    92aa:	ac05      	add	r4, sp, #20
    92ac:	f854 2b04 	ldr.w	r2, [r4], #4
    92b0:	6881      	ldr	r1, [r0, #8]
    92b2:	4623      	mov	r3, r4
    92b4:	9401      	str	r4, [sp, #4]
    92b6:	f000 f89d 	bl	93f4 <_vfprintf_r>
    92ba:	b003      	add	sp, #12
    92bc:	e8bd 4010 	ldmia.w	sp!, {r4, lr}
    92c0:	b003      	add	sp, #12
    92c2:	4770      	bx	lr

000092c4 <printf>:
    92c4:	b40f      	push	{r0, r1, r2, r3}
    92c6:	b510      	push	{r4, lr}
    92c8:	4b07      	ldr	r3, [pc, #28]	; (92e8 <printf+0x24>)
    92ca:	b082      	sub	sp, #8
    92cc:	ac04      	add	r4, sp, #16
    92ce:	f854 2b04 	ldr.w	r2, [r4], #4
    92d2:	6818      	ldr	r0, [r3, #0]
    92d4:	4623      	mov	r3, r4
    92d6:	6881      	ldr	r1, [r0, #8]
    92d8:	9401      	str	r4, [sp, #4]
    92da:	f000 f88b 	bl	93f4 <_vfprintf_r>
    92de:	b002      	add	sp, #8
    92e0:	e8bd 4010 	ldmia.w	sp!, {r4, lr}
    92e4:	b004      	add	sp, #16
    92e6:	4770      	bx	lr
    92e8:	00017b68 	.word	0x00017b68

000092ec <_sbrk_r>:
    92ec:	b538      	push	{r3, r4, r5, lr}
    92ee:	4c07      	ldr	r4, [pc, #28]	; (930c <_sbrk_r+0x20>)
    92f0:	2300      	movs	r3, #0
    92f2:	4605      	mov	r5, r0
    92f4:	4608      	mov	r0, r1
    92f6:	6023      	str	r3, [r4, #0]
    92f8:	f7ff fa14 	bl	8724 <_sbrk>
    92fc:	1c43      	adds	r3, r0, #1
    92fe:	d000      	beq.n	9302 <_sbrk_r+0x16>
    9300:	bd38      	pop	{r3, r4, r5, pc}
    9302:	6823      	ldr	r3, [r4, #0]
    9304:	2b00      	cmp	r3, #0
    9306:	d0fb      	beq.n	9300 <_sbrk_r+0x14>
    9308:	602b      	str	r3, [r5, #0]
    930a:	bd38      	pop	{r3, r4, r5, pc}
    930c:	00018124 	.word	0x00018124

00009310 <__sread>:
    9310:	b510      	push	{r4, lr}
    9312:	460c      	mov	r4, r1
    9314:	f9b1 100e 	ldrsh.w	r1, [r1, #14]
    9318:	f003 fb7a 	bl	ca10 <_read_r>
    931c:	2800      	cmp	r0, #0
    931e:	db03      	blt.n	9328 <__sread+0x18>
    9320:	6d23      	ldr	r3, [r4, #80]	; 0x50
    9322:	4403      	add	r3, r0
    9324:	6523      	str	r3, [r4, #80]	; 0x50
    9326:	bd10      	pop	{r4, pc}
    9328:	89a3      	ldrh	r3, [r4, #12]
    932a:	f423 5380 	bic.w	r3, r3, #4096	; 0x1000
    932e:	81a3      	strh	r3, [r4, #12]
    9330:	bd10      	pop	{r4, pc}
    9332:	bf00      	nop

00009334 <__seofread>:
    9334:	2000      	movs	r0, #0
    9336:	4770      	bx	lr

00009338 <__swrite>:
    9338:	e92d 41f0 	stmdb	sp!, {r4, r5, r6, r7, r8, lr}
    933c:	460c      	mov	r4, r1
    933e:	8989      	ldrh	r1, [r1, #12]
    9340:	461d      	mov	r5, r3
    9342:	05cb      	lsls	r3, r1, #23
    9344:	4616      	mov	r6, r2
    9346:	4607      	mov	r7, r0
    9348:	d506      	bpl.n	9358 <__swrite+0x20>
    934a:	f9b4 100e 	ldrsh.w	r1, [r4, #14]
    934e:	2200      	movs	r2, #0
    9350:	2302      	movs	r3, #2
    9352:	f002 fdad 	bl	beb0 <_lseek_r>
    9356:	89a1      	ldrh	r1, [r4, #12]
    9358:	f421 5180 	bic.w	r1, r1, #4096	; 0x1000
    935c:	81a1      	strh	r1, [r4, #12]
    935e:	4638      	mov	r0, r7
    9360:	f9b4 100e 	ldrsh.w	r1, [r4, #14]
    9364:	4632      	mov	r2, r6
    9366:	462b      	mov	r3, r5
    9368:	e8bd 41f0 	ldmia.w	sp!, {r4, r5, r6, r7, r8, lr}
    936c:	f001 bab0 	b.w	a8d0 <_write_r>

00009370 <__sseek>:
    9370:	b510      	push	{r4, lr}
    9372:	460c      	mov	r4, r1
    9374:	f9b1 100e 	ldrsh.w	r1, [r1, #14]
    9378:	f002 fd9a 	bl	beb0 <_lseek_r>
    937c:	89a3      	ldrh	r3, [r4, #12]
    937e:	1c42      	adds	r2, r0, #1
    9380:	bf0e      	itee	eq
    9382:	f423 5380 	biceq.w	r3, r3, #4096	; 0x1000
    9386:	f443 5380 	orrne.w	r3, r3, #4096	; 0x1000
    938a:	6520      	strne	r0, [r4, #80]	; 0x50
    938c:	81a3      	strh	r3, [r4, #12]
    938e:	bd10      	pop	{r4, pc}

00009390 <__sclose>:
    9390:	f9b1 100e 	ldrsh.w	r1, [r1, #14]
    9394:	f001 bb12 	b.w	a9bc <_close_r>

00009398 <strlen>:
    9398:	f020 0103 	bic.w	r1, r0, #3
    939c:	f010 0003 	ands.w	r0, r0, #3
    93a0:	f1c0 0000 	rsb	r0, r0, #0
    93a4:	f851 3b04 	ldr.w	r3, [r1], #4
    93a8:	f100 0c04 	add.w	ip, r0, #4
    93ac:	ea4f 0ccc 	mov.w	ip, ip, lsl #3
    93b0:	f06f 0200 	mvn.w	r2, #0
    93b4:	bf1c      	itt	ne
    93b6:	fa22 f20c 	lsrne.w	r2, r2, ip
    93ba:	4313      	orrne	r3, r2
    93bc:	f04f 0c01 	mov.w	ip, #1
    93c0:	ea4c 2c0c 	orr.w	ip, ip, ip, lsl #8
    93c4:	ea4c 4c0c 	orr.w	ip, ip, ip, lsl #16
    93c8:	eba3 020c 	sub.w	r2, r3, ip
    93cc:	ea22 0203 	bic.w	r2, r2, r3
    93d0:	ea12 12cc 	ands.w	r2, r2, ip, lsl #7
    93d4:	bf04      	itt	eq
    93d6:	f851 3b04 	ldreq.w	r3, [r1], #4
    93da:	3004      	addeq	r0, #4
    93dc:	d0f4      	beq.n	93c8 <strlen+0x30>
    93de:	f1c2 0100 	rsb	r1, r2, #0
    93e2:	ea02 0201 	and.w	r2, r2, r1
    93e6:	fab2 f282 	clz	r2, r2
    93ea:	f1c2 021f 	rsb	r2, r2, #31
    93ee:	eb00 00d2 	add.w	r0, r0, r2, lsr #3
    93f2:	4770      	bx	lr

000093f4 <_vfprintf_r>:
    93f4:	e92d 4ff0 	stmdb	sp!, {r4, r5, r6, r7, r8, r9, sl, fp, lr}
    93f8:	b0bf      	sub	sp, #252	; 0xfc
    93fa:	461c      	mov	r4, r3
    93fc:	4689      	mov	r9, r1
    93fe:	9208      	str	r2, [sp, #32]
    9400:	4607      	mov	r7, r0
    9402:	f002 fd45 	bl	be90 <_localeconv_r>
    9406:	6803      	ldr	r3, [r0, #0]
    9408:	940c      	str	r4, [sp, #48]	; 0x30
    940a:	4618      	mov	r0, r3
    940c:	9315      	str	r3, [sp, #84]	; 0x54
    940e:	f7ff ffc3 	bl	9398 <strlen>
    9412:	9016      	str	r0, [sp, #88]	; 0x58
    9414:	b11f      	cbz	r7, 941e <_vfprintf_r+0x2a>
    9416:	6bbb      	ldr	r3, [r7, #56]	; 0x38
    9418:	2b00      	cmp	r3, #0
    941a:	f000 80f4 	beq.w	9606 <_vfprintf_r+0x212>
    941e:	f8b9 200c 	ldrh.w	r2, [r9, #12]
    9422:	b293      	uxth	r3, r2
    9424:	049d      	lsls	r5, r3, #18
    9426:	d40a      	bmi.n	943e <_vfprintf_r+0x4a>
    9428:	f8d9 1064 	ldr.w	r1, [r9, #100]	; 0x64
    942c:	f442 5300 	orr.w	r3, r2, #8192	; 0x2000
    9430:	f421 5100 	bic.w	r1, r1, #8192	; 0x2000
    9434:	f8a9 300c 	strh.w	r3, [r9, #12]
    9438:	f8c9 1064 	str.w	r1, [r9, #100]	; 0x64
    943c:	b29b      	uxth	r3, r3
    943e:	0718      	lsls	r0, r3, #28
    9440:	f140 80ab 	bpl.w	959a <_vfprintf_r+0x1a6>
    9444:	f8d9 2010 	ldr.w	r2, [r9, #16]
    9448:	2a00      	cmp	r2, #0
    944a:	f000 80a6 	beq.w	959a <_vfprintf_r+0x1a6>
    944e:	f003 031a 	and.w	r3, r3, #26
    9452:	2b0a      	cmp	r3, #10
    9454:	f000 80ad 	beq.w	95b2 <_vfprintf_r+0x1be>
    9458:	2300      	movs	r3, #0
    945a:	461a      	mov	r2, r3
    945c:	f10d 0cb8 	add.w	ip, sp, #184	; 0xb8
    9460:	4664      	mov	r4, ip
    9462:	46b8      	mov	r8, r7
    9464:	9311      	str	r3, [sp, #68]	; 0x44
    9466:	9314      	str	r3, [sp, #80]	; 0x50
    9468:	9317      	str	r3, [sp, #92]	; 0x5c
    946a:	9309      	str	r3, [sp, #36]	; 0x24
    946c:	9323      	str	r3, [sp, #140]	; 0x8c
    946e:	9322      	str	r3, [sp, #136]	; 0x88
    9470:	f8cd c084 	str.w	ip, [sp, #132]	; 0x84
    9474:	9212      	str	r2, [sp, #72]	; 0x48
    9476:	9213      	str	r2, [sp, #76]	; 0x4c
    9478:	9d08      	ldr	r5, [sp, #32]
    947a:	782b      	ldrb	r3, [r5, #0]
    947c:	2b00      	cmp	r3, #0
    947e:	f000 80c6 	beq.w	960e <_vfprintf_r+0x21a>
    9482:	2b25      	cmp	r3, #37	; 0x25
    9484:	d102      	bne.n	948c <_vfprintf_r+0x98>
    9486:	e0c2      	b.n	960e <_vfprintf_r+0x21a>
    9488:	2b25      	cmp	r3, #37	; 0x25
    948a:	d003      	beq.n	9494 <_vfprintf_r+0xa0>
    948c:	f815 3f01 	ldrb.w	r3, [r5, #1]!
    9490:	2b00      	cmp	r3, #0
    9492:	d1f9      	bne.n	9488 <_vfprintf_r+0x94>
    9494:	9b08      	ldr	r3, [sp, #32]
    9496:	1aee      	subs	r6, r5, r3
    9498:	b17e      	cbz	r6, 94ba <_vfprintf_r+0xc6>
    949a:	9b22      	ldr	r3, [sp, #136]	; 0x88
    949c:	9a23      	ldr	r2, [sp, #140]	; 0x8c
    949e:	3301      	adds	r3, #1
    94a0:	9908      	ldr	r1, [sp, #32]
    94a2:	4432      	add	r2, r6
    94a4:	2b07      	cmp	r3, #7
    94a6:	e884 0042 	stmia.w	r4, {r1, r6}
    94aa:	9223      	str	r2, [sp, #140]	; 0x8c
    94ac:	9322      	str	r3, [sp, #136]	; 0x88
    94ae:	f300 8093 	bgt.w	95d8 <_vfprintf_r+0x1e4>
    94b2:	3408      	adds	r4, #8
    94b4:	9b09      	ldr	r3, [sp, #36]	; 0x24
    94b6:	4433      	add	r3, r6
    94b8:	9309      	str	r3, [sp, #36]	; 0x24
    94ba:	782b      	ldrb	r3, [r5, #0]
    94bc:	2b00      	cmp	r3, #0
    94be:	f000 8093 	beq.w	95e8 <_vfprintf_r+0x1f4>
    94c2:	2300      	movs	r3, #0
    94c4:	f04f 3aff 	mov.w	sl, #4294967295
    94c8:	461a      	mov	r2, r3
    94ca:	4656      	mov	r6, sl
    94cc:	1c69      	adds	r1, r5, #1
    94ce:	786d      	ldrb	r5, [r5, #1]
    94d0:	f88d 3067 	strb.w	r3, [sp, #103]	; 0x67
    94d4:	930a      	str	r3, [sp, #40]	; 0x28
    94d6:	9306      	str	r3, [sp, #24]
    94d8:	1c4b      	adds	r3, r1, #1
    94da:	f1a5 0120 	sub.w	r1, r5, #32
    94de:	2958      	cmp	r1, #88	; 0x58
    94e0:	f200 83c0 	bhi.w	9c64 <_vfprintf_r+0x870>
    94e4:	e8df f011 	tbh	[pc, r1, lsl #1]
    94e8:	03be0256 	.word	0x03be0256
    94ec:	029903be 	.word	0x029903be
    94f0:	03be03be 	.word	0x03be03be
    94f4:	03be03be 	.word	0x03be03be
    94f8:	03be03be 	.word	0x03be03be
    94fc:	026402a0 	.word	0x026402a0
    9500:	01f203be 	.word	0x01f203be
    9504:	03be02f0 	.word	0x03be02f0
    9508:	0275026e 	.word	0x0275026e
    950c:	02750275 	.word	0x02750275
    9510:	02750275 	.word	0x02750275
    9514:	02750275 	.word	0x02750275
    9518:	02750275 	.word	0x02750275
    951c:	03be03be 	.word	0x03be03be
    9520:	03be03be 	.word	0x03be03be
    9524:	03be03be 	.word	0x03be03be
    9528:	03be03be 	.word	0x03be03be
    952c:	03be03be 	.word	0x03be03be
    9530:	03270366 	.word	0x03270366
    9534:	032703be 	.word	0x032703be
    9538:	03be03be 	.word	0x03be03be
    953c:	03be03be 	.word	0x03be03be
    9540:	03be035f 	.word	0x03be035f
    9544:	030a03be 	.word	0x030a03be
    9548:	03be03be 	.word	0x03be03be
    954c:	03be03be 	.word	0x03be03be
    9550:	03a803be 	.word	0x03a803be
    9554:	03be03be 	.word	0x03be03be
    9558:	03be037f 	.word	0x03be037f
    955c:	03be03be 	.word	0x03be03be
    9560:	03be03be 	.word	0x03be03be
    9564:	03be03be 	.word	0x03be03be
    9568:	03be03be 	.word	0x03be03be
    956c:	039403be 	.word	0x039403be
    9570:	032702ae 	.word	0x032702ae
    9574:	03270327 	.word	0x03270327
    9578:	02ae02cc 	.word	0x02ae02cc
    957c:	03be03be 	.word	0x03be03be
    9580:	03be02d3 	.word	0x03be02d3
    9584:	01f902dd 	.word	0x01f902dd
    9588:	025d0284 	.word	0x025d0284
    958c:	020b03be 	.word	0x020b03be
    9590:	009503be 	.word	0x009503be
    9594:	03be03be 	.word	0x03be03be
    9598:	0230      	.short	0x0230
    959a:	4638      	mov	r0, r7
    959c:	4649      	mov	r1, r9
    959e:	f001 f9ab 	bl	a8f8 <__swsetup_r>
    95a2:	b9a0      	cbnz	r0, 95ce <_vfprintf_r+0x1da>
    95a4:	f8b9 300c 	ldrh.w	r3, [r9, #12]
    95a8:	f003 031a 	and.w	r3, r3, #26
    95ac:	2b0a      	cmp	r3, #10
    95ae:	f47f af53 	bne.w	9458 <_vfprintf_r+0x64>
    95b2:	f9b9 300e 	ldrsh.w	r3, [r9, #14]
    95b6:	2b00      	cmp	r3, #0
    95b8:	f6ff af4e 	blt.w	9458 <_vfprintf_r+0x64>
    95bc:	4638      	mov	r0, r7
    95be:	4649      	mov	r1, r9
    95c0:	9a08      	ldr	r2, [sp, #32]
    95c2:	4623      	mov	r3, r4
    95c4:	f001 f946 	bl	a854 <__sbprintf>
    95c8:	b03f      	add	sp, #252	; 0xfc
    95ca:	e8bd 8ff0 	ldmia.w	sp!, {r4, r5, r6, r7, r8, r9, sl, fp, pc}
    95ce:	f04f 30ff 	mov.w	r0, #4294967295
    95d2:	b03f      	add	sp, #252	; 0xfc
    95d4:	e8bd 8ff0 	ldmia.w	sp!, {r4, r5, r6, r7, r8, r9, sl, fp, pc}
    95d8:	4640      	mov	r0, r8
    95da:	4649      	mov	r1, r9
    95dc:	aa21      	add	r2, sp, #132	; 0x84
    95de:	f003 fbc3 	bl	cd68 <__sprint_r>
    95e2:	b940      	cbnz	r0, 95f6 <_vfprintf_r+0x202>
    95e4:	ac2e      	add	r4, sp, #184	; 0xb8
    95e6:	e765      	b.n	94b4 <_vfprintf_r+0xc0>
    95e8:	9b23      	ldr	r3, [sp, #140]	; 0x8c
    95ea:	b123      	cbz	r3, 95f6 <_vfprintf_r+0x202>
    95ec:	4640      	mov	r0, r8
    95ee:	4649      	mov	r1, r9
    95f0:	aa21      	add	r2, sp, #132	; 0x84
    95f2:	f003 fbb9 	bl	cd68 <__sprint_r>
    95f6:	f8b9 300c 	ldrh.w	r3, [r9, #12]
    95fa:	065a      	lsls	r2, r3, #25
    95fc:	d4e7      	bmi.n	95ce <_vfprintf_r+0x1da>
    95fe:	9809      	ldr	r0, [sp, #36]	; 0x24
    9600:	b03f      	add	sp, #252	; 0xfc
    9602:	e8bd 8ff0 	ldmia.w	sp!, {r4, r5, r6, r7, r8, r9, sl, fp, pc}
    9606:	4638      	mov	r0, r7
    9608:	f7ff fb54 	bl	8cb4 <__sinit>
    960c:	e707      	b.n	941e <_vfprintf_r+0x2a>
    960e:	9d08      	ldr	r5, [sp, #32]
    9610:	e753      	b.n	94ba <_vfprintf_r+0xc6>
    9612:	9308      	str	r3, [sp, #32]
    9614:	9b06      	ldr	r3, [sp, #24]
    9616:	46b2      	mov	sl, r6
    9618:	069e      	lsls	r6, r3, #26
    961a:	f140 8317 	bpl.w	9c4c <_vfprintf_r+0x858>
    961e:	9f0c      	ldr	r7, [sp, #48]	; 0x30
    9620:	3707      	adds	r7, #7
    9622:	f027 0307 	bic.w	r3, r7, #7
    9626:	f103 0208 	add.w	r2, r3, #8
    962a:	e9d3 6700 	ldrd	r6, r7, [r3]
    962e:	920c      	str	r2, [sp, #48]	; 0x30
    9630:	2301      	movs	r3, #1
    9632:	2200      	movs	r2, #0
    9634:	4694      	mov	ip, r2
    9636:	f8cd a03c 	str.w	sl, [sp, #60]	; 0x3c
    963a:	f88d 2067 	strb.w	r2, [sp, #103]	; 0x67
    963e:	f1ba 0f00 	cmp.w	sl, #0
    9642:	db03      	blt.n	964c <_vfprintf_r+0x258>
    9644:	9a06      	ldr	r2, [sp, #24]
    9646:	f022 0280 	bic.w	r2, r2, #128	; 0x80
    964a:	9206      	str	r2, [sp, #24]
    964c:	ea56 0207 	orrs.w	r2, r6, r7
    9650:	f040 832a 	bne.w	9ca8 <_vfprintf_r+0x8b4>
    9654:	f1ba 0f00 	cmp.w	sl, #0
    9658:	f000 8428 	beq.w	9eac <_vfprintf_r+0xab8>
    965c:	2b01      	cmp	r3, #1
    965e:	f000 832b 	beq.w	9cb8 <_vfprintf_r+0x8c4>
    9662:	2b02      	cmp	r3, #2
    9664:	f000 8475 	beq.w	9f52 <_vfprintf_r+0xb5e>
    9668:	a92e      	add	r1, sp, #184	; 0xb8
    966a:	08f2      	lsrs	r2, r6, #3
    966c:	ea42 7247 	orr.w	r2, r2, r7, lsl #29
    9670:	08f8      	lsrs	r0, r7, #3
    9672:	f006 0307 	and.w	r3, r6, #7
    9676:	4607      	mov	r7, r0
    9678:	4616      	mov	r6, r2
    967a:	3330      	adds	r3, #48	; 0x30
    967c:	ea56 0207 	orrs.w	r2, r6, r7
    9680:	f801 3d01 	strb.w	r3, [r1, #-1]!
    9684:	d1f1      	bne.n	966a <_vfprintf_r+0x276>
    9686:	9a06      	ldr	r2, [sp, #24]
    9688:	910e      	str	r1, [sp, #56]	; 0x38
    968a:	07d0      	lsls	r0, r2, #31
    968c:	f100 8513 	bmi.w	a0b6 <_vfprintf_r+0xcc2>
    9690:	ab2e      	add	r3, sp, #184	; 0xb8
    9692:	1a5b      	subs	r3, r3, r1
    9694:	930b      	str	r3, [sp, #44]	; 0x2c
    9696:	9a0b      	ldr	r2, [sp, #44]	; 0x2c
    9698:	4653      	mov	r3, sl
    969a:	4592      	cmp	sl, r2
    969c:	bfb8      	it	lt
    969e:	4613      	movlt	r3, r2
    96a0:	9307      	str	r3, [sp, #28]
    96a2:	2300      	movs	r3, #0
    96a4:	9310      	str	r3, [sp, #64]	; 0x40
    96a6:	f1bc 0f00 	cmp.w	ip, #0
    96aa:	d002      	beq.n	96b2 <_vfprintf_r+0x2be>
    96ac:	9b07      	ldr	r3, [sp, #28]
    96ae:	3301      	adds	r3, #1
    96b0:	9307      	str	r3, [sp, #28]
    96b2:	9b06      	ldr	r3, [sp, #24]
    96b4:	f013 0302 	ands.w	r3, r3, #2
    96b8:	930d      	str	r3, [sp, #52]	; 0x34
    96ba:	d002      	beq.n	96c2 <_vfprintf_r+0x2ce>
    96bc:	9b07      	ldr	r3, [sp, #28]
    96be:	3302      	adds	r3, #2
    96c0:	9307      	str	r3, [sp, #28]
    96c2:	9b06      	ldr	r3, [sp, #24]
    96c4:	f013 0684 	ands.w	r6, r3, #132	; 0x84
    96c8:	f040 82eb 	bne.w	9ca2 <_vfprintf_r+0x8ae>
    96cc:	9b0a      	ldr	r3, [sp, #40]	; 0x28
    96ce:	9a07      	ldr	r2, [sp, #28]
    96d0:	ebc2 0a03 	rsb	sl, r2, r3
    96d4:	f1ba 0f00 	cmp.w	sl, #0
    96d8:	f340 82e3 	ble.w	9ca2 <_vfprintf_r+0x8ae>
    96dc:	f1ba 0f10 	cmp.w	sl, #16
    96e0:	9923      	ldr	r1, [sp, #140]	; 0x8c
    96e2:	9a22      	ldr	r2, [sp, #136]	; 0x88
    96e4:	4fb4      	ldr	r7, [pc, #720]	; (99b8 <_vfprintf_r+0x5c4>)
    96e6:	bfc8      	it	gt
    96e8:	f04f 0b10 	movgt.w	fp, #16
    96ec:	dc07      	bgt.n	96fe <_vfprintf_r+0x30a>
    96ee:	e01e      	b.n	972e <_vfprintf_r+0x33a>
    96f0:	f1aa 0a10 	sub.w	sl, sl, #16
    96f4:	f1ba 0f10 	cmp.w	sl, #16
    96f8:	f104 0408 	add.w	r4, r4, #8
    96fc:	dd17      	ble.n	972e <_vfprintf_r+0x33a>
    96fe:	3201      	adds	r2, #1
    9700:	3110      	adds	r1, #16
    9702:	2a07      	cmp	r2, #7
    9704:	9123      	str	r1, [sp, #140]	; 0x8c
    9706:	9222      	str	r2, [sp, #136]	; 0x88
    9708:	e884 0880 	stmia.w	r4, {r7, fp}
    970c:	ddf0      	ble.n	96f0 <_vfprintf_r+0x2fc>
    970e:	4640      	mov	r0, r8
    9710:	4649      	mov	r1, r9
    9712:	aa21      	add	r2, sp, #132	; 0x84
    9714:	f003 fb28 	bl	cd68 <__sprint_r>
    9718:	2800      	cmp	r0, #0
    971a:	f47f af6c 	bne.w	95f6 <_vfprintf_r+0x202>
    971e:	f1aa 0a10 	sub.w	sl, sl, #16
    9722:	f1ba 0f10 	cmp.w	sl, #16
    9726:	ac2e      	add	r4, sp, #184	; 0xb8
    9728:	9923      	ldr	r1, [sp, #140]	; 0x8c
    972a:	9a22      	ldr	r2, [sp, #136]	; 0x88
    972c:	dce7      	bgt.n	96fe <_vfprintf_r+0x30a>
    972e:	3201      	adds	r2, #1
    9730:	eb0a 0b01 	add.w	fp, sl, r1
    9734:	2a07      	cmp	r2, #7
    9736:	f8cd b08c 	str.w	fp, [sp, #140]	; 0x8c
    973a:	9222      	str	r2, [sp, #136]	; 0x88
    973c:	e884 0480 	stmia.w	r4, {r7, sl}
    9740:	f300 82a4 	bgt.w	9c8c <_vfprintf_r+0x898>
    9744:	f89d c067 	ldrb.w	ip, [sp, #103]	; 0x67
    9748:	3408      	adds	r4, #8
    974a:	f1bc 0f00 	cmp.w	ip, #0
    974e:	d00f      	beq.n	9770 <_vfprintf_r+0x37c>
    9750:	9b22      	ldr	r3, [sp, #136]	; 0x88
    9752:	f10b 0b01 	add.w	fp, fp, #1
    9756:	3301      	adds	r3, #1
    9758:	f10d 0167 	add.w	r1, sp, #103	; 0x67
    975c:	2201      	movs	r2, #1
    975e:	2b07      	cmp	r3, #7
    9760:	f8cd b08c 	str.w	fp, [sp, #140]	; 0x8c
    9764:	9322      	str	r3, [sp, #136]	; 0x88
    9766:	e884 0006 	stmia.w	r4, {r1, r2}
    976a:	f300 83bd 	bgt.w	9ee8 <_vfprintf_r+0xaf4>
    976e:	3408      	adds	r4, #8
    9770:	9b0d      	ldr	r3, [sp, #52]	; 0x34
    9772:	b173      	cbz	r3, 9792 <_vfprintf_r+0x39e>
    9774:	9b22      	ldr	r3, [sp, #136]	; 0x88
    9776:	f10b 0b02 	add.w	fp, fp, #2
    977a:	3301      	adds	r3, #1
    977c:	a91a      	add	r1, sp, #104	; 0x68
    977e:	2202      	movs	r2, #2
    9780:	2b07      	cmp	r3, #7
    9782:	f8cd b08c 	str.w	fp, [sp, #140]	; 0x8c
    9786:	9322      	str	r3, [sp, #136]	; 0x88
    9788:	e884 0006 	stmia.w	r4, {r1, r2}
    978c:	f300 83b8 	bgt.w	9f00 <_vfprintf_r+0xb0c>
    9790:	3408      	adds	r4, #8
    9792:	2e80      	cmp	r6, #128	; 0x80
    9794:	f000 82fb 	beq.w	9d8e <_vfprintf_r+0x99a>
    9798:	9b0f      	ldr	r3, [sp, #60]	; 0x3c
    979a:	9a0b      	ldr	r2, [sp, #44]	; 0x2c
    979c:	ebc2 0a03 	rsb	sl, r2, r3
    97a0:	f1ba 0f00 	cmp.w	sl, #0
    97a4:	dd32      	ble.n	980c <_vfprintf_r+0x418>
    97a6:	f1ba 0f10 	cmp.w	sl, #16
    97aa:	9a22      	ldr	r2, [sp, #136]	; 0x88
    97ac:	4f83      	ldr	r7, [pc, #524]	; (99bc <_vfprintf_r+0x5c8>)
    97ae:	dd22      	ble.n	97f6 <_vfprintf_r+0x402>
    97b0:	2610      	movs	r6, #16
    97b2:	465b      	mov	r3, fp
    97b4:	e006      	b.n	97c4 <_vfprintf_r+0x3d0>
    97b6:	f1aa 0a10 	sub.w	sl, sl, #16
    97ba:	f1ba 0f10 	cmp.w	sl, #16
    97be:	f104 0408 	add.w	r4, r4, #8
    97c2:	dd17      	ble.n	97f4 <_vfprintf_r+0x400>
    97c4:	3201      	adds	r2, #1
    97c6:	3310      	adds	r3, #16
    97c8:	2a07      	cmp	r2, #7
    97ca:	9323      	str	r3, [sp, #140]	; 0x8c
    97cc:	9222      	str	r2, [sp, #136]	; 0x88
    97ce:	6027      	str	r7, [r4, #0]
    97d0:	6066      	str	r6, [r4, #4]
    97d2:	ddf0      	ble.n	97b6 <_vfprintf_r+0x3c2>
    97d4:	4640      	mov	r0, r8
    97d6:	4649      	mov	r1, r9
    97d8:	aa21      	add	r2, sp, #132	; 0x84
    97da:	f003 fac5 	bl	cd68 <__sprint_r>
    97de:	2800      	cmp	r0, #0
    97e0:	f47f af09 	bne.w	95f6 <_vfprintf_r+0x202>
    97e4:	f1aa 0a10 	sub.w	sl, sl, #16
    97e8:	f1ba 0f10 	cmp.w	sl, #16
    97ec:	ac2e      	add	r4, sp, #184	; 0xb8
    97ee:	9b23      	ldr	r3, [sp, #140]	; 0x8c
    97f0:	9a22      	ldr	r2, [sp, #136]	; 0x88
    97f2:	dce7      	bgt.n	97c4 <_vfprintf_r+0x3d0>
    97f4:	469b      	mov	fp, r3
    97f6:	3201      	adds	r2, #1
    97f8:	44d3      	add	fp, sl
    97fa:	2a07      	cmp	r2, #7
    97fc:	f8cd b08c 	str.w	fp, [sp, #140]	; 0x8c
    9800:	9222      	str	r2, [sp, #136]	; 0x88
    9802:	e884 0480 	stmia.w	r4, {r7, sl}
    9806:	f300 8363 	bgt.w	9ed0 <_vfprintf_r+0xadc>
    980a:	3408      	adds	r4, #8
    980c:	9b06      	ldr	r3, [sp, #24]
    980e:	05db      	lsls	r3, r3, #23
    9810:	f100 8266 	bmi.w	9ce0 <_vfprintf_r+0x8ec>
    9814:	9b22      	ldr	r3, [sp, #136]	; 0x88
    9816:	990b      	ldr	r1, [sp, #44]	; 0x2c
    9818:	3301      	adds	r3, #1
    981a:	9a0e      	ldr	r2, [sp, #56]	; 0x38
    981c:	448b      	add	fp, r1
    981e:	2b07      	cmp	r3, #7
    9820:	f8cd b08c 	str.w	fp, [sp, #140]	; 0x8c
    9824:	6022      	str	r2, [r4, #0]
    9826:	6061      	str	r1, [r4, #4]
    9828:	9322      	str	r3, [sp, #136]	; 0x88
    982a:	f300 8380 	bgt.w	9f2e <_vfprintf_r+0xb3a>
    982e:	3408      	adds	r4, #8
    9830:	9b06      	ldr	r3, [sp, #24]
    9832:	0759      	lsls	r1, r3, #29
    9834:	d53a      	bpl.n	98ac <_vfprintf_r+0x4b8>
    9836:	9b0a      	ldr	r3, [sp, #40]	; 0x28
    9838:	9a07      	ldr	r2, [sp, #28]
    983a:	1a9d      	subs	r5, r3, r2
    983c:	2d00      	cmp	r5, #0
    983e:	dd35      	ble.n	98ac <_vfprintf_r+0x4b8>
    9840:	2d10      	cmp	r5, #16
    9842:	9b22      	ldr	r3, [sp, #136]	; 0x88
    9844:	4f5c      	ldr	r7, [pc, #368]	; (99b8 <_vfprintf_r+0x5c4>)
    9846:	dd1e      	ble.n	9886 <_vfprintf_r+0x492>
    9848:	2610      	movs	r6, #16
    984a:	465a      	mov	r2, fp
    984c:	e004      	b.n	9858 <_vfprintf_r+0x464>
    984e:	3d10      	subs	r5, #16
    9850:	2d10      	cmp	r5, #16
    9852:	f104 0408 	add.w	r4, r4, #8
    9856:	dd15      	ble.n	9884 <_vfprintf_r+0x490>
    9858:	3301      	adds	r3, #1
    985a:	3210      	adds	r2, #16
    985c:	2b07      	cmp	r3, #7
    985e:	9223      	str	r2, [sp, #140]	; 0x8c
    9860:	9322      	str	r3, [sp, #136]	; 0x88
    9862:	6027      	str	r7, [r4, #0]
    9864:	6066      	str	r6, [r4, #4]
    9866:	ddf2      	ble.n	984e <_vfprintf_r+0x45a>
    9868:	4640      	mov	r0, r8
    986a:	4649      	mov	r1, r9
    986c:	aa21      	add	r2, sp, #132	; 0x84
    986e:	f003 fa7b 	bl	cd68 <__sprint_r>
    9872:	2800      	cmp	r0, #0
    9874:	f47f aebf 	bne.w	95f6 <_vfprintf_r+0x202>
    9878:	3d10      	subs	r5, #16
    987a:	2d10      	cmp	r5, #16
    987c:	ac2e      	add	r4, sp, #184	; 0xb8
    987e:	9a23      	ldr	r2, [sp, #140]	; 0x8c
    9880:	9b22      	ldr	r3, [sp, #136]	; 0x88
    9882:	dce9      	bgt.n	9858 <_vfprintf_r+0x464>
    9884:	4693      	mov	fp, r2
    9886:	3301      	adds	r3, #1
    9888:	44ab      	add	fp, r5
    988a:	2b07      	cmp	r3, #7
    988c:	f8cd b08c 	str.w	fp, [sp, #140]	; 0x8c
    9890:	9322      	str	r3, [sp, #136]	; 0x88
    9892:	6027      	str	r7, [r4, #0]
    9894:	6065      	str	r5, [r4, #4]
    9896:	dd09      	ble.n	98ac <_vfprintf_r+0x4b8>
    9898:	4640      	mov	r0, r8
    989a:	4649      	mov	r1, r9
    989c:	aa21      	add	r2, sp, #132	; 0x84
    989e:	f003 fa63 	bl	cd68 <__sprint_r>
    98a2:	2800      	cmp	r0, #0
    98a4:	f47f aea7 	bne.w	95f6 <_vfprintf_r+0x202>
    98a8:	f8dd b08c 	ldr.w	fp, [sp, #140]	; 0x8c
    98ac:	9b09      	ldr	r3, [sp, #36]	; 0x24
    98ae:	9a07      	ldr	r2, [sp, #28]
    98b0:	990a      	ldr	r1, [sp, #40]	; 0x28
    98b2:	428a      	cmp	r2, r1
    98b4:	bfac      	ite	ge
    98b6:	189b      	addge	r3, r3, r2
    98b8:	185b      	addlt	r3, r3, r1
    98ba:	9309      	str	r3, [sp, #36]	; 0x24
    98bc:	f1bb 0f00 	cmp.w	fp, #0
    98c0:	f040 82ea 	bne.w	9e98 <_vfprintf_r+0xaa4>
    98c4:	2300      	movs	r3, #0
    98c6:	9322      	str	r3, [sp, #136]	; 0x88
    98c8:	ac2e      	add	r4, sp, #184	; 0xb8
    98ca:	e5d5      	b.n	9478 <_vfprintf_r+0x84>
    98cc:	4619      	mov	r1, r3
    98ce:	9806      	ldr	r0, [sp, #24]
    98d0:	f040 0004 	orr.w	r0, r0, #4
    98d4:	9006      	str	r0, [sp, #24]
    98d6:	781d      	ldrb	r5, [r3, #0]
    98d8:	e5fe      	b.n	94d8 <_vfprintf_r+0xe4>
    98da:	9308      	str	r3, [sp, #32]
    98dc:	9b06      	ldr	r3, [sp, #24]
    98de:	46b2      	mov	sl, r6
    98e0:	f013 0320 	ands.w	r3, r3, #32
    98e4:	f000 8115 	beq.w	9b12 <_vfprintf_r+0x71e>
    98e8:	9f0c      	ldr	r7, [sp, #48]	; 0x30
    98ea:	3707      	adds	r7, #7
    98ec:	f027 0307 	bic.w	r3, r7, #7
    98f0:	f103 0208 	add.w	r2, r3, #8
    98f4:	e9d3 6700 	ldrd	r6, r7, [r3]
    98f8:	920c      	str	r2, [sp, #48]	; 0x30
    98fa:	2300      	movs	r3, #0
    98fc:	e699      	b.n	9632 <_vfprintf_r+0x23e>
    98fe:	9a0c      	ldr	r2, [sp, #48]	; 0x30
    9900:	9308      	str	r3, [sp, #32]
    9902:	6813      	ldr	r3, [r2, #0]
    9904:	f04f 0b00 	mov.w	fp, #0
    9908:	930e      	str	r3, [sp, #56]	; 0x38
    990a:	f88d b067 	strb.w	fp, [sp, #103]	; 0x67
    990e:	1d17      	adds	r7, r2, #4
    9910:	2b00      	cmp	r3, #0
    9912:	f000 867e 	beq.w	a612 <_vfprintf_r+0x121e>
    9916:	2e00      	cmp	r6, #0
    9918:	980e      	ldr	r0, [sp, #56]	; 0x38
    991a:	f2c0 8630 	blt.w	a57e <_vfprintf_r+0x118a>
    991e:	4659      	mov	r1, fp
    9920:	4632      	mov	r2, r6
    9922:	f002 fb49 	bl	bfb8 <memchr>
    9926:	2800      	cmp	r0, #0
    9928:	f000 86af 	beq.w	a68a <_vfprintf_r+0x1296>
    992c:	9b0e      	ldr	r3, [sp, #56]	; 0x38
    992e:	f8cd b03c 	str.w	fp, [sp, #60]	; 0x3c
    9932:	1ac3      	subs	r3, r0, r3
    9934:	930b      	str	r3, [sp, #44]	; 0x2c
    9936:	970c      	str	r7, [sp, #48]	; 0x30
    9938:	ea23 73e3 	bic.w	r3, r3, r3, asr #31
    993c:	9307      	str	r3, [sp, #28]
    993e:	f8cd b040 	str.w	fp, [sp, #64]	; 0x40
    9942:	f89d c067 	ldrb.w	ip, [sp, #103]	; 0x67
    9946:	e6ae      	b.n	96a6 <_vfprintf_r+0x2b2>
    9948:	9308      	str	r3, [sp, #32]
    994a:	4b1d      	ldr	r3, [pc, #116]	; (99c0 <_vfprintf_r+0x5cc>)
    994c:	46b2      	mov	sl, r6
    994e:	9314      	str	r3, [sp, #80]	; 0x50
    9950:	9b06      	ldr	r3, [sp, #24]
    9952:	f88d 2067 	strb.w	r2, [sp, #103]	; 0x67
    9956:	0699      	lsls	r1, r3, #26
    9958:	f140 814f 	bpl.w	9bfa <_vfprintf_r+0x806>
    995c:	9f0c      	ldr	r7, [sp, #48]	; 0x30
    995e:	3707      	adds	r7, #7
    9960:	f027 0307 	bic.w	r3, r7, #7
    9964:	f103 0208 	add.w	r2, r3, #8
    9968:	920c      	str	r2, [sp, #48]	; 0x30
    996a:	e9d3 6700 	ldrd	r6, r7, [r3]
    996e:	9b06      	ldr	r3, [sp, #24]
    9970:	07db      	lsls	r3, r3, #31
    9972:	f140 8307 	bpl.w	9f84 <_vfprintf_r+0xb90>
    9976:	ea56 0307 	orrs.w	r3, r6, r7
    997a:	f000 8303 	beq.w	9f84 <_vfprintf_r+0xb90>
    997e:	9a06      	ldr	r2, [sp, #24]
    9980:	2330      	movs	r3, #48	; 0x30
    9982:	f042 0202 	orr.w	r2, r2, #2
    9986:	f88d 3068 	strb.w	r3, [sp, #104]	; 0x68
    998a:	f88d 5069 	strb.w	r5, [sp, #105]	; 0x69
    998e:	9206      	str	r2, [sp, #24]
    9990:	2302      	movs	r3, #2
    9992:	e64e      	b.n	9632 <_vfprintf_r+0x23e>
    9994:	2a00      	cmp	r2, #0
    9996:	f040 8531 	bne.w	a3fc <_vfprintf_r+0x1008>
    999a:	781d      	ldrb	r5, [r3, #0]
    999c:	4619      	mov	r1, r3
    999e:	2220      	movs	r2, #32
    99a0:	e59a      	b.n	94d8 <_vfprintf_r+0xe4>
    99a2:	9906      	ldr	r1, [sp, #24]
    99a4:	f041 0120 	orr.w	r1, r1, #32
    99a8:	9106      	str	r1, [sp, #24]
    99aa:	781d      	ldrb	r5, [r3, #0]
    99ac:	4619      	mov	r1, r3
    99ae:	e593      	b.n	94d8 <_vfprintf_r+0xe4>
    99b0:	781d      	ldrb	r5, [r3, #0]
    99b2:	4619      	mov	r1, r3
    99b4:	222b      	movs	r2, #43	; 0x2b
    99b6:	e58f      	b.n	94d8 <_vfprintf_r+0xe4>
    99b8:	0000f458 	.word	0x0000f458
    99bc:	0000f404 	.word	0x0000f404
    99c0:	0000f438 	.word	0x0000f438
    99c4:	9906      	ldr	r1, [sp, #24]
    99c6:	f041 0180 	orr.w	r1, r1, #128	; 0x80
    99ca:	9106      	str	r1, [sp, #24]
    99cc:	781d      	ldrb	r5, [r3, #0]
    99ce:	4619      	mov	r1, r3
    99d0:	e582      	b.n	94d8 <_vfprintf_r+0xe4>
    99d2:	f1a5 0030 	sub.w	r0, r5, #48	; 0x30
    99d6:	2100      	movs	r1, #0
    99d8:	f813 5b01 	ldrb.w	r5, [r3], #1
    99dc:	eb01 0181 	add.w	r1, r1, r1, lsl #2
    99e0:	eb00 0141 	add.w	r1, r0, r1, lsl #1
    99e4:	f1a5 0030 	sub.w	r0, r5, #48	; 0x30
    99e8:	2809      	cmp	r0, #9
    99ea:	d9f5      	bls.n	99d8 <_vfprintf_r+0x5e4>
    99ec:	910a      	str	r1, [sp, #40]	; 0x28
    99ee:	e574      	b.n	94da <_vfprintf_r+0xe6>
    99f0:	9a0c      	ldr	r2, [sp, #48]	; 0x30
    99f2:	9906      	ldr	r1, [sp, #24]
    99f4:	9308      	str	r3, [sp, #32]
    99f6:	2330      	movs	r3, #48	; 0x30
    99f8:	f88d 3068 	strb.w	r3, [sp, #104]	; 0x68
    99fc:	4bb4      	ldr	r3, [pc, #720]	; (9cd0 <_vfprintf_r+0x8dc>)
    99fe:	46b2      	mov	sl, r6
    9a00:	2578      	movs	r5, #120	; 0x78
    9a02:	6816      	ldr	r6, [r2, #0]
    9a04:	f041 0102 	orr.w	r1, r1, #2
    9a08:	3204      	adds	r2, #4
    9a0a:	9314      	str	r3, [sp, #80]	; 0x50
    9a0c:	9106      	str	r1, [sp, #24]
    9a0e:	920c      	str	r2, [sp, #48]	; 0x30
    9a10:	2700      	movs	r7, #0
    9a12:	f88d 5069 	strb.w	r5, [sp, #105]	; 0x69
    9a16:	2302      	movs	r3, #2
    9a18:	e60b      	b.n	9632 <_vfprintf_r+0x23e>
    9a1a:	9906      	ldr	r1, [sp, #24]
    9a1c:	f041 0101 	orr.w	r1, r1, #1
    9a20:	9106      	str	r1, [sp, #24]
    9a22:	781d      	ldrb	r5, [r3, #0]
    9a24:	4619      	mov	r1, r3
    9a26:	e557      	b.n	94d8 <_vfprintf_r+0xe4>
    9a28:	9d0c      	ldr	r5, [sp, #48]	; 0x30
    9a2a:	6829      	ldr	r1, [r5, #0]
    9a2c:	4608      	mov	r0, r1
    9a2e:	910a      	str	r1, [sp, #40]	; 0x28
    9a30:	4629      	mov	r1, r5
    9a32:	2800      	cmp	r0, #0
    9a34:	f101 0104 	add.w	r1, r1, #4
    9a38:	f2c0 856f 	blt.w	a51a <_vfprintf_r+0x1126>
    9a3c:	910c      	str	r1, [sp, #48]	; 0x30
    9a3e:	781d      	ldrb	r5, [r3, #0]
    9a40:	4619      	mov	r1, r3
    9a42:	e549      	b.n	94d8 <_vfprintf_r+0xe4>
    9a44:	9308      	str	r3, [sp, #32]
    9a46:	9b06      	ldr	r3, [sp, #24]
    9a48:	46b2      	mov	sl, r6
    9a4a:	0699      	lsls	r1, r3, #26
    9a4c:	f88d 2067 	strb.w	r2, [sp, #103]	; 0x67
    9a50:	f140 80bc 	bpl.w	9bcc <_vfprintf_r+0x7d8>
    9a54:	9f0c      	ldr	r7, [sp, #48]	; 0x30
    9a56:	3707      	adds	r7, #7
    9a58:	f027 0707 	bic.w	r7, r7, #7
    9a5c:	e9d7 2300 	ldrd	r2, r3, [r7]
    9a60:	f107 0108 	add.w	r1, r7, #8
    9a64:	4616      	mov	r6, r2
    9a66:	461f      	mov	r7, r3
    9a68:	910c      	str	r1, [sp, #48]	; 0x30
    9a6a:	2a00      	cmp	r2, #0
    9a6c:	f173 0300 	sbcs.w	r3, r3, #0
    9a70:	f2c0 83e6 	blt.w	a240 <_vfprintf_r+0xe4c>
    9a74:	f89d c067 	ldrb.w	ip, [sp, #103]	; 0x67
    9a78:	f8cd a03c 	str.w	sl, [sp, #60]	; 0x3c
    9a7c:	2301      	movs	r3, #1
    9a7e:	e5de      	b.n	963e <_vfprintf_r+0x24a>
    9a80:	9906      	ldr	r1, [sp, #24]
    9a82:	f041 0140 	orr.w	r1, r1, #64	; 0x40
    9a86:	9106      	str	r1, [sp, #24]
    9a88:	781d      	ldrb	r5, [r3, #0]
    9a8a:	4619      	mov	r1, r3
    9a8c:	e524      	b.n	94d8 <_vfprintf_r+0xe4>
    9a8e:	781d      	ldrb	r5, [r3, #0]
    9a90:	9906      	ldr	r1, [sp, #24]
    9a92:	2d6c      	cmp	r5, #108	; 0x6c
    9a94:	f000 853a 	beq.w	a50c <_vfprintf_r+0x1118>
    9a98:	f041 0110 	orr.w	r1, r1, #16
    9a9c:	9106      	str	r1, [sp, #24]
    9a9e:	4619      	mov	r1, r3
    9aa0:	e51a      	b.n	94d8 <_vfprintf_r+0xe4>
    9aa2:	9308      	str	r3, [sp, #32]
    9aa4:	9b06      	ldr	r3, [sp, #24]
    9aa6:	f88d 2067 	strb.w	r2, [sp, #103]	; 0x67
    9aaa:	069a      	lsls	r2, r3, #26
    9aac:	f140 8475 	bpl.w	a39a <_vfprintf_r+0xfa6>
    9ab0:	9a0c      	ldr	r2, [sp, #48]	; 0x30
    9ab2:	4613      	mov	r3, r2
    9ab4:	3304      	adds	r3, #4
    9ab6:	930c      	str	r3, [sp, #48]	; 0x30
    9ab8:	9b09      	ldr	r3, [sp, #36]	; 0x24
    9aba:	6811      	ldr	r1, [r2, #0]
    9abc:	17df      	asrs	r7, r3, #31
    9abe:	461a      	mov	r2, r3
    9ac0:	463b      	mov	r3, r7
    9ac2:	e9c1 2300 	strd	r2, r3, [r1]
    9ac6:	e4d7      	b.n	9478 <_vfprintf_r+0x84>
    9ac8:	781d      	ldrb	r5, [r3, #0]
    9aca:	1c59      	adds	r1, r3, #1
    9acc:	2d2a      	cmp	r5, #42	; 0x2a
    9ace:	f000 869e 	beq.w	a80e <_vfprintf_r+0x141a>
    9ad2:	f1a5 0030 	sub.w	r0, r5, #48	; 0x30
    9ad6:	2809      	cmp	r0, #9
    9ad8:	460b      	mov	r3, r1
    9ada:	f04f 0600 	mov.w	r6, #0
    9ade:	f63f acfc 	bhi.w	94da <_vfprintf_r+0xe6>
    9ae2:	f813 5b01 	ldrb.w	r5, [r3], #1
    9ae6:	eb06 0686 	add.w	r6, r6, r6, lsl #2
    9aea:	eb00 0646 	add.w	r6, r0, r6, lsl #1
    9aee:	f1a5 0030 	sub.w	r0, r5, #48	; 0x30
    9af2:	2809      	cmp	r0, #9
    9af4:	d9f5      	bls.n	9ae2 <_vfprintf_r+0x6ee>
    9af6:	ea46 76e6 	orr.w	r6, r6, r6, asr #31
    9afa:	e4ee      	b.n	94da <_vfprintf_r+0xe6>
    9afc:	9308      	str	r3, [sp, #32]
    9afe:	9b06      	ldr	r3, [sp, #24]
    9b00:	46b2      	mov	sl, r6
    9b02:	f043 0310 	orr.w	r3, r3, #16
    9b06:	9306      	str	r3, [sp, #24]
    9b08:	9b06      	ldr	r3, [sp, #24]
    9b0a:	f013 0320 	ands.w	r3, r3, #32
    9b0e:	f47f aeeb 	bne.w	98e8 <_vfprintf_r+0x4f4>
    9b12:	9a06      	ldr	r2, [sp, #24]
    9b14:	f012 0210 	ands.w	r2, r2, #16
    9b18:	f040 8281 	bne.w	a01e <_vfprintf_r+0xc2a>
    9b1c:	9b06      	ldr	r3, [sp, #24]
    9b1e:	f013 0340 	ands.w	r3, r3, #64	; 0x40
    9b22:	f000 827c 	beq.w	a01e <_vfprintf_r+0xc2a>
    9b26:	990c      	ldr	r1, [sp, #48]	; 0x30
    9b28:	4613      	mov	r3, r2
    9b2a:	460a      	mov	r2, r1
    9b2c:	3204      	adds	r2, #4
    9b2e:	880e      	ldrh	r6, [r1, #0]
    9b30:	2700      	movs	r7, #0
    9b32:	920c      	str	r2, [sp, #48]	; 0x30
    9b34:	e57d      	b.n	9632 <_vfprintf_r+0x23e>
    9b36:	9308      	str	r3, [sp, #32]
    9b38:	9b06      	ldr	r3, [sp, #24]
    9b3a:	9f0c      	ldr	r7, [sp, #48]	; 0x30
    9b3c:	071b      	lsls	r3, r3, #28
    9b3e:	46b2      	mov	sl, r6
    9b40:	f88d 2067 	strb.w	r2, [sp, #103]	; 0x67
    9b44:	46b3      	mov	fp, r6
    9b46:	f107 0707 	add.w	r7, r7, #7
    9b4a:	f140 840b 	bpl.w	a364 <_vfprintf_r+0xf70>
    9b4e:	f027 0307 	bic.w	r3, r7, #7
    9b52:	f103 0208 	add.w	r2, r3, #8
    9b56:	920c      	str	r2, [sp, #48]	; 0x30
    9b58:	681a      	ldr	r2, [r3, #0]
    9b5a:	685b      	ldr	r3, [r3, #4]
    9b5c:	9212      	str	r2, [sp, #72]	; 0x48
    9b5e:	9313      	str	r3, [sp, #76]	; 0x4c
    9b60:	9913      	ldr	r1, [sp, #76]	; 0x4c
    9b62:	9812      	ldr	r0, [sp, #72]	; 0x48
    9b64:	f002 ffba 	bl	cadc <__fpclassifyd>
    9b68:	2801      	cmp	r0, #1
    9b6a:	9913      	ldr	r1, [sp, #76]	; 0x4c
    9b6c:	9812      	ldr	r0, [sp, #72]	; 0x48
    9b6e:	f040 8375 	bne.w	a25c <_vfprintf_r+0xe68>
    9b72:	2200      	movs	r2, #0
    9b74:	2300      	movs	r3, #0
    9b76:	f005 f90f 	bl	ed98 <__aeabi_dcmplt>
    9b7a:	2800      	cmp	r0, #0
    9b7c:	f040 856b 	bne.w	a656 <_vfprintf_r+0x1262>
    9b80:	f89d c067 	ldrb.w	ip, [sp, #103]	; 0x67
    9b84:	4a53      	ldr	r2, [pc, #332]	; (9cd4 <_vfprintf_r+0x8e0>)
    9b86:	4b54      	ldr	r3, [pc, #336]	; (9cd8 <_vfprintf_r+0x8e4>)
    9b88:	9e06      	ldr	r6, [sp, #24]
    9b8a:	2d47      	cmp	r5, #71	; 0x47
    9b8c:	bfd8      	it	le
    9b8e:	461a      	movle	r2, r3
    9b90:	2103      	movs	r1, #3
    9b92:	2000      	movs	r0, #0
    9b94:	f026 0680 	bic.w	r6, r6, #128	; 0x80
    9b98:	9107      	str	r1, [sp, #28]
    9b9a:	900f      	str	r0, [sp, #60]	; 0x3c
    9b9c:	9606      	str	r6, [sp, #24]
    9b9e:	920e      	str	r2, [sp, #56]	; 0x38
    9ba0:	910b      	str	r1, [sp, #44]	; 0x2c
    9ba2:	9010      	str	r0, [sp, #64]	; 0x40
    9ba4:	e57f      	b.n	96a6 <_vfprintf_r+0x2b2>
    9ba6:	9906      	ldr	r1, [sp, #24]
    9ba8:	f041 0108 	orr.w	r1, r1, #8
    9bac:	9106      	str	r1, [sp, #24]
    9bae:	781d      	ldrb	r5, [r3, #0]
    9bb0:	4619      	mov	r1, r3
    9bb2:	e491      	b.n	94d8 <_vfprintf_r+0xe4>
    9bb4:	9308      	str	r3, [sp, #32]
    9bb6:	9b06      	ldr	r3, [sp, #24]
    9bb8:	46b2      	mov	sl, r6
    9bba:	f043 0310 	orr.w	r3, r3, #16
    9bbe:	9306      	str	r3, [sp, #24]
    9bc0:	9b06      	ldr	r3, [sp, #24]
    9bc2:	f88d 2067 	strb.w	r2, [sp, #103]	; 0x67
    9bc6:	0699      	lsls	r1, r3, #26
    9bc8:	f53f af44 	bmi.w	9a54 <_vfprintf_r+0x660>
    9bcc:	9b06      	ldr	r3, [sp, #24]
    9bce:	06da      	lsls	r2, r3, #27
    9bd0:	f140 83d3 	bpl.w	a37a <_vfprintf_r+0xf86>
    9bd4:	9a0c      	ldr	r2, [sp, #48]	; 0x30
    9bd6:	4613      	mov	r3, r2
    9bd8:	681e      	ldr	r6, [r3, #0]
    9bda:	3304      	adds	r3, #4
    9bdc:	17f7      	asrs	r7, r6, #31
    9bde:	930c      	str	r3, [sp, #48]	; 0x30
    9be0:	4632      	mov	r2, r6
    9be2:	463b      	mov	r3, r7
    9be4:	e741      	b.n	9a6a <_vfprintf_r+0x676>
    9be6:	9308      	str	r3, [sp, #32]
    9be8:	4b3c      	ldr	r3, [pc, #240]	; (9cdc <_vfprintf_r+0x8e8>)
    9bea:	46b2      	mov	sl, r6
    9bec:	9314      	str	r3, [sp, #80]	; 0x50
    9bee:	9b06      	ldr	r3, [sp, #24]
    9bf0:	f88d 2067 	strb.w	r2, [sp, #103]	; 0x67
    9bf4:	0699      	lsls	r1, r3, #26
    9bf6:	f53f aeb1 	bmi.w	995c <_vfprintf_r+0x568>
    9bfa:	9b06      	ldr	r3, [sp, #24]
    9bfc:	06da      	lsls	r2, r3, #27
    9bfe:	f140 83f1 	bpl.w	a3e4 <_vfprintf_r+0xff0>
    9c02:	9a0c      	ldr	r2, [sp, #48]	; 0x30
    9c04:	2700      	movs	r7, #0
    9c06:	4613      	mov	r3, r2
    9c08:	3304      	adds	r3, #4
    9c0a:	6816      	ldr	r6, [r2, #0]
    9c0c:	930c      	str	r3, [sp, #48]	; 0x30
    9c0e:	e6ae      	b.n	996e <_vfprintf_r+0x57a>
    9c10:	980c      	ldr	r0, [sp, #48]	; 0x30
    9c12:	9308      	str	r3, [sp, #32]
    9c14:	6802      	ldr	r2, [r0, #0]
    9c16:	2300      	movs	r3, #0
    9c18:	f88d 2090 	strb.w	r2, [sp, #144]	; 0x90
    9c1c:	4602      	mov	r2, r0
    9c1e:	2101      	movs	r1, #1
    9c20:	469c      	mov	ip, r3
    9c22:	3204      	adds	r2, #4
    9c24:	f88d 3067 	strb.w	r3, [sp, #103]	; 0x67
    9c28:	930f      	str	r3, [sp, #60]	; 0x3c
    9c2a:	9310      	str	r3, [sp, #64]	; 0x40
    9c2c:	ab24      	add	r3, sp, #144	; 0x90
    9c2e:	9107      	str	r1, [sp, #28]
    9c30:	920c      	str	r2, [sp, #48]	; 0x30
    9c32:	910b      	str	r1, [sp, #44]	; 0x2c
    9c34:	930e      	str	r3, [sp, #56]	; 0x38
    9c36:	e53c      	b.n	96b2 <_vfprintf_r+0x2be>
    9c38:	9308      	str	r3, [sp, #32]
    9c3a:	9b06      	ldr	r3, [sp, #24]
    9c3c:	46b2      	mov	sl, r6
    9c3e:	f043 0310 	orr.w	r3, r3, #16
    9c42:	9306      	str	r3, [sp, #24]
    9c44:	9b06      	ldr	r3, [sp, #24]
    9c46:	069e      	lsls	r6, r3, #26
    9c48:	f53f ace9 	bmi.w	961e <_vfprintf_r+0x22a>
    9c4c:	9b06      	ldr	r3, [sp, #24]
    9c4e:	06d8      	lsls	r0, r3, #27
    9c50:	f140 83ba 	bpl.w	a3c8 <_vfprintf_r+0xfd4>
    9c54:	9a0c      	ldr	r2, [sp, #48]	; 0x30
    9c56:	4613      	mov	r3, r2
    9c58:	3204      	adds	r2, #4
    9c5a:	681e      	ldr	r6, [r3, #0]
    9c5c:	2700      	movs	r7, #0
    9c5e:	2301      	movs	r3, #1
    9c60:	920c      	str	r2, [sp, #48]	; 0x30
    9c62:	e4e6      	b.n	9632 <_vfprintf_r+0x23e>
    9c64:	9308      	str	r3, [sp, #32]
    9c66:	f88d 2067 	strb.w	r2, [sp, #103]	; 0x67
    9c6a:	2d00      	cmp	r5, #0
    9c6c:	f43f acbc 	beq.w	95e8 <_vfprintf_r+0x1f4>
    9c70:	2300      	movs	r3, #0
    9c72:	2201      	movs	r2, #1
    9c74:	469c      	mov	ip, r3
    9c76:	f88d 3067 	strb.w	r3, [sp, #103]	; 0x67
    9c7a:	930f      	str	r3, [sp, #60]	; 0x3c
    9c7c:	9310      	str	r3, [sp, #64]	; 0x40
    9c7e:	ab24      	add	r3, sp, #144	; 0x90
    9c80:	9207      	str	r2, [sp, #28]
    9c82:	f88d 5090 	strb.w	r5, [sp, #144]	; 0x90
    9c86:	920b      	str	r2, [sp, #44]	; 0x2c
    9c88:	930e      	str	r3, [sp, #56]	; 0x38
    9c8a:	e512      	b.n	96b2 <_vfprintf_r+0x2be>
    9c8c:	4640      	mov	r0, r8
    9c8e:	4649      	mov	r1, r9
    9c90:	aa21      	add	r2, sp, #132	; 0x84
    9c92:	f003 f869 	bl	cd68 <__sprint_r>
    9c96:	2800      	cmp	r0, #0
    9c98:	f47f acad 	bne.w	95f6 <_vfprintf_r+0x202>
    9c9c:	f89d c067 	ldrb.w	ip, [sp, #103]	; 0x67
    9ca0:	ac2e      	add	r4, sp, #184	; 0xb8
    9ca2:	f8dd b08c 	ldr.w	fp, [sp, #140]	; 0x8c
    9ca6:	e550      	b.n	974a <_vfprintf_r+0x356>
    9ca8:	2b01      	cmp	r3, #1
    9caa:	f47f acda 	bne.w	9662 <_vfprintf_r+0x26e>
    9cae:	2f00      	cmp	r7, #0
    9cb0:	bf08      	it	eq
    9cb2:	2e0a      	cmpeq	r6, #10
    9cb4:	f080 81e4 	bcs.w	a080 <_vfprintf_r+0xc8c>
    9cb8:	f10d 0bf8 	add.w	fp, sp, #248	; 0xf8
    9cbc:	3630      	adds	r6, #48	; 0x30
    9cbe:	f80b 6d41 	strb.w	r6, [fp, #-65]!
    9cc2:	ab2e      	add	r3, sp, #184	; 0xb8
    9cc4:	ebcb 0303 	rsb	r3, fp, r3
    9cc8:	930b      	str	r3, [sp, #44]	; 0x2c
    9cca:	f8cd b038 	str.w	fp, [sp, #56]	; 0x38
    9cce:	e4e2      	b.n	9696 <_vfprintf_r+0x2a2>
    9cd0:	0000f438 	.word	0x0000f438
    9cd4:	0000f418 	.word	0x0000f418
    9cd8:	0000f414 	.word	0x0000f414
    9cdc:	0000f424 	.word	0x0000f424
    9ce0:	2d65      	cmp	r5, #101	; 0x65
    9ce2:	f340 808a 	ble.w	9dfa <_vfprintf_r+0xa06>
    9ce6:	9812      	ldr	r0, [sp, #72]	; 0x48
    9ce8:	9913      	ldr	r1, [sp, #76]	; 0x4c
    9cea:	2200      	movs	r2, #0
    9cec:	2300      	movs	r3, #0
    9cee:	f005 f849 	bl	ed84 <__aeabi_dcmpeq>
    9cf2:	2800      	cmp	r0, #0
    9cf4:	f000 8149 	beq.w	9f8a <_vfprintf_r+0xb96>
    9cf8:	9b22      	ldr	r3, [sp, #136]	; 0x88
    9cfa:	49ba      	ldr	r1, [pc, #744]	; (9fe4 <_vfprintf_r+0xbf0>)
    9cfc:	3301      	adds	r3, #1
    9cfe:	f10b 0b01 	add.w	fp, fp, #1
    9d02:	2201      	movs	r2, #1
    9d04:	2b07      	cmp	r3, #7
    9d06:	f8cd b08c 	str.w	fp, [sp, #140]	; 0x8c
    9d0a:	9322      	str	r3, [sp, #136]	; 0x88
    9d0c:	e884 0006 	stmia.w	r4, {r1, r2}
    9d10:	f300 8385 	bgt.w	a41e <_vfprintf_r+0x102a>
    9d14:	3408      	adds	r4, #8
    9d16:	9b1b      	ldr	r3, [sp, #108]	; 0x6c
    9d18:	9a11      	ldr	r2, [sp, #68]	; 0x44
    9d1a:	4293      	cmp	r3, r2
    9d1c:	db03      	blt.n	9d26 <_vfprintf_r+0x932>
    9d1e:	9b06      	ldr	r3, [sp, #24]
    9d20:	07df      	lsls	r7, r3, #31
    9d22:	f57f ad85 	bpl.w	9830 <_vfprintf_r+0x43c>
    9d26:	9b22      	ldr	r3, [sp, #136]	; 0x88
    9d28:	9916      	ldr	r1, [sp, #88]	; 0x58
    9d2a:	3301      	adds	r3, #1
    9d2c:	9a15      	ldr	r2, [sp, #84]	; 0x54
    9d2e:	448b      	add	fp, r1
    9d30:	2b07      	cmp	r3, #7
    9d32:	f8cd b08c 	str.w	fp, [sp, #140]	; 0x8c
    9d36:	6022      	str	r2, [r4, #0]
    9d38:	6061      	str	r1, [r4, #4]
    9d3a:	9322      	str	r3, [sp, #136]	; 0x88
    9d3c:	f300 83f4 	bgt.w	a528 <_vfprintf_r+0x1134>
    9d40:	3408      	adds	r4, #8
    9d42:	9b11      	ldr	r3, [sp, #68]	; 0x44
    9d44:	1e5d      	subs	r5, r3, #1
    9d46:	2d00      	cmp	r5, #0
    9d48:	f77f ad72 	ble.w	9830 <_vfprintf_r+0x43c>
    9d4c:	2d10      	cmp	r5, #16
    9d4e:	9b22      	ldr	r3, [sp, #136]	; 0x88
    9d50:	4fa5      	ldr	r7, [pc, #660]	; (9fe8 <_vfprintf_r+0xbf4>)
    9d52:	f340 80e2 	ble.w	9f1a <_vfprintf_r+0xb26>
    9d56:	2610      	movs	r6, #16
    9d58:	465a      	mov	r2, fp
    9d5a:	e004      	b.n	9d66 <_vfprintf_r+0x972>
    9d5c:	3408      	adds	r4, #8
    9d5e:	3d10      	subs	r5, #16
    9d60:	2d10      	cmp	r5, #16
    9d62:	f340 80d9 	ble.w	9f18 <_vfprintf_r+0xb24>
    9d66:	3301      	adds	r3, #1
    9d68:	3210      	adds	r2, #16
    9d6a:	2b07      	cmp	r3, #7
    9d6c:	9223      	str	r2, [sp, #140]	; 0x8c
    9d6e:	9322      	str	r3, [sp, #136]	; 0x88
    9d70:	6027      	str	r7, [r4, #0]
    9d72:	6066      	str	r6, [r4, #4]
    9d74:	ddf2      	ble.n	9d5c <_vfprintf_r+0x968>
    9d76:	4640      	mov	r0, r8
    9d78:	4649      	mov	r1, r9
    9d7a:	aa21      	add	r2, sp, #132	; 0x84
    9d7c:	f002 fff4 	bl	cd68 <__sprint_r>
    9d80:	2800      	cmp	r0, #0
    9d82:	f47f ac38 	bne.w	95f6 <_vfprintf_r+0x202>
    9d86:	ac2e      	add	r4, sp, #184	; 0xb8
    9d88:	9a23      	ldr	r2, [sp, #140]	; 0x8c
    9d8a:	9b22      	ldr	r3, [sp, #136]	; 0x88
    9d8c:	e7e7      	b.n	9d5e <_vfprintf_r+0x96a>
    9d8e:	9b0a      	ldr	r3, [sp, #40]	; 0x28
    9d90:	9a07      	ldr	r2, [sp, #28]
    9d92:	1a9e      	subs	r6, r3, r2
    9d94:	2e00      	cmp	r6, #0
    9d96:	f77f acff 	ble.w	9798 <_vfprintf_r+0x3a4>
    9d9a:	2e10      	cmp	r6, #16
    9d9c:	9a22      	ldr	r2, [sp, #136]	; 0x88
    9d9e:	4f92      	ldr	r7, [pc, #584]	; (9fe8 <_vfprintf_r+0xbf4>)
    9da0:	dd1f      	ble.n	9de2 <_vfprintf_r+0x9ee>
    9da2:	f04f 0a10 	mov.w	sl, #16
    9da6:	465b      	mov	r3, fp
    9da8:	e004      	b.n	9db4 <_vfprintf_r+0x9c0>
    9daa:	3e10      	subs	r6, #16
    9dac:	2e10      	cmp	r6, #16
    9dae:	f104 0408 	add.w	r4, r4, #8
    9db2:	dd15      	ble.n	9de0 <_vfprintf_r+0x9ec>
    9db4:	3201      	adds	r2, #1
    9db6:	3310      	adds	r3, #16
    9db8:	2a07      	cmp	r2, #7
    9dba:	9323      	str	r3, [sp, #140]	; 0x8c
    9dbc:	9222      	str	r2, [sp, #136]	; 0x88
    9dbe:	e884 0480 	stmia.w	r4, {r7, sl}
    9dc2:	ddf2      	ble.n	9daa <_vfprintf_r+0x9b6>
    9dc4:	4640      	mov	r0, r8
    9dc6:	4649      	mov	r1, r9
    9dc8:	aa21      	add	r2, sp, #132	; 0x84
    9dca:	f002 ffcd 	bl	cd68 <__sprint_r>
    9dce:	2800      	cmp	r0, #0
    9dd0:	f47f ac11 	bne.w	95f6 <_vfprintf_r+0x202>
    9dd4:	3e10      	subs	r6, #16
    9dd6:	2e10      	cmp	r6, #16
    9dd8:	ac2e      	add	r4, sp, #184	; 0xb8
    9dda:	9b23      	ldr	r3, [sp, #140]	; 0x8c
    9ddc:	9a22      	ldr	r2, [sp, #136]	; 0x88
    9dde:	dce9      	bgt.n	9db4 <_vfprintf_r+0x9c0>
    9de0:	469b      	mov	fp, r3
    9de2:	3201      	adds	r2, #1
    9de4:	44b3      	add	fp, r6
    9de6:	2a07      	cmp	r2, #7
    9de8:	f8cd b08c 	str.w	fp, [sp, #140]	; 0x8c
    9dec:	9222      	str	r2, [sp, #136]	; 0x88
    9dee:	6027      	str	r7, [r4, #0]
    9df0:	6066      	str	r6, [r4, #4]
    9df2:	f300 8218 	bgt.w	a226 <_vfprintf_r+0xe32>
    9df6:	3408      	adds	r4, #8
    9df8:	e4ce      	b.n	9798 <_vfprintf_r+0x3a4>
    9dfa:	9b11      	ldr	r3, [sp, #68]	; 0x44
    9dfc:	9d22      	ldr	r5, [sp, #136]	; 0x88
    9dfe:	2b01      	cmp	r3, #1
    9e00:	f10b 0601 	add.w	r6, fp, #1
    9e04:	f105 0501 	add.w	r5, r5, #1
    9e08:	f340 81c7 	ble.w	a19a <_vfprintf_r+0xda6>
    9e0c:	9a0e      	ldr	r2, [sp, #56]	; 0x38
    9e0e:	2301      	movs	r3, #1
    9e10:	2d07      	cmp	r5, #7
    9e12:	9623      	str	r6, [sp, #140]	; 0x8c
    9e14:	6022      	str	r2, [r4, #0]
    9e16:	9522      	str	r5, [sp, #136]	; 0x88
    9e18:	6063      	str	r3, [r4, #4]
    9e1a:	f300 81d7 	bgt.w	a1cc <_vfprintf_r+0xdd8>
    9e1e:	3408      	adds	r4, #8
    9e20:	9a16      	ldr	r2, [sp, #88]	; 0x58
    9e22:	3501      	adds	r5, #1
    9e24:	9b15      	ldr	r3, [sp, #84]	; 0x54
    9e26:	4416      	add	r6, r2
    9e28:	2d07      	cmp	r5, #7
    9e2a:	9623      	str	r6, [sp, #140]	; 0x8c
    9e2c:	9522      	str	r5, [sp, #136]	; 0x88
    9e2e:	6023      	str	r3, [r4, #0]
    9e30:	6062      	str	r2, [r4, #4]
    9e32:	f300 81d7 	bgt.w	a1e4 <_vfprintf_r+0xdf0>
    9e36:	3408      	adds	r4, #8
    9e38:	2300      	movs	r3, #0
    9e3a:	9812      	ldr	r0, [sp, #72]	; 0x48
    9e3c:	9913      	ldr	r1, [sp, #76]	; 0x4c
    9e3e:	2200      	movs	r2, #0
    9e40:	f004 ffa0 	bl	ed84 <__aeabi_dcmpeq>
    9e44:	9b11      	ldr	r3, [sp, #68]	; 0x44
    9e46:	2800      	cmp	r0, #0
    9e48:	f040 80f1 	bne.w	a02e <_vfprintf_r+0xc3a>
    9e4c:	9a0e      	ldr	r2, [sp, #56]	; 0x38
    9e4e:	3b01      	subs	r3, #1
    9e50:	3501      	adds	r5, #1
    9e52:	3201      	adds	r2, #1
    9e54:	441e      	add	r6, r3
    9e56:	2d07      	cmp	r5, #7
    9e58:	6022      	str	r2, [r4, #0]
    9e5a:	9522      	str	r5, [sp, #136]	; 0x88
    9e5c:	9623      	str	r6, [sp, #140]	; 0x8c
    9e5e:	6063      	str	r3, [r4, #4]
    9e60:	f300 81d5 	bgt.w	a20e <_vfprintf_r+0xe1a>
    9e64:	3408      	adds	r4, #8
    9e66:	9a17      	ldr	r2, [sp, #92]	; 0x5c
    9e68:	3501      	adds	r5, #1
    9e6a:	eb06 0b02 	add.w	fp, r6, r2
    9e6e:	ab1d      	add	r3, sp, #116	; 0x74
    9e70:	2d07      	cmp	r5, #7
    9e72:	f8cd b08c 	str.w	fp, [sp, #140]	; 0x8c
    9e76:	9522      	str	r5, [sp, #136]	; 0x88
    9e78:	6062      	str	r2, [r4, #4]
    9e7a:	6023      	str	r3, [r4, #0]
    9e7c:	f77f acd7 	ble.w	982e <_vfprintf_r+0x43a>
    9e80:	4640      	mov	r0, r8
    9e82:	4649      	mov	r1, r9
    9e84:	aa21      	add	r2, sp, #132	; 0x84
    9e86:	f002 ff6f 	bl	cd68 <__sprint_r>
    9e8a:	2800      	cmp	r0, #0
    9e8c:	f47f abb3 	bne.w	95f6 <_vfprintf_r+0x202>
    9e90:	ac2e      	add	r4, sp, #184	; 0xb8
    9e92:	f8dd b08c 	ldr.w	fp, [sp, #140]	; 0x8c
    9e96:	e4cb      	b.n	9830 <_vfprintf_r+0x43c>
    9e98:	4640      	mov	r0, r8
    9e9a:	4649      	mov	r1, r9
    9e9c:	aa21      	add	r2, sp, #132	; 0x84
    9e9e:	f002 ff63 	bl	cd68 <__sprint_r>
    9ea2:	2800      	cmp	r0, #0
    9ea4:	f43f ad0e 	beq.w	98c4 <_vfprintf_r+0x4d0>
    9ea8:	f7ff bba5 	b.w	95f6 <_vfprintf_r+0x202>
    9eac:	2b00      	cmp	r3, #0
    9eae:	d14a      	bne.n	9f46 <_vfprintf_r+0xb52>
    9eb0:	9b06      	ldr	r3, [sp, #24]
    9eb2:	07da      	lsls	r2, r3, #31
    9eb4:	d547      	bpl.n	9f46 <_vfprintf_r+0xb52>
    9eb6:	f10d 0bf8 	add.w	fp, sp, #248	; 0xf8
    9eba:	2330      	movs	r3, #48	; 0x30
    9ebc:	f80b 3d41 	strb.w	r3, [fp, #-65]!
    9ec0:	ab2e      	add	r3, sp, #184	; 0xb8
    9ec2:	ebcb 0303 	rsb	r3, fp, r3
    9ec6:	930b      	str	r3, [sp, #44]	; 0x2c
    9ec8:	f8cd b038 	str.w	fp, [sp, #56]	; 0x38
    9ecc:	f7ff bbe3 	b.w	9696 <_vfprintf_r+0x2a2>
    9ed0:	4640      	mov	r0, r8
    9ed2:	4649      	mov	r1, r9
    9ed4:	aa21      	add	r2, sp, #132	; 0x84
    9ed6:	f002 ff47 	bl	cd68 <__sprint_r>
    9eda:	2800      	cmp	r0, #0
    9edc:	f47f ab8b 	bne.w	95f6 <_vfprintf_r+0x202>
    9ee0:	ac2e      	add	r4, sp, #184	; 0xb8
    9ee2:	f8dd b08c 	ldr.w	fp, [sp, #140]	; 0x8c
    9ee6:	e491      	b.n	980c <_vfprintf_r+0x418>
    9ee8:	4640      	mov	r0, r8
    9eea:	4649      	mov	r1, r9
    9eec:	aa21      	add	r2, sp, #132	; 0x84
    9eee:	f002 ff3b 	bl	cd68 <__sprint_r>
    9ef2:	2800      	cmp	r0, #0
    9ef4:	f47f ab7f 	bne.w	95f6 <_vfprintf_r+0x202>
    9ef8:	ac2e      	add	r4, sp, #184	; 0xb8
    9efa:	f8dd b08c 	ldr.w	fp, [sp, #140]	; 0x8c
    9efe:	e437      	b.n	9770 <_vfprintf_r+0x37c>
    9f00:	4640      	mov	r0, r8
    9f02:	4649      	mov	r1, r9
    9f04:	aa21      	add	r2, sp, #132	; 0x84
    9f06:	f002 ff2f 	bl	cd68 <__sprint_r>
    9f0a:	2800      	cmp	r0, #0
    9f0c:	f47f ab73 	bne.w	95f6 <_vfprintf_r+0x202>
    9f10:	ac2e      	add	r4, sp, #184	; 0xb8
    9f12:	f8dd b08c 	ldr.w	fp, [sp, #140]	; 0x8c
    9f16:	e43c      	b.n	9792 <_vfprintf_r+0x39e>
    9f18:	4693      	mov	fp, r2
    9f1a:	3301      	adds	r3, #1
    9f1c:	44ab      	add	fp, r5
    9f1e:	2b07      	cmp	r3, #7
    9f20:	f8cd b08c 	str.w	fp, [sp, #140]	; 0x8c
    9f24:	9322      	str	r3, [sp, #136]	; 0x88
    9f26:	6027      	str	r7, [r4, #0]
    9f28:	6065      	str	r5, [r4, #4]
    9f2a:	f77f ac80 	ble.w	982e <_vfprintf_r+0x43a>
    9f2e:	4640      	mov	r0, r8
    9f30:	4649      	mov	r1, r9
    9f32:	aa21      	add	r2, sp, #132	; 0x84
    9f34:	f002 ff18 	bl	cd68 <__sprint_r>
    9f38:	2800      	cmp	r0, #0
    9f3a:	f47f ab5c 	bne.w	95f6 <_vfprintf_r+0x202>
    9f3e:	f8dd b08c 	ldr.w	fp, [sp, #140]	; 0x8c
    9f42:	ac2e      	add	r4, sp, #184	; 0xb8
    9f44:	e474      	b.n	9830 <_vfprintf_r+0x43c>
    9f46:	ab2e      	add	r3, sp, #184	; 0xb8
    9f48:	f8cd a02c 	str.w	sl, [sp, #44]	; 0x2c
    9f4c:	930e      	str	r3, [sp, #56]	; 0x38
    9f4e:	f7ff bba2 	b.w	9696 <_vfprintf_r+0x2a2>
    9f52:	9814      	ldr	r0, [sp, #80]	; 0x50
    9f54:	f10d 0bb8 	add.w	fp, sp, #184	; 0xb8
    9f58:	0933      	lsrs	r3, r6, #4
    9f5a:	ea43 7307 	orr.w	r3, r3, r7, lsl #28
    9f5e:	0939      	lsrs	r1, r7, #4
    9f60:	f006 020f 	and.w	r2, r6, #15
    9f64:	460f      	mov	r7, r1
    9f66:	461e      	mov	r6, r3
    9f68:	5c83      	ldrb	r3, [r0, r2]
    9f6a:	f80b 3d01 	strb.w	r3, [fp, #-1]!
    9f6e:	ea56 0307 	orrs.w	r3, r6, r7
    9f72:	d1f1      	bne.n	9f58 <_vfprintf_r+0xb64>
    9f74:	465a      	mov	r2, fp
    9f76:	ab2e      	add	r3, sp, #184	; 0xb8
    9f78:	1a9b      	subs	r3, r3, r2
    9f7a:	f8cd b038 	str.w	fp, [sp, #56]	; 0x38
    9f7e:	930b      	str	r3, [sp, #44]	; 0x2c
    9f80:	f7ff bb89 	b.w	9696 <_vfprintf_r+0x2a2>
    9f84:	2302      	movs	r3, #2
    9f86:	f7ff bb54 	b.w	9632 <_vfprintf_r+0x23e>
    9f8a:	9d1b      	ldr	r5, [sp, #108]	; 0x6c
    9f8c:	2d00      	cmp	r5, #0
    9f8e:	f340 8252 	ble.w	a436 <_vfprintf_r+0x1042>
    9f92:	9a11      	ldr	r2, [sp, #68]	; 0x44
    9f94:	9910      	ldr	r1, [sp, #64]	; 0x40
    9f96:	4613      	mov	r3, r2
    9f98:	428a      	cmp	r2, r1
    9f9a:	bfa8      	it	ge
    9f9c:	460b      	movge	r3, r1
    9f9e:	461d      	mov	r5, r3
    9fa0:	990e      	ldr	r1, [sp, #56]	; 0x38
    9fa2:	2d00      	cmp	r5, #0
    9fa4:	eb01 0a02 	add.w	sl, r1, r2
    9fa8:	dd0c      	ble.n	9fc4 <_vfprintf_r+0xbd0>
    9faa:	460a      	mov	r2, r1
    9fac:	9b22      	ldr	r3, [sp, #136]	; 0x88
    9fae:	44ab      	add	fp, r5
    9fb0:	3301      	adds	r3, #1
    9fb2:	2b07      	cmp	r3, #7
    9fb4:	f8cd b08c 	str.w	fp, [sp, #140]	; 0x8c
    9fb8:	e884 0024 	stmia.w	r4, {r2, r5}
    9fbc:	9322      	str	r3, [sp, #136]	; 0x88
    9fbe:	f300 8305 	bgt.w	a5cc <_vfprintf_r+0x11d8>
    9fc2:	3408      	adds	r4, #8
    9fc4:	9b10      	ldr	r3, [sp, #64]	; 0x40
    9fc6:	2d00      	cmp	r5, #0
    9fc8:	bfa8      	it	ge
    9fca:	1b5b      	subge	r3, r3, r5
    9fcc:	2b00      	cmp	r3, #0
    9fce:	461d      	mov	r5, r3
    9fd0:	f340 808b 	ble.w	a0ea <_vfprintf_r+0xcf6>
    9fd4:	2d10      	cmp	r5, #16
    9fd6:	9b22      	ldr	r3, [sp, #136]	; 0x88
    9fd8:	4f03      	ldr	r7, [pc, #12]	; (9fe8 <_vfprintf_r+0xbf4>)
    9fda:	f340 8214 	ble.w	a406 <_vfprintf_r+0x1012>
    9fde:	2610      	movs	r6, #16
    9fe0:	465a      	mov	r2, fp
    9fe2:	e008      	b.n	9ff6 <_vfprintf_r+0xc02>
    9fe4:	0000f454 	.word	0x0000f454
    9fe8:	0000f404 	.word	0x0000f404
    9fec:	3408      	adds	r4, #8
    9fee:	3d10      	subs	r5, #16
    9ff0:	2d10      	cmp	r5, #16
    9ff2:	f340 8207 	ble.w	a404 <_vfprintf_r+0x1010>
    9ff6:	3301      	adds	r3, #1
    9ff8:	3210      	adds	r2, #16
    9ffa:	2b07      	cmp	r3, #7
    9ffc:	9223      	str	r2, [sp, #140]	; 0x8c
    9ffe:	9322      	str	r3, [sp, #136]	; 0x88
    a000:	6027      	str	r7, [r4, #0]
    a002:	6066      	str	r6, [r4, #4]
    a004:	ddf2      	ble.n	9fec <_vfprintf_r+0xbf8>
    a006:	4640      	mov	r0, r8
    a008:	4649      	mov	r1, r9
    a00a:	aa21      	add	r2, sp, #132	; 0x84
    a00c:	f002 feac 	bl	cd68 <__sprint_r>
    a010:	2800      	cmp	r0, #0
    a012:	f47f aaf0 	bne.w	95f6 <_vfprintf_r+0x202>
    a016:	ac2e      	add	r4, sp, #184	; 0xb8
    a018:	9a23      	ldr	r2, [sp, #140]	; 0x8c
    a01a:	9b22      	ldr	r3, [sp, #136]	; 0x88
    a01c:	e7e7      	b.n	9fee <_vfprintf_r+0xbfa>
    a01e:	990c      	ldr	r1, [sp, #48]	; 0x30
    a020:	2700      	movs	r7, #0
    a022:	460a      	mov	r2, r1
    a024:	3204      	adds	r2, #4
    a026:	680e      	ldr	r6, [r1, #0]
    a028:	920c      	str	r2, [sp, #48]	; 0x30
    a02a:	f7ff bb02 	b.w	9632 <_vfprintf_r+0x23e>
    a02e:	f103 3aff 	add.w	sl, r3, #4294967295
    a032:	f1ba 0f00 	cmp.w	sl, #0
    a036:	f77f af16 	ble.w	9e66 <_vfprintf_r+0xa72>
    a03a:	f1ba 0f10 	cmp.w	sl, #16
    a03e:	4f86      	ldr	r7, [pc, #536]	; (a258 <_vfprintf_r+0xe64>)
    a040:	bfc8      	it	gt
    a042:	f04f 0b10 	movgt.w	fp, #16
    a046:	dc07      	bgt.n	a058 <_vfprintf_r+0xc64>
    a048:	e0d8      	b.n	a1fc <_vfprintf_r+0xe08>
    a04a:	3408      	adds	r4, #8
    a04c:	f1aa 0a10 	sub.w	sl, sl, #16
    a050:	f1ba 0f10 	cmp.w	sl, #16
    a054:	f340 80d2 	ble.w	a1fc <_vfprintf_r+0xe08>
    a058:	3501      	adds	r5, #1
    a05a:	3610      	adds	r6, #16
    a05c:	2d07      	cmp	r5, #7
    a05e:	9623      	str	r6, [sp, #140]	; 0x8c
    a060:	9522      	str	r5, [sp, #136]	; 0x88
    a062:	e884 0880 	stmia.w	r4, {r7, fp}
    a066:	ddf0      	ble.n	a04a <_vfprintf_r+0xc56>
    a068:	4640      	mov	r0, r8
    a06a:	4649      	mov	r1, r9
    a06c:	aa21      	add	r2, sp, #132	; 0x84
    a06e:	f002 fe7b 	bl	cd68 <__sprint_r>
    a072:	2800      	cmp	r0, #0
    a074:	f47f aabf 	bne.w	95f6 <_vfprintf_r+0x202>
    a078:	ac2e      	add	r4, sp, #184	; 0xb8
    a07a:	9e23      	ldr	r6, [sp, #140]	; 0x8c
    a07c:	9d22      	ldr	r5, [sp, #136]	; 0x88
    a07e:	e7e5      	b.n	a04c <_vfprintf_r+0xc58>
    a080:	f10d 0bb8 	add.w	fp, sp, #184	; 0xb8
    a084:	f8cd c01c 	str.w	ip, [sp, #28]
    a088:	4630      	mov	r0, r6
    a08a:	4639      	mov	r1, r7
    a08c:	220a      	movs	r2, #10
    a08e:	2300      	movs	r3, #0
    a090:	f004 fed2 	bl	ee38 <__aeabi_uldivmod>
    a094:	3230      	adds	r2, #48	; 0x30
    a096:	4630      	mov	r0, r6
    a098:	4639      	mov	r1, r7
    a09a:	f80b 2d01 	strb.w	r2, [fp, #-1]!
    a09e:	2300      	movs	r3, #0
    a0a0:	220a      	movs	r2, #10
    a0a2:	f004 fec9 	bl	ee38 <__aeabi_uldivmod>
    a0a6:	4606      	mov	r6, r0
    a0a8:	460f      	mov	r7, r1
    a0aa:	ea56 0307 	orrs.w	r3, r6, r7
    a0ae:	d1eb      	bne.n	a088 <_vfprintf_r+0xc94>
    a0b0:	f8dd c01c 	ldr.w	ip, [sp, #28]
    a0b4:	e75e      	b.n	9f74 <_vfprintf_r+0xb80>
    a0b6:	2b30      	cmp	r3, #48	; 0x30
    a0b8:	f000 8242 	beq.w	a540 <_vfprintf_r+0x114c>
    a0bc:	9b0e      	ldr	r3, [sp, #56]	; 0x38
    a0be:	a82e      	add	r0, sp, #184	; 0xb8
    a0c0:	3b01      	subs	r3, #1
    a0c2:	461a      	mov	r2, r3
    a0c4:	930e      	str	r3, [sp, #56]	; 0x38
    a0c6:	1a82      	subs	r2, r0, r2
    a0c8:	2330      	movs	r3, #48	; 0x30
    a0ca:	920b      	str	r2, [sp, #44]	; 0x2c
    a0cc:	f801 3c01 	strb.w	r3, [r1, #-1]
    a0d0:	f7ff bae1 	b.w	9696 <_vfprintf_r+0x2a2>
    a0d4:	4640      	mov	r0, r8
    a0d6:	4649      	mov	r1, r9
    a0d8:	aa21      	add	r2, sp, #132	; 0x84
    a0da:	f002 fe45 	bl	cd68 <__sprint_r>
    a0de:	2800      	cmp	r0, #0
    a0e0:	f47f aa89 	bne.w	95f6 <_vfprintf_r+0x202>
    a0e4:	f8dd b08c 	ldr.w	fp, [sp, #140]	; 0x8c
    a0e8:	ac2e      	add	r4, sp, #184	; 0xb8
    a0ea:	9a0e      	ldr	r2, [sp, #56]	; 0x38
    a0ec:	9910      	ldr	r1, [sp, #64]	; 0x40
    a0ee:	9b1b      	ldr	r3, [sp, #108]	; 0x6c
    a0f0:	440a      	add	r2, r1
    a0f2:	4616      	mov	r6, r2
    a0f4:	9a11      	ldr	r2, [sp, #68]	; 0x44
    a0f6:	4293      	cmp	r3, r2
    a0f8:	db40      	blt.n	a17c <_vfprintf_r+0xd88>
    a0fa:	9a06      	ldr	r2, [sp, #24]
    a0fc:	07d5      	lsls	r5, r2, #31
    a0fe:	d43d      	bmi.n	a17c <_vfprintf_r+0xd88>
    a100:	9a11      	ldr	r2, [sp, #68]	; 0x44
    a102:	ebc6 050a 	rsb	r5, r6, sl
    a106:	1ad3      	subs	r3, r2, r3
    a108:	429d      	cmp	r5, r3
    a10a:	bfa8      	it	ge
    a10c:	461d      	movge	r5, r3
    a10e:	2d00      	cmp	r5, #0
    a110:	462f      	mov	r7, r5
    a112:	dd0b      	ble.n	a12c <_vfprintf_r+0xd38>
    a114:	9a22      	ldr	r2, [sp, #136]	; 0x88
    a116:	44ab      	add	fp, r5
    a118:	3201      	adds	r2, #1
    a11a:	2a07      	cmp	r2, #7
    a11c:	f8cd b08c 	str.w	fp, [sp, #140]	; 0x8c
    a120:	e884 00c0 	stmia.w	r4, {r6, r7}
    a124:	9222      	str	r2, [sp, #136]	; 0x88
    a126:	f300 8287 	bgt.w	a638 <_vfprintf_r+0x1244>
    a12a:	3408      	adds	r4, #8
    a12c:	2f00      	cmp	r7, #0
    a12e:	bfb4      	ite	lt
    a130:	461d      	movlt	r5, r3
    a132:	1bdd      	subge	r5, r3, r7
    a134:	2d00      	cmp	r5, #0
    a136:	f77f ab7b 	ble.w	9830 <_vfprintf_r+0x43c>
    a13a:	2d10      	cmp	r5, #16
    a13c:	9b22      	ldr	r3, [sp, #136]	; 0x88
    a13e:	4f46      	ldr	r7, [pc, #280]	; (a258 <_vfprintf_r+0xe64>)
    a140:	f77f aeeb 	ble.w	9f1a <_vfprintf_r+0xb26>
    a144:	2610      	movs	r6, #16
    a146:	465a      	mov	r2, fp
    a148:	e004      	b.n	a154 <_vfprintf_r+0xd60>
    a14a:	3408      	adds	r4, #8
    a14c:	3d10      	subs	r5, #16
    a14e:	2d10      	cmp	r5, #16
    a150:	f77f aee2 	ble.w	9f18 <_vfprintf_r+0xb24>
    a154:	3301      	adds	r3, #1
    a156:	3210      	adds	r2, #16
    a158:	2b07      	cmp	r3, #7
    a15a:	9223      	str	r2, [sp, #140]	; 0x8c
    a15c:	9322      	str	r3, [sp, #136]	; 0x88
    a15e:	6027      	str	r7, [r4, #0]
    a160:	6066      	str	r6, [r4, #4]
    a162:	ddf2      	ble.n	a14a <_vfprintf_r+0xd56>
    a164:	4640      	mov	r0, r8
    a166:	4649      	mov	r1, r9
    a168:	aa21      	add	r2, sp, #132	; 0x84
    a16a:	f002 fdfd 	bl	cd68 <__sprint_r>
    a16e:	2800      	cmp	r0, #0
    a170:	f47f aa41 	bne.w	95f6 <_vfprintf_r+0x202>
    a174:	ac2e      	add	r4, sp, #184	; 0xb8
    a176:	9a23      	ldr	r2, [sp, #140]	; 0x8c
    a178:	9b22      	ldr	r3, [sp, #136]	; 0x88
    a17a:	e7e7      	b.n	a14c <_vfprintf_r+0xd58>
    a17c:	9a22      	ldr	r2, [sp, #136]	; 0x88
    a17e:	9816      	ldr	r0, [sp, #88]	; 0x58
    a180:	3201      	adds	r2, #1
    a182:	9915      	ldr	r1, [sp, #84]	; 0x54
    a184:	4483      	add	fp, r0
    a186:	2a07      	cmp	r2, #7
    a188:	f8cd b08c 	str.w	fp, [sp, #140]	; 0x8c
    a18c:	6021      	str	r1, [r4, #0]
    a18e:	6060      	str	r0, [r4, #4]
    a190:	9222      	str	r2, [sp, #136]	; 0x88
    a192:	f300 8231 	bgt.w	a5f8 <_vfprintf_r+0x1204>
    a196:	3408      	adds	r4, #8
    a198:	e7b2      	b.n	a100 <_vfprintf_r+0xd0c>
    a19a:	9b06      	ldr	r3, [sp, #24]
    a19c:	07d8      	lsls	r0, r3, #31
    a19e:	f53f ae35 	bmi.w	9e0c <_vfprintf_r+0xa18>
    a1a2:	9a0e      	ldr	r2, [sp, #56]	; 0x38
    a1a4:	2301      	movs	r3, #1
    a1a6:	2d07      	cmp	r5, #7
    a1a8:	9623      	str	r6, [sp, #140]	; 0x8c
    a1aa:	6022      	str	r2, [r4, #0]
    a1ac:	9522      	str	r5, [sp, #136]	; 0x88
    a1ae:	6063      	str	r3, [r4, #4]
    a1b0:	f77f ae58 	ble.w	9e64 <_vfprintf_r+0xa70>
    a1b4:	4640      	mov	r0, r8
    a1b6:	4649      	mov	r1, r9
    a1b8:	aa21      	add	r2, sp, #132	; 0x84
    a1ba:	f002 fdd5 	bl	cd68 <__sprint_r>
    a1be:	2800      	cmp	r0, #0
    a1c0:	f47f aa19 	bne.w	95f6 <_vfprintf_r+0x202>
    a1c4:	ac2e      	add	r4, sp, #184	; 0xb8
    a1c6:	9e23      	ldr	r6, [sp, #140]	; 0x8c
    a1c8:	9d22      	ldr	r5, [sp, #136]	; 0x88
    a1ca:	e64c      	b.n	9e66 <_vfprintf_r+0xa72>
    a1cc:	4640      	mov	r0, r8
    a1ce:	4649      	mov	r1, r9
    a1d0:	aa21      	add	r2, sp, #132	; 0x84
    a1d2:	f002 fdc9 	bl	cd68 <__sprint_r>
    a1d6:	2800      	cmp	r0, #0
    a1d8:	f47f aa0d 	bne.w	95f6 <_vfprintf_r+0x202>
    a1dc:	ac2e      	add	r4, sp, #184	; 0xb8
    a1de:	9e23      	ldr	r6, [sp, #140]	; 0x8c
    a1e0:	9d22      	ldr	r5, [sp, #136]	; 0x88
    a1e2:	e61d      	b.n	9e20 <_vfprintf_r+0xa2c>
    a1e4:	4640      	mov	r0, r8
    a1e6:	4649      	mov	r1, r9
    a1e8:	aa21      	add	r2, sp, #132	; 0x84
    a1ea:	f002 fdbd 	bl	cd68 <__sprint_r>
    a1ee:	2800      	cmp	r0, #0
    a1f0:	f47f aa01 	bne.w	95f6 <_vfprintf_r+0x202>
    a1f4:	ac2e      	add	r4, sp, #184	; 0xb8
    a1f6:	9e23      	ldr	r6, [sp, #140]	; 0x8c
    a1f8:	9d22      	ldr	r5, [sp, #136]	; 0x88
    a1fa:	e61d      	b.n	9e38 <_vfprintf_r+0xa44>
    a1fc:	3501      	adds	r5, #1
    a1fe:	4456      	add	r6, sl
    a200:	2d07      	cmp	r5, #7
    a202:	9623      	str	r6, [sp, #140]	; 0x8c
    a204:	9522      	str	r5, [sp, #136]	; 0x88
    a206:	e884 0480 	stmia.w	r4, {r7, sl}
    a20a:	f77f ae2b 	ble.w	9e64 <_vfprintf_r+0xa70>
    a20e:	4640      	mov	r0, r8
    a210:	4649      	mov	r1, r9
    a212:	aa21      	add	r2, sp, #132	; 0x84
    a214:	f002 fda8 	bl	cd68 <__sprint_r>
    a218:	2800      	cmp	r0, #0
    a21a:	f47f a9ec 	bne.w	95f6 <_vfprintf_r+0x202>
    a21e:	9e23      	ldr	r6, [sp, #140]	; 0x8c
    a220:	9d22      	ldr	r5, [sp, #136]	; 0x88
    a222:	ac2e      	add	r4, sp, #184	; 0xb8
    a224:	e61f      	b.n	9e66 <_vfprintf_r+0xa72>
    a226:	4640      	mov	r0, r8
    a228:	4649      	mov	r1, r9
    a22a:	aa21      	add	r2, sp, #132	; 0x84
    a22c:	f002 fd9c 	bl	cd68 <__sprint_r>
    a230:	2800      	cmp	r0, #0
    a232:	f47f a9e0 	bne.w	95f6 <_vfprintf_r+0x202>
    a236:	ac2e      	add	r4, sp, #184	; 0xb8
    a238:	f8dd b08c 	ldr.w	fp, [sp, #140]	; 0x8c
    a23c:	f7ff baac 	b.w	9798 <_vfprintf_r+0x3a4>
    a240:	f04f 0c2d 	mov.w	ip, #45	; 0x2d
    a244:	4276      	negs	r6, r6
    a246:	eb67 0747 	sbc.w	r7, r7, r7, lsl #1
    a24a:	f88d c067 	strb.w	ip, [sp, #103]	; 0x67
    a24e:	f8cd a03c 	str.w	sl, [sp, #60]	; 0x3c
    a252:	2301      	movs	r3, #1
    a254:	f7ff b9f3 	b.w	963e <_vfprintf_r+0x24a>
    a258:	0000f404 	.word	0x0000f404
    a25c:	f002 fc3e 	bl	cadc <__fpclassifyd>
    a260:	2800      	cmp	r0, #0
    a262:	f000 812d 	beq.w	a4c0 <_vfprintf_r+0x10cc>
    a266:	f025 0320 	bic.w	r3, r5, #32
    a26a:	f1ba 3fff 	cmp.w	sl, #4294967295
    a26e:	930b      	str	r3, [sp, #44]	; 0x2c
    a270:	f000 8278 	beq.w	a764 <_vfprintf_r+0x1370>
    a274:	2b47      	cmp	r3, #71	; 0x47
    a276:	d105      	bne.n	a284 <_vfprintf_r+0xe90>
    a278:	f1ba 0f00 	cmp.w	sl, #0
    a27c:	bf14      	ite	ne
    a27e:	46d3      	movne	fp, sl
    a280:	f04f 0b01 	moveq.w	fp, #1
    a284:	9b06      	ldr	r3, [sp, #24]
    a286:	f443 7380 	orr.w	r3, r3, #256	; 0x100
    a28a:	930f      	str	r3, [sp, #60]	; 0x3c
    a28c:	9b13      	ldr	r3, [sp, #76]	; 0x4c
    a28e:	f1b3 0a00 	subs.w	sl, r3, #0
    a292:	9b12      	ldr	r3, [sp, #72]	; 0x48
    a294:	9307      	str	r3, [sp, #28]
    a296:	bfb7      	itett	lt
    a298:	4653      	movlt	r3, sl
    a29a:	2300      	movge	r3, #0
    a29c:	f103 4a00 	addlt.w	sl, r3, #2147483648	; 0x80000000
    a2a0:	232d      	movlt	r3, #45	; 0x2d
    a2a2:	2d66      	cmp	r5, #102	; 0x66
    a2a4:	930d      	str	r3, [sp, #52]	; 0x34
    a2a6:	f000 8173 	beq.w	a590 <_vfprintf_r+0x119c>
    a2aa:	2d46      	cmp	r5, #70	; 0x46
    a2ac:	f000 8170 	beq.w	a590 <_vfprintf_r+0x119c>
    a2b0:	9b0b      	ldr	r3, [sp, #44]	; 0x2c
    a2b2:	2002      	movs	r0, #2
    a2b4:	2b45      	cmp	r3, #69	; 0x45
    a2b6:	bf14      	ite	ne
    a2b8:	465f      	movne	r7, fp
    a2ba:	f10b 0701 	addeq.w	r7, fp, #1
    a2be:	a91b      	add	r1, sp, #108	; 0x6c
    a2c0:	e88d 0081 	stmia.w	sp, {r0, r7}
    a2c4:	9102      	str	r1, [sp, #8]
    a2c6:	a81c      	add	r0, sp, #112	; 0x70
    a2c8:	a91f      	add	r1, sp, #124	; 0x7c
    a2ca:	9003      	str	r0, [sp, #12]
    a2cc:	9a07      	ldr	r2, [sp, #28]
    a2ce:	4653      	mov	r3, sl
    a2d0:	9104      	str	r1, [sp, #16]
    a2d2:	4640      	mov	r0, r8
    a2d4:	f000 fc1c 	bl	ab10 <_dtoa_r>
    a2d8:	2d67      	cmp	r5, #103	; 0x67
    a2da:	900e      	str	r0, [sp, #56]	; 0x38
    a2dc:	d002      	beq.n	a2e4 <_vfprintf_r+0xef0>
    a2de:	2d47      	cmp	r5, #71	; 0x47
    a2e0:	f040 8166 	bne.w	a5b0 <_vfprintf_r+0x11bc>
    a2e4:	9b06      	ldr	r3, [sp, #24]
    a2e6:	07db      	lsls	r3, r3, #31
    a2e8:	f140 8259 	bpl.w	a79e <_vfprintf_r+0x13aa>
    a2ec:	9b0e      	ldr	r3, [sp, #56]	; 0x38
    a2ee:	19de      	adds	r6, r3, r7
    a2f0:	9807      	ldr	r0, [sp, #28]
    a2f2:	4651      	mov	r1, sl
    a2f4:	2200      	movs	r2, #0
    a2f6:	2300      	movs	r3, #0
    a2f8:	f004 fd44 	bl	ed84 <__aeabi_dcmpeq>
    a2fc:	2800      	cmp	r0, #0
    a2fe:	f040 81c2 	bne.w	a686 <_vfprintf_r+0x1292>
    a302:	9b1f      	ldr	r3, [sp, #124]	; 0x7c
    a304:	429e      	cmp	r6, r3
    a306:	d906      	bls.n	a316 <_vfprintf_r+0xf22>
    a308:	2130      	movs	r1, #48	; 0x30
    a30a:	1c5a      	adds	r2, r3, #1
    a30c:	921f      	str	r2, [sp, #124]	; 0x7c
    a30e:	7019      	strb	r1, [r3, #0]
    a310:	9b1f      	ldr	r3, [sp, #124]	; 0x7c
    a312:	429e      	cmp	r6, r3
    a314:	d8f9      	bhi.n	a30a <_vfprintf_r+0xf16>
    a316:	9a0e      	ldr	r2, [sp, #56]	; 0x38
    a318:	1a9b      	subs	r3, r3, r2
    a31a:	9311      	str	r3, [sp, #68]	; 0x44
    a31c:	9b0b      	ldr	r3, [sp, #44]	; 0x2c
    a31e:	2b47      	cmp	r3, #71	; 0x47
    a320:	9b1b      	ldr	r3, [sp, #108]	; 0x6c
    a322:	f000 81a9 	beq.w	a678 <_vfprintf_r+0x1284>
    a326:	2d65      	cmp	r5, #101	; 0x65
    a328:	f340 81bb 	ble.w	a6a2 <_vfprintf_r+0x12ae>
    a32c:	2d66      	cmp	r5, #102	; 0x66
    a32e:	9310      	str	r3, [sp, #64]	; 0x40
    a330:	f000 8228 	beq.w	a784 <_vfprintf_r+0x1390>
    a334:	9b11      	ldr	r3, [sp, #68]	; 0x44
    a336:	9a10      	ldr	r2, [sp, #64]	; 0x40
    a338:	4293      	cmp	r3, r2
    a33a:	f300 8216 	bgt.w	a76a <_vfprintf_r+0x1376>
    a33e:	9b06      	ldr	r3, [sp, #24]
    a340:	07d9      	lsls	r1, r3, #31
    a342:	f100 823c 	bmi.w	a7be <_vfprintf_r+0x13ca>
    a346:	ea22 73e2 	bic.w	r3, r2, r2, asr #31
    a34a:	920b      	str	r2, [sp, #44]	; 0x2c
    a34c:	9a0d      	ldr	r2, [sp, #52]	; 0x34
    a34e:	2a00      	cmp	r2, #0
    a350:	f040 8187 	bne.w	a662 <_vfprintf_r+0x126e>
    a354:	9307      	str	r3, [sp, #28]
    a356:	9b0f      	ldr	r3, [sp, #60]	; 0x3c
    a358:	f89d c067 	ldrb.w	ip, [sp, #103]	; 0x67
    a35c:	9306      	str	r3, [sp, #24]
    a35e:	920f      	str	r2, [sp, #60]	; 0x3c
    a360:	f7ff b9a1 	b.w	96a6 <_vfprintf_r+0x2b2>
    a364:	f027 0707 	bic.w	r7, r7, #7
    a368:	683b      	ldr	r3, [r7, #0]
    a36a:	9312      	str	r3, [sp, #72]	; 0x48
    a36c:	687b      	ldr	r3, [r7, #4]
    a36e:	9313      	str	r3, [sp, #76]	; 0x4c
    a370:	f107 0308 	add.w	r3, r7, #8
    a374:	930c      	str	r3, [sp, #48]	; 0x30
    a376:	f7ff bbf3 	b.w	9b60 <_vfprintf_r+0x76c>
    a37a:	9b06      	ldr	r3, [sp, #24]
    a37c:	9a0c      	ldr	r2, [sp, #48]	; 0x30
    a37e:	f013 0f40 	tst.w	r3, #64	; 0x40
    a382:	4613      	mov	r3, r2
    a384:	f43f ac28 	beq.w	9bd8 <_vfprintf_r+0x7e4>
    a388:	f9b2 6000 	ldrsh.w	r6, [r2]
    a38c:	3304      	adds	r3, #4
    a38e:	17f7      	asrs	r7, r6, #31
    a390:	930c      	str	r3, [sp, #48]	; 0x30
    a392:	4632      	mov	r2, r6
    a394:	463b      	mov	r3, r7
    a396:	f7ff bb68 	b.w	9a6a <_vfprintf_r+0x676>
    a39a:	9b06      	ldr	r3, [sp, #24]
    a39c:	06db      	lsls	r3, r3, #27
    a39e:	d40b      	bmi.n	a3b8 <_vfprintf_r+0xfc4>
    a3a0:	9b06      	ldr	r3, [sp, #24]
    a3a2:	065f      	lsls	r7, r3, #25
    a3a4:	d508      	bpl.n	a3b8 <_vfprintf_r+0xfc4>
    a3a6:	9a0c      	ldr	r2, [sp, #48]	; 0x30
    a3a8:	6813      	ldr	r3, [r2, #0]
    a3aa:	3204      	adds	r2, #4
    a3ac:	920c      	str	r2, [sp, #48]	; 0x30
    a3ae:	f8bd 2024 	ldrh.w	r2, [sp, #36]	; 0x24
    a3b2:	801a      	strh	r2, [r3, #0]
    a3b4:	f7ff b860 	b.w	9478 <_vfprintf_r+0x84>
    a3b8:	9a0c      	ldr	r2, [sp, #48]	; 0x30
    a3ba:	6813      	ldr	r3, [r2, #0]
    a3bc:	3204      	adds	r2, #4
    a3be:	920c      	str	r2, [sp, #48]	; 0x30
    a3c0:	9a09      	ldr	r2, [sp, #36]	; 0x24
    a3c2:	601a      	str	r2, [r3, #0]
    a3c4:	f7ff b858 	b.w	9478 <_vfprintf_r+0x84>
    a3c8:	9b06      	ldr	r3, [sp, #24]
    a3ca:	9a0c      	ldr	r2, [sp, #48]	; 0x30
    a3cc:	f013 0f40 	tst.w	r3, #64	; 0x40
    a3d0:	4613      	mov	r3, r2
    a3d2:	f43f ac41 	beq.w	9c58 <_vfprintf_r+0x864>
    a3d6:	8816      	ldrh	r6, [r2, #0]
    a3d8:	3204      	adds	r2, #4
    a3da:	2700      	movs	r7, #0
    a3dc:	2301      	movs	r3, #1
    a3de:	920c      	str	r2, [sp, #48]	; 0x30
    a3e0:	f7ff b927 	b.w	9632 <_vfprintf_r+0x23e>
    a3e4:	9b06      	ldr	r3, [sp, #24]
    a3e6:	9a0c      	ldr	r2, [sp, #48]	; 0x30
    a3e8:	f013 0f40 	tst.w	r3, #64	; 0x40
    a3ec:	4613      	mov	r3, r2
    a3ee:	d07a      	beq.n	a4e6 <_vfprintf_r+0x10f2>
    a3f0:	3304      	adds	r3, #4
    a3f2:	8816      	ldrh	r6, [r2, #0]
    a3f4:	2700      	movs	r7, #0
    a3f6:	930c      	str	r3, [sp, #48]	; 0x30
    a3f8:	f7ff bab9 	b.w	996e <_vfprintf_r+0x57a>
    a3fc:	4619      	mov	r1, r3
    a3fe:	781d      	ldrb	r5, [r3, #0]
    a400:	f7ff b86a 	b.w	94d8 <_vfprintf_r+0xe4>
    a404:	4693      	mov	fp, r2
    a406:	3301      	adds	r3, #1
    a408:	44ab      	add	fp, r5
    a40a:	2b07      	cmp	r3, #7
    a40c:	f8cd b08c 	str.w	fp, [sp, #140]	; 0x8c
    a410:	9322      	str	r3, [sp, #136]	; 0x88
    a412:	6027      	str	r7, [r4, #0]
    a414:	6065      	str	r5, [r4, #4]
    a416:	f73f ae5d 	bgt.w	a0d4 <_vfprintf_r+0xce0>
    a41a:	3408      	adds	r4, #8
    a41c:	e665      	b.n	a0ea <_vfprintf_r+0xcf6>
    a41e:	4640      	mov	r0, r8
    a420:	4649      	mov	r1, r9
    a422:	aa21      	add	r2, sp, #132	; 0x84
    a424:	f002 fca0 	bl	cd68 <__sprint_r>
    a428:	2800      	cmp	r0, #0
    a42a:	f47f a8e4 	bne.w	95f6 <_vfprintf_r+0x202>
    a42e:	ac2e      	add	r4, sp, #184	; 0xb8
    a430:	f8dd b08c 	ldr.w	fp, [sp, #140]	; 0x8c
    a434:	e46f      	b.n	9d16 <_vfprintf_r+0x922>
    a436:	9b22      	ldr	r3, [sp, #136]	; 0x88
    a438:	49b0      	ldr	r1, [pc, #704]	; (a6fc <_vfprintf_r+0x1308>)
    a43a:	3301      	adds	r3, #1
    a43c:	f10b 0b01 	add.w	fp, fp, #1
    a440:	2201      	movs	r2, #1
    a442:	2b07      	cmp	r3, #7
    a444:	f8cd b08c 	str.w	fp, [sp, #140]	; 0x8c
    a448:	9322      	str	r3, [sp, #136]	; 0x88
    a44a:	e884 0006 	stmia.w	r4, {r1, r2}
    a44e:	dc50      	bgt.n	a4f2 <_vfprintf_r+0x10fe>
    a450:	3408      	adds	r4, #8
    a452:	b92d      	cbnz	r5, a460 <_vfprintf_r+0x106c>
    a454:	9b11      	ldr	r3, [sp, #68]	; 0x44
    a456:	b91b      	cbnz	r3, a460 <_vfprintf_r+0x106c>
    a458:	9b06      	ldr	r3, [sp, #24]
    a45a:	07de      	lsls	r6, r3, #31
    a45c:	f57f a9e8 	bpl.w	9830 <_vfprintf_r+0x43c>
    a460:	9b22      	ldr	r3, [sp, #136]	; 0x88
    a462:	9916      	ldr	r1, [sp, #88]	; 0x58
    a464:	3301      	adds	r3, #1
    a466:	9815      	ldr	r0, [sp, #84]	; 0x54
    a468:	eb0b 0201 	add.w	r2, fp, r1
    a46c:	2b07      	cmp	r3, #7
    a46e:	9223      	str	r2, [sp, #140]	; 0x8c
    a470:	e884 0003 	stmia.w	r4, {r0, r1}
    a474:	9322      	str	r3, [sp, #136]	; 0x88
    a476:	f300 8168 	bgt.w	a74a <_vfprintf_r+0x1356>
    a47a:	3408      	adds	r4, #8
    a47c:	426d      	negs	r5, r5
    a47e:	2d00      	cmp	r5, #0
    a480:	dd6f      	ble.n	a562 <_vfprintf_r+0x116e>
    a482:	2d10      	cmp	r5, #16
    a484:	4f9e      	ldr	r7, [pc, #632]	; (a700 <_vfprintf_r+0x130c>)
    a486:	bfc8      	it	gt
    a488:	2610      	movgt	r6, #16
    a48a:	dc05      	bgt.n	a498 <_vfprintf_r+0x10a4>
    a48c:	e0aa      	b.n	a5e4 <_vfprintf_r+0x11f0>
    a48e:	3408      	adds	r4, #8
    a490:	3d10      	subs	r5, #16
    a492:	2d10      	cmp	r5, #16
    a494:	f340 80a6 	ble.w	a5e4 <_vfprintf_r+0x11f0>
    a498:	3301      	adds	r3, #1
    a49a:	3210      	adds	r2, #16
    a49c:	2b07      	cmp	r3, #7
    a49e:	9223      	str	r2, [sp, #140]	; 0x8c
    a4a0:	9322      	str	r3, [sp, #136]	; 0x88
    a4a2:	6027      	str	r7, [r4, #0]
    a4a4:	6066      	str	r6, [r4, #4]
    a4a6:	ddf2      	ble.n	a48e <_vfprintf_r+0x109a>
    a4a8:	4640      	mov	r0, r8
    a4aa:	4649      	mov	r1, r9
    a4ac:	aa21      	add	r2, sp, #132	; 0x84
    a4ae:	f002 fc5b 	bl	cd68 <__sprint_r>
    a4b2:	2800      	cmp	r0, #0
    a4b4:	f47f a89f 	bne.w	95f6 <_vfprintf_r+0x202>
    a4b8:	ac2e      	add	r4, sp, #184	; 0xb8
    a4ba:	9a23      	ldr	r2, [sp, #140]	; 0x8c
    a4bc:	9b22      	ldr	r3, [sp, #136]	; 0x88
    a4be:	e7e7      	b.n	a490 <_vfprintf_r+0x109c>
    a4c0:	4a90      	ldr	r2, [pc, #576]	; (a704 <_vfprintf_r+0x1310>)
    a4c2:	4b91      	ldr	r3, [pc, #580]	; (a708 <_vfprintf_r+0x1314>)
    a4c4:	9e06      	ldr	r6, [sp, #24]
    a4c6:	2d47      	cmp	r5, #71	; 0x47
    a4c8:	bfd8      	it	le
    a4ca:	461a      	movle	r2, r3
    a4cc:	2103      	movs	r1, #3
    a4ce:	f026 0680 	bic.w	r6, r6, #128	; 0x80
    a4d2:	900f      	str	r0, [sp, #60]	; 0x3c
    a4d4:	9107      	str	r1, [sp, #28]
    a4d6:	9606      	str	r6, [sp, #24]
    a4d8:	9010      	str	r0, [sp, #64]	; 0x40
    a4da:	920e      	str	r2, [sp, #56]	; 0x38
    a4dc:	910b      	str	r1, [sp, #44]	; 0x2c
    a4de:	f89d c067 	ldrb.w	ip, [sp, #103]	; 0x67
    a4e2:	f7ff b8e0 	b.w	96a6 <_vfprintf_r+0x2b2>
    a4e6:	3304      	adds	r3, #4
    a4e8:	6816      	ldr	r6, [r2, #0]
    a4ea:	2700      	movs	r7, #0
    a4ec:	930c      	str	r3, [sp, #48]	; 0x30
    a4ee:	f7ff ba3e 	b.w	996e <_vfprintf_r+0x57a>
    a4f2:	4640      	mov	r0, r8
    a4f4:	4649      	mov	r1, r9
    a4f6:	aa21      	add	r2, sp, #132	; 0x84
    a4f8:	f002 fc36 	bl	cd68 <__sprint_r>
    a4fc:	2800      	cmp	r0, #0
    a4fe:	f47f a87a 	bne.w	95f6 <_vfprintf_r+0x202>
    a502:	ac2e      	add	r4, sp, #184	; 0xb8
    a504:	9d1b      	ldr	r5, [sp, #108]	; 0x6c
    a506:	f8dd b08c 	ldr.w	fp, [sp, #140]	; 0x8c
    a50a:	e7a2      	b.n	a452 <_vfprintf_r+0x105e>
    a50c:	f041 0120 	orr.w	r1, r1, #32
    a510:	9106      	str	r1, [sp, #24]
    a512:	785d      	ldrb	r5, [r3, #1]
    a514:	1c59      	adds	r1, r3, #1
    a516:	f7fe bfdf 	b.w	94d8 <_vfprintf_r+0xe4>
    a51a:	980a      	ldr	r0, [sp, #40]	; 0x28
    a51c:	910c      	str	r1, [sp, #48]	; 0x30
    a51e:	4240      	negs	r0, r0
    a520:	900a      	str	r0, [sp, #40]	; 0x28
    a522:	4619      	mov	r1, r3
    a524:	f7ff b9d3 	b.w	98ce <_vfprintf_r+0x4da>
    a528:	4640      	mov	r0, r8
    a52a:	4649      	mov	r1, r9
    a52c:	aa21      	add	r2, sp, #132	; 0x84
    a52e:	f002 fc1b 	bl	cd68 <__sprint_r>
    a532:	2800      	cmp	r0, #0
    a534:	f47f a85f 	bne.w	95f6 <_vfprintf_r+0x202>
    a538:	ac2e      	add	r4, sp, #184	; 0xb8
    a53a:	f8dd b08c 	ldr.w	fp, [sp, #140]	; 0x8c
    a53e:	e400      	b.n	9d42 <_vfprintf_r+0x94e>
    a540:	9a0e      	ldr	r2, [sp, #56]	; 0x38
    a542:	ab2e      	add	r3, sp, #184	; 0xb8
    a544:	1a9b      	subs	r3, r3, r2
    a546:	930b      	str	r3, [sp, #44]	; 0x2c
    a548:	f7ff b8a5 	b.w	9696 <_vfprintf_r+0x2a2>
    a54c:	4640      	mov	r0, r8
    a54e:	4649      	mov	r1, r9
    a550:	aa21      	add	r2, sp, #132	; 0x84
    a552:	f002 fc09 	bl	cd68 <__sprint_r>
    a556:	2800      	cmp	r0, #0
    a558:	f47f a84d 	bne.w	95f6 <_vfprintf_r+0x202>
    a55c:	9a23      	ldr	r2, [sp, #140]	; 0x8c
    a55e:	9b22      	ldr	r3, [sp, #136]	; 0x88
    a560:	ac2e      	add	r4, sp, #184	; 0xb8
    a562:	9811      	ldr	r0, [sp, #68]	; 0x44
    a564:	3301      	adds	r3, #1
    a566:	eb02 0b00 	add.w	fp, r2, r0
    a56a:	9a0e      	ldr	r2, [sp, #56]	; 0x38
    a56c:	2b07      	cmp	r3, #7
    a56e:	f8cd b08c 	str.w	fp, [sp, #140]	; 0x8c
    a572:	9322      	str	r3, [sp, #136]	; 0x88
    a574:	6022      	str	r2, [r4, #0]
    a576:	6060      	str	r0, [r4, #4]
    a578:	f77f a959 	ble.w	982e <_vfprintf_r+0x43a>
    a57c:	e4d7      	b.n	9f2e <_vfprintf_r+0xb3a>
    a57e:	f8cd b03c 	str.w	fp, [sp, #60]	; 0x3c
    a582:	f7fe ff09 	bl	9398 <strlen>
    a586:	970c      	str	r7, [sp, #48]	; 0x30
    a588:	900b      	str	r0, [sp, #44]	; 0x2c
    a58a:	4603      	mov	r3, r0
    a58c:	f7ff b9d4 	b.w	9938 <_vfprintf_r+0x544>
    a590:	2003      	movs	r0, #3
    a592:	a91b      	add	r1, sp, #108	; 0x6c
    a594:	e88d 0801 	stmia.w	sp, {r0, fp}
    a598:	9102      	str	r1, [sp, #8]
    a59a:	a81c      	add	r0, sp, #112	; 0x70
    a59c:	a91f      	add	r1, sp, #124	; 0x7c
    a59e:	9003      	str	r0, [sp, #12]
    a5a0:	9a07      	ldr	r2, [sp, #28]
    a5a2:	4653      	mov	r3, sl
    a5a4:	9104      	str	r1, [sp, #16]
    a5a6:	4640      	mov	r0, r8
    a5a8:	f000 fab2 	bl	ab10 <_dtoa_r>
    a5ac:	465f      	mov	r7, fp
    a5ae:	900e      	str	r0, [sp, #56]	; 0x38
    a5b0:	9b0e      	ldr	r3, [sp, #56]	; 0x38
    a5b2:	19de      	adds	r6, r3, r7
    a5b4:	9b0b      	ldr	r3, [sp, #44]	; 0x2c
    a5b6:	2b46      	cmp	r3, #70	; 0x46
    a5b8:	f47f ae9a 	bne.w	a2f0 <_vfprintf_r+0xefc>
    a5bc:	9b0e      	ldr	r3, [sp, #56]	; 0x38
    a5be:	781b      	ldrb	r3, [r3, #0]
    a5c0:	2b30      	cmp	r3, #48	; 0x30
    a5c2:	f000 80ee 	beq.w	a7a2 <_vfprintf_r+0x13ae>
    a5c6:	9f1b      	ldr	r7, [sp, #108]	; 0x6c
    a5c8:	443e      	add	r6, r7
    a5ca:	e691      	b.n	a2f0 <_vfprintf_r+0xefc>
    a5cc:	4640      	mov	r0, r8
    a5ce:	4649      	mov	r1, r9
    a5d0:	aa21      	add	r2, sp, #132	; 0x84
    a5d2:	f002 fbc9 	bl	cd68 <__sprint_r>
    a5d6:	2800      	cmp	r0, #0
    a5d8:	f47f a80d 	bne.w	95f6 <_vfprintf_r+0x202>
    a5dc:	ac2e      	add	r4, sp, #184	; 0xb8
    a5de:	f8dd b08c 	ldr.w	fp, [sp, #140]	; 0x8c
    a5e2:	e4ef      	b.n	9fc4 <_vfprintf_r+0xbd0>
    a5e4:	3301      	adds	r3, #1
    a5e6:	442a      	add	r2, r5
    a5e8:	2b07      	cmp	r3, #7
    a5ea:	9223      	str	r2, [sp, #140]	; 0x8c
    a5ec:	9322      	str	r3, [sp, #136]	; 0x88
    a5ee:	6027      	str	r7, [r4, #0]
    a5f0:	6065      	str	r5, [r4, #4]
    a5f2:	dcab      	bgt.n	a54c <_vfprintf_r+0x1158>
    a5f4:	3408      	adds	r4, #8
    a5f6:	e7b4      	b.n	a562 <_vfprintf_r+0x116e>
    a5f8:	4640      	mov	r0, r8
    a5fa:	4649      	mov	r1, r9
    a5fc:	aa21      	add	r2, sp, #132	; 0x84
    a5fe:	f002 fbb3 	bl	cd68 <__sprint_r>
    a602:	2800      	cmp	r0, #0
    a604:	f47e aff7 	bne.w	95f6 <_vfprintf_r+0x202>
    a608:	ac2e      	add	r4, sp, #184	; 0xb8
    a60a:	9b1b      	ldr	r3, [sp, #108]	; 0x6c
    a60c:	f8dd b08c 	ldr.w	fp, [sp, #140]	; 0x8c
    a610:	e576      	b.n	a100 <_vfprintf_r+0xd0c>
    a612:	4633      	mov	r3, r6
    a614:	2e06      	cmp	r6, #6
    a616:	bf28      	it	cs
    a618:	2306      	movcs	r3, #6
    a61a:	930b      	str	r3, [sp, #44]	; 0x2c
    a61c:	ea23 73e3 	bic.w	r3, r3, r3, asr #31
    a620:	f8dd c038 	ldr.w	ip, [sp, #56]	; 0x38
    a624:	9307      	str	r3, [sp, #28]
    a626:	4b39      	ldr	r3, [pc, #228]	; (a70c <_vfprintf_r+0x1318>)
    a628:	970c      	str	r7, [sp, #48]	; 0x30
    a62a:	f8cd c03c 	str.w	ip, [sp, #60]	; 0x3c
    a62e:	f8cd c040 	str.w	ip, [sp, #64]	; 0x40
    a632:	930e      	str	r3, [sp, #56]	; 0x38
    a634:	f7ff b837 	b.w	96a6 <_vfprintf_r+0x2b2>
    a638:	4640      	mov	r0, r8
    a63a:	4649      	mov	r1, r9
    a63c:	aa21      	add	r2, sp, #132	; 0x84
    a63e:	f002 fb93 	bl	cd68 <__sprint_r>
    a642:	2800      	cmp	r0, #0
    a644:	f47e afd7 	bne.w	95f6 <_vfprintf_r+0x202>
    a648:	9b1b      	ldr	r3, [sp, #108]	; 0x6c
    a64a:	9a11      	ldr	r2, [sp, #68]	; 0x44
    a64c:	f8dd b08c 	ldr.w	fp, [sp, #140]	; 0x8c
    a650:	1ad3      	subs	r3, r2, r3
    a652:	ac2e      	add	r4, sp, #184	; 0xb8
    a654:	e56a      	b.n	a12c <_vfprintf_r+0xd38>
    a656:	232d      	movs	r3, #45	; 0x2d
    a658:	469c      	mov	ip, r3
    a65a:	f88d 3067 	strb.w	r3, [sp, #103]	; 0x67
    a65e:	f7ff ba91 	b.w	9b84 <_vfprintf_r+0x790>
    a662:	9307      	str	r3, [sp, #28]
    a664:	9b0f      	ldr	r3, [sp, #60]	; 0x3c
    a666:	f04f 0c2d 	mov.w	ip, #45	; 0x2d
    a66a:	9306      	str	r3, [sp, #24]
    a66c:	2300      	movs	r3, #0
    a66e:	f88d c067 	strb.w	ip, [sp, #103]	; 0x67
    a672:	930f      	str	r3, [sp, #60]	; 0x3c
    a674:	f7ff b81a 	b.w	96ac <_vfprintf_r+0x2b8>
    a678:	1cdf      	adds	r7, r3, #3
    a67a:	db11      	blt.n	a6a0 <_vfprintf_r+0x12ac>
    a67c:	459b      	cmp	fp, r3
    a67e:	db0f      	blt.n	a6a0 <_vfprintf_r+0x12ac>
    a680:	9310      	str	r3, [sp, #64]	; 0x40
    a682:	2567      	movs	r5, #103	; 0x67
    a684:	e656      	b.n	a334 <_vfprintf_r+0xf40>
    a686:	4633      	mov	r3, r6
    a688:	e645      	b.n	a316 <_vfprintf_r+0xf22>
    a68a:	ea26 73e6 	bic.w	r3, r6, r6, asr #31
    a68e:	900f      	str	r0, [sp, #60]	; 0x3c
    a690:	970c      	str	r7, [sp, #48]	; 0x30
    a692:	9010      	str	r0, [sp, #64]	; 0x40
    a694:	f89d c067 	ldrb.w	ip, [sp, #103]	; 0x67
    a698:	9307      	str	r3, [sp, #28]
    a69a:	960b      	str	r6, [sp, #44]	; 0x2c
    a69c:	f7ff b803 	b.w	96a6 <_vfprintf_r+0x2b2>
    a6a0:	3d02      	subs	r5, #2
    a6a2:	3b01      	subs	r3, #1
    a6a4:	2b00      	cmp	r3, #0
    a6a6:	931b      	str	r3, [sp, #108]	; 0x6c
    a6a8:	bfba      	itte	lt
    a6aa:	425b      	neglt	r3, r3
    a6ac:	222d      	movlt	r2, #45	; 0x2d
    a6ae:	222b      	movge	r2, #43	; 0x2b
    a6b0:	2b09      	cmp	r3, #9
    a6b2:	f88d 5074 	strb.w	r5, [sp, #116]	; 0x74
    a6b6:	f88d 2075 	strb.w	r2, [sp, #117]	; 0x75
    a6ba:	f340 8086 	ble.w	a7ca <_vfprintf_r+0x13d6>
    a6be:	f10d 0083 	add.w	r0, sp, #131	; 0x83
    a6c2:	4601      	mov	r1, r0
    a6c4:	4a12      	ldr	r2, [pc, #72]	; (a710 <_vfprintf_r+0x131c>)
    a6c6:	fb82 2603 	smull	r2, r6, r2, r3
    a6ca:	17da      	asrs	r2, r3, #31
    a6cc:	ebc2 06a6 	rsb	r6, r2, r6, asr #2
    a6d0:	eb06 0286 	add.w	r2, r6, r6, lsl #2
    a6d4:	eba3 0242 	sub.w	r2, r3, r2, lsl #1
    a6d8:	3230      	adds	r2, #48	; 0x30
    a6da:	2e09      	cmp	r6, #9
    a6dc:	4633      	mov	r3, r6
    a6de:	f801 2d01 	strb.w	r2, [r1, #-1]!
    a6e2:	dcef      	bgt.n	a6c4 <_vfprintf_r+0x12d0>
    a6e4:	460a      	mov	r2, r1
    a6e6:	3330      	adds	r3, #48	; 0x30
    a6e8:	b2de      	uxtb	r6, r3
    a6ea:	f802 6d01 	strb.w	r6, [r2, #-1]!
    a6ee:	4290      	cmp	r0, r2
    a6f0:	f240 80a0 	bls.w	a834 <_vfprintf_r+0x1440>
    a6f4:	f10d 0276 	add.w	r2, sp, #118	; 0x76
    a6f8:	460b      	mov	r3, r1
    a6fa:	e00d      	b.n	a718 <_vfprintf_r+0x1324>
    a6fc:	0000f454 	.word	0x0000f454
    a700:	0000f404 	.word	0x0000f404
    a704:	0000f420 	.word	0x0000f420
    a708:	0000f41c 	.word	0x0000f41c
    a70c:	0000f44c 	.word	0x0000f44c
    a710:	66666667 	.word	0x66666667
    a714:	f813 6b01 	ldrb.w	r6, [r3], #1
    a718:	4283      	cmp	r3, r0
    a71a:	f802 6b01 	strb.w	r6, [r2], #1
    a71e:	d1f9      	bne.n	a714 <_vfprintf_r+0x1320>
    a720:	ab21      	add	r3, sp, #132	; 0x84
    a722:	1a5b      	subs	r3, r3, r1
    a724:	f10d 0276 	add.w	r2, sp, #118	; 0x76
    a728:	4413      	add	r3, r2
    a72a:	aa1d      	add	r2, sp, #116	; 0x74
    a72c:	1a9b      	subs	r3, r3, r2
    a72e:	9a11      	ldr	r2, [sp, #68]	; 0x44
    a730:	9317      	str	r3, [sp, #92]	; 0x5c
    a732:	2a01      	cmp	r2, #1
    a734:	4413      	add	r3, r2
    a736:	930b      	str	r3, [sp, #44]	; 0x2c
    a738:	dd57      	ble.n	a7ea <_vfprintf_r+0x13f6>
    a73a:	9b0b      	ldr	r3, [sp, #44]	; 0x2c
    a73c:	2200      	movs	r2, #0
    a73e:	3301      	adds	r3, #1
    a740:	930b      	str	r3, [sp, #44]	; 0x2c
    a742:	9210      	str	r2, [sp, #64]	; 0x40
    a744:	ea23 73e3 	bic.w	r3, r3, r3, asr #31
    a748:	e600      	b.n	a34c <_vfprintf_r+0xf58>
    a74a:	4640      	mov	r0, r8
    a74c:	4649      	mov	r1, r9
    a74e:	aa21      	add	r2, sp, #132	; 0x84
    a750:	f002 fb0a 	bl	cd68 <__sprint_r>
    a754:	2800      	cmp	r0, #0
    a756:	f47e af4e 	bne.w	95f6 <_vfprintf_r+0x202>
    a75a:	ac2e      	add	r4, sp, #184	; 0xb8
    a75c:	9d1b      	ldr	r5, [sp, #108]	; 0x6c
    a75e:	9a23      	ldr	r2, [sp, #140]	; 0x8c
    a760:	9b22      	ldr	r3, [sp, #136]	; 0x88
    a762:	e68b      	b.n	a47c <_vfprintf_r+0x1088>
    a764:	f04f 0b06 	mov.w	fp, #6
    a768:	e58c      	b.n	a284 <_vfprintf_r+0xe90>
    a76a:	9b10      	ldr	r3, [sp, #64]	; 0x40
    a76c:	2b00      	cmp	r3, #0
    a76e:	bfd8      	it	le
    a770:	f1c3 0602 	rsble	r6, r3, #2
    a774:	9b11      	ldr	r3, [sp, #68]	; 0x44
    a776:	bfc8      	it	gt
    a778:	2601      	movgt	r6, #1
    a77a:	18f3      	adds	r3, r6, r3
    a77c:	930b      	str	r3, [sp, #44]	; 0x2c
    a77e:	ea23 73e3 	bic.w	r3, r3, r3, asr #31
    a782:	e5e3      	b.n	a34c <_vfprintf_r+0xf58>
    a784:	2b00      	cmp	r3, #0
    a786:	dd39      	ble.n	a7fc <_vfprintf_r+0x1408>
    a788:	f1bb 0f00 	cmp.w	fp, #0
    a78c:	d125      	bne.n	a7da <_vfprintf_r+0x13e6>
    a78e:	9b06      	ldr	r3, [sp, #24]
    a790:	07de      	lsls	r6, r3, #31
    a792:	d422      	bmi.n	a7da <_vfprintf_r+0x13e6>
    a794:	9a10      	ldr	r2, [sp, #64]	; 0x40
    a796:	ea22 73e2 	bic.w	r3, r2, r2, asr #31
    a79a:	920b      	str	r2, [sp, #44]	; 0x2c
    a79c:	e5d6      	b.n	a34c <_vfprintf_r+0xf58>
    a79e:	9b1f      	ldr	r3, [sp, #124]	; 0x7c
    a7a0:	e5b9      	b.n	a316 <_vfprintf_r+0xf22>
    a7a2:	9807      	ldr	r0, [sp, #28]
    a7a4:	4651      	mov	r1, sl
    a7a6:	2200      	movs	r2, #0
    a7a8:	2300      	movs	r3, #0
    a7aa:	f004 faeb 	bl	ed84 <__aeabi_dcmpeq>
    a7ae:	2800      	cmp	r0, #0
    a7b0:	f47f af09 	bne.w	a5c6 <_vfprintf_r+0x11d2>
    a7b4:	f1c7 0701 	rsb	r7, r7, #1
    a7b8:	971b      	str	r7, [sp, #108]	; 0x6c
    a7ba:	443e      	add	r6, r7
    a7bc:	e598      	b.n	a2f0 <_vfprintf_r+0xefc>
    a7be:	9b10      	ldr	r3, [sp, #64]	; 0x40
    a7c0:	3301      	adds	r3, #1
    a7c2:	930b      	str	r3, [sp, #44]	; 0x2c
    a7c4:	ea23 73e3 	bic.w	r3, r3, r3, asr #31
    a7c8:	e5c0      	b.n	a34c <_vfprintf_r+0xf58>
    a7ca:	3330      	adds	r3, #48	; 0x30
    a7cc:	2230      	movs	r2, #48	; 0x30
    a7ce:	f88d 3077 	strb.w	r3, [sp, #119]	; 0x77
    a7d2:	f88d 2076 	strb.w	r2, [sp, #118]	; 0x76
    a7d6:	ab1e      	add	r3, sp, #120	; 0x78
    a7d8:	e7a7      	b.n	a72a <_vfprintf_r+0x1336>
    a7da:	9b10      	ldr	r3, [sp, #64]	; 0x40
    a7dc:	f10b 0601 	add.w	r6, fp, #1
    a7e0:	4433      	add	r3, r6
    a7e2:	930b      	str	r3, [sp, #44]	; 0x2c
    a7e4:	ea23 73e3 	bic.w	r3, r3, r3, asr #31
    a7e8:	e5b0      	b.n	a34c <_vfprintf_r+0xf58>
    a7ea:	9b06      	ldr	r3, [sp, #24]
    a7ec:	f013 0301 	ands.w	r3, r3, #1
    a7f0:	d1a3      	bne.n	a73a <_vfprintf_r+0x1346>
    a7f2:	9310      	str	r3, [sp, #64]	; 0x40
    a7f4:	9b0b      	ldr	r3, [sp, #44]	; 0x2c
    a7f6:	ea23 73e3 	bic.w	r3, r3, r3, asr #31
    a7fa:	e5a7      	b.n	a34c <_vfprintf_r+0xf58>
    a7fc:	f1bb 0f00 	cmp.w	fp, #0
    a800:	d112      	bne.n	a828 <_vfprintf_r+0x1434>
    a802:	9b06      	ldr	r3, [sp, #24]
    a804:	07d8      	lsls	r0, r3, #31
    a806:	d40f      	bmi.n	a828 <_vfprintf_r+0x1434>
    a808:	2301      	movs	r3, #1
    a80a:	930b      	str	r3, [sp, #44]	; 0x2c
    a80c:	e59e      	b.n	a34c <_vfprintf_r+0xf58>
    a80e:	9d0c      	ldr	r5, [sp, #48]	; 0x30
    a810:	4628      	mov	r0, r5
    a812:	682e      	ldr	r6, [r5, #0]
    a814:	3004      	adds	r0, #4
    a816:	2e00      	cmp	r6, #0
    a818:	785d      	ldrb	r5, [r3, #1]
    a81a:	900c      	str	r0, [sp, #48]	; 0x30
    a81c:	f6be ae5c 	bge.w	94d8 <_vfprintf_r+0xe4>
    a820:	f04f 36ff 	mov.w	r6, #4294967295
    a824:	f7fe be58 	b.w	94d8 <_vfprintf_r+0xe4>
    a828:	f10b 0302 	add.w	r3, fp, #2
    a82c:	930b      	str	r3, [sp, #44]	; 0x2c
    a82e:	ea23 73e3 	bic.w	r3, r3, r3, asr #31
    a832:	e58b      	b.n	a34c <_vfprintf_r+0xf58>
    a834:	f10d 0376 	add.w	r3, sp, #118	; 0x76
    a838:	e777      	b.n	a72a <_vfprintf_r+0x1336>
    a83a:	bf00      	nop

0000a83c <vfprintf>:
    a83c:	b430      	push	{r4, r5}
    a83e:	460d      	mov	r5, r1
    a840:	4c03      	ldr	r4, [pc, #12]	; (a850 <vfprintf+0x14>)
    a842:	4613      	mov	r3, r2
    a844:	4601      	mov	r1, r0
    a846:	462a      	mov	r2, r5
    a848:	6820      	ldr	r0, [r4, #0]
    a84a:	bc30      	pop	{r4, r5}
    a84c:	f7fe bdd2 	b.w	93f4 <_vfprintf_r>
    a850:	00017b68 	.word	0x00017b68

0000a854 <__sbprintf>:
    a854:	e92d 45f0 	stmdb	sp!, {r4, r5, r6, r7, r8, sl, lr}
    a858:	4688      	mov	r8, r1
    a85a:	6e4f      	ldr	r7, [r1, #100]	; 0x64
    a85c:	f2ad 4d6c 	subw	sp, sp, #1132	; 0x46c
    a860:	9719      	str	r7, [sp, #100]	; 0x64
    a862:	f8d8 701c 	ldr.w	r7, [r8, #28]
    a866:	f8b1 e00c 	ldrh.w	lr, [r1, #12]
    a86a:	f8b1 a00e 	ldrh.w	sl, [r1, #14]
    a86e:	9707      	str	r7, [sp, #28]
    a870:	f8d8 7024 	ldr.w	r7, [r8, #36]	; 0x24
    a874:	ac1a      	add	r4, sp, #104	; 0x68
    a876:	f44f 6580 	mov.w	r5, #1024	; 0x400
    a87a:	f02e 0e02 	bic.w	lr, lr, #2
    a87e:	2600      	movs	r6, #0
    a880:	4669      	mov	r1, sp
    a882:	9400      	str	r4, [sp, #0]
    a884:	9404      	str	r4, [sp, #16]
    a886:	9502      	str	r5, [sp, #8]
    a888:	9505      	str	r5, [sp, #20]
    a88a:	f8ad e00c 	strh.w	lr, [sp, #12]
    a88e:	f8ad a00e 	strh.w	sl, [sp, #14]
    a892:	9709      	str	r7, [sp, #36]	; 0x24
    a894:	9606      	str	r6, [sp, #24]
    a896:	4605      	mov	r5, r0
    a898:	f7fe fdac 	bl	93f4 <_vfprintf_r>
    a89c:	1e04      	subs	r4, r0, #0
    a89e:	db07      	blt.n	a8b0 <__sbprintf+0x5c>
    a8a0:	4628      	mov	r0, r5
    a8a2:	4669      	mov	r1, sp
    a8a4:	f001 f974 	bl	bb90 <_fflush_r>
    a8a8:	42b0      	cmp	r0, r6
    a8aa:	bf18      	it	ne
    a8ac:	f04f 34ff 	movne.w	r4, #4294967295
    a8b0:	f8bd 300c 	ldrh.w	r3, [sp, #12]
    a8b4:	065b      	lsls	r3, r3, #25
    a8b6:	d505      	bpl.n	a8c4 <__sbprintf+0x70>
    a8b8:	f8b8 300c 	ldrh.w	r3, [r8, #12]
    a8bc:	f043 0340 	orr.w	r3, r3, #64	; 0x40
    a8c0:	f8a8 300c 	strh.w	r3, [r8, #12]
    a8c4:	4620      	mov	r0, r4
    a8c6:	f20d 4d6c 	addw	sp, sp, #1132	; 0x46c
    a8ca:	e8bd 85f0 	ldmia.w	sp!, {r4, r5, r6, r7, r8, sl, pc}
    a8ce:	bf00      	nop

0000a8d0 <_write_r>:
    a8d0:	b570      	push	{r4, r5, r6, lr}
    a8d2:	4c08      	ldr	r4, [pc, #32]	; (a8f4 <_write_r+0x24>)
    a8d4:	4606      	mov	r6, r0
    a8d6:	2500      	movs	r5, #0
    a8d8:	4608      	mov	r0, r1
    a8da:	4611      	mov	r1, r2
    a8dc:	461a      	mov	r2, r3
    a8de:	6025      	str	r5, [r4, #0]
    a8e0:	f7fd feaa 	bl	8638 <_write>
    a8e4:	1c43      	adds	r3, r0, #1
    a8e6:	d000      	beq.n	a8ea <_write_r+0x1a>
    a8e8:	bd70      	pop	{r4, r5, r6, pc}
    a8ea:	6823      	ldr	r3, [r4, #0]
    a8ec:	2b00      	cmp	r3, #0
    a8ee:	d0fb      	beq.n	a8e8 <_write_r+0x18>
    a8f0:	6033      	str	r3, [r6, #0]
    a8f2:	bd70      	pop	{r4, r5, r6, pc}
    a8f4:	00018124 	.word	0x00018124

0000a8f8 <__swsetup_r>:
    a8f8:	b538      	push	{r3, r4, r5, lr}
    a8fa:	4b2f      	ldr	r3, [pc, #188]	; (a9b8 <__swsetup_r+0xc0>)
    a8fc:	4605      	mov	r5, r0
    a8fe:	6818      	ldr	r0, [r3, #0]
    a900:	460c      	mov	r4, r1
    a902:	b110      	cbz	r0, a90a <__swsetup_r+0x12>
    a904:	6b83      	ldr	r3, [r0, #56]	; 0x38
    a906:	2b00      	cmp	r3, #0
    a908:	d036      	beq.n	a978 <__swsetup_r+0x80>
    a90a:	89a2      	ldrh	r2, [r4, #12]
    a90c:	b293      	uxth	r3, r2
    a90e:	0718      	lsls	r0, r3, #28
    a910:	d50c      	bpl.n	a92c <__swsetup_r+0x34>
    a912:	6920      	ldr	r0, [r4, #16]
    a914:	b1a8      	cbz	r0, a942 <__swsetup_r+0x4a>
    a916:	f013 0201 	ands.w	r2, r3, #1
    a91a:	d01e      	beq.n	a95a <__swsetup_r+0x62>
    a91c:	6963      	ldr	r3, [r4, #20]
    a91e:	2200      	movs	r2, #0
    a920:	425b      	negs	r3, r3
    a922:	61a3      	str	r3, [r4, #24]
    a924:	60a2      	str	r2, [r4, #8]
    a926:	b1f0      	cbz	r0, a966 <__swsetup_r+0x6e>
    a928:	2000      	movs	r0, #0
    a92a:	bd38      	pop	{r3, r4, r5, pc}
    a92c:	06d9      	lsls	r1, r3, #27
    a92e:	d53a      	bpl.n	a9a6 <__swsetup_r+0xae>
    a930:	0758      	lsls	r0, r3, #29
    a932:	d424      	bmi.n	a97e <__swsetup_r+0x86>
    a934:	6920      	ldr	r0, [r4, #16]
    a936:	f042 0308 	orr.w	r3, r2, #8
    a93a:	81a3      	strh	r3, [r4, #12]
    a93c:	b29b      	uxth	r3, r3
    a93e:	2800      	cmp	r0, #0
    a940:	d1e9      	bne.n	a916 <__swsetup_r+0x1e>
    a942:	f403 7220 	and.w	r2, r3, #640	; 0x280
    a946:	f5b2 7f00 	cmp.w	r2, #512	; 0x200
    a94a:	d0e4      	beq.n	a916 <__swsetup_r+0x1e>
    a94c:	4628      	mov	r0, r5
    a94e:	4621      	mov	r1, r4
    a950:	f001 fac2 	bl	bed8 <__smakebuf_r>
    a954:	89a3      	ldrh	r3, [r4, #12]
    a956:	6920      	ldr	r0, [r4, #16]
    a958:	e7dd      	b.n	a916 <__swsetup_r+0x1e>
    a95a:	0799      	lsls	r1, r3, #30
    a95c:	bf58      	it	pl
    a95e:	6962      	ldrpl	r2, [r4, #20]
    a960:	60a2      	str	r2, [r4, #8]
    a962:	2800      	cmp	r0, #0
    a964:	d1e0      	bne.n	a928 <__swsetup_r+0x30>
    a966:	89a3      	ldrh	r3, [r4, #12]
    a968:	061a      	lsls	r2, r3, #24
    a96a:	d5de      	bpl.n	a92a <__swsetup_r+0x32>
    a96c:	f043 0340 	orr.w	r3, r3, #64	; 0x40
    a970:	81a3      	strh	r3, [r4, #12]
    a972:	f04f 30ff 	mov.w	r0, #4294967295
    a976:	bd38      	pop	{r3, r4, r5, pc}
    a978:	f7fe f99c 	bl	8cb4 <__sinit>
    a97c:	e7c5      	b.n	a90a <__swsetup_r+0x12>
    a97e:	6b21      	ldr	r1, [r4, #48]	; 0x30
    a980:	b149      	cbz	r1, a996 <__swsetup_r+0x9e>
    a982:	f104 0340 	add.w	r3, r4, #64	; 0x40
    a986:	4299      	cmp	r1, r3
    a988:	d003      	beq.n	a992 <__swsetup_r+0x9a>
    a98a:	4628      	mov	r0, r5
    a98c:	f001 f976 	bl	bc7c <_free_r>
    a990:	89a2      	ldrh	r2, [r4, #12]
    a992:	2300      	movs	r3, #0
    a994:	6323      	str	r3, [r4, #48]	; 0x30
    a996:	6920      	ldr	r0, [r4, #16]
    a998:	f022 0224 	bic.w	r2, r2, #36	; 0x24
    a99c:	2300      	movs	r3, #0
    a99e:	b292      	uxth	r2, r2
    a9a0:	e884 0009 	stmia.w	r4, {r0, r3}
    a9a4:	e7c7      	b.n	a936 <__swsetup_r+0x3e>
    a9a6:	f042 0240 	orr.w	r2, r2, #64	; 0x40
    a9aa:	2309      	movs	r3, #9
    a9ac:	602b      	str	r3, [r5, #0]
    a9ae:	f04f 30ff 	mov.w	r0, #4294967295
    a9b2:	81a2      	strh	r2, [r4, #12]
    a9b4:	bd38      	pop	{r3, r4, r5, pc}
    a9b6:	bf00      	nop
    a9b8:	00017b68 	.word	0x00017b68

0000a9bc <_close_r>:
    a9bc:	b538      	push	{r3, r4, r5, lr}
    a9be:	4c07      	ldr	r4, [pc, #28]	; (a9dc <_close_r+0x20>)
    a9c0:	2300      	movs	r3, #0
    a9c2:	4605      	mov	r5, r0
    a9c4:	4608      	mov	r0, r1
    a9c6:	6023      	str	r3, [r4, #0]
    a9c8:	f7fd fe76 	bl	86b8 <_close>
    a9cc:	1c43      	adds	r3, r0, #1
    a9ce:	d000      	beq.n	a9d2 <_close_r+0x16>
    a9d0:	bd38      	pop	{r3, r4, r5, pc}
    a9d2:	6823      	ldr	r3, [r4, #0]
    a9d4:	2b00      	cmp	r3, #0
    a9d6:	d0fb      	beq.n	a9d0 <_close_r+0x14>
    a9d8:	602b      	str	r3, [r5, #0]
    a9da:	bd38      	pop	{r3, r4, r5, pc}
    a9dc:	00018124 	.word	0x00018124

0000a9e0 <quorem>:
    a9e0:	e92d 4ff0 	stmdb	sp!, {r4, r5, r6, r7, r8, r9, sl, fp, lr}
    a9e4:	6903      	ldr	r3, [r0, #16]
    a9e6:	690f      	ldr	r7, [r1, #16]
    a9e8:	b083      	sub	sp, #12
    a9ea:	429f      	cmp	r7, r3
    a9ec:	f300 808b 	bgt.w	ab06 <quorem+0x126>
    a9f0:	3f01      	subs	r7, #1
    a9f2:	f101 0614 	add.w	r6, r1, #20
    a9f6:	f100 0a14 	add.w	sl, r0, #20
    a9fa:	f856 3027 	ldr.w	r3, [r6, r7, lsl #2]
    a9fe:	f85a 2027 	ldr.w	r2, [sl, r7, lsl #2]
    aa02:	3301      	adds	r3, #1
    aa04:	fbb2 f8f3 	udiv	r8, r2, r3
    aa08:	00bb      	lsls	r3, r7, #2
    aa0a:	9300      	str	r3, [sp, #0]
    aa0c:	eb06 0903 	add.w	r9, r6, r3
    aa10:	4453      	add	r3, sl
    aa12:	9301      	str	r3, [sp, #4]
    aa14:	f1b8 0f00 	cmp.w	r8, #0
    aa18:	d03d      	beq.n	aa96 <quorem+0xb6>
    aa1a:	2300      	movs	r3, #0
    aa1c:	461c      	mov	r4, r3
    aa1e:	46b4      	mov	ip, r6
    aa20:	46d6      	mov	lr, sl
    aa22:	461a      	mov	r2, r3
    aa24:	f85c bb04 	ldr.w	fp, [ip], #4
    aa28:	f8de 5000 	ldr.w	r5, [lr]
    aa2c:	fa1f f38b 	uxth.w	r3, fp
    aa30:	ea4f 4b1b 	mov.w	fp, fp, lsr #16
    aa34:	fb03 2208 	mla	r2, r3, r8, r2
    aa38:	fb0b f308 	mul.w	r3, fp, r8
    aa3c:	eb03 4312 	add.w	r3, r3, r2, lsr #16
    aa40:	b292      	uxth	r2, r2
    aa42:	1aa4      	subs	r4, r4, r2
    aa44:	fa1f fb83 	uxth.w	fp, r3
    aa48:	b2aa      	uxth	r2, r5
    aa4a:	4422      	add	r2, r4
    aa4c:	ebcb 4415 	rsb	r4, fp, r5, lsr #16
    aa50:	eb04 4422 	add.w	r4, r4, r2, asr #16
    aa54:	b292      	uxth	r2, r2
    aa56:	ea42 4204 	orr.w	r2, r2, r4, lsl #16
    aa5a:	45e1      	cmp	r9, ip
    aa5c:	f84e 2b04 	str.w	r2, [lr], #4
    aa60:	ea4f 4424 	mov.w	r4, r4, asr #16
    aa64:	ea4f 4213 	mov.w	r2, r3, lsr #16
    aa68:	d2dc      	bcs.n	aa24 <quorem+0x44>
    aa6a:	9b00      	ldr	r3, [sp, #0]
    aa6c:	f85a 3003 	ldr.w	r3, [sl, r3]
    aa70:	b98b      	cbnz	r3, aa96 <quorem+0xb6>
    aa72:	9c01      	ldr	r4, [sp, #4]
    aa74:	1f23      	subs	r3, r4, #4
    aa76:	459a      	cmp	sl, r3
    aa78:	d20c      	bcs.n	aa94 <quorem+0xb4>
    aa7a:	f854 3c04 	ldr.w	r3, [r4, #-4]
    aa7e:	b94b      	cbnz	r3, aa94 <quorem+0xb4>
    aa80:	f1a4 0308 	sub.w	r3, r4, #8
    aa84:	e002      	b.n	aa8c <quorem+0xac>
    aa86:	681a      	ldr	r2, [r3, #0]
    aa88:	3b04      	subs	r3, #4
    aa8a:	b91a      	cbnz	r2, aa94 <quorem+0xb4>
    aa8c:	459a      	cmp	sl, r3
    aa8e:	f107 37ff 	add.w	r7, r7, #4294967295
    aa92:	d3f8      	bcc.n	aa86 <quorem+0xa6>
    aa94:	6107      	str	r7, [r0, #16]
    aa96:	4604      	mov	r4, r0
    aa98:	f001 fdae 	bl	c5f8 <__mcmp>
    aa9c:	2800      	cmp	r0, #0
    aa9e:	db2e      	blt.n	aafe <quorem+0x11e>
    aaa0:	2300      	movs	r3, #0
    aaa2:	4655      	mov	r5, sl
    aaa4:	4619      	mov	r1, r3
    aaa6:	f108 0801 	add.w	r8, r8, #1
    aaaa:	f856 2b04 	ldr.w	r2, [r6], #4
    aaae:	682b      	ldr	r3, [r5, #0]
    aab0:	b290      	uxth	r0, r2
    aab2:	1a08      	subs	r0, r1, r0
    aab4:	0c12      	lsrs	r2, r2, #16
    aab6:	b299      	uxth	r1, r3
    aab8:	ebc2 4313 	rsb	r3, r2, r3, lsr #16
    aabc:	1842      	adds	r2, r0, r1
    aabe:	eb03 4322 	add.w	r3, r3, r2, asr #16
    aac2:	b292      	uxth	r2, r2
    aac4:	ea42 4203 	orr.w	r2, r2, r3, lsl #16
    aac8:	45b1      	cmp	r9, r6
    aaca:	f845 2b04 	str.w	r2, [r5], #4
    aace:	ea4f 4123 	mov.w	r1, r3, asr #16
    aad2:	d2ea      	bcs.n	aaaa <quorem+0xca>
    aad4:	f85a 2027 	ldr.w	r2, [sl, r7, lsl #2]
    aad8:	eb0a 0387 	add.w	r3, sl, r7, lsl #2
    aadc:	b97a      	cbnz	r2, aafe <quorem+0x11e>
    aade:	1f1a      	subs	r2, r3, #4
    aae0:	4592      	cmp	sl, r2
    aae2:	d20b      	bcs.n	aafc <quorem+0x11c>
    aae4:	f853 2c04 	ldr.w	r2, [r3, #-4]
    aae8:	b942      	cbnz	r2, aafc <quorem+0x11c>
    aaea:	3b08      	subs	r3, #8
    aaec:	e002      	b.n	aaf4 <quorem+0x114>
    aaee:	681a      	ldr	r2, [r3, #0]
    aaf0:	3b04      	subs	r3, #4
    aaf2:	b91a      	cbnz	r2, aafc <quorem+0x11c>
    aaf4:	459a      	cmp	sl, r3
    aaf6:	f107 37ff 	add.w	r7, r7, #4294967295
    aafa:	d3f8      	bcc.n	aaee <quorem+0x10e>
    aafc:	6127      	str	r7, [r4, #16]
    aafe:	4640      	mov	r0, r8
    ab00:	b003      	add	sp, #12
    ab02:	e8bd 8ff0 	ldmia.w	sp!, {r4, r5, r6, r7, r8, r9, sl, fp, pc}
    ab06:	2000      	movs	r0, #0
    ab08:	b003      	add	sp, #12
    ab0a:	e8bd 8ff0 	ldmia.w	sp!, {r4, r5, r6, r7, r8, r9, sl, fp, pc}
    ab0e:	bf00      	nop

0000ab10 <_dtoa_r>:
    ab10:	e92d 4ff0 	stmdb	sp!, {r4, r5, r6, r7, r8, r9, sl, fp, lr}
    ab14:	6c01      	ldr	r1, [r0, #64]	; 0x40
    ab16:	b099      	sub	sp, #100	; 0x64
    ab18:	4604      	mov	r4, r0
    ab1a:	e9cd 2302 	strd	r2, r3, [sp, #8]
    ab1e:	9d25      	ldr	r5, [sp, #148]	; 0x94
    ab20:	b141      	cbz	r1, ab34 <_dtoa_r+0x24>
    ab22:	6c42      	ldr	r2, [r0, #68]	; 0x44
    ab24:	2301      	movs	r3, #1
    ab26:	4093      	lsls	r3, r2
    ab28:	608b      	str	r3, [r1, #8]
    ab2a:	604a      	str	r2, [r1, #4]
    ab2c:	f001 fb2c 	bl	c188 <_Bfree>
    ab30:	2300      	movs	r3, #0
    ab32:	6423      	str	r3, [r4, #64]	; 0x40
    ab34:	e9dd 2302 	ldrd	r2, r3, [sp, #8]
    ab38:	2b00      	cmp	r3, #0
    ab3a:	4699      	mov	r9, r3
    ab3c:	db36      	blt.n	abac <_dtoa_r+0x9c>
    ab3e:	2300      	movs	r3, #0
    ab40:	602b      	str	r3, [r5, #0]
    ab42:	4ba5      	ldr	r3, [pc, #660]	; (add8 <_dtoa_r+0x2c8>)
    ab44:	461a      	mov	r2, r3
    ab46:	ea09 0303 	and.w	r3, r9, r3
    ab4a:	4293      	cmp	r3, r2
    ab4c:	d017      	beq.n	ab7e <_dtoa_r+0x6e>
    ab4e:	e9dd 6702 	ldrd	r6, r7, [sp, #8]
    ab52:	2200      	movs	r2, #0
    ab54:	2300      	movs	r3, #0
    ab56:	4630      	mov	r0, r6
    ab58:	4639      	mov	r1, r7
    ab5a:	f004 f913 	bl	ed84 <__aeabi_dcmpeq>
    ab5e:	4680      	mov	r8, r0
    ab60:	2800      	cmp	r0, #0
    ab62:	d02b      	beq.n	abbc <_dtoa_r+0xac>
    ab64:	9a24      	ldr	r2, [sp, #144]	; 0x90
    ab66:	2301      	movs	r3, #1
    ab68:	6013      	str	r3, [r2, #0]
    ab6a:	9b26      	ldr	r3, [sp, #152]	; 0x98
    ab6c:	2b00      	cmp	r3, #0
    ab6e:	f000 80cb 	beq.w	ad08 <_dtoa_r+0x1f8>
    ab72:	489a      	ldr	r0, [pc, #616]	; (addc <_dtoa_r+0x2cc>)
    ab74:	6018      	str	r0, [r3, #0]
    ab76:	3801      	subs	r0, #1
    ab78:	b019      	add	sp, #100	; 0x64
    ab7a:	e8bd 8ff0 	ldmia.w	sp!, {r4, r5, r6, r7, r8, r9, sl, fp, pc}
    ab7e:	f242 730f 	movw	r3, #9999	; 0x270f
    ab82:	9a24      	ldr	r2, [sp, #144]	; 0x90
    ab84:	6013      	str	r3, [r2, #0]
    ab86:	9b02      	ldr	r3, [sp, #8]
    ab88:	2b00      	cmp	r3, #0
    ab8a:	f000 80a6 	beq.w	acda <_dtoa_r+0x1ca>
    ab8e:	4894      	ldr	r0, [pc, #592]	; (ade0 <_dtoa_r+0x2d0>)
    ab90:	9b26      	ldr	r3, [sp, #152]	; 0x98
    ab92:	2b00      	cmp	r3, #0
    ab94:	d0f0      	beq.n	ab78 <_dtoa_r+0x68>
    ab96:	78c3      	ldrb	r3, [r0, #3]
    ab98:	2b00      	cmp	r3, #0
    ab9a:	f000 80b7 	beq.w	ad0c <_dtoa_r+0x1fc>
    ab9e:	f100 0308 	add.w	r3, r0, #8
    aba2:	9a26      	ldr	r2, [sp, #152]	; 0x98
    aba4:	6013      	str	r3, [r2, #0]
    aba6:	b019      	add	sp, #100	; 0x64
    aba8:	e8bd 8ff0 	ldmia.w	sp!, {r4, r5, r6, r7, r8, r9, sl, fp, pc}
    abac:	9a03      	ldr	r2, [sp, #12]
    abae:	2301      	movs	r3, #1
    abb0:	f022 4900 	bic.w	r9, r2, #2147483648	; 0x80000000
    abb4:	602b      	str	r3, [r5, #0]
    abb6:	f8cd 900c 	str.w	r9, [sp, #12]
    abba:	e7c2      	b.n	ab42 <_dtoa_r+0x32>
    abbc:	aa17      	add	r2, sp, #92	; 0x5c
    abbe:	ab16      	add	r3, sp, #88	; 0x58
    abc0:	e88d 000c 	stmia.w	sp, {r2, r3}
    abc4:	4620      	mov	r0, r4
    abc6:	4632      	mov	r2, r6
    abc8:	463b      	mov	r3, r7
    abca:	f001 fe35 	bl	c838 <__d2b>
    abce:	ea5f 5519 	movs.w	r5, r9, lsr #20
    abd2:	4683      	mov	fp, r0
    abd4:	f040 808a 	bne.w	acec <_dtoa_r+0x1dc>
    abd8:	f8dd 8058 	ldr.w	r8, [sp, #88]	; 0x58
    abdc:	9d17      	ldr	r5, [sp, #92]	; 0x5c
    abde:	f46f 6382 	mvn.w	r3, #1040	; 0x410
    abe2:	4445      	add	r5, r8
    abe4:	429d      	cmp	r5, r3
    abe6:	f2c0 8295 	blt.w	b114 <_dtoa_r+0x604>
    abea:	4a7e      	ldr	r2, [pc, #504]	; (ade4 <_dtoa_r+0x2d4>)
    abec:	f205 4312 	addw	r3, r5, #1042	; 0x412
    abf0:	1b52      	subs	r2, r2, r5
    abf2:	fa09 f902 	lsl.w	r9, r9, r2
    abf6:	9a02      	ldr	r2, [sp, #8]
    abf8:	fa22 f003 	lsr.w	r0, r2, r3
    abfc:	ea49 0000 	orr.w	r0, r9, r0
    ac00:	f003 fde2 	bl	e7c8 <__aeabi_ui2d>
    ac04:	2301      	movs	r3, #1
    ac06:	3d01      	subs	r5, #1
    ac08:	f1a1 71f8 	sub.w	r1, r1, #32505856	; 0x1f00000
    ac0c:	9312      	str	r3, [sp, #72]	; 0x48
    ac0e:	2200      	movs	r2, #0
    ac10:	4b75      	ldr	r3, [pc, #468]	; (ade8 <_dtoa_r+0x2d8>)
    ac12:	f003 fc9b 	bl	e54c <__aeabi_dsub>
    ac16:	a36a      	add	r3, pc, #424	; (adr r3, adc0 <_dtoa_r+0x2b0>)
    ac18:	e9d3 2300 	ldrd	r2, r3, [r3]
    ac1c:	f003 fe4a 	bl	e8b4 <__aeabi_dmul>
    ac20:	a369      	add	r3, pc, #420	; (adr r3, adc8 <_dtoa_r+0x2b8>)
    ac22:	e9d3 2300 	ldrd	r2, r3, [r3]
    ac26:	f003 fc93 	bl	e550 <__adddf3>
    ac2a:	4606      	mov	r6, r0
    ac2c:	4628      	mov	r0, r5
    ac2e:	460f      	mov	r7, r1
    ac30:	f003 fdda 	bl	e7e8 <__aeabi_i2d>
    ac34:	a366      	add	r3, pc, #408	; (adr r3, add0 <_dtoa_r+0x2c0>)
    ac36:	e9d3 2300 	ldrd	r2, r3, [r3]
    ac3a:	f003 fe3b 	bl	e8b4 <__aeabi_dmul>
    ac3e:	4602      	mov	r2, r0
    ac40:	460b      	mov	r3, r1
    ac42:	4630      	mov	r0, r6
    ac44:	4639      	mov	r1, r7
    ac46:	f003 fc83 	bl	e550 <__adddf3>
    ac4a:	4606      	mov	r6, r0
    ac4c:	460f      	mov	r7, r1
    ac4e:	f004 f8cb 	bl	ede8 <__aeabi_d2iz>
    ac52:	4639      	mov	r1, r7
    ac54:	9005      	str	r0, [sp, #20]
    ac56:	2200      	movs	r2, #0
    ac58:	4630      	mov	r0, r6
    ac5a:	2300      	movs	r3, #0
    ac5c:	f004 f89c 	bl	ed98 <__aeabi_dcmplt>
    ac60:	2800      	cmp	r0, #0
    ac62:	f040 81a4 	bne.w	afae <_dtoa_r+0x49e>
    ac66:	9b05      	ldr	r3, [sp, #20]
    ac68:	2b16      	cmp	r3, #22
    ac6a:	f200 819d 	bhi.w	afa8 <_dtoa_r+0x498>
    ac6e:	e9dd 2302 	ldrd	r2, r3, [sp, #8]
    ac72:	9805      	ldr	r0, [sp, #20]
    ac74:	495d      	ldr	r1, [pc, #372]	; (adec <_dtoa_r+0x2dc>)
    ac76:	eb01 01c0 	add.w	r1, r1, r0, lsl #3
    ac7a:	e9d1 0100 	ldrd	r0, r1, [r1]
    ac7e:	f004 f8a9 	bl	edd4 <__aeabi_dcmpgt>
    ac82:	2800      	cmp	r0, #0
    ac84:	f000 8250 	beq.w	b128 <_dtoa_r+0x618>
    ac88:	9b05      	ldr	r3, [sp, #20]
    ac8a:	3b01      	subs	r3, #1
    ac8c:	9305      	str	r3, [sp, #20]
    ac8e:	2300      	movs	r3, #0
    ac90:	930c      	str	r3, [sp, #48]	; 0x30
    ac92:	ebc5 0508 	rsb	r5, r5, r8
    ac96:	f1b5 0a01 	subs.w	sl, r5, #1
    ac9a:	f100 819f 	bmi.w	afdc <_dtoa_r+0x4cc>
    ac9e:	2300      	movs	r3, #0
    aca0:	9306      	str	r3, [sp, #24]
    aca2:	9b05      	ldr	r3, [sp, #20]
    aca4:	2b00      	cmp	r3, #0
    aca6:	f2c0 8190 	blt.w	afca <_dtoa_r+0x4ba>
    acaa:	449a      	add	sl, r3
    acac:	930b      	str	r3, [sp, #44]	; 0x2c
    acae:	2300      	movs	r3, #0
    acb0:	9309      	str	r3, [sp, #36]	; 0x24
    acb2:	9b22      	ldr	r3, [sp, #136]	; 0x88
    acb4:	2b09      	cmp	r3, #9
    acb6:	d82b      	bhi.n	ad10 <_dtoa_r+0x200>
    acb8:	2b05      	cmp	r3, #5
    acba:	f340 8677 	ble.w	b9ac <_dtoa_r+0xe9c>
    acbe:	3b04      	subs	r3, #4
    acc0:	9322      	str	r3, [sp, #136]	; 0x88
    acc2:	2500      	movs	r5, #0
    acc4:	9b22      	ldr	r3, [sp, #136]	; 0x88
    acc6:	3b02      	subs	r3, #2
    acc8:	2b03      	cmp	r3, #3
    acca:	f200 8655 	bhi.w	b978 <_dtoa_r+0xe68>
    acce:	e8df f013 	tbh	[pc, r3, lsl #1]
    acd2:	03cf      	.short	0x03cf
    acd4:	02b003c1 	.word	0x02b003c1
    acd8:	066a      	.short	0x066a
    acda:	4b41      	ldr	r3, [pc, #260]	; (ade0 <_dtoa_r+0x2d0>)
    acdc:	4a44      	ldr	r2, [pc, #272]	; (adf0 <_dtoa_r+0x2e0>)
    acde:	f3c9 0013 	ubfx	r0, r9, #0, #20
    ace2:	2800      	cmp	r0, #0
    ace4:	bf14      	ite	ne
    ace6:	4618      	movne	r0, r3
    ace8:	4610      	moveq	r0, r2
    acea:	e751      	b.n	ab90 <_dtoa_r+0x80>
    acec:	f3c7 0313 	ubfx	r3, r7, #0, #20
    acf0:	f043 517f 	orr.w	r1, r3, #1069547520	; 0x3fc00000
    acf4:	f8cd 8048 	str.w	r8, [sp, #72]	; 0x48
    acf8:	4630      	mov	r0, r6
    acfa:	f2a5 35ff 	subw	r5, r5, #1023	; 0x3ff
    acfe:	f441 1140 	orr.w	r1, r1, #3145728	; 0x300000
    ad02:	f8dd 8058 	ldr.w	r8, [sp, #88]	; 0x58
    ad06:	e782      	b.n	ac0e <_dtoa_r+0xfe>
    ad08:	483a      	ldr	r0, [pc, #232]	; (adf4 <_dtoa_r+0x2e4>)
    ad0a:	e735      	b.n	ab78 <_dtoa_r+0x68>
    ad0c:	1cc3      	adds	r3, r0, #3
    ad0e:	e748      	b.n	aba2 <_dtoa_r+0x92>
    ad10:	2100      	movs	r1, #0
    ad12:	6461      	str	r1, [r4, #68]	; 0x44
    ad14:	4620      	mov	r0, r4
    ad16:	9122      	str	r1, [sp, #136]	; 0x88
    ad18:	f001 fa0e 	bl	c138 <_Balloc>
    ad1c:	f04f 33ff 	mov.w	r3, #4294967295
    ad20:	9a22      	ldr	r2, [sp, #136]	; 0x88
    ad22:	9307      	str	r3, [sp, #28]
    ad24:	930d      	str	r3, [sp, #52]	; 0x34
    ad26:	2301      	movs	r3, #1
    ad28:	9008      	str	r0, [sp, #32]
    ad2a:	9223      	str	r2, [sp, #140]	; 0x8c
    ad2c:	6420      	str	r0, [r4, #64]	; 0x40
    ad2e:	930a      	str	r3, [sp, #40]	; 0x28
    ad30:	9b17      	ldr	r3, [sp, #92]	; 0x5c
    ad32:	2b00      	cmp	r3, #0
    ad34:	f2c0 80d0 	blt.w	aed8 <_dtoa_r+0x3c8>
    ad38:	9a05      	ldr	r2, [sp, #20]
    ad3a:	2a0e      	cmp	r2, #14
    ad3c:	f300 80cc 	bgt.w	aed8 <_dtoa_r+0x3c8>
    ad40:	4b2a      	ldr	r3, [pc, #168]	; (adec <_dtoa_r+0x2dc>)
    ad42:	eb03 03c2 	add.w	r3, r3, r2, lsl #3
    ad46:	e9d3 8900 	ldrd	r8, r9, [r3]
    ad4a:	9b23      	ldr	r3, [sp, #140]	; 0x8c
    ad4c:	2b00      	cmp	r3, #0
    ad4e:	f2c0 8392 	blt.w	b476 <_dtoa_r+0x966>
    ad52:	e9dd 6702 	ldrd	r6, r7, [sp, #8]
    ad56:	4642      	mov	r2, r8
    ad58:	464b      	mov	r3, r9
    ad5a:	4630      	mov	r0, r6
    ad5c:	4639      	mov	r1, r7
    ad5e:	f003 fed3 	bl	eb08 <__aeabi_ddiv>
    ad62:	f004 f841 	bl	ede8 <__aeabi_d2iz>
    ad66:	4682      	mov	sl, r0
    ad68:	f003 fd3e 	bl	e7e8 <__aeabi_i2d>
    ad6c:	4642      	mov	r2, r8
    ad6e:	464b      	mov	r3, r9
    ad70:	f003 fda0 	bl	e8b4 <__aeabi_dmul>
    ad74:	4602      	mov	r2, r0
    ad76:	460b      	mov	r3, r1
    ad78:	4630      	mov	r0, r6
    ad7a:	4639      	mov	r1, r7
    ad7c:	f003 fbe6 	bl	e54c <__aeabi_dsub>
    ad80:	9e07      	ldr	r6, [sp, #28]
    ad82:	9f08      	ldr	r7, [sp, #32]
    ad84:	f10a 0530 	add.w	r5, sl, #48	; 0x30
    ad88:	2e01      	cmp	r6, #1
    ad8a:	703d      	strb	r5, [r7, #0]
    ad8c:	4602      	mov	r2, r0
    ad8e:	460b      	mov	r3, r1
    ad90:	f107 0501 	add.w	r5, r7, #1
    ad94:	d062      	beq.n	ae5c <_dtoa_r+0x34c>
    ad96:	2200      	movs	r2, #0
    ad98:	4b17      	ldr	r3, [pc, #92]	; (adf8 <_dtoa_r+0x2e8>)
    ad9a:	f003 fd8b 	bl	e8b4 <__aeabi_dmul>
    ad9e:	2200      	movs	r2, #0
    ada0:	2300      	movs	r3, #0
    ada2:	4606      	mov	r6, r0
    ada4:	460f      	mov	r7, r1
    ada6:	f003 ffed 	bl	ed84 <__aeabi_dcmpeq>
    adaa:	2800      	cmp	r0, #0
    adac:	f040 8081 	bne.w	aeb2 <_dtoa_r+0x3a2>
    adb0:	f8cd b008 	str.w	fp, [sp, #8]
    adb4:	f8dd a020 	ldr.w	sl, [sp, #32]
    adb8:	f8dd b01c 	ldr.w	fp, [sp, #28]
    adbc:	9406      	str	r4, [sp, #24]
    adbe:	e02a      	b.n	ae16 <_dtoa_r+0x306>
    adc0:	636f4361 	.word	0x636f4361
    adc4:	3fd287a7 	.word	0x3fd287a7
    adc8:	8b60c8b3 	.word	0x8b60c8b3
    adcc:	3fc68a28 	.word	0x3fc68a28
    add0:	509f79fb 	.word	0x509f79fb
    add4:	3fd34413 	.word	0x3fd34413
    add8:	7ff00000 	.word	0x7ff00000
    addc:	0000f455 	.word	0x0000f455
    ade0:	0000f474 	.word	0x0000f474
    ade4:	fffffc0e 	.word	0xfffffc0e
    ade8:	3ff80000 	.word	0x3ff80000
    adec:	0000f488 	.word	0x0000f488
    adf0:	0000f468 	.word	0x0000f468
    adf4:	0000f454 	.word	0x0000f454
    adf8:	40240000 	.word	0x40240000
    adfc:	2200      	movs	r2, #0
    adfe:	4bc8      	ldr	r3, [pc, #800]	; (b120 <_dtoa_r+0x610>)
    ae00:	f003 fd58 	bl	e8b4 <__aeabi_dmul>
    ae04:	2200      	movs	r2, #0
    ae06:	2300      	movs	r3, #0
    ae08:	4606      	mov	r6, r0
    ae0a:	460f      	mov	r7, r1
    ae0c:	f003 ffba 	bl	ed84 <__aeabi_dcmpeq>
    ae10:	2800      	cmp	r0, #0
    ae12:	f040 83e0 	bne.w	b5d6 <_dtoa_r+0xac6>
    ae16:	4642      	mov	r2, r8
    ae18:	464b      	mov	r3, r9
    ae1a:	4630      	mov	r0, r6
    ae1c:	4639      	mov	r1, r7
    ae1e:	f003 fe73 	bl	eb08 <__aeabi_ddiv>
    ae22:	f003 ffe1 	bl	ede8 <__aeabi_d2iz>
    ae26:	4604      	mov	r4, r0
    ae28:	f003 fcde 	bl	e7e8 <__aeabi_i2d>
    ae2c:	4642      	mov	r2, r8
    ae2e:	464b      	mov	r3, r9
    ae30:	f003 fd40 	bl	e8b4 <__aeabi_dmul>
    ae34:	4602      	mov	r2, r0
    ae36:	460b      	mov	r3, r1
    ae38:	4630      	mov	r0, r6
    ae3a:	4639      	mov	r1, r7
    ae3c:	f003 fb86 	bl	e54c <__aeabi_dsub>
    ae40:	f104 0630 	add.w	r6, r4, #48	; 0x30
    ae44:	f805 6b01 	strb.w	r6, [r5], #1
    ae48:	ebca 0605 	rsb	r6, sl, r5
    ae4c:	45b3      	cmp	fp, r6
    ae4e:	4602      	mov	r2, r0
    ae50:	460b      	mov	r3, r1
    ae52:	d1d3      	bne.n	adfc <_dtoa_r+0x2ec>
    ae54:	46a2      	mov	sl, r4
    ae56:	f8dd b008 	ldr.w	fp, [sp, #8]
    ae5a:	9c06      	ldr	r4, [sp, #24]
    ae5c:	4610      	mov	r0, r2
    ae5e:	4619      	mov	r1, r3
    ae60:	f003 fb76 	bl	e550 <__adddf3>
    ae64:	4606      	mov	r6, r0
    ae66:	460f      	mov	r7, r1
    ae68:	4640      	mov	r0, r8
    ae6a:	4649      	mov	r1, r9
    ae6c:	4632      	mov	r2, r6
    ae6e:	463b      	mov	r3, r7
    ae70:	f003 ff92 	bl	ed98 <__aeabi_dcmplt>
    ae74:	b948      	cbnz	r0, ae8a <_dtoa_r+0x37a>
    ae76:	4640      	mov	r0, r8
    ae78:	4649      	mov	r1, r9
    ae7a:	4632      	mov	r2, r6
    ae7c:	463b      	mov	r3, r7
    ae7e:	f003 ff81 	bl	ed84 <__aeabi_dcmpeq>
    ae82:	b1b0      	cbz	r0, aeb2 <_dtoa_r+0x3a2>
    ae84:	f01a 0f01 	tst.w	sl, #1
    ae88:	d013      	beq.n	aeb2 <_dtoa_r+0x3a2>
    ae8a:	f815 8c01 	ldrb.w	r8, [r5, #-1]
    ae8e:	1e6b      	subs	r3, r5, #1
    ae90:	9908      	ldr	r1, [sp, #32]
    ae92:	e004      	b.n	ae9e <_dtoa_r+0x38e>
    ae94:	428b      	cmp	r3, r1
    ae96:	f000 8445 	beq.w	b724 <_dtoa_r+0xc14>
    ae9a:	f813 8d01 	ldrb.w	r8, [r3, #-1]!
    ae9e:	f1b8 0f39 	cmp.w	r8, #57	; 0x39
    aea2:	f103 0501 	add.w	r5, r3, #1
    aea6:	461a      	mov	r2, r3
    aea8:	d0f4      	beq.n	ae94 <_dtoa_r+0x384>
    aeaa:	f108 0301 	add.w	r3, r8, #1
    aeae:	b2db      	uxtb	r3, r3
    aeb0:	7013      	strb	r3, [r2, #0]
    aeb2:	4620      	mov	r0, r4
    aeb4:	4659      	mov	r1, fp
    aeb6:	f001 f967 	bl	c188 <_Bfree>
    aeba:	2200      	movs	r2, #0
    aebc:	9b05      	ldr	r3, [sp, #20]
    aebe:	702a      	strb	r2, [r5, #0]
    aec0:	9a24      	ldr	r2, [sp, #144]	; 0x90
    aec2:	3301      	adds	r3, #1
    aec4:	6013      	str	r3, [r2, #0]
    aec6:	9b26      	ldr	r3, [sp, #152]	; 0x98
    aec8:	2b00      	cmp	r3, #0
    aeca:	f000 834a 	beq.w	b562 <_dtoa_r+0xa52>
    aece:	9808      	ldr	r0, [sp, #32]
    aed0:	601d      	str	r5, [r3, #0]
    aed2:	b019      	add	sp, #100	; 0x64
    aed4:	e8bd 8ff0 	ldmia.w	sp!, {r4, r5, r6, r7, r8, r9, sl, fp, pc}
    aed8:	9a0a      	ldr	r2, [sp, #40]	; 0x28
    aeda:	2a00      	cmp	r2, #0
    aedc:	f000 8084 	beq.w	afe8 <_dtoa_r+0x4d8>
    aee0:	9a22      	ldr	r2, [sp, #136]	; 0x88
    aee2:	2a01      	cmp	r2, #1
    aee4:	f340 8309 	ble.w	b4fa <_dtoa_r+0x9ea>
    aee8:	9b07      	ldr	r3, [sp, #28]
    aeea:	1e5f      	subs	r7, r3, #1
    aeec:	9b09      	ldr	r3, [sp, #36]	; 0x24
    aeee:	42bb      	cmp	r3, r7
    aef0:	f2c0 83af 	blt.w	b652 <_dtoa_r+0xb42>
    aef4:	1bdf      	subs	r7, r3, r7
    aef6:	9b07      	ldr	r3, [sp, #28]
    aef8:	2b00      	cmp	r3, #0
    aefa:	f2c0 84a5 	blt.w	b848 <_dtoa_r+0xd38>
    aefe:	9d06      	ldr	r5, [sp, #24]
    af00:	9b07      	ldr	r3, [sp, #28]
    af02:	9a06      	ldr	r2, [sp, #24]
    af04:	4620      	mov	r0, r4
    af06:	441a      	add	r2, r3
    af08:	2101      	movs	r1, #1
    af0a:	9206      	str	r2, [sp, #24]
    af0c:	449a      	add	sl, r3
    af0e:	f001 fa21 	bl	c354 <__i2b>
    af12:	4606      	mov	r6, r0
    af14:	b165      	cbz	r5, af30 <_dtoa_r+0x420>
    af16:	f1ba 0f00 	cmp.w	sl, #0
    af1a:	dd09      	ble.n	af30 <_dtoa_r+0x420>
    af1c:	45aa      	cmp	sl, r5
    af1e:	4653      	mov	r3, sl
    af20:	bfa8      	it	ge
    af22:	462b      	movge	r3, r5
    af24:	9a06      	ldr	r2, [sp, #24]
    af26:	1aed      	subs	r5, r5, r3
    af28:	1ad2      	subs	r2, r2, r3
    af2a:	9206      	str	r2, [sp, #24]
    af2c:	ebc3 0a0a 	rsb	sl, r3, sl
    af30:	9b09      	ldr	r3, [sp, #36]	; 0x24
    af32:	2b00      	cmp	r3, #0
    af34:	dd1a      	ble.n	af6c <_dtoa_r+0x45c>
    af36:	9b0a      	ldr	r3, [sp, #40]	; 0x28
    af38:	2b00      	cmp	r3, #0
    af3a:	f000 8383 	beq.w	b644 <_dtoa_r+0xb34>
    af3e:	2f00      	cmp	r7, #0
    af40:	dd10      	ble.n	af64 <_dtoa_r+0x454>
    af42:	4631      	mov	r1, r6
    af44:	463a      	mov	r2, r7
    af46:	4620      	mov	r0, r4
    af48:	f001 faae 	bl	c4a8 <__pow5mult>
    af4c:	4606      	mov	r6, r0
    af4e:	465a      	mov	r2, fp
    af50:	4631      	mov	r1, r6
    af52:	4620      	mov	r0, r4
    af54:	f001 fa08 	bl	c368 <__multiply>
    af58:	4680      	mov	r8, r0
    af5a:	4659      	mov	r1, fp
    af5c:	4620      	mov	r0, r4
    af5e:	f001 f913 	bl	c188 <_Bfree>
    af62:	46c3      	mov	fp, r8
    af64:	9b09      	ldr	r3, [sp, #36]	; 0x24
    af66:	1bda      	subs	r2, r3, r7
    af68:	f040 82a7 	bne.w	b4ba <_dtoa_r+0x9aa>
    af6c:	4620      	mov	r0, r4
    af6e:	2101      	movs	r1, #1
    af70:	f001 f9f0 	bl	c354 <__i2b>
    af74:	9b0b      	ldr	r3, [sp, #44]	; 0x2c
    af76:	4680      	mov	r8, r0
    af78:	2b00      	cmp	r3, #0
    af7a:	dd39      	ble.n	aff0 <_dtoa_r+0x4e0>
    af7c:	4601      	mov	r1, r0
    af7e:	461a      	mov	r2, r3
    af80:	4620      	mov	r0, r4
    af82:	f001 fa91 	bl	c4a8 <__pow5mult>
    af86:	9b22      	ldr	r3, [sp, #136]	; 0x88
    af88:	4680      	mov	r8, r0
    af8a:	2b01      	cmp	r3, #1
    af8c:	f340 829b 	ble.w	b4c6 <_dtoa_r+0x9b6>
    af90:	f04f 0900 	mov.w	r9, #0
    af94:	f8d8 3010 	ldr.w	r3, [r8, #16]
    af98:	eb08 0383 	add.w	r3, r8, r3, lsl #2
    af9c:	6918      	ldr	r0, [r3, #16]
    af9e:	f001 f98b 	bl	c2b8 <__hi0bits>
    afa2:	f1c0 0020 	rsb	r0, r0, #32
    afa6:	e02d      	b.n	b004 <_dtoa_r+0x4f4>
    afa8:	2301      	movs	r3, #1
    afaa:	930c      	str	r3, [sp, #48]	; 0x30
    afac:	e671      	b.n	ac92 <_dtoa_r+0x182>
    afae:	9805      	ldr	r0, [sp, #20]
    afb0:	f003 fc1a 	bl	e7e8 <__aeabi_i2d>
    afb4:	4632      	mov	r2, r6
    afb6:	463b      	mov	r3, r7
    afb8:	f003 fee4 	bl	ed84 <__aeabi_dcmpeq>
    afbc:	2800      	cmp	r0, #0
    afbe:	f47f ae52 	bne.w	ac66 <_dtoa_r+0x156>
    afc2:	9b05      	ldr	r3, [sp, #20]
    afc4:	3b01      	subs	r3, #1
    afc6:	9305      	str	r3, [sp, #20]
    afc8:	e64d      	b.n	ac66 <_dtoa_r+0x156>
    afca:	9a06      	ldr	r2, [sp, #24]
    afcc:	9b05      	ldr	r3, [sp, #20]
    afce:	1ad2      	subs	r2, r2, r3
    afd0:	425b      	negs	r3, r3
    afd2:	9309      	str	r3, [sp, #36]	; 0x24
    afd4:	2300      	movs	r3, #0
    afd6:	9206      	str	r2, [sp, #24]
    afd8:	930b      	str	r3, [sp, #44]	; 0x2c
    afda:	e66a      	b.n	acb2 <_dtoa_r+0x1a2>
    afdc:	f1ca 0300 	rsb	r3, sl, #0
    afe0:	9306      	str	r3, [sp, #24]
    afe2:	f04f 0a00 	mov.w	sl, #0
    afe6:	e65c      	b.n	aca2 <_dtoa_r+0x192>
    afe8:	9f09      	ldr	r7, [sp, #36]	; 0x24
    afea:	9d06      	ldr	r5, [sp, #24]
    afec:	9e0a      	ldr	r6, [sp, #40]	; 0x28
    afee:	e791      	b.n	af14 <_dtoa_r+0x404>
    aff0:	9b22      	ldr	r3, [sp, #136]	; 0x88
    aff2:	2b01      	cmp	r3, #1
    aff4:	f340 82b8 	ble.w	b568 <_dtoa_r+0xa58>
    aff8:	f04f 0900 	mov.w	r9, #0
    affc:	9b0b      	ldr	r3, [sp, #44]	; 0x2c
    affe:	2b00      	cmp	r3, #0
    b000:	d1c8      	bne.n	af94 <_dtoa_r+0x484>
    b002:	2001      	movs	r0, #1
    b004:	4450      	add	r0, sl
    b006:	f010 001f 	ands.w	r0, r0, #31
    b00a:	f000 8081 	beq.w	b110 <_dtoa_r+0x600>
    b00e:	f1c0 0320 	rsb	r3, r0, #32
    b012:	2b04      	cmp	r3, #4
    b014:	f340 84c1 	ble.w	b99a <_dtoa_r+0xe8a>
    b018:	f1c0 001c 	rsb	r0, r0, #28
    b01c:	9b06      	ldr	r3, [sp, #24]
    b01e:	4405      	add	r5, r0
    b020:	4403      	add	r3, r0
    b022:	9306      	str	r3, [sp, #24]
    b024:	4482      	add	sl, r0
    b026:	9b06      	ldr	r3, [sp, #24]
    b028:	2b00      	cmp	r3, #0
    b02a:	dd05      	ble.n	b038 <_dtoa_r+0x528>
    b02c:	4659      	mov	r1, fp
    b02e:	461a      	mov	r2, r3
    b030:	4620      	mov	r0, r4
    b032:	f001 fa89 	bl	c548 <__lshift>
    b036:	4683      	mov	fp, r0
    b038:	f1ba 0f00 	cmp.w	sl, #0
    b03c:	dd05      	ble.n	b04a <_dtoa_r+0x53a>
    b03e:	4641      	mov	r1, r8
    b040:	4652      	mov	r2, sl
    b042:	4620      	mov	r0, r4
    b044:	f001 fa80 	bl	c548 <__lshift>
    b048:	4680      	mov	r8, r0
    b04a:	9b0c      	ldr	r3, [sp, #48]	; 0x30
    b04c:	2b00      	cmp	r3, #0
    b04e:	f040 826d 	bne.w	b52c <_dtoa_r+0xa1c>
    b052:	9b07      	ldr	r3, [sp, #28]
    b054:	2b00      	cmp	r3, #0
    b056:	f340 829b 	ble.w	b590 <_dtoa_r+0xa80>
    b05a:	9b0a      	ldr	r3, [sp, #40]	; 0x28
    b05c:	2b00      	cmp	r3, #0
    b05e:	d171      	bne.n	b144 <_dtoa_r+0x634>
    b060:	f8dd 9020 	ldr.w	r9, [sp, #32]
    b064:	9f07      	ldr	r7, [sp, #28]
    b066:	464d      	mov	r5, r9
    b068:	e004      	b.n	b074 <_dtoa_r+0x564>
    b06a:	4659      	mov	r1, fp
    b06c:	4620      	mov	r0, r4
    b06e:	f001 f895 	bl	c19c <__multadd>
    b072:	4683      	mov	fp, r0
    b074:	4658      	mov	r0, fp
    b076:	4641      	mov	r1, r8
    b078:	f7ff fcb2 	bl	a9e0 <quorem>
    b07c:	3030      	adds	r0, #48	; 0x30
    b07e:	f805 0b01 	strb.w	r0, [r5], #1
    b082:	ebc9 0305 	rsb	r3, r9, r5
    b086:	42bb      	cmp	r3, r7
    b088:	f04f 020a 	mov.w	r2, #10
    b08c:	f04f 0300 	mov.w	r3, #0
    b090:	dbeb      	blt.n	b06a <_dtoa_r+0x55a>
    b092:	9b08      	ldr	r3, [sp, #32]
    b094:	9a07      	ldr	r2, [sp, #28]
    b096:	4684      	mov	ip, r0
    b098:	2a01      	cmp	r2, #1
    b09a:	bfac      	ite	ge
    b09c:	189b      	addge	r3, r3, r2
    b09e:	3301      	addlt	r3, #1
    b0a0:	461d      	mov	r5, r3
    b0a2:	f04f 0a00 	mov.w	sl, #0
    b0a6:	4659      	mov	r1, fp
    b0a8:	2201      	movs	r2, #1
    b0aa:	4620      	mov	r0, r4
    b0ac:	f8cd c008 	str.w	ip, [sp, #8]
    b0b0:	f001 fa4a 	bl	c548 <__lshift>
    b0b4:	4641      	mov	r1, r8
    b0b6:	4683      	mov	fp, r0
    b0b8:	f001 fa9e 	bl	c5f8 <__mcmp>
    b0bc:	2800      	cmp	r0, #0
    b0be:	f8dd c008 	ldr.w	ip, [sp, #8]
    b0c2:	f340 82fc 	ble.w	b6be <_dtoa_r+0xbae>
    b0c6:	f815 2c01 	ldrb.w	r2, [r5, #-1]
    b0ca:	1e6b      	subs	r3, r5, #1
    b0cc:	9908      	ldr	r1, [sp, #32]
    b0ce:	e004      	b.n	b0da <_dtoa_r+0x5ca>
    b0d0:	428b      	cmp	r3, r1
    b0d2:	f000 8279 	beq.w	b5c8 <_dtoa_r+0xab8>
    b0d6:	f813 2d01 	ldrb.w	r2, [r3, #-1]!
    b0da:	2a39      	cmp	r2, #57	; 0x39
    b0dc:	f103 0501 	add.w	r5, r3, #1
    b0e0:	d0f6      	beq.n	b0d0 <_dtoa_r+0x5c0>
    b0e2:	3201      	adds	r2, #1
    b0e4:	701a      	strb	r2, [r3, #0]
    b0e6:	4641      	mov	r1, r8
    b0e8:	4620      	mov	r0, r4
    b0ea:	f001 f84d 	bl	c188 <_Bfree>
    b0ee:	2e00      	cmp	r6, #0
    b0f0:	f43f aedf 	beq.w	aeb2 <_dtoa_r+0x3a2>
    b0f4:	f1ba 0f00 	cmp.w	sl, #0
    b0f8:	d005      	beq.n	b106 <_dtoa_r+0x5f6>
    b0fa:	45b2      	cmp	sl, r6
    b0fc:	d003      	beq.n	b106 <_dtoa_r+0x5f6>
    b0fe:	4651      	mov	r1, sl
    b100:	4620      	mov	r0, r4
    b102:	f001 f841 	bl	c188 <_Bfree>
    b106:	4631      	mov	r1, r6
    b108:	4620      	mov	r0, r4
    b10a:	f001 f83d 	bl	c188 <_Bfree>
    b10e:	e6d0      	b.n	aeb2 <_dtoa_r+0x3a2>
    b110:	201c      	movs	r0, #28
    b112:	e783      	b.n	b01c <_dtoa_r+0x50c>
    b114:	4b03      	ldr	r3, [pc, #12]	; (b124 <_dtoa_r+0x614>)
    b116:	9a02      	ldr	r2, [sp, #8]
    b118:	1b5b      	subs	r3, r3, r5
    b11a:	fa02 f003 	lsl.w	r0, r2, r3
    b11e:	e56f      	b.n	ac00 <_dtoa_r+0xf0>
    b120:	40240000 	.word	0x40240000
    b124:	fffffbee 	.word	0xfffffbee
    b128:	900c      	str	r0, [sp, #48]	; 0x30
    b12a:	e5b2      	b.n	ac92 <_dtoa_r+0x182>
    b12c:	4631      	mov	r1, r6
    b12e:	2300      	movs	r3, #0
    b130:	4620      	mov	r0, r4
    b132:	220a      	movs	r2, #10
    b134:	f001 f832 	bl	c19c <__multadd>
    b138:	9b0d      	ldr	r3, [sp, #52]	; 0x34
    b13a:	4606      	mov	r6, r0
    b13c:	2b00      	cmp	r3, #0
    b13e:	f340 8415 	ble.w	b96c <_dtoa_r+0xe5c>
    b142:	9307      	str	r3, [sp, #28]
    b144:	2d00      	cmp	r5, #0
    b146:	dd05      	ble.n	b154 <_dtoa_r+0x644>
    b148:	4631      	mov	r1, r6
    b14a:	462a      	mov	r2, r5
    b14c:	4620      	mov	r0, r4
    b14e:	f001 f9fb 	bl	c548 <__lshift>
    b152:	4606      	mov	r6, r0
    b154:	f1b9 0f00 	cmp.w	r9, #0
    b158:	f040 82ee 	bne.w	b738 <_dtoa_r+0xc28>
    b15c:	46b1      	mov	r9, r6
    b15e:	9a08      	ldr	r2, [sp, #32]
    b160:	9b07      	ldr	r3, [sp, #28]
    b162:	4617      	mov	r7, r2
    b164:	3b01      	subs	r3, #1
    b166:	18d3      	adds	r3, r2, r3
    b168:	9309      	str	r3, [sp, #36]	; 0x24
    b16a:	9b02      	ldr	r3, [sp, #8]
    b16c:	f003 0301 	and.w	r3, r3, #1
    b170:	930a      	str	r3, [sp, #40]	; 0x28
    b172:	4641      	mov	r1, r8
    b174:	4658      	mov	r0, fp
    b176:	f7ff fc33 	bl	a9e0 <quorem>
    b17a:	4631      	mov	r1, r6
    b17c:	4605      	mov	r5, r0
    b17e:	4658      	mov	r0, fp
    b180:	f001 fa3a 	bl	c5f8 <__mcmp>
    b184:	464a      	mov	r2, r9
    b186:	4682      	mov	sl, r0
    b188:	4641      	mov	r1, r8
    b18a:	4620      	mov	r0, r4
    b18c:	f001 fa58 	bl	c640 <__mdiff>
    b190:	68c2      	ldr	r2, [r0, #12]
    b192:	4603      	mov	r3, r0
    b194:	f105 0c30 	add.w	ip, r5, #48	; 0x30
    b198:	2a00      	cmp	r2, #0
    b19a:	f040 81bd 	bne.w	b518 <_dtoa_r+0xa08>
    b19e:	4619      	mov	r1, r3
    b1a0:	4658      	mov	r0, fp
    b1a2:	f8cd c01c 	str.w	ip, [sp, #28]
    b1a6:	9306      	str	r3, [sp, #24]
    b1a8:	f001 fa26 	bl	c5f8 <__mcmp>
    b1ac:	9b06      	ldr	r3, [sp, #24]
    b1ae:	9002      	str	r0, [sp, #8]
    b1b0:	4619      	mov	r1, r3
    b1b2:	4620      	mov	r0, r4
    b1b4:	f000 ffe8 	bl	c188 <_Bfree>
    b1b8:	9a02      	ldr	r2, [sp, #8]
    b1ba:	f8dd c01c 	ldr.w	ip, [sp, #28]
    b1be:	b92a      	cbnz	r2, b1cc <_dtoa_r+0x6bc>
    b1c0:	9b22      	ldr	r3, [sp, #136]	; 0x88
    b1c2:	b91b      	cbnz	r3, b1cc <_dtoa_r+0x6bc>
    b1c4:	9b0a      	ldr	r3, [sp, #40]	; 0x28
    b1c6:	2b00      	cmp	r3, #0
    b1c8:	f000 83b0 	beq.w	b92c <_dtoa_r+0xe1c>
    b1cc:	f1ba 0f00 	cmp.w	sl, #0
    b1d0:	f2c0 8257 	blt.w	b682 <_dtoa_r+0xb72>
    b1d4:	d105      	bne.n	b1e2 <_dtoa_r+0x6d2>
    b1d6:	9b22      	ldr	r3, [sp, #136]	; 0x88
    b1d8:	b91b      	cbnz	r3, b1e2 <_dtoa_r+0x6d2>
    b1da:	9b0a      	ldr	r3, [sp, #40]	; 0x28
    b1dc:	2b00      	cmp	r3, #0
    b1de:	f000 8250 	beq.w	b682 <_dtoa_r+0xb72>
    b1e2:	2a00      	cmp	r2, #0
    b1e4:	f300 82bc 	bgt.w	b760 <_dtoa_r+0xc50>
    b1e8:	9b09      	ldr	r3, [sp, #36]	; 0x24
    b1ea:	f107 0a01 	add.w	sl, r7, #1
    b1ee:	429f      	cmp	r7, r3
    b1f0:	f887 c000 	strb.w	ip, [r7]
    b1f4:	4655      	mov	r5, sl
    b1f6:	f000 82bf 	beq.w	b778 <_dtoa_r+0xc68>
    b1fa:	4659      	mov	r1, fp
    b1fc:	220a      	movs	r2, #10
    b1fe:	2300      	movs	r3, #0
    b200:	4620      	mov	r0, r4
    b202:	f000 ffcb 	bl	c19c <__multadd>
    b206:	454e      	cmp	r6, r9
    b208:	4683      	mov	fp, r0
    b20a:	4631      	mov	r1, r6
    b20c:	4620      	mov	r0, r4
    b20e:	f04f 020a 	mov.w	r2, #10
    b212:	f04f 0300 	mov.w	r3, #0
    b216:	f000 8179 	beq.w	b50c <_dtoa_r+0x9fc>
    b21a:	f000 ffbf 	bl	c19c <__multadd>
    b21e:	4649      	mov	r1, r9
    b220:	4606      	mov	r6, r0
    b222:	220a      	movs	r2, #10
    b224:	4620      	mov	r0, r4
    b226:	2300      	movs	r3, #0
    b228:	f000 ffb8 	bl	c19c <__multadd>
    b22c:	4657      	mov	r7, sl
    b22e:	4681      	mov	r9, r0
    b230:	e79f      	b.n	b172 <_dtoa_r+0x662>
    b232:	2301      	movs	r3, #1
    b234:	930a      	str	r3, [sp, #40]	; 0x28
    b236:	9b23      	ldr	r3, [sp, #140]	; 0x8c
    b238:	2b00      	cmp	r3, #0
    b23a:	f340 8219 	ble.w	b670 <_dtoa_r+0xb60>
    b23e:	461f      	mov	r7, r3
    b240:	461e      	mov	r6, r3
    b242:	930d      	str	r3, [sp, #52]	; 0x34
    b244:	9307      	str	r3, [sp, #28]
    b246:	2100      	movs	r1, #0
    b248:	2f17      	cmp	r7, #23
    b24a:	6461      	str	r1, [r4, #68]	; 0x44
    b24c:	d90a      	bls.n	b264 <_dtoa_r+0x754>
    b24e:	2201      	movs	r2, #1
    b250:	2304      	movs	r3, #4
    b252:	005b      	lsls	r3, r3, #1
    b254:	f103 0014 	add.w	r0, r3, #20
    b258:	4287      	cmp	r7, r0
    b25a:	4611      	mov	r1, r2
    b25c:	f102 0201 	add.w	r2, r2, #1
    b260:	d2f7      	bcs.n	b252 <_dtoa_r+0x742>
    b262:	6461      	str	r1, [r4, #68]	; 0x44
    b264:	4620      	mov	r0, r4
    b266:	f000 ff67 	bl	c138 <_Balloc>
    b26a:	2e0e      	cmp	r6, #14
    b26c:	9008      	str	r0, [sp, #32]
    b26e:	6420      	str	r0, [r4, #64]	; 0x40
    b270:	f63f ad5e 	bhi.w	ad30 <_dtoa_r+0x220>
    b274:	2d00      	cmp	r5, #0
    b276:	f43f ad5b 	beq.w	ad30 <_dtoa_r+0x220>
    b27a:	e9dd 2302 	ldrd	r2, r3, [sp, #8]
    b27e:	9905      	ldr	r1, [sp, #20]
    b280:	e9cd 230e 	strd	r2, r3, [sp, #56]	; 0x38
    b284:	2900      	cmp	r1, #0
    b286:	f340 8226 	ble.w	b6d6 <_dtoa_r+0xbc6>
    b28a:	4bba      	ldr	r3, [pc, #744]	; (b574 <_dtoa_r+0xa64>)
    b28c:	f001 020f 	and.w	r2, r1, #15
    b290:	110d      	asrs	r5, r1, #4
    b292:	eb03 03c2 	add.w	r3, r3, r2, lsl #3
    b296:	06e9      	lsls	r1, r5, #27
    b298:	e9d3 6700 	ldrd	r6, r7, [r3]
    b29c:	f140 81e1 	bpl.w	b662 <_dtoa_r+0xb52>
    b2a0:	e9dd 010e 	ldrd	r0, r1, [sp, #56]	; 0x38
    b2a4:	4bb4      	ldr	r3, [pc, #720]	; (b578 <_dtoa_r+0xa68>)
    b2a6:	f005 050f 	and.w	r5, r5, #15
    b2aa:	e9d3 2308 	ldrd	r2, r3, [r3, #32]
    b2ae:	f003 fc2b 	bl	eb08 <__aeabi_ddiv>
    b2b2:	e9cd 0102 	strd	r0, r1, [sp, #8]
    b2b6:	f04f 0803 	mov.w	r8, #3
    b2ba:	b18d      	cbz	r5, b2e0 <_dtoa_r+0x7d0>
    b2bc:	4630      	mov	r0, r6
    b2be:	4639      	mov	r1, r7
    b2c0:	f8df 92b4 	ldr.w	r9, [pc, #692]	; b578 <_dtoa_r+0xa68>
    b2c4:	07ea      	lsls	r2, r5, #31
    b2c6:	d505      	bpl.n	b2d4 <_dtoa_r+0x7c4>
    b2c8:	e9d9 2300 	ldrd	r2, r3, [r9]
    b2cc:	f003 faf2 	bl	e8b4 <__aeabi_dmul>
    b2d0:	f108 0801 	add.w	r8, r8, #1
    b2d4:	106d      	asrs	r5, r5, #1
    b2d6:	f109 0908 	add.w	r9, r9, #8
    b2da:	d1f3      	bne.n	b2c4 <_dtoa_r+0x7b4>
    b2dc:	4606      	mov	r6, r0
    b2de:	460f      	mov	r7, r1
    b2e0:	e9dd 0102 	ldrd	r0, r1, [sp, #8]
    b2e4:	4632      	mov	r2, r6
    b2e6:	463b      	mov	r3, r7
    b2e8:	f003 fc0e 	bl	eb08 <__aeabi_ddiv>
    b2ec:	e9cd 0102 	strd	r0, r1, [sp, #8]
    b2f0:	9b0c      	ldr	r3, [sp, #48]	; 0x30
    b2f2:	b143      	cbz	r3, b306 <_dtoa_r+0x7f6>
    b2f4:	e9dd 0102 	ldrd	r0, r1, [sp, #8]
    b2f8:	2200      	movs	r2, #0
    b2fa:	4ba0      	ldr	r3, [pc, #640]	; (b57c <_dtoa_r+0xa6c>)
    b2fc:	f003 fd4c 	bl	ed98 <__aeabi_dcmplt>
    b300:	2800      	cmp	r0, #0
    b302:	f040 82b5 	bne.w	b870 <_dtoa_r+0xd60>
    b306:	4640      	mov	r0, r8
    b308:	f003 fa6e 	bl	e7e8 <__aeabi_i2d>
    b30c:	e9dd 2302 	ldrd	r2, r3, [sp, #8]
    b310:	f003 fad0 	bl	e8b4 <__aeabi_dmul>
    b314:	4b9a      	ldr	r3, [pc, #616]	; (b580 <_dtoa_r+0xa70>)
    b316:	2200      	movs	r2, #0
    b318:	f003 f91a 	bl	e550 <__adddf3>
    b31c:	9b07      	ldr	r3, [sp, #28]
    b31e:	4606      	mov	r6, r0
    b320:	f1a1 7750 	sub.w	r7, r1, #54525952	; 0x3400000
    b324:	2b00      	cmp	r3, #0
    b326:	f000 8168 	beq.w	b5fa <_dtoa_r+0xaea>
    b32a:	9b05      	ldr	r3, [sp, #20]
    b32c:	f8dd c01c 	ldr.w	ip, [sp, #28]
    b330:	9313      	str	r3, [sp, #76]	; 0x4c
    b332:	9b0a      	ldr	r3, [sp, #40]	; 0x28
    b334:	2b00      	cmp	r3, #0
    b336:	f000 8226 	beq.w	b786 <_dtoa_r+0xc76>
    b33a:	4b8e      	ldr	r3, [pc, #568]	; (b574 <_dtoa_r+0xa64>)
    b33c:	2000      	movs	r0, #0
    b33e:	eb03 03cc 	add.w	r3, r3, ip, lsl #3
    b342:	e953 2302 	ldrd	r2, r3, [r3, #-8]
    b346:	498f      	ldr	r1, [pc, #572]	; (b584 <_dtoa_r+0xa74>)
    b348:	f8cd c050 	str.w	ip, [sp, #80]	; 0x50
    b34c:	f003 fbdc 	bl	eb08 <__aeabi_ddiv>
    b350:	4632      	mov	r2, r6
    b352:	463b      	mov	r3, r7
    b354:	f003 f8fa 	bl	e54c <__aeabi_dsub>
    b358:	e9dd 6702 	ldrd	r6, r7, [sp, #8]
    b35c:	e9cd 0110 	strd	r0, r1, [sp, #64]	; 0x40
    b360:	4639      	mov	r1, r7
    b362:	4630      	mov	r0, r6
    b364:	f003 fd40 	bl	ede8 <__aeabi_d2iz>
    b368:	4605      	mov	r5, r0
    b36a:	f003 fa3d 	bl	e7e8 <__aeabi_i2d>
    b36e:	4602      	mov	r2, r0
    b370:	460b      	mov	r3, r1
    b372:	4630      	mov	r0, r6
    b374:	4639      	mov	r1, r7
    b376:	f003 f8e9 	bl	e54c <__aeabi_dsub>
    b37a:	e9dd 2310 	ldrd	r2, r3, [sp, #64]	; 0x40
    b37e:	3530      	adds	r5, #48	; 0x30
    b380:	fa5f f885 	uxtb.w	r8, r5
    b384:	9d08      	ldr	r5, [sp, #32]
    b386:	4606      	mov	r6, r0
    b388:	f885 8000 	strb.w	r8, [r5]
    b38c:	460f      	mov	r7, r1
    b38e:	3501      	adds	r5, #1
    b390:	f003 fd02 	bl	ed98 <__aeabi_dcmplt>
    b394:	2800      	cmp	r0, #0
    b396:	f040 82b9 	bne.w	b90c <_dtoa_r+0xdfc>
    b39a:	4632      	mov	r2, r6
    b39c:	463b      	mov	r3, r7
    b39e:	2000      	movs	r0, #0
    b3a0:	4976      	ldr	r1, [pc, #472]	; (b57c <_dtoa_r+0xa6c>)
    b3a2:	f003 f8d3 	bl	e54c <__aeabi_dsub>
    b3a6:	4602      	mov	r2, r0
    b3a8:	460b      	mov	r3, r1
    b3aa:	e9dd 0110 	ldrd	r0, r1, [sp, #64]	; 0x40
    b3ae:	f003 fd11 	bl	edd4 <__aeabi_dcmpgt>
    b3b2:	2800      	cmp	r0, #0
    b3b4:	f040 82b3 	bne.w	b91e <_dtoa_r+0xe0e>
    b3b8:	f8dd c050 	ldr.w	ip, [sp, #80]	; 0x50
    b3bc:	f1bc 0f01 	cmp.w	ip, #1
    b3c0:	f340 813a 	ble.w	b638 <_dtoa_r+0xb28>
    b3c4:	9b08      	ldr	r3, [sp, #32]
    b3c6:	f8cd a050 	str.w	sl, [sp, #80]	; 0x50
    b3ca:	f8cd b008 	str.w	fp, [sp, #8]
    b3ce:	eb03 090c 	add.w	r9, r3, ip
    b3d2:	e9dd ab10 	ldrd	sl, fp, [sp, #64]	; 0x40
    b3d6:	46a0      	mov	r8, r4
    b3d8:	e00f      	b.n	b3fa <_dtoa_r+0x8ea>
    b3da:	4632      	mov	r2, r6
    b3dc:	463b      	mov	r3, r7
    b3de:	2000      	movs	r0, #0
    b3e0:	4966      	ldr	r1, [pc, #408]	; (b57c <_dtoa_r+0xa6c>)
    b3e2:	f003 f8b3 	bl	e54c <__aeabi_dsub>
    b3e6:	4652      	mov	r2, sl
    b3e8:	465b      	mov	r3, fp
    b3ea:	f003 fcd5 	bl	ed98 <__aeabi_dcmplt>
    b3ee:	2800      	cmp	r0, #0
    b3f0:	f040 8290 	bne.w	b914 <_dtoa_r+0xe04>
    b3f4:	454d      	cmp	r5, r9
    b3f6:	f000 811a 	beq.w	b62e <_dtoa_r+0xb1e>
    b3fa:	4650      	mov	r0, sl
    b3fc:	4659      	mov	r1, fp
    b3fe:	2200      	movs	r2, #0
    b400:	4b61      	ldr	r3, [pc, #388]	; (b588 <_dtoa_r+0xa78>)
    b402:	f003 fa57 	bl	e8b4 <__aeabi_dmul>
    b406:	2200      	movs	r2, #0
    b408:	4b5f      	ldr	r3, [pc, #380]	; (b588 <_dtoa_r+0xa78>)
    b40a:	4682      	mov	sl, r0
    b40c:	468b      	mov	fp, r1
    b40e:	4630      	mov	r0, r6
    b410:	4639      	mov	r1, r7
    b412:	f003 fa4f 	bl	e8b4 <__aeabi_dmul>
    b416:	460f      	mov	r7, r1
    b418:	4606      	mov	r6, r0
    b41a:	f003 fce5 	bl	ede8 <__aeabi_d2iz>
    b41e:	4604      	mov	r4, r0
    b420:	f003 f9e2 	bl	e7e8 <__aeabi_i2d>
    b424:	4602      	mov	r2, r0
    b426:	460b      	mov	r3, r1
    b428:	4630      	mov	r0, r6
    b42a:	4639      	mov	r1, r7
    b42c:	f003 f88e 	bl	e54c <__aeabi_dsub>
    b430:	3430      	adds	r4, #48	; 0x30
    b432:	b2e4      	uxtb	r4, r4
    b434:	f805 4b01 	strb.w	r4, [r5], #1
    b438:	4652      	mov	r2, sl
    b43a:	465b      	mov	r3, fp
    b43c:	4606      	mov	r6, r0
    b43e:	460f      	mov	r7, r1
    b440:	f003 fcaa 	bl	ed98 <__aeabi_dcmplt>
    b444:	2800      	cmp	r0, #0
    b446:	d0c8      	beq.n	b3da <_dtoa_r+0x8ca>
    b448:	9b13      	ldr	r3, [sp, #76]	; 0x4c
    b44a:	f8dd b008 	ldr.w	fp, [sp, #8]
    b44e:	4644      	mov	r4, r8
    b450:	9305      	str	r3, [sp, #20]
    b452:	e52e      	b.n	aeb2 <_dtoa_r+0x3a2>
    b454:	2300      	movs	r3, #0
    b456:	930a      	str	r3, [sp, #40]	; 0x28
    b458:	9b23      	ldr	r3, [sp, #140]	; 0x8c
    b45a:	9a05      	ldr	r2, [sp, #20]
    b45c:	4413      	add	r3, r2
    b45e:	930d      	str	r3, [sp, #52]	; 0x34
    b460:	3301      	adds	r3, #1
    b462:	2b00      	cmp	r3, #0
    b464:	9307      	str	r3, [sp, #28]
    b466:	f340 810a 	ble.w	b67e <_dtoa_r+0xb6e>
    b46a:	9e07      	ldr	r6, [sp, #28]
    b46c:	4637      	mov	r7, r6
    b46e:	e6ea      	b.n	b246 <_dtoa_r+0x736>
    b470:	2300      	movs	r3, #0
    b472:	930a      	str	r3, [sp, #40]	; 0x28
    b474:	e6df      	b.n	b236 <_dtoa_r+0x726>
    b476:	9b07      	ldr	r3, [sp, #28]
    b478:	2b00      	cmp	r3, #0
    b47a:	f73f ac6a 	bgt.w	ad52 <_dtoa_r+0x242>
    b47e:	f040 8266 	bne.w	b94e <_dtoa_r+0xe3e>
    b482:	4640      	mov	r0, r8
    b484:	2200      	movs	r2, #0
    b486:	4b41      	ldr	r3, [pc, #260]	; (b58c <_dtoa_r+0xa7c>)
    b488:	4649      	mov	r1, r9
    b48a:	f003 fa13 	bl	e8b4 <__aeabi_dmul>
    b48e:	e9dd 2302 	ldrd	r2, r3, [sp, #8]
    b492:	f003 fc95 	bl	edc0 <__aeabi_dcmpge>
    b496:	f8dd 801c 	ldr.w	r8, [sp, #28]
    b49a:	4646      	mov	r6, r8
    b49c:	2800      	cmp	r0, #0
    b49e:	f000 808b 	beq.w	b5b8 <_dtoa_r+0xaa8>
    b4a2:	9b23      	ldr	r3, [sp, #140]	; 0x8c
    b4a4:	9d08      	ldr	r5, [sp, #32]
    b4a6:	43db      	mvns	r3, r3
    b4a8:	9305      	str	r3, [sp, #20]
    b4aa:	4641      	mov	r1, r8
    b4ac:	4620      	mov	r0, r4
    b4ae:	f000 fe6b 	bl	c188 <_Bfree>
    b4b2:	2e00      	cmp	r6, #0
    b4b4:	f47f ae27 	bne.w	b106 <_dtoa_r+0x5f6>
    b4b8:	e4fb      	b.n	aeb2 <_dtoa_r+0x3a2>
    b4ba:	4659      	mov	r1, fp
    b4bc:	4620      	mov	r0, r4
    b4be:	f000 fff3 	bl	c4a8 <__pow5mult>
    b4c2:	4683      	mov	fp, r0
    b4c4:	e552      	b.n	af6c <_dtoa_r+0x45c>
    b4c6:	9b02      	ldr	r3, [sp, #8]
    b4c8:	2b00      	cmp	r3, #0
    b4ca:	f47f ad61 	bne.w	af90 <_dtoa_r+0x480>
    b4ce:	9b03      	ldr	r3, [sp, #12]
    b4d0:	f3c3 0313 	ubfx	r3, r3, #0, #20
    b4d4:	2b00      	cmp	r3, #0
    b4d6:	f47f ad8f 	bne.w	aff8 <_dtoa_r+0x4e8>
    b4da:	9b03      	ldr	r3, [sp, #12]
    b4dc:	f023 4700 	bic.w	r7, r3, #2147483648	; 0x80000000
    b4e0:	0d3f      	lsrs	r7, r7, #20
    b4e2:	053f      	lsls	r7, r7, #20
    b4e4:	2f00      	cmp	r7, #0
    b4e6:	f000 821e 	beq.w	b926 <_dtoa_r+0xe16>
    b4ea:	9b06      	ldr	r3, [sp, #24]
    b4ec:	f10a 0a01 	add.w	sl, sl, #1
    b4f0:	3301      	adds	r3, #1
    b4f2:	9306      	str	r3, [sp, #24]
    b4f4:	f04f 0901 	mov.w	r9, #1
    b4f8:	e580      	b.n	affc <_dtoa_r+0x4ec>
    b4fa:	9a12      	ldr	r2, [sp, #72]	; 0x48
    b4fc:	2a00      	cmp	r2, #0
    b4fe:	f000 81a9 	beq.w	b854 <_dtoa_r+0xd44>
    b502:	f203 4333 	addw	r3, r3, #1075	; 0x433
    b506:	9f09      	ldr	r7, [sp, #36]	; 0x24
    b508:	9d06      	ldr	r5, [sp, #24]
    b50a:	e4fa      	b.n	af02 <_dtoa_r+0x3f2>
    b50c:	f000 fe46 	bl	c19c <__multadd>
    b510:	4657      	mov	r7, sl
    b512:	4606      	mov	r6, r0
    b514:	4681      	mov	r9, r0
    b516:	e62c      	b.n	b172 <_dtoa_r+0x662>
    b518:	4601      	mov	r1, r0
    b51a:	4620      	mov	r0, r4
    b51c:	f8cd c008 	str.w	ip, [sp, #8]
    b520:	f000 fe32 	bl	c188 <_Bfree>
    b524:	2201      	movs	r2, #1
    b526:	f8dd c008 	ldr.w	ip, [sp, #8]
    b52a:	e64f      	b.n	b1cc <_dtoa_r+0x6bc>
    b52c:	4658      	mov	r0, fp
    b52e:	4641      	mov	r1, r8
    b530:	f001 f862 	bl	c5f8 <__mcmp>
    b534:	2800      	cmp	r0, #0
    b536:	f6bf ad8c 	bge.w	b052 <_dtoa_r+0x542>
    b53a:	9f05      	ldr	r7, [sp, #20]
    b53c:	4659      	mov	r1, fp
    b53e:	2300      	movs	r3, #0
    b540:	4620      	mov	r0, r4
    b542:	220a      	movs	r2, #10
    b544:	3f01      	subs	r7, #1
    b546:	9705      	str	r7, [sp, #20]
    b548:	f000 fe28 	bl	c19c <__multadd>
    b54c:	9b0a      	ldr	r3, [sp, #40]	; 0x28
    b54e:	4683      	mov	fp, r0
    b550:	2b00      	cmp	r3, #0
    b552:	f47f adeb 	bne.w	b12c <_dtoa_r+0x61c>
    b556:	9b0d      	ldr	r3, [sp, #52]	; 0x34
    b558:	2b00      	cmp	r3, #0
    b55a:	f340 81fc 	ble.w	b956 <_dtoa_r+0xe46>
    b55e:	9307      	str	r3, [sp, #28]
    b560:	e57e      	b.n	b060 <_dtoa_r+0x550>
    b562:	9808      	ldr	r0, [sp, #32]
    b564:	f7ff bb08 	b.w	ab78 <_dtoa_r+0x68>
    b568:	9b02      	ldr	r3, [sp, #8]
    b56a:	2b00      	cmp	r3, #0
    b56c:	f47f ad44 	bne.w	aff8 <_dtoa_r+0x4e8>
    b570:	e7ad      	b.n	b4ce <_dtoa_r+0x9be>
    b572:	bf00      	nop
    b574:	0000f488 	.word	0x0000f488
    b578:	0000f560 	.word	0x0000f560
    b57c:	3ff00000 	.word	0x3ff00000
    b580:	401c0000 	.word	0x401c0000
    b584:	3fe00000 	.word	0x3fe00000
    b588:	40240000 	.word	0x40240000
    b58c:	40140000 	.word	0x40140000
    b590:	9b22      	ldr	r3, [sp, #136]	; 0x88
    b592:	2b02      	cmp	r3, #2
    b594:	f77f ad61 	ble.w	b05a <_dtoa_r+0x54a>
    b598:	9b07      	ldr	r3, [sp, #28]
    b59a:	2b00      	cmp	r3, #0
    b59c:	d181      	bne.n	b4a2 <_dtoa_r+0x992>
    b59e:	4641      	mov	r1, r8
    b5a0:	2205      	movs	r2, #5
    b5a2:	4620      	mov	r0, r4
    b5a4:	f000 fdfa 	bl	c19c <__multadd>
    b5a8:	4680      	mov	r8, r0
    b5aa:	4658      	mov	r0, fp
    b5ac:	4641      	mov	r1, r8
    b5ae:	f001 f823 	bl	c5f8 <__mcmp>
    b5b2:	2800      	cmp	r0, #0
    b5b4:	f77f af75 	ble.w	b4a2 <_dtoa_r+0x992>
    b5b8:	9a05      	ldr	r2, [sp, #20]
    b5ba:	9908      	ldr	r1, [sp, #32]
    b5bc:	2331      	movs	r3, #49	; 0x31
    b5be:	3201      	adds	r2, #1
    b5c0:	9205      	str	r2, [sp, #20]
    b5c2:	700b      	strb	r3, [r1, #0]
    b5c4:	1c4d      	adds	r5, r1, #1
    b5c6:	e770      	b.n	b4aa <_dtoa_r+0x99a>
    b5c8:	9a05      	ldr	r2, [sp, #20]
    b5ca:	2331      	movs	r3, #49	; 0x31
    b5cc:	3201      	adds	r2, #1
    b5ce:	9205      	str	r2, [sp, #20]
    b5d0:	9a08      	ldr	r2, [sp, #32]
    b5d2:	7013      	strb	r3, [r2, #0]
    b5d4:	e587      	b.n	b0e6 <_dtoa_r+0x5d6>
    b5d6:	f8dd b008 	ldr.w	fp, [sp, #8]
    b5da:	9c06      	ldr	r4, [sp, #24]
    b5dc:	e469      	b.n	aeb2 <_dtoa_r+0x3a2>
    b5de:	4640      	mov	r0, r8
    b5e0:	f003 f902 	bl	e7e8 <__aeabi_i2d>
    b5e4:	e9dd 2302 	ldrd	r2, r3, [sp, #8]
    b5e8:	f003 f964 	bl	e8b4 <__aeabi_dmul>
    b5ec:	2200      	movs	r2, #0
    b5ee:	4bbe      	ldr	r3, [pc, #760]	; (b8e8 <_dtoa_r+0xdd8>)
    b5f0:	f002 ffae 	bl	e550 <__adddf3>
    b5f4:	4606      	mov	r6, r0
    b5f6:	f1a1 7750 	sub.w	r7, r1, #54525952	; 0x3400000
    b5fa:	e9dd 0102 	ldrd	r0, r1, [sp, #8]
    b5fe:	2200      	movs	r2, #0
    b600:	4bba      	ldr	r3, [pc, #744]	; (b8ec <_dtoa_r+0xddc>)
    b602:	f002 ffa3 	bl	e54c <__aeabi_dsub>
    b606:	4632      	mov	r2, r6
    b608:	463b      	mov	r3, r7
    b60a:	e9cd 0102 	strd	r0, r1, [sp, #8]
    b60e:	f003 fbe1 	bl	edd4 <__aeabi_dcmpgt>
    b612:	4680      	mov	r8, r0
    b614:	2800      	cmp	r0, #0
    b616:	f040 80b2 	bne.w	b77e <_dtoa_r+0xc6e>
    b61a:	e9dd 0102 	ldrd	r0, r1, [sp, #8]
    b61e:	4632      	mov	r2, r6
    b620:	f107 4300 	add.w	r3, r7, #2147483648	; 0x80000000
    b624:	f003 fbb8 	bl	ed98 <__aeabi_dcmplt>
    b628:	b130      	cbz	r0, b638 <_dtoa_r+0xb28>
    b62a:	4646      	mov	r6, r8
    b62c:	e739      	b.n	b4a2 <_dtoa_r+0x992>
    b62e:	4644      	mov	r4, r8
    b630:	f8dd a050 	ldr.w	sl, [sp, #80]	; 0x50
    b634:	f8dd b008 	ldr.w	fp, [sp, #8]
    b638:	e9dd 230e 	ldrd	r2, r3, [sp, #56]	; 0x38
    b63c:	e9cd 2302 	strd	r2, r3, [sp, #8]
    b640:	f7ff bb76 	b.w	ad30 <_dtoa_r+0x220>
    b644:	4659      	mov	r1, fp
    b646:	9a09      	ldr	r2, [sp, #36]	; 0x24
    b648:	4620      	mov	r0, r4
    b64a:	f000 ff2d 	bl	c4a8 <__pow5mult>
    b64e:	4683      	mov	fp, r0
    b650:	e48c      	b.n	af6c <_dtoa_r+0x45c>
    b652:	9b09      	ldr	r3, [sp, #36]	; 0x24
    b654:	9a0b      	ldr	r2, [sp, #44]	; 0x2c
    b656:	1afb      	subs	r3, r7, r3
    b658:	441a      	add	r2, r3
    b65a:	9709      	str	r7, [sp, #36]	; 0x24
    b65c:	920b      	str	r2, [sp, #44]	; 0x2c
    b65e:	2700      	movs	r7, #0
    b660:	e449      	b.n	aef6 <_dtoa_r+0x3e6>
    b662:	e9dd 230e 	ldrd	r2, r3, [sp, #56]	; 0x38
    b666:	f04f 0802 	mov.w	r8, #2
    b66a:	e9cd 2302 	strd	r2, r3, [sp, #8]
    b66e:	e624      	b.n	b2ba <_dtoa_r+0x7aa>
    b670:	2601      	movs	r6, #1
    b672:	9623      	str	r6, [sp, #140]	; 0x8c
    b674:	960d      	str	r6, [sp, #52]	; 0x34
    b676:	9607      	str	r6, [sp, #28]
    b678:	2100      	movs	r1, #0
    b67a:	6461      	str	r1, [r4, #68]	; 0x44
    b67c:	e5f2      	b.n	b264 <_dtoa_r+0x754>
    b67e:	461e      	mov	r6, r3
    b680:	e7fa      	b.n	b678 <_dtoa_r+0xb68>
    b682:	2a00      	cmp	r2, #0
    b684:	dd15      	ble.n	b6b2 <_dtoa_r+0xba2>
    b686:	4659      	mov	r1, fp
    b688:	2201      	movs	r2, #1
    b68a:	4620      	mov	r0, r4
    b68c:	f8cd c008 	str.w	ip, [sp, #8]
    b690:	f000 ff5a 	bl	c548 <__lshift>
    b694:	4641      	mov	r1, r8
    b696:	4683      	mov	fp, r0
    b698:	f000 ffae 	bl	c5f8 <__mcmp>
    b69c:	2800      	cmp	r0, #0
    b69e:	f8dd c008 	ldr.w	ip, [sp, #8]
    b6a2:	f340 814d 	ble.w	b940 <_dtoa_r+0xe30>
    b6a6:	f1bc 0f39 	cmp.w	ip, #57	; 0x39
    b6aa:	f000 8109 	beq.w	b8c0 <_dtoa_r+0xdb0>
    b6ae:	f10c 0c01 	add.w	ip, ip, #1
    b6b2:	46b2      	mov	sl, r6
    b6b4:	f887 c000 	strb.w	ip, [r7]
    b6b8:	1c7d      	adds	r5, r7, #1
    b6ba:	464e      	mov	r6, r9
    b6bc:	e513      	b.n	b0e6 <_dtoa_r+0x5d6>
    b6be:	d104      	bne.n	b6ca <_dtoa_r+0xbba>
    b6c0:	f01c 0f01 	tst.w	ip, #1
    b6c4:	d001      	beq.n	b6ca <_dtoa_r+0xbba>
    b6c6:	e4fe      	b.n	b0c6 <_dtoa_r+0x5b6>
    b6c8:	4615      	mov	r5, r2
    b6ca:	f815 3c01 	ldrb.w	r3, [r5, #-1]
    b6ce:	1e6a      	subs	r2, r5, #1
    b6d0:	2b30      	cmp	r3, #48	; 0x30
    b6d2:	d0f9      	beq.n	b6c8 <_dtoa_r+0xbb8>
    b6d4:	e507      	b.n	b0e6 <_dtoa_r+0x5d6>
    b6d6:	9b05      	ldr	r3, [sp, #20]
    b6d8:	425d      	negs	r5, r3
    b6da:	2d00      	cmp	r5, #0
    b6dc:	f000 80c1 	beq.w	b862 <_dtoa_r+0xd52>
    b6e0:	e9dd 010e 	ldrd	r0, r1, [sp, #56]	; 0x38
    b6e4:	4b82      	ldr	r3, [pc, #520]	; (b8f0 <_dtoa_r+0xde0>)
    b6e6:	f005 020f 	and.w	r2, r5, #15
    b6ea:	eb03 03c2 	add.w	r3, r3, r2, lsl #3
    b6ee:	e9d3 2300 	ldrd	r2, r3, [r3]
    b6f2:	f003 f8df 	bl	e8b4 <__aeabi_dmul>
    b6f6:	112d      	asrs	r5, r5, #4
    b6f8:	e9cd 0102 	strd	r0, r1, [sp, #8]
    b6fc:	f000 8130 	beq.w	b960 <_dtoa_r+0xe50>
    b700:	4e7c      	ldr	r6, [pc, #496]	; (b8f4 <_dtoa_r+0xde4>)
    b702:	f04f 0802 	mov.w	r8, #2
    b706:	07eb      	lsls	r3, r5, #31
    b708:	d505      	bpl.n	b716 <_dtoa_r+0xc06>
    b70a:	e9d6 2300 	ldrd	r2, r3, [r6]
    b70e:	f003 f8d1 	bl	e8b4 <__aeabi_dmul>
    b712:	f108 0801 	add.w	r8, r8, #1
    b716:	106d      	asrs	r5, r5, #1
    b718:	f106 0608 	add.w	r6, r6, #8
    b71c:	d1f3      	bne.n	b706 <_dtoa_r+0xbf6>
    b71e:	e9cd 0102 	strd	r0, r1, [sp, #8]
    b722:	e5e5      	b.n	b2f0 <_dtoa_r+0x7e0>
    b724:	9a05      	ldr	r2, [sp, #20]
    b726:	2330      	movs	r3, #48	; 0x30
    b728:	3201      	adds	r2, #1
    b72a:	9205      	str	r2, [sp, #20]
    b72c:	9a08      	ldr	r2, [sp, #32]
    b72e:	7013      	strb	r3, [r2, #0]
    b730:	2331      	movs	r3, #49	; 0x31
    b732:	7013      	strb	r3, [r2, #0]
    b734:	f7ff bbbd 	b.w	aeb2 <_dtoa_r+0x3a2>
    b738:	6871      	ldr	r1, [r6, #4]
    b73a:	4620      	mov	r0, r4
    b73c:	f000 fcfc 	bl	c138 <_Balloc>
    b740:	4605      	mov	r5, r0
    b742:	6933      	ldr	r3, [r6, #16]
    b744:	f106 010c 	add.w	r1, r6, #12
    b748:	1c9a      	adds	r2, r3, #2
    b74a:	0092      	lsls	r2, r2, #2
    b74c:	300c      	adds	r0, #12
    b74e:	f000 fc7d 	bl	c04c <memcpy>
    b752:	4620      	mov	r0, r4
    b754:	4629      	mov	r1, r5
    b756:	2201      	movs	r2, #1
    b758:	f000 fef6 	bl	c548 <__lshift>
    b75c:	4681      	mov	r9, r0
    b75e:	e4fe      	b.n	b15e <_dtoa_r+0x64e>
    b760:	f1bc 0f39 	cmp.w	ip, #57	; 0x39
    b764:	f000 80ac 	beq.w	b8c0 <_dtoa_r+0xdb0>
    b768:	f10c 0c01 	add.w	ip, ip, #1
    b76c:	46b2      	mov	sl, r6
    b76e:	f887 c000 	strb.w	ip, [r7]
    b772:	1c7d      	adds	r5, r7, #1
    b774:	464e      	mov	r6, r9
    b776:	e4b6      	b.n	b0e6 <_dtoa_r+0x5d6>
    b778:	46b2      	mov	sl, r6
    b77a:	464e      	mov	r6, r9
    b77c:	e493      	b.n	b0a6 <_dtoa_r+0x596>
    b77e:	f04f 0800 	mov.w	r8, #0
    b782:	4646      	mov	r6, r8
    b784:	e718      	b.n	b5b8 <_dtoa_r+0xaa8>
    b786:	495a      	ldr	r1, [pc, #360]	; (b8f0 <_dtoa_r+0xde0>)
    b788:	f10c 33ff 	add.w	r3, ip, #4294967295
    b78c:	eb01 01c3 	add.w	r1, r1, r3, lsl #3
    b790:	4632      	mov	r2, r6
    b792:	e9d1 0100 	ldrd	r0, r1, [r1]
    b796:	9314      	str	r3, [sp, #80]	; 0x50
    b798:	463b      	mov	r3, r7
    b79a:	f8cd c054 	str.w	ip, [sp, #84]	; 0x54
    b79e:	f003 f889 	bl	e8b4 <__aeabi_dmul>
    b7a2:	e9dd 6702 	ldrd	r6, r7, [sp, #8]
    b7a6:	e9cd 0110 	strd	r0, r1, [sp, #64]	; 0x40
    b7aa:	4639      	mov	r1, r7
    b7ac:	4630      	mov	r0, r6
    b7ae:	f003 fb1b 	bl	ede8 <__aeabi_d2iz>
    b7b2:	4605      	mov	r5, r0
    b7b4:	f003 f818 	bl	e7e8 <__aeabi_i2d>
    b7b8:	4602      	mov	r2, r0
    b7ba:	460b      	mov	r3, r1
    b7bc:	4630      	mov	r0, r6
    b7be:	4639      	mov	r1, r7
    b7c0:	f002 fec4 	bl	e54c <__aeabi_dsub>
    b7c4:	f8dd c054 	ldr.w	ip, [sp, #84]	; 0x54
    b7c8:	9a08      	ldr	r2, [sp, #32]
    b7ca:	3530      	adds	r5, #48	; 0x30
    b7cc:	f1bc 0f01 	cmp.w	ip, #1
    b7d0:	7015      	strb	r5, [r2, #0]
    b7d2:	4606      	mov	r6, r0
    b7d4:	460f      	mov	r7, r1
    b7d6:	f102 0501 	add.w	r5, r2, #1
    b7da:	d023      	beq.n	b824 <_dtoa_r+0xd14>
    b7dc:	9b08      	ldr	r3, [sp, #32]
    b7de:	f8cd a008 	str.w	sl, [sp, #8]
    b7e2:	4463      	add	r3, ip
    b7e4:	465e      	mov	r6, fp
    b7e6:	469a      	mov	sl, r3
    b7e8:	46ab      	mov	fp, r5
    b7ea:	2200      	movs	r2, #0
    b7ec:	4b42      	ldr	r3, [pc, #264]	; (b8f8 <_dtoa_r+0xde8>)
    b7ee:	f003 f861 	bl	e8b4 <__aeabi_dmul>
    b7f2:	4689      	mov	r9, r1
    b7f4:	4680      	mov	r8, r0
    b7f6:	f003 faf7 	bl	ede8 <__aeabi_d2iz>
    b7fa:	4607      	mov	r7, r0
    b7fc:	f002 fff4 	bl	e7e8 <__aeabi_i2d>
    b800:	3730      	adds	r7, #48	; 0x30
    b802:	4602      	mov	r2, r0
    b804:	460b      	mov	r3, r1
    b806:	4640      	mov	r0, r8
    b808:	4649      	mov	r1, r9
    b80a:	f002 fe9f 	bl	e54c <__aeabi_dsub>
    b80e:	f80b 7b01 	strb.w	r7, [fp], #1
    b812:	45d3      	cmp	fp, sl
    b814:	d1e9      	bne.n	b7ea <_dtoa_r+0xcda>
    b816:	46b3      	mov	fp, r6
    b818:	460f      	mov	r7, r1
    b81a:	4606      	mov	r6, r0
    b81c:	9b14      	ldr	r3, [sp, #80]	; 0x50
    b81e:	f8dd a008 	ldr.w	sl, [sp, #8]
    b822:	441d      	add	r5, r3
    b824:	2200      	movs	r2, #0
    b826:	4b35      	ldr	r3, [pc, #212]	; (b8fc <_dtoa_r+0xdec>)
    b828:	e9dd 0110 	ldrd	r0, r1, [sp, #64]	; 0x40
    b82c:	f002 fe90 	bl	e550 <__adddf3>
    b830:	4632      	mov	r2, r6
    b832:	463b      	mov	r3, r7
    b834:	f003 fab0 	bl	ed98 <__aeabi_dcmplt>
    b838:	2800      	cmp	r0, #0
    b83a:	d048      	beq.n	b8ce <_dtoa_r+0xdbe>
    b83c:	9b13      	ldr	r3, [sp, #76]	; 0x4c
    b83e:	9305      	str	r3, [sp, #20]
    b840:	f815 8c01 	ldrb.w	r8, [r5, #-1]
    b844:	f7ff bb23 	b.w	ae8e <_dtoa_r+0x37e>
    b848:	9b06      	ldr	r3, [sp, #24]
    b84a:	9a07      	ldr	r2, [sp, #28]
    b84c:	1a9d      	subs	r5, r3, r2
    b84e:	2300      	movs	r3, #0
    b850:	f7ff bb57 	b.w	af02 <_dtoa_r+0x3f2>
    b854:	9b16      	ldr	r3, [sp, #88]	; 0x58
    b856:	9f09      	ldr	r7, [sp, #36]	; 0x24
    b858:	f1c3 0336 	rsb	r3, r3, #54	; 0x36
    b85c:	9d06      	ldr	r5, [sp, #24]
    b85e:	f7ff bb50 	b.w	af02 <_dtoa_r+0x3f2>
    b862:	e9dd 230e 	ldrd	r2, r3, [sp, #56]	; 0x38
    b866:	f04f 0802 	mov.w	r8, #2
    b86a:	e9cd 2302 	strd	r2, r3, [sp, #8]
    b86e:	e53f      	b.n	b2f0 <_dtoa_r+0x7e0>
    b870:	9b07      	ldr	r3, [sp, #28]
    b872:	2b00      	cmp	r3, #0
    b874:	f43f aeb3 	beq.w	b5de <_dtoa_r+0xace>
    b878:	9d0d      	ldr	r5, [sp, #52]	; 0x34
    b87a:	2d00      	cmp	r5, #0
    b87c:	f77f aedc 	ble.w	b638 <_dtoa_r+0xb28>
    b880:	e9dd 0102 	ldrd	r0, r1, [sp, #8]
    b884:	2200      	movs	r2, #0
    b886:	4b1c      	ldr	r3, [pc, #112]	; (b8f8 <_dtoa_r+0xde8>)
    b888:	f003 f814 	bl	e8b4 <__aeabi_dmul>
    b88c:	4606      	mov	r6, r0
    b88e:	460f      	mov	r7, r1
    b890:	f108 0001 	add.w	r0, r8, #1
    b894:	e9cd 6702 	strd	r6, r7, [sp, #8]
    b898:	f002 ffa6 	bl	e7e8 <__aeabi_i2d>
    b89c:	4602      	mov	r2, r0
    b89e:	460b      	mov	r3, r1
    b8a0:	4630      	mov	r0, r6
    b8a2:	4639      	mov	r1, r7
    b8a4:	f003 f806 	bl	e8b4 <__aeabi_dmul>
    b8a8:	4b0f      	ldr	r3, [pc, #60]	; (b8e8 <_dtoa_r+0xdd8>)
    b8aa:	2200      	movs	r2, #0
    b8ac:	f002 fe50 	bl	e550 <__adddf3>
    b8b0:	9b05      	ldr	r3, [sp, #20]
    b8b2:	4606      	mov	r6, r0
    b8b4:	3b01      	subs	r3, #1
    b8b6:	9313      	str	r3, [sp, #76]	; 0x4c
    b8b8:	f1a1 7750 	sub.w	r7, r1, #54525952	; 0x3400000
    b8bc:	46ac      	mov	ip, r5
    b8be:	e538      	b.n	b332 <_dtoa_r+0x822>
    b8c0:	2239      	movs	r2, #57	; 0x39
    b8c2:	46b2      	mov	sl, r6
    b8c4:	703a      	strb	r2, [r7, #0]
    b8c6:	464e      	mov	r6, r9
    b8c8:	1c7d      	adds	r5, r7, #1
    b8ca:	f7ff bbfe 	b.w	b0ca <_dtoa_r+0x5ba>
    b8ce:	e9dd 2310 	ldrd	r2, r3, [sp, #64]	; 0x40
    b8d2:	2000      	movs	r0, #0
    b8d4:	4909      	ldr	r1, [pc, #36]	; (b8fc <_dtoa_r+0xdec>)
    b8d6:	f002 fe39 	bl	e54c <__aeabi_dsub>
    b8da:	4632      	mov	r2, r6
    b8dc:	463b      	mov	r3, r7
    b8de:	f003 fa79 	bl	edd4 <__aeabi_dcmpgt>
    b8e2:	b970      	cbnz	r0, b902 <_dtoa_r+0xdf2>
    b8e4:	e6a8      	b.n	b638 <_dtoa_r+0xb28>
    b8e6:	bf00      	nop
    b8e8:	401c0000 	.word	0x401c0000
    b8ec:	40140000 	.word	0x40140000
    b8f0:	0000f488 	.word	0x0000f488
    b8f4:	0000f560 	.word	0x0000f560
    b8f8:	40240000 	.word	0x40240000
    b8fc:	3fe00000 	.word	0x3fe00000
    b900:	4615      	mov	r5, r2
    b902:	f815 3c01 	ldrb.w	r3, [r5, #-1]
    b906:	1e6a      	subs	r2, r5, #1
    b908:	2b30      	cmp	r3, #48	; 0x30
    b90a:	d0f9      	beq.n	b900 <_dtoa_r+0xdf0>
    b90c:	9b13      	ldr	r3, [sp, #76]	; 0x4c
    b90e:	9305      	str	r3, [sp, #20]
    b910:	f7ff bacf 	b.w	aeb2 <_dtoa_r+0x3a2>
    b914:	4643      	mov	r3, r8
    b916:	46a0      	mov	r8, r4
    b918:	461c      	mov	r4, r3
    b91a:	f8dd b008 	ldr.w	fp, [sp, #8]
    b91e:	9b13      	ldr	r3, [sp, #76]	; 0x4c
    b920:	9305      	str	r3, [sp, #20]
    b922:	f7ff bab4 	b.w	ae8e <_dtoa_r+0x37e>
    b926:	46b9      	mov	r9, r7
    b928:	f7ff bb68 	b.w	affc <_dtoa_r+0x4ec>
    b92c:	f1bc 0f39 	cmp.w	ip, #57	; 0x39
    b930:	d0c6      	beq.n	b8c0 <_dtoa_r+0xdb0>
    b932:	f1ba 0f00 	cmp.w	sl, #0
    b936:	f77f aebc 	ble.w	b6b2 <_dtoa_r+0xba2>
    b93a:	f105 0c31 	add.w	ip, r5, #49	; 0x31
    b93e:	e6b8      	b.n	b6b2 <_dtoa_r+0xba2>
    b940:	f47f aeb7 	bne.w	b6b2 <_dtoa_r+0xba2>
    b944:	f01c 0f01 	tst.w	ip, #1
    b948:	f43f aeb3 	beq.w	b6b2 <_dtoa_r+0xba2>
    b94c:	e6ab      	b.n	b6a6 <_dtoa_r+0xb96>
    b94e:	f04f 0800 	mov.w	r8, #0
    b952:	4646      	mov	r6, r8
    b954:	e5a5      	b.n	b4a2 <_dtoa_r+0x992>
    b956:	9b22      	ldr	r3, [sp, #136]	; 0x88
    b958:	2b02      	cmp	r3, #2
    b95a:	dc04      	bgt.n	b966 <_dtoa_r+0xe56>
    b95c:	9b0d      	ldr	r3, [sp, #52]	; 0x34
    b95e:	e5fe      	b.n	b55e <_dtoa_r+0xa4e>
    b960:	f04f 0802 	mov.w	r8, #2
    b964:	e4c4      	b.n	b2f0 <_dtoa_r+0x7e0>
    b966:	9b0d      	ldr	r3, [sp, #52]	; 0x34
    b968:	9307      	str	r3, [sp, #28]
    b96a:	e615      	b.n	b598 <_dtoa_r+0xa88>
    b96c:	9b22      	ldr	r3, [sp, #136]	; 0x88
    b96e:	2b02      	cmp	r3, #2
    b970:	dcf9      	bgt.n	b966 <_dtoa_r+0xe56>
    b972:	9b0d      	ldr	r3, [sp, #52]	; 0x34
    b974:	f7ff bbe5 	b.w	b142 <_dtoa_r+0x632>
    b978:	2500      	movs	r5, #0
    b97a:	6465      	str	r5, [r4, #68]	; 0x44
    b97c:	4629      	mov	r1, r5
    b97e:	4620      	mov	r0, r4
    b980:	f000 fbda 	bl	c138 <_Balloc>
    b984:	f04f 33ff 	mov.w	r3, #4294967295
    b988:	9307      	str	r3, [sp, #28]
    b98a:	930d      	str	r3, [sp, #52]	; 0x34
    b98c:	2301      	movs	r3, #1
    b98e:	9008      	str	r0, [sp, #32]
    b990:	9523      	str	r5, [sp, #140]	; 0x8c
    b992:	6420      	str	r0, [r4, #64]	; 0x40
    b994:	930a      	str	r3, [sp, #40]	; 0x28
    b996:	f7ff b9cb 	b.w	ad30 <_dtoa_r+0x220>
    b99a:	f43f ab44 	beq.w	b026 <_dtoa_r+0x516>
    b99e:	f1c0 003c 	rsb	r0, r0, #60	; 0x3c
    b9a2:	f7ff bb3b 	b.w	b01c <_dtoa_r+0x50c>
    b9a6:	2301      	movs	r3, #1
    b9a8:	930a      	str	r3, [sp, #40]	; 0x28
    b9aa:	e555      	b.n	b458 <_dtoa_r+0x948>
    b9ac:	2501      	movs	r5, #1
    b9ae:	f7ff b989 	b.w	acc4 <_dtoa_r+0x1b4>
    b9b2:	bf00      	nop

0000b9b4 <_fclose_r>:
    b9b4:	2900      	cmp	r1, #0
    b9b6:	d03d      	beq.n	ba34 <_fclose_r+0x80>
    b9b8:	b570      	push	{r4, r5, r6, lr}
    b9ba:	4605      	mov	r5, r0
    b9bc:	460c      	mov	r4, r1
    b9be:	b108      	cbz	r0, b9c4 <_fclose_r+0x10>
    b9c0:	6b83      	ldr	r3, [r0, #56]	; 0x38
    b9c2:	b37b      	cbz	r3, ba24 <_fclose_r+0x70>
    b9c4:	f9b4 300c 	ldrsh.w	r3, [r4, #12]
    b9c8:	b90b      	cbnz	r3, b9ce <_fclose_r+0x1a>
    b9ca:	2000      	movs	r0, #0
    b9cc:	bd70      	pop	{r4, r5, r6, pc}
    b9ce:	4628      	mov	r0, r5
    b9d0:	4621      	mov	r1, r4
    b9d2:	f000 f839 	bl	ba48 <__sflush_r>
    b9d6:	6ae3      	ldr	r3, [r4, #44]	; 0x2c
    b9d8:	4606      	mov	r6, r0
    b9da:	b133      	cbz	r3, b9ea <_fclose_r+0x36>
    b9dc:	4628      	mov	r0, r5
    b9de:	69e1      	ldr	r1, [r4, #28]
    b9e0:	4798      	blx	r3
    b9e2:	2800      	cmp	r0, #0
    b9e4:	bfb8      	it	lt
    b9e6:	f04f 36ff 	movlt.w	r6, #4294967295
    b9ea:	89a3      	ldrh	r3, [r4, #12]
    b9ec:	061b      	lsls	r3, r3, #24
    b9ee:	d41c      	bmi.n	ba2a <_fclose_r+0x76>
    b9f0:	6b21      	ldr	r1, [r4, #48]	; 0x30
    b9f2:	b141      	cbz	r1, ba06 <_fclose_r+0x52>
    b9f4:	f104 0340 	add.w	r3, r4, #64	; 0x40
    b9f8:	4299      	cmp	r1, r3
    b9fa:	d002      	beq.n	ba02 <_fclose_r+0x4e>
    b9fc:	4628      	mov	r0, r5
    b9fe:	f000 f93d 	bl	bc7c <_free_r>
    ba02:	2300      	movs	r3, #0
    ba04:	6323      	str	r3, [r4, #48]	; 0x30
    ba06:	6c61      	ldr	r1, [r4, #68]	; 0x44
    ba08:	b121      	cbz	r1, ba14 <_fclose_r+0x60>
    ba0a:	4628      	mov	r0, r5
    ba0c:	f000 f936 	bl	bc7c <_free_r>
    ba10:	2300      	movs	r3, #0
    ba12:	6463      	str	r3, [r4, #68]	; 0x44
    ba14:	f7fd f954 	bl	8cc0 <__sfp_lock_acquire>
    ba18:	2300      	movs	r3, #0
    ba1a:	81a3      	strh	r3, [r4, #12]
    ba1c:	f7fd f952 	bl	8cc4 <__sfp_lock_release>
    ba20:	4630      	mov	r0, r6
    ba22:	bd70      	pop	{r4, r5, r6, pc}
    ba24:	f7fd f946 	bl	8cb4 <__sinit>
    ba28:	e7cc      	b.n	b9c4 <_fclose_r+0x10>
    ba2a:	4628      	mov	r0, r5
    ba2c:	6921      	ldr	r1, [r4, #16]
    ba2e:	f000 f925 	bl	bc7c <_free_r>
    ba32:	e7dd      	b.n	b9f0 <_fclose_r+0x3c>
    ba34:	2000      	movs	r0, #0
    ba36:	4770      	bx	lr

0000ba38 <fclose>:
    ba38:	4b02      	ldr	r3, [pc, #8]	; (ba44 <fclose+0xc>)
    ba3a:	4601      	mov	r1, r0
    ba3c:	6818      	ldr	r0, [r3, #0]
    ba3e:	f7ff bfb9 	b.w	b9b4 <_fclose_r>
    ba42:	bf00      	nop
    ba44:	00017b68 	.word	0x00017b68

0000ba48 <__sflush_r>:
    ba48:	898b      	ldrh	r3, [r1, #12]
    ba4a:	e92d 41f0 	stmdb	sp!, {r4, r5, r6, r7, r8, lr}
    ba4e:	b29a      	uxth	r2, r3
    ba50:	460d      	mov	r5, r1
    ba52:	0711      	lsls	r1, r2, #28
    ba54:	4680      	mov	r8, r0
    ba56:	d43c      	bmi.n	bad2 <__sflush_r+0x8a>
    ba58:	686a      	ldr	r2, [r5, #4]
    ba5a:	f443 6300 	orr.w	r3, r3, #2048	; 0x800
    ba5e:	2a00      	cmp	r2, #0
    ba60:	81ab      	strh	r3, [r5, #12]
    ba62:	dd65      	ble.n	bb30 <__sflush_r+0xe8>
    ba64:	6aae      	ldr	r6, [r5, #40]	; 0x28
    ba66:	2e00      	cmp	r6, #0
    ba68:	d04b      	beq.n	bb02 <__sflush_r+0xba>
    ba6a:	b29b      	uxth	r3, r3
    ba6c:	f403 5280 	and.w	r2, r3, #4096	; 0x1000
    ba70:	2100      	movs	r1, #0
    ba72:	b292      	uxth	r2, r2
    ba74:	f8d8 4000 	ldr.w	r4, [r8]
    ba78:	f8c8 1000 	str.w	r1, [r8]
    ba7c:	2a00      	cmp	r2, #0
    ba7e:	d05b      	beq.n	bb38 <__sflush_r+0xf0>
    ba80:	6d2a      	ldr	r2, [r5, #80]	; 0x50
    ba82:	075f      	lsls	r7, r3, #29
    ba84:	d505      	bpl.n	ba92 <__sflush_r+0x4a>
    ba86:	6869      	ldr	r1, [r5, #4]
    ba88:	6b2b      	ldr	r3, [r5, #48]	; 0x30
    ba8a:	1a52      	subs	r2, r2, r1
    ba8c:	b10b      	cbz	r3, ba92 <__sflush_r+0x4a>
    ba8e:	6beb      	ldr	r3, [r5, #60]	; 0x3c
    ba90:	1ad2      	subs	r2, r2, r3
    ba92:	4640      	mov	r0, r8
    ba94:	69e9      	ldr	r1, [r5, #28]
    ba96:	2300      	movs	r3, #0
    ba98:	47b0      	blx	r6
    ba9a:	1c46      	adds	r6, r0, #1
    ba9c:	d056      	beq.n	bb4c <__sflush_r+0x104>
    ba9e:	89ab      	ldrh	r3, [r5, #12]
    baa0:	692a      	ldr	r2, [r5, #16]
    baa2:	f423 6300 	bic.w	r3, r3, #2048	; 0x800
    baa6:	b29b      	uxth	r3, r3
    baa8:	2100      	movs	r1, #0
    baaa:	602a      	str	r2, [r5, #0]
    baac:	04da      	lsls	r2, r3, #19
    baae:	81ab      	strh	r3, [r5, #12]
    bab0:	6069      	str	r1, [r5, #4]
    bab2:	d43b      	bmi.n	bb2c <__sflush_r+0xe4>
    bab4:	6b29      	ldr	r1, [r5, #48]	; 0x30
    bab6:	f8c8 4000 	str.w	r4, [r8]
    baba:	b311      	cbz	r1, bb02 <__sflush_r+0xba>
    babc:	f105 0340 	add.w	r3, r5, #64	; 0x40
    bac0:	4299      	cmp	r1, r3
    bac2:	d002      	beq.n	baca <__sflush_r+0x82>
    bac4:	4640      	mov	r0, r8
    bac6:	f000 f8d9 	bl	bc7c <_free_r>
    baca:	2000      	movs	r0, #0
    bacc:	6328      	str	r0, [r5, #48]	; 0x30
    bace:	e8bd 81f0 	ldmia.w	sp!, {r4, r5, r6, r7, r8, pc}
    bad2:	692e      	ldr	r6, [r5, #16]
    bad4:	b1ae      	cbz	r6, bb02 <__sflush_r+0xba>
    bad6:	0791      	lsls	r1, r2, #30
    bad8:	682c      	ldr	r4, [r5, #0]
    bada:	bf0c      	ite	eq
    badc:	696b      	ldreq	r3, [r5, #20]
    bade:	2300      	movne	r3, #0
    bae0:	602e      	str	r6, [r5, #0]
    bae2:	1ba4      	subs	r4, r4, r6
    bae4:	60ab      	str	r3, [r5, #8]
    bae6:	e00a      	b.n	bafe <__sflush_r+0xb6>
    bae8:	4632      	mov	r2, r6
    baea:	4623      	mov	r3, r4
    baec:	6a6f      	ldr	r7, [r5, #36]	; 0x24
    baee:	4640      	mov	r0, r8
    baf0:	69e9      	ldr	r1, [r5, #28]
    baf2:	47b8      	blx	r7
    baf4:	2800      	cmp	r0, #0
    baf6:	eba4 0400 	sub.w	r4, r4, r0
    bafa:	4406      	add	r6, r0
    bafc:	dd04      	ble.n	bb08 <__sflush_r+0xc0>
    bafe:	2c00      	cmp	r4, #0
    bb00:	dcf2      	bgt.n	bae8 <__sflush_r+0xa0>
    bb02:	2000      	movs	r0, #0
    bb04:	e8bd 81f0 	ldmia.w	sp!, {r4, r5, r6, r7, r8, pc}
    bb08:	89ab      	ldrh	r3, [r5, #12]
    bb0a:	f04f 30ff 	mov.w	r0, #4294967295
    bb0e:	f043 0340 	orr.w	r3, r3, #64	; 0x40
    bb12:	81ab      	strh	r3, [r5, #12]
    bb14:	e8bd 81f0 	ldmia.w	sp!, {r4, r5, r6, r7, r8, pc}
    bb18:	89ab      	ldrh	r3, [r5, #12]
    bb1a:	692a      	ldr	r2, [r5, #16]
    bb1c:	f423 6300 	bic.w	r3, r3, #2048	; 0x800
    bb20:	b29b      	uxth	r3, r3
    bb22:	81ab      	strh	r3, [r5, #12]
    bb24:	04db      	lsls	r3, r3, #19
    bb26:	6069      	str	r1, [r5, #4]
    bb28:	602a      	str	r2, [r5, #0]
    bb2a:	d5c3      	bpl.n	bab4 <__sflush_r+0x6c>
    bb2c:	6528      	str	r0, [r5, #80]	; 0x50
    bb2e:	e7c1      	b.n	bab4 <__sflush_r+0x6c>
    bb30:	6bea      	ldr	r2, [r5, #60]	; 0x3c
    bb32:	2a00      	cmp	r2, #0
    bb34:	dc96      	bgt.n	ba64 <__sflush_r+0x1c>
    bb36:	e7e4      	b.n	bb02 <__sflush_r+0xba>
    bb38:	2301      	movs	r3, #1
    bb3a:	4640      	mov	r0, r8
    bb3c:	69e9      	ldr	r1, [r5, #28]
    bb3e:	47b0      	blx	r6
    bb40:	1c43      	adds	r3, r0, #1
    bb42:	4602      	mov	r2, r0
    bb44:	d019      	beq.n	bb7a <__sflush_r+0x132>
    bb46:	89ab      	ldrh	r3, [r5, #12]
    bb48:	6aae      	ldr	r6, [r5, #40]	; 0x28
    bb4a:	e79a      	b.n	ba82 <__sflush_r+0x3a>
    bb4c:	f8d8 1000 	ldr.w	r1, [r8]
    bb50:	2900      	cmp	r1, #0
    bb52:	d0e1      	beq.n	bb18 <__sflush_r+0xd0>
    bb54:	291d      	cmp	r1, #29
    bb56:	d007      	beq.n	bb68 <__sflush_r+0x120>
    bb58:	2916      	cmp	r1, #22
    bb5a:	d005      	beq.n	bb68 <__sflush_r+0x120>
    bb5c:	89ab      	ldrh	r3, [r5, #12]
    bb5e:	f043 0340 	orr.w	r3, r3, #64	; 0x40
    bb62:	81ab      	strh	r3, [r5, #12]
    bb64:	e8bd 81f0 	ldmia.w	sp!, {r4, r5, r6, r7, r8, pc}
    bb68:	89ab      	ldrh	r3, [r5, #12]
    bb6a:	6929      	ldr	r1, [r5, #16]
    bb6c:	f423 6300 	bic.w	r3, r3, #2048	; 0x800
    bb70:	2200      	movs	r2, #0
    bb72:	81ab      	strh	r3, [r5, #12]
    bb74:	e885 0006 	stmia.w	r5, {r1, r2}
    bb78:	e79c      	b.n	bab4 <__sflush_r+0x6c>
    bb7a:	f8d8 3000 	ldr.w	r3, [r8]
    bb7e:	2b00      	cmp	r3, #0
    bb80:	d0e1      	beq.n	bb46 <__sflush_r+0xfe>
    bb82:	2b1d      	cmp	r3, #29
    bb84:	d001      	beq.n	bb8a <__sflush_r+0x142>
    bb86:	2b16      	cmp	r3, #22
    bb88:	d1be      	bne.n	bb08 <__sflush_r+0xc0>
    bb8a:	f8c8 4000 	str.w	r4, [r8]
    bb8e:	e7b8      	b.n	bb02 <__sflush_r+0xba>

0000bb90 <_fflush_r>:
    bb90:	b510      	push	{r4, lr}
    bb92:	4604      	mov	r4, r0
    bb94:	b082      	sub	sp, #8
    bb96:	b108      	cbz	r0, bb9c <_fflush_r+0xc>
    bb98:	6b83      	ldr	r3, [r0, #56]	; 0x38
    bb9a:	b153      	cbz	r3, bbb2 <_fflush_r+0x22>
    bb9c:	f9b1 000c 	ldrsh.w	r0, [r1, #12]
    bba0:	b908      	cbnz	r0, bba6 <_fflush_r+0x16>
    bba2:	b002      	add	sp, #8
    bba4:	bd10      	pop	{r4, pc}
    bba6:	4620      	mov	r0, r4
    bba8:	b002      	add	sp, #8
    bbaa:	e8bd 4010 	ldmia.w	sp!, {r4, lr}
    bbae:	f7ff bf4b 	b.w	ba48 <__sflush_r>
    bbb2:	9101      	str	r1, [sp, #4]
    bbb4:	f7fd f87e 	bl	8cb4 <__sinit>
    bbb8:	9901      	ldr	r1, [sp, #4]
    bbba:	e7ef      	b.n	bb9c <_fflush_r+0xc>

0000bbbc <fflush>:
    bbbc:	b120      	cbz	r0, bbc8 <fflush+0xc>
    bbbe:	4b05      	ldr	r3, [pc, #20]	; (bbd4 <fflush+0x18>)
    bbc0:	4601      	mov	r1, r0
    bbc2:	6818      	ldr	r0, [r3, #0]
    bbc4:	f7ff bfe4 	b.w	bb90 <_fflush_r>
    bbc8:	4b03      	ldr	r3, [pc, #12]	; (bbd8 <fflush+0x1c>)
    bbca:	4904      	ldr	r1, [pc, #16]	; (bbdc <fflush+0x20>)
    bbcc:	6818      	ldr	r0, [r3, #0]
    bbce:	f7fd b8b7 	b.w	8d40 <_fwalk_reent>
    bbd2:	bf00      	nop
    bbd4:	00017b68 	.word	0x00017b68
    bbd8:	0000f3fc 	.word	0x0000f3fc
    bbdc:	0000bb91 	.word	0x0000bb91

0000bbe0 <_malloc_trim_r>:
    bbe0:	b5f8      	push	{r3, r4, r5, r6, r7, lr}
    bbe2:	460c      	mov	r4, r1
    bbe4:	4f22      	ldr	r7, [pc, #136]	; (bc70 <_malloc_trim_r+0x90>)
    bbe6:	4606      	mov	r6, r0
    bbe8:	f7fd fb58 	bl	929c <__malloc_lock>
    bbec:	68bb      	ldr	r3, [r7, #8]
    bbee:	685d      	ldr	r5, [r3, #4]
    bbf0:	f025 0503 	bic.w	r5, r5, #3
    bbf4:	1b29      	subs	r1, r5, r4
    bbf6:	f601 71ef 	addw	r1, r1, #4079	; 0xfef
    bbfa:	f421 617f 	bic.w	r1, r1, #4080	; 0xff0
    bbfe:	f021 010f 	bic.w	r1, r1, #15
    bc02:	f5a1 5480 	sub.w	r4, r1, #4096	; 0x1000
    bc06:	f5b4 5f80 	cmp.w	r4, #4096	; 0x1000
    bc0a:	db07      	blt.n	bc1c <_malloc_trim_r+0x3c>
    bc0c:	4630      	mov	r0, r6
    bc0e:	2100      	movs	r1, #0
    bc10:	f7fd fb6c 	bl	92ec <_sbrk_r>
    bc14:	68bb      	ldr	r3, [r7, #8]
    bc16:	442b      	add	r3, r5
    bc18:	4298      	cmp	r0, r3
    bc1a:	d004      	beq.n	bc26 <_malloc_trim_r+0x46>
    bc1c:	4630      	mov	r0, r6
    bc1e:	f7fd fb3f 	bl	92a0 <__malloc_unlock>
    bc22:	2000      	movs	r0, #0
    bc24:	bdf8      	pop	{r3, r4, r5, r6, r7, pc}
    bc26:	4630      	mov	r0, r6
    bc28:	4261      	negs	r1, r4
    bc2a:	f7fd fb5f 	bl	92ec <_sbrk_r>
    bc2e:	3001      	adds	r0, #1
    bc30:	d00d      	beq.n	bc4e <_malloc_trim_r+0x6e>
    bc32:	4b10      	ldr	r3, [pc, #64]	; (bc74 <_malloc_trim_r+0x94>)
    bc34:	68ba      	ldr	r2, [r7, #8]
    bc36:	6819      	ldr	r1, [r3, #0]
    bc38:	1b2d      	subs	r5, r5, r4
    bc3a:	f045 0501 	orr.w	r5, r5, #1
    bc3e:	4630      	mov	r0, r6
    bc40:	1b09      	subs	r1, r1, r4
    bc42:	6055      	str	r5, [r2, #4]
    bc44:	6019      	str	r1, [r3, #0]
    bc46:	f7fd fb2b 	bl	92a0 <__malloc_unlock>
    bc4a:	2001      	movs	r0, #1
    bc4c:	bdf8      	pop	{r3, r4, r5, r6, r7, pc}
    bc4e:	4630      	mov	r0, r6
    bc50:	2100      	movs	r1, #0
    bc52:	f7fd fb4b 	bl	92ec <_sbrk_r>
    bc56:	68ba      	ldr	r2, [r7, #8]
    bc58:	1a83      	subs	r3, r0, r2
    bc5a:	2b0f      	cmp	r3, #15
    bc5c:	ddde      	ble.n	bc1c <_malloc_trim_r+0x3c>
    bc5e:	4c06      	ldr	r4, [pc, #24]	; (bc78 <_malloc_trim_r+0x98>)
    bc60:	4904      	ldr	r1, [pc, #16]	; (bc74 <_malloc_trim_r+0x94>)
    bc62:	6824      	ldr	r4, [r4, #0]
    bc64:	f043 0301 	orr.w	r3, r3, #1
    bc68:	1b00      	subs	r0, r0, r4
    bc6a:	6053      	str	r3, [r2, #4]
    bc6c:	6008      	str	r0, [r1, #0]
    bc6e:	e7d5      	b.n	bc1c <_malloc_trim_r+0x3c>
    bc70:	00017b88 	.word	0x00017b88
    bc74:	000180f0 	.word	0x000180f0
    bc78:	00017f94 	.word	0x00017f94

0000bc7c <_free_r>:
    bc7c:	2900      	cmp	r1, #0
    bc7e:	d04e      	beq.n	bd1e <_free_r+0xa2>
    bc80:	e92d 41f0 	stmdb	sp!, {r4, r5, r6, r7, r8, lr}
    bc84:	460c      	mov	r4, r1
    bc86:	4680      	mov	r8, r0
    bc88:	f7fd fb08 	bl	929c <__malloc_lock>
    bc8c:	f854 7c04 	ldr.w	r7, [r4, #-4]
    bc90:	4962      	ldr	r1, [pc, #392]	; (be1c <_free_r+0x1a0>)
    bc92:	f1a4 0508 	sub.w	r5, r4, #8
    bc96:	f027 0201 	bic.w	r2, r7, #1
    bc9a:	18ab      	adds	r3, r5, r2
    bc9c:	688e      	ldr	r6, [r1, #8]
    bc9e:	6858      	ldr	r0, [r3, #4]
    bca0:	429e      	cmp	r6, r3
    bca2:	f020 0003 	bic.w	r0, r0, #3
    bca6:	d05a      	beq.n	bd5e <_free_r+0xe2>
    bca8:	07fe      	lsls	r6, r7, #31
    bcaa:	6058      	str	r0, [r3, #4]
    bcac:	d40b      	bmi.n	bcc6 <_free_r+0x4a>
    bcae:	f854 7c08 	ldr.w	r7, [r4, #-8]
    bcb2:	f101 0e08 	add.w	lr, r1, #8
    bcb6:	1bed      	subs	r5, r5, r7
    bcb8:	68ac      	ldr	r4, [r5, #8]
    bcba:	443a      	add	r2, r7
    bcbc:	4574      	cmp	r4, lr
    bcbe:	d067      	beq.n	bd90 <_free_r+0x114>
    bcc0:	68ef      	ldr	r7, [r5, #12]
    bcc2:	60e7      	str	r7, [r4, #12]
    bcc4:	60bc      	str	r4, [r7, #8]
    bcc6:	181c      	adds	r4, r3, r0
    bcc8:	6864      	ldr	r4, [r4, #4]
    bcca:	07e4      	lsls	r4, r4, #31
    bccc:	d40c      	bmi.n	bce8 <_free_r+0x6c>
    bcce:	4f54      	ldr	r7, [pc, #336]	; (be20 <_free_r+0x1a4>)
    bcd0:	689c      	ldr	r4, [r3, #8]
    bcd2:	4402      	add	r2, r0
    bcd4:	42bc      	cmp	r4, r7
    bcd6:	d07c      	beq.n	bdd2 <_free_r+0x156>
    bcd8:	68d8      	ldr	r0, [r3, #12]
    bcda:	f042 0301 	orr.w	r3, r2, #1
    bcde:	60e0      	str	r0, [r4, #12]
    bce0:	6084      	str	r4, [r0, #8]
    bce2:	606b      	str	r3, [r5, #4]
    bce4:	50aa      	str	r2, [r5, r2]
    bce6:	e003      	b.n	bcf0 <_free_r+0x74>
    bce8:	f042 0301 	orr.w	r3, r2, #1
    bcec:	606b      	str	r3, [r5, #4]
    bcee:	50aa      	str	r2, [r5, r2]
    bcf0:	f5b2 7f00 	cmp.w	r2, #512	; 0x200
    bcf4:	d214      	bcs.n	bd20 <_free_r+0xa4>
    bcf6:	08d2      	lsrs	r2, r2, #3
    bcf8:	eb01 03c2 	add.w	r3, r1, r2, lsl #3
    bcfc:	2401      	movs	r4, #1
    bcfe:	6848      	ldr	r0, [r1, #4]
    bd00:	1092      	asrs	r2, r2, #2
    bd02:	fa04 f202 	lsl.w	r2, r4, r2
    bd06:	689c      	ldr	r4, [r3, #8]
    bd08:	4310      	orrs	r0, r2
    bd0a:	60ac      	str	r4, [r5, #8]
    bd0c:	60eb      	str	r3, [r5, #12]
    bd0e:	6048      	str	r0, [r1, #4]
    bd10:	609d      	str	r5, [r3, #8]
    bd12:	60e5      	str	r5, [r4, #12]
    bd14:	4640      	mov	r0, r8
    bd16:	e8bd 41f0 	ldmia.w	sp!, {r4, r5, r6, r7, r8, lr}
    bd1a:	f7fd bac1 	b.w	92a0 <__malloc_unlock>
    bd1e:	4770      	bx	lr
    bd20:	0a53      	lsrs	r3, r2, #9
    bd22:	2b04      	cmp	r3, #4
    bd24:	d847      	bhi.n	bdb6 <_free_r+0x13a>
    bd26:	0993      	lsrs	r3, r2, #6
    bd28:	f103 0438 	add.w	r4, r3, #56	; 0x38
    bd2c:	0060      	lsls	r0, r4, #1
    bd2e:	eb01 0080 	add.w	r0, r1, r0, lsl #2
    bd32:	6883      	ldr	r3, [r0, #8]
    bd34:	4939      	ldr	r1, [pc, #228]	; (be1c <_free_r+0x1a0>)
    bd36:	4283      	cmp	r3, r0
    bd38:	d043      	beq.n	bdc2 <_free_r+0x146>
    bd3a:	6859      	ldr	r1, [r3, #4]
    bd3c:	f021 0103 	bic.w	r1, r1, #3
    bd40:	4291      	cmp	r1, r2
    bd42:	d902      	bls.n	bd4a <_free_r+0xce>
    bd44:	689b      	ldr	r3, [r3, #8]
    bd46:	4298      	cmp	r0, r3
    bd48:	d1f7      	bne.n	bd3a <_free_r+0xbe>
    bd4a:	68da      	ldr	r2, [r3, #12]
    bd4c:	60ea      	str	r2, [r5, #12]
    bd4e:	60ab      	str	r3, [r5, #8]
    bd50:	4640      	mov	r0, r8
    bd52:	6095      	str	r5, [r2, #8]
    bd54:	60dd      	str	r5, [r3, #12]
    bd56:	e8bd 41f0 	ldmia.w	sp!, {r4, r5, r6, r7, r8, lr}
    bd5a:	f7fd baa1 	b.w	92a0 <__malloc_unlock>
    bd5e:	07ff      	lsls	r7, r7, #31
    bd60:	4402      	add	r2, r0
    bd62:	d407      	bmi.n	bd74 <_free_r+0xf8>
    bd64:	f854 4c08 	ldr.w	r4, [r4, #-8]
    bd68:	1b2d      	subs	r5, r5, r4
    bd6a:	68eb      	ldr	r3, [r5, #12]
    bd6c:	68a8      	ldr	r0, [r5, #8]
    bd6e:	4422      	add	r2, r4
    bd70:	60c3      	str	r3, [r0, #12]
    bd72:	6098      	str	r0, [r3, #8]
    bd74:	4b2b      	ldr	r3, [pc, #172]	; (be24 <_free_r+0x1a8>)
    bd76:	f042 0001 	orr.w	r0, r2, #1
    bd7a:	681b      	ldr	r3, [r3, #0]
    bd7c:	6068      	str	r0, [r5, #4]
    bd7e:	429a      	cmp	r2, r3
    bd80:	608d      	str	r5, [r1, #8]
    bd82:	d3c7      	bcc.n	bd14 <_free_r+0x98>
    bd84:	4b28      	ldr	r3, [pc, #160]	; (be28 <_free_r+0x1ac>)
    bd86:	4640      	mov	r0, r8
    bd88:	6819      	ldr	r1, [r3, #0]
    bd8a:	f7ff ff29 	bl	bbe0 <_malloc_trim_r>
    bd8e:	e7c1      	b.n	bd14 <_free_r+0x98>
    bd90:	1819      	adds	r1, r3, r0
    bd92:	6849      	ldr	r1, [r1, #4]
    bd94:	07c9      	lsls	r1, r1, #31
    bd96:	d409      	bmi.n	bdac <_free_r+0x130>
    bd98:	68d9      	ldr	r1, [r3, #12]
    bd9a:	4402      	add	r2, r0
    bd9c:	689b      	ldr	r3, [r3, #8]
    bd9e:	f042 0001 	orr.w	r0, r2, #1
    bda2:	60d9      	str	r1, [r3, #12]
    bda4:	608b      	str	r3, [r1, #8]
    bda6:	6068      	str	r0, [r5, #4]
    bda8:	50aa      	str	r2, [r5, r2]
    bdaa:	e7b3      	b.n	bd14 <_free_r+0x98>
    bdac:	f042 0301 	orr.w	r3, r2, #1
    bdb0:	606b      	str	r3, [r5, #4]
    bdb2:	50aa      	str	r2, [r5, r2]
    bdb4:	e7ae      	b.n	bd14 <_free_r+0x98>
    bdb6:	2b14      	cmp	r3, #20
    bdb8:	d814      	bhi.n	bde4 <_free_r+0x168>
    bdba:	f103 045b 	add.w	r4, r3, #91	; 0x5b
    bdbe:	0060      	lsls	r0, r4, #1
    bdc0:	e7b5      	b.n	bd2e <_free_r+0xb2>
    bdc2:	684a      	ldr	r2, [r1, #4]
    bdc4:	10a4      	asrs	r4, r4, #2
    bdc6:	2001      	movs	r0, #1
    bdc8:	40a0      	lsls	r0, r4
    bdca:	4302      	orrs	r2, r0
    bdcc:	604a      	str	r2, [r1, #4]
    bdce:	461a      	mov	r2, r3
    bdd0:	e7bc      	b.n	bd4c <_free_r+0xd0>
    bdd2:	f042 0301 	orr.w	r3, r2, #1
    bdd6:	614d      	str	r5, [r1, #20]
    bdd8:	610d      	str	r5, [r1, #16]
    bdda:	60ec      	str	r4, [r5, #12]
    bddc:	60ac      	str	r4, [r5, #8]
    bdde:	606b      	str	r3, [r5, #4]
    bde0:	50aa      	str	r2, [r5, r2]
    bde2:	e797      	b.n	bd14 <_free_r+0x98>
    bde4:	2b54      	cmp	r3, #84	; 0x54
    bde6:	d804      	bhi.n	bdf2 <_free_r+0x176>
    bde8:	0b13      	lsrs	r3, r2, #12
    bdea:	f103 046e 	add.w	r4, r3, #110	; 0x6e
    bdee:	0060      	lsls	r0, r4, #1
    bdf0:	e79d      	b.n	bd2e <_free_r+0xb2>
    bdf2:	f5b3 7faa 	cmp.w	r3, #340	; 0x154
    bdf6:	d804      	bhi.n	be02 <_free_r+0x186>
    bdf8:	0bd3      	lsrs	r3, r2, #15
    bdfa:	f103 0477 	add.w	r4, r3, #119	; 0x77
    bdfe:	0060      	lsls	r0, r4, #1
    be00:	e795      	b.n	bd2e <_free_r+0xb2>
    be02:	f240 5054 	movw	r0, #1364	; 0x554
    be06:	4283      	cmp	r3, r0
    be08:	d804      	bhi.n	be14 <_free_r+0x198>
    be0a:	0c93      	lsrs	r3, r2, #18
    be0c:	f103 047c 	add.w	r4, r3, #124	; 0x7c
    be10:	0060      	lsls	r0, r4, #1
    be12:	e78c      	b.n	bd2e <_free_r+0xb2>
    be14:	20fc      	movs	r0, #252	; 0xfc
    be16:	247e      	movs	r4, #126	; 0x7e
    be18:	e789      	b.n	bd2e <_free_r+0xb2>
    be1a:	bf00      	nop
    be1c:	00017b88 	.word	0x00017b88
    be20:	00017b90 	.word	0x00017b90
    be24:	00017f90 	.word	0x00017f90
    be28:	000180ec 	.word	0x000180ec

0000be2c <_setlocale_r>:
    be2c:	b1c2      	cbz	r2, be60 <_setlocale_r+0x34>
    be2e:	b510      	push	{r4, lr}
    be30:	4610      	mov	r0, r2
    be32:	490c      	ldr	r1, [pc, #48]	; (be64 <_setlocale_r+0x38>)
    be34:	4614      	mov	r4, r2
    be36:	f000 fe7d 	bl	cb34 <strcmp>
    be3a:	b908      	cbnz	r0, be40 <_setlocale_r+0x14>
    be3c:	480a      	ldr	r0, [pc, #40]	; (be68 <_setlocale_r+0x3c>)
    be3e:	bd10      	pop	{r4, pc}
    be40:	4620      	mov	r0, r4
    be42:	4909      	ldr	r1, [pc, #36]	; (be68 <_setlocale_r+0x3c>)
    be44:	f000 fe76 	bl	cb34 <strcmp>
    be48:	2800      	cmp	r0, #0
    be4a:	d0f7      	beq.n	be3c <_setlocale_r+0x10>
    be4c:	4620      	mov	r0, r4
    be4e:	4907      	ldr	r1, [pc, #28]	; (be6c <_setlocale_r+0x40>)
    be50:	f000 fe70 	bl	cb34 <strcmp>
    be54:	4b04      	ldr	r3, [pc, #16]	; (be68 <_setlocale_r+0x3c>)
    be56:	2800      	cmp	r0, #0
    be58:	bf0c      	ite	eq
    be5a:	4618      	moveq	r0, r3
    be5c:	2000      	movne	r0, #0
    be5e:	bd10      	pop	{r4, pc}
    be60:	4801      	ldr	r0, [pc, #4]	; (be68 <_setlocale_r+0x3c>)
    be62:	4770      	bx	lr
    be64:	0000f478 	.word	0x0000f478
    be68:	0000f3f8 	.word	0x0000f3f8
    be6c:	0000f434 	.word	0x0000f434

0000be70 <__locale_charset>:
    be70:	4800      	ldr	r0, [pc, #0]	; (be74 <__locale_charset+0x4>)
    be72:	4770      	bx	lr
    be74:	00017ff0 	.word	0x00017ff0

0000be78 <__locale_mb_cur_max>:
    be78:	4b01      	ldr	r3, [pc, #4]	; (be80 <__locale_mb_cur_max+0x8>)
    be7a:	6818      	ldr	r0, [r3, #0]
    be7c:	4770      	bx	lr
    be7e:	bf00      	nop
    be80:	00018010 	.word	0x00018010

0000be84 <__locale_msgcharset>:
    be84:	4800      	ldr	r0, [pc, #0]	; (be88 <__locale_msgcharset+0x4>)
    be86:	4770      	bx	lr
    be88:	00017f98 	.word	0x00017f98

0000be8c <__locale_cjk_lang>:
    be8c:	2000      	movs	r0, #0
    be8e:	4770      	bx	lr

0000be90 <_localeconv_r>:
    be90:	4800      	ldr	r0, [pc, #0]	; (be94 <_localeconv_r+0x4>)
    be92:	4770      	bx	lr
    be94:	00017fb8 	.word	0x00017fb8

0000be98 <setlocale>:
    be98:	4b02      	ldr	r3, [pc, #8]	; (bea4 <setlocale+0xc>)
    be9a:	460a      	mov	r2, r1
    be9c:	4601      	mov	r1, r0
    be9e:	6818      	ldr	r0, [r3, #0]
    bea0:	f7ff bfc4 	b.w	be2c <_setlocale_r>
    bea4:	00017b68 	.word	0x00017b68

0000bea8 <localeconv>:
    bea8:	4800      	ldr	r0, [pc, #0]	; (beac <localeconv+0x4>)
    beaa:	4770      	bx	lr
    beac:	00017fb8 	.word	0x00017fb8

0000beb0 <_lseek_r>:
    beb0:	b570      	push	{r4, r5, r6, lr}
    beb2:	4c08      	ldr	r4, [pc, #32]	; (bed4 <_lseek_r+0x24>)
    beb4:	4606      	mov	r6, r0
    beb6:	2500      	movs	r5, #0
    beb8:	4608      	mov	r0, r1
    beba:	4611      	mov	r1, r2
    bebc:	461a      	mov	r2, r3
    bebe:	6025      	str	r5, [r4, #0]
    bec0:	f7fc fba4 	bl	860c <_lseek>
    bec4:	1c43      	adds	r3, r0, #1
    bec6:	d000      	beq.n	beca <_lseek_r+0x1a>
    bec8:	bd70      	pop	{r4, r5, r6, pc}
    beca:	6823      	ldr	r3, [r4, #0]
    becc:	2b00      	cmp	r3, #0
    bece:	d0fb      	beq.n	bec8 <_lseek_r+0x18>
    bed0:	6033      	str	r3, [r6, #0]
    bed2:	bd70      	pop	{r4, r5, r6, pc}
    bed4:	00018124 	.word	0x00018124

0000bed8 <__smakebuf_r>:
    bed8:	898b      	ldrh	r3, [r1, #12]
    beda:	b29a      	uxth	r2, r3
    bedc:	f012 0f02 	tst.w	r2, #2
    bee0:	d13c      	bne.n	bf5c <__smakebuf_r+0x84>
    bee2:	b5f0      	push	{r4, r5, r6, r7, lr}
    bee4:	460c      	mov	r4, r1
    bee6:	f9b1 100e 	ldrsh.w	r1, [r1, #14]
    beea:	b091      	sub	sp, #68	; 0x44
    beec:	2900      	cmp	r1, #0
    beee:	4605      	mov	r5, r0
    bef0:	db19      	blt.n	bf26 <__smakebuf_r+0x4e>
    bef2:	aa01      	add	r2, sp, #4
    bef4:	f001 fe44 	bl	db80 <_fstat_r>
    bef8:	2800      	cmp	r0, #0
    befa:	db12      	blt.n	bf22 <__smakebuf_r+0x4a>
    befc:	9b02      	ldr	r3, [sp, #8]
    befe:	f403 4370 	and.w	r3, r3, #61440	; 0xf000
    bf02:	f5a3 5700 	sub.w	r7, r3, #8192	; 0x2000
    bf06:	fab7 f787 	clz	r7, r7
    bf0a:	f5b3 4f00 	cmp.w	r3, #32768	; 0x8000
    bf0e:	ea4f 1757 	mov.w	r7, r7, lsr #5
    bf12:	d02a      	beq.n	bf6a <__smakebuf_r+0x92>
    bf14:	89a3      	ldrh	r3, [r4, #12]
    bf16:	f44f 6680 	mov.w	r6, #1024	; 0x400
    bf1a:	f443 6300 	orr.w	r3, r3, #2048	; 0x800
    bf1e:	81a3      	strh	r3, [r4, #12]
    bf20:	e00b      	b.n	bf3a <__smakebuf_r+0x62>
    bf22:	89a3      	ldrh	r3, [r4, #12]
    bf24:	b29a      	uxth	r2, r3
    bf26:	f012 0f80 	tst.w	r2, #128	; 0x80
    bf2a:	f443 6300 	orr.w	r3, r3, #2048	; 0x800
    bf2e:	81a3      	strh	r3, [r4, #12]
    bf30:	bf0c      	ite	eq
    bf32:	f44f 6680 	moveq.w	r6, #1024	; 0x400
    bf36:	2640      	movne	r6, #64	; 0x40
    bf38:	2700      	movs	r7, #0
    bf3a:	4628      	mov	r0, r5
    bf3c:	4631      	mov	r1, r6
    bf3e:	f7fc ff27 	bl	8d90 <_malloc_r>
    bf42:	89a3      	ldrh	r3, [r4, #12]
    bf44:	b340      	cbz	r0, bf98 <__smakebuf_r+0xc0>
    bf46:	4a1a      	ldr	r2, [pc, #104]	; (bfb0 <__smakebuf_r+0xd8>)
    bf48:	f043 0380 	orr.w	r3, r3, #128	; 0x80
    bf4c:	63ea      	str	r2, [r5, #60]	; 0x3c
    bf4e:	81a3      	strh	r3, [r4, #12]
    bf50:	6020      	str	r0, [r4, #0]
    bf52:	6120      	str	r0, [r4, #16]
    bf54:	6166      	str	r6, [r4, #20]
    bf56:	b99f      	cbnz	r7, bf80 <__smakebuf_r+0xa8>
    bf58:	b011      	add	sp, #68	; 0x44
    bf5a:	bdf0      	pop	{r4, r5, r6, r7, pc}
    bf5c:	f101 0343 	add.w	r3, r1, #67	; 0x43
    bf60:	2201      	movs	r2, #1
    bf62:	600b      	str	r3, [r1, #0]
    bf64:	610b      	str	r3, [r1, #16]
    bf66:	614a      	str	r2, [r1, #20]
    bf68:	4770      	bx	lr
    bf6a:	4b12      	ldr	r3, [pc, #72]	; (bfb4 <__smakebuf_r+0xdc>)
    bf6c:	6aa2      	ldr	r2, [r4, #40]	; 0x28
    bf6e:	429a      	cmp	r2, r3
    bf70:	d1d0      	bne.n	bf14 <__smakebuf_r+0x3c>
    bf72:	89a3      	ldrh	r3, [r4, #12]
    bf74:	f44f 6680 	mov.w	r6, #1024	; 0x400
    bf78:	4333      	orrs	r3, r6
    bf7a:	81a3      	strh	r3, [r4, #12]
    bf7c:	64e6      	str	r6, [r4, #76]	; 0x4c
    bf7e:	e7dc      	b.n	bf3a <__smakebuf_r+0x62>
    bf80:	4628      	mov	r0, r5
    bf82:	f9b4 100e 	ldrsh.w	r1, [r4, #14]
    bf86:	f001 ff9f 	bl	dec8 <_isatty_r>
    bf8a:	2800      	cmp	r0, #0
    bf8c:	d0e4      	beq.n	bf58 <__smakebuf_r+0x80>
    bf8e:	89a3      	ldrh	r3, [r4, #12]
    bf90:	f043 0301 	orr.w	r3, r3, #1
    bf94:	81a3      	strh	r3, [r4, #12]
    bf96:	e7df      	b.n	bf58 <__smakebuf_r+0x80>
    bf98:	059a      	lsls	r2, r3, #22
    bf9a:	d4dd      	bmi.n	bf58 <__smakebuf_r+0x80>
    bf9c:	f104 0243 	add.w	r2, r4, #67	; 0x43
    bfa0:	f043 0302 	orr.w	r3, r3, #2
    bfa4:	2101      	movs	r1, #1
    bfa6:	81a3      	strh	r3, [r4, #12]
    bfa8:	6022      	str	r2, [r4, #0]
    bfaa:	6122      	str	r2, [r4, #16]
    bfac:	6161      	str	r1, [r4, #20]
    bfae:	e7d3      	b.n	bf58 <__smakebuf_r+0x80>
    bfb0:	00008aed 	.word	0x00008aed
    bfb4:	00009371 	.word	0x00009371

0000bfb8 <memchr>:
    bfb8:	0783      	lsls	r3, r0, #30
    bfba:	b470      	push	{r4, r5, r6}
    bfbc:	b2c9      	uxtb	r1, r1
    bfbe:	d040      	beq.n	c042 <memchr+0x8a>
    bfc0:	1e54      	subs	r4, r2, #1
    bfc2:	2a00      	cmp	r2, #0
    bfc4:	d03f      	beq.n	c046 <memchr+0x8e>
    bfc6:	7803      	ldrb	r3, [r0, #0]
    bfc8:	428b      	cmp	r3, r1
    bfca:	bf18      	it	ne
    bfcc:	1c43      	addne	r3, r0, #1
    bfce:	d105      	bne.n	bfdc <memchr+0x24>
    bfd0:	e01c      	b.n	c00c <memchr+0x54>
    bfd2:	b1ec      	cbz	r4, c010 <memchr+0x58>
    bfd4:	7802      	ldrb	r2, [r0, #0]
    bfd6:	3c01      	subs	r4, #1
    bfd8:	428a      	cmp	r2, r1
    bfda:	d017      	beq.n	c00c <memchr+0x54>
    bfdc:	f013 0f03 	tst.w	r3, #3
    bfe0:	4618      	mov	r0, r3
    bfe2:	f103 0301 	add.w	r3, r3, #1
    bfe6:	d1f4      	bne.n	bfd2 <memchr+0x1a>
    bfe8:	2c03      	cmp	r4, #3
    bfea:	d814      	bhi.n	c016 <memchr+0x5e>
    bfec:	b184      	cbz	r4, c010 <memchr+0x58>
    bfee:	7803      	ldrb	r3, [r0, #0]
    bff0:	428b      	cmp	r3, r1
    bff2:	d00b      	beq.n	c00c <memchr+0x54>
    bff4:	1905      	adds	r5, r0, r4
    bff6:	1c43      	adds	r3, r0, #1
    bff8:	e002      	b.n	c000 <memchr+0x48>
    bffa:	7802      	ldrb	r2, [r0, #0]
    bffc:	428a      	cmp	r2, r1
    bffe:	d005      	beq.n	c00c <memchr+0x54>
    c000:	42ab      	cmp	r3, r5
    c002:	4618      	mov	r0, r3
    c004:	f103 0301 	add.w	r3, r3, #1
    c008:	d1f7      	bne.n	bffa <memchr+0x42>
    c00a:	2000      	movs	r0, #0
    c00c:	bc70      	pop	{r4, r5, r6}
    c00e:	4770      	bx	lr
    c010:	4620      	mov	r0, r4
    c012:	bc70      	pop	{r4, r5, r6}
    c014:	4770      	bx	lr
    c016:	4602      	mov	r2, r0
    c018:	ea41 2601 	orr.w	r6, r1, r1, lsl #8
    c01c:	ea46 4606 	orr.w	r6, r6, r6, lsl #16
    c020:	6813      	ldr	r3, [r2, #0]
    c022:	4610      	mov	r0, r2
    c024:	4073      	eors	r3, r6
    c026:	f1a3 3501 	sub.w	r5, r3, #16843009	; 0x1010101
    c02a:	ea25 0303 	bic.w	r3, r5, r3
    c02e:	f013 3f80 	tst.w	r3, #2155905152	; 0x80808080
    c032:	f102 0204 	add.w	r2, r2, #4
    c036:	d1d9      	bne.n	bfec <memchr+0x34>
    c038:	3c04      	subs	r4, #4
    c03a:	2c03      	cmp	r4, #3
    c03c:	4610      	mov	r0, r2
    c03e:	d8ef      	bhi.n	c020 <memchr+0x68>
    c040:	e7d4      	b.n	bfec <memchr+0x34>
    c042:	4614      	mov	r4, r2
    c044:	e7d0      	b.n	bfe8 <memchr+0x30>
    c046:	4610      	mov	r0, r2
    c048:	e7e0      	b.n	c00c <memchr+0x54>
    c04a:	bf00      	nop

0000c04c <memcpy>:
    c04c:	4684      	mov	ip, r0
    c04e:	ea41 0300 	orr.w	r3, r1, r0
    c052:	f013 0303 	ands.w	r3, r3, #3
    c056:	d149      	bne.n	c0ec <memcpy+0xa0>
    c058:	3a40      	subs	r2, #64	; 0x40
    c05a:	d323      	bcc.n	c0a4 <memcpy+0x58>
    c05c:	680b      	ldr	r3, [r1, #0]
    c05e:	6003      	str	r3, [r0, #0]
    c060:	684b      	ldr	r3, [r1, #4]
    c062:	6043      	str	r3, [r0, #4]
    c064:	688b      	ldr	r3, [r1, #8]
    c066:	6083      	str	r3, [r0, #8]
    c068:	68cb      	ldr	r3, [r1, #12]
    c06a:	60c3      	str	r3, [r0, #12]
    c06c:	690b      	ldr	r3, [r1, #16]
    c06e:	6103      	str	r3, [r0, #16]
    c070:	694b      	ldr	r3, [r1, #20]
    c072:	6143      	str	r3, [r0, #20]
    c074:	698b      	ldr	r3, [r1, #24]
    c076:	6183      	str	r3, [r0, #24]
    c078:	69cb      	ldr	r3, [r1, #28]
    c07a:	61c3      	str	r3, [r0, #28]
    c07c:	6a0b      	ldr	r3, [r1, #32]
    c07e:	6203      	str	r3, [r0, #32]
    c080:	6a4b      	ldr	r3, [r1, #36]	; 0x24
    c082:	6243      	str	r3, [r0, #36]	; 0x24
    c084:	6a8b      	ldr	r3, [r1, #40]	; 0x28
    c086:	6283      	str	r3, [r0, #40]	; 0x28
    c088:	6acb      	ldr	r3, [r1, #44]	; 0x2c
    c08a:	62c3      	str	r3, [r0, #44]	; 0x2c
    c08c:	6b0b      	ldr	r3, [r1, #48]	; 0x30
    c08e:	6303      	str	r3, [r0, #48]	; 0x30
    c090:	6b4b      	ldr	r3, [r1, #52]	; 0x34
    c092:	6343      	str	r3, [r0, #52]	; 0x34
    c094:	6b8b      	ldr	r3, [r1, #56]	; 0x38
    c096:	6383      	str	r3, [r0, #56]	; 0x38
    c098:	6bcb      	ldr	r3, [r1, #60]	; 0x3c
    c09a:	63c3      	str	r3, [r0, #60]	; 0x3c
    c09c:	3040      	adds	r0, #64	; 0x40
    c09e:	3140      	adds	r1, #64	; 0x40
    c0a0:	3a40      	subs	r2, #64	; 0x40
    c0a2:	d2db      	bcs.n	c05c <memcpy+0x10>
    c0a4:	3230      	adds	r2, #48	; 0x30
    c0a6:	d30b      	bcc.n	c0c0 <memcpy+0x74>
    c0a8:	680b      	ldr	r3, [r1, #0]
    c0aa:	6003      	str	r3, [r0, #0]
    c0ac:	684b      	ldr	r3, [r1, #4]
    c0ae:	6043      	str	r3, [r0, #4]
    c0b0:	688b      	ldr	r3, [r1, #8]
    c0b2:	6083      	str	r3, [r0, #8]
    c0b4:	68cb      	ldr	r3, [r1, #12]
    c0b6:	60c3      	str	r3, [r0, #12]
    c0b8:	3010      	adds	r0, #16
    c0ba:	3110      	adds	r1, #16
    c0bc:	3a10      	subs	r2, #16
    c0be:	d2f3      	bcs.n	c0a8 <memcpy+0x5c>
    c0c0:	320c      	adds	r2, #12
    c0c2:	d305      	bcc.n	c0d0 <memcpy+0x84>
    c0c4:	f851 3b04 	ldr.w	r3, [r1], #4
    c0c8:	f840 3b04 	str.w	r3, [r0], #4
    c0cc:	3a04      	subs	r2, #4
    c0ce:	d2f9      	bcs.n	c0c4 <memcpy+0x78>
    c0d0:	3204      	adds	r2, #4
    c0d2:	d008      	beq.n	c0e6 <memcpy+0x9a>
    c0d4:	07d2      	lsls	r2, r2, #31
    c0d6:	bf1c      	itt	ne
    c0d8:	f811 3b01 	ldrbne.w	r3, [r1], #1
    c0dc:	f800 3b01 	strbne.w	r3, [r0], #1
    c0e0:	d301      	bcc.n	c0e6 <memcpy+0x9a>
    c0e2:	880b      	ldrh	r3, [r1, #0]
    c0e4:	8003      	strh	r3, [r0, #0]
    c0e6:	4660      	mov	r0, ip
    c0e8:	4770      	bx	lr
    c0ea:	bf00      	nop
    c0ec:	2a08      	cmp	r2, #8
    c0ee:	d313      	bcc.n	c118 <memcpy+0xcc>
    c0f0:	078b      	lsls	r3, r1, #30
    c0f2:	d0b1      	beq.n	c058 <memcpy+0xc>
    c0f4:	f010 0303 	ands.w	r3, r0, #3
    c0f8:	d0ae      	beq.n	c058 <memcpy+0xc>
    c0fa:	f1c3 0304 	rsb	r3, r3, #4
    c0fe:	1ad2      	subs	r2, r2, r3
    c100:	07db      	lsls	r3, r3, #31
    c102:	bf1c      	itt	ne
    c104:	f811 3b01 	ldrbne.w	r3, [r1], #1
    c108:	f800 3b01 	strbne.w	r3, [r0], #1
    c10c:	d3a4      	bcc.n	c058 <memcpy+0xc>
    c10e:	f831 3b02 	ldrh.w	r3, [r1], #2
    c112:	f820 3b02 	strh.w	r3, [r0], #2
    c116:	e79f      	b.n	c058 <memcpy+0xc>
    c118:	3a04      	subs	r2, #4
    c11a:	d3d9      	bcc.n	c0d0 <memcpy+0x84>
    c11c:	3a01      	subs	r2, #1
    c11e:	f811 3b01 	ldrb.w	r3, [r1], #1
    c122:	f800 3b01 	strb.w	r3, [r0], #1
    c126:	d2f9      	bcs.n	c11c <memcpy+0xd0>
    c128:	780b      	ldrb	r3, [r1, #0]
    c12a:	7003      	strb	r3, [r0, #0]
    c12c:	784b      	ldrb	r3, [r1, #1]
    c12e:	7043      	strb	r3, [r0, #1]
    c130:	788b      	ldrb	r3, [r1, #2]
    c132:	7083      	strb	r3, [r0, #2]
    c134:	4660      	mov	r0, ip
    c136:	4770      	bx	lr

0000c138 <_Balloc>:
    c138:	6cc2      	ldr	r2, [r0, #76]	; 0x4c
    c13a:	b570      	push	{r4, r5, r6, lr}
    c13c:	4605      	mov	r5, r0
    c13e:	460c      	mov	r4, r1
    c140:	b152      	cbz	r2, c158 <_Balloc+0x20>
    c142:	f852 3024 	ldr.w	r3, [r2, r4, lsl #2]
    c146:	b18b      	cbz	r3, c16c <_Balloc+0x34>
    c148:	6819      	ldr	r1, [r3, #0]
    c14a:	f842 1024 	str.w	r1, [r2, r4, lsl #2]
    c14e:	2200      	movs	r2, #0
    c150:	4618      	mov	r0, r3
    c152:	611a      	str	r2, [r3, #16]
    c154:	60da      	str	r2, [r3, #12]
    c156:	bd70      	pop	{r4, r5, r6, pc}
    c158:	2221      	movs	r2, #33	; 0x21
    c15a:	2104      	movs	r1, #4
    c15c:	f001 fc62 	bl	da24 <_calloc_r>
    c160:	64e8      	str	r0, [r5, #76]	; 0x4c
    c162:	4602      	mov	r2, r0
    c164:	2800      	cmp	r0, #0
    c166:	d1ec      	bne.n	c142 <_Balloc+0xa>
    c168:	2000      	movs	r0, #0
    c16a:	bd70      	pop	{r4, r5, r6, pc}
    c16c:	2101      	movs	r1, #1
    c16e:	fa01 f604 	lsl.w	r6, r1, r4
    c172:	1d72      	adds	r2, r6, #5
    c174:	4628      	mov	r0, r5
    c176:	0092      	lsls	r2, r2, #2
    c178:	f001 fc54 	bl	da24 <_calloc_r>
    c17c:	4603      	mov	r3, r0
    c17e:	2800      	cmp	r0, #0
    c180:	d0f2      	beq.n	c168 <_Balloc+0x30>
    c182:	6044      	str	r4, [r0, #4]
    c184:	6086      	str	r6, [r0, #8]
    c186:	e7e2      	b.n	c14e <_Balloc+0x16>

0000c188 <_Bfree>:
    c188:	b131      	cbz	r1, c198 <_Bfree+0x10>
    c18a:	6cc3      	ldr	r3, [r0, #76]	; 0x4c
    c18c:	684a      	ldr	r2, [r1, #4]
    c18e:	f853 0022 	ldr.w	r0, [r3, r2, lsl #2]
    c192:	6008      	str	r0, [r1, #0]
    c194:	f843 1022 	str.w	r1, [r3, r2, lsl #2]
    c198:	4770      	bx	lr
    c19a:	bf00      	nop

0000c19c <__multadd>:
    c19c:	b5f0      	push	{r4, r5, r6, r7, lr}
    c19e:	460c      	mov	r4, r1
    c1a0:	4605      	mov	r5, r0
    c1a2:	690e      	ldr	r6, [r1, #16]
    c1a4:	b083      	sub	sp, #12
    c1a6:	f101 0e14 	add.w	lr, r1, #20
    c1aa:	2700      	movs	r7, #0
    c1ac:	f8de 1000 	ldr.w	r1, [lr]
    c1b0:	3701      	adds	r7, #1
    c1b2:	b288      	uxth	r0, r1
    c1b4:	0c09      	lsrs	r1, r1, #16
    c1b6:	fb02 3300 	mla	r3, r2, r0, r3
    c1ba:	fb02 f101 	mul.w	r1, r2, r1
    c1be:	b298      	uxth	r0, r3
    c1c0:	eb01 4313 	add.w	r3, r1, r3, lsr #16
    c1c4:	eb00 4103 	add.w	r1, r0, r3, lsl #16
    c1c8:	42be      	cmp	r6, r7
    c1ca:	f84e 1b04 	str.w	r1, [lr], #4
    c1ce:	ea4f 4313 	mov.w	r3, r3, lsr #16
    c1d2:	dceb      	bgt.n	c1ac <__multadd+0x10>
    c1d4:	b13b      	cbz	r3, c1e6 <__multadd+0x4a>
    c1d6:	68a2      	ldr	r2, [r4, #8]
    c1d8:	4296      	cmp	r6, r2
    c1da:	da07      	bge.n	c1ec <__multadd+0x50>
    c1dc:	eb04 0286 	add.w	r2, r4, r6, lsl #2
    c1e0:	3601      	adds	r6, #1
    c1e2:	6153      	str	r3, [r2, #20]
    c1e4:	6126      	str	r6, [r4, #16]
    c1e6:	4620      	mov	r0, r4
    c1e8:	b003      	add	sp, #12
    c1ea:	bdf0      	pop	{r4, r5, r6, r7, pc}
    c1ec:	6861      	ldr	r1, [r4, #4]
    c1ee:	4628      	mov	r0, r5
    c1f0:	3101      	adds	r1, #1
    c1f2:	9301      	str	r3, [sp, #4]
    c1f4:	f7ff ffa0 	bl	c138 <_Balloc>
    c1f8:	4607      	mov	r7, r0
    c1fa:	6922      	ldr	r2, [r4, #16]
    c1fc:	f104 010c 	add.w	r1, r4, #12
    c200:	3202      	adds	r2, #2
    c202:	0092      	lsls	r2, r2, #2
    c204:	300c      	adds	r0, #12
    c206:	f7ff ff21 	bl	c04c <memcpy>
    c20a:	6cea      	ldr	r2, [r5, #76]	; 0x4c
    c20c:	6861      	ldr	r1, [r4, #4]
    c20e:	9b01      	ldr	r3, [sp, #4]
    c210:	f852 0021 	ldr.w	r0, [r2, r1, lsl #2]
    c214:	6020      	str	r0, [r4, #0]
    c216:	f842 4021 	str.w	r4, [r2, r1, lsl #2]
    c21a:	463c      	mov	r4, r7
    c21c:	e7de      	b.n	c1dc <__multadd+0x40>
    c21e:	bf00      	nop

0000c220 <__s2b>:
    c220:	e92d 43f8 	stmdb	sp!, {r3, r4, r5, r6, r7, r8, r9, lr}
    c224:	4c23      	ldr	r4, [pc, #140]	; (c2b4 <__s2b+0x94>)
    c226:	461f      	mov	r7, r3
    c228:	3308      	adds	r3, #8
    c22a:	fb84 4e03 	smull	r4, lr, r4, r3
    c22e:	17db      	asrs	r3, r3, #31
    c230:	ebc3 0e6e 	rsb	lr, r3, lr, asr #1
    c234:	f1be 0f01 	cmp.w	lr, #1
    c238:	4606      	mov	r6, r0
    c23a:	460c      	mov	r4, r1
    c23c:	4690      	mov	r8, r2
    c23e:	9d08      	ldr	r5, [sp, #32]
    c240:	dd35      	ble.n	c2ae <__s2b+0x8e>
    c242:	2301      	movs	r3, #1
    c244:	2100      	movs	r1, #0
    c246:	005b      	lsls	r3, r3, #1
    c248:	459e      	cmp	lr, r3
    c24a:	f101 0101 	add.w	r1, r1, #1
    c24e:	dcfa      	bgt.n	c246 <__s2b+0x26>
    c250:	4630      	mov	r0, r6
    c252:	f7ff ff71 	bl	c138 <_Balloc>
    c256:	2301      	movs	r3, #1
    c258:	f1b8 0f09 	cmp.w	r8, #9
    c25c:	6145      	str	r5, [r0, #20]
    c25e:	6103      	str	r3, [r0, #16]
    c260:	dd21      	ble.n	c2a6 <__s2b+0x86>
    c262:	f104 0909 	add.w	r9, r4, #9
    c266:	464d      	mov	r5, r9
    c268:	4444      	add	r4, r8
    c26a:	f815 3b01 	ldrb.w	r3, [r5], #1
    c26e:	4601      	mov	r1, r0
    c270:	3b30      	subs	r3, #48	; 0x30
    c272:	4630      	mov	r0, r6
    c274:	220a      	movs	r2, #10
    c276:	f7ff ff91 	bl	c19c <__multadd>
    c27a:	42a5      	cmp	r5, r4
    c27c:	d1f5      	bne.n	c26a <__s2b+0x4a>
    c27e:	eb09 0408 	add.w	r4, r9, r8
    c282:	3c08      	subs	r4, #8
    c284:	4547      	cmp	r7, r8
    c286:	dd0c      	ble.n	c2a2 <__s2b+0x82>
    c288:	ebc8 0707 	rsb	r7, r8, r7
    c28c:	4427      	add	r7, r4
    c28e:	f814 3b01 	ldrb.w	r3, [r4], #1
    c292:	4601      	mov	r1, r0
    c294:	3b30      	subs	r3, #48	; 0x30
    c296:	4630      	mov	r0, r6
    c298:	220a      	movs	r2, #10
    c29a:	f7ff ff7f 	bl	c19c <__multadd>
    c29e:	42bc      	cmp	r4, r7
    c2a0:	d1f5      	bne.n	c28e <__s2b+0x6e>
    c2a2:	e8bd 83f8 	ldmia.w	sp!, {r3, r4, r5, r6, r7, r8, r9, pc}
    c2a6:	340a      	adds	r4, #10
    c2a8:	f04f 0809 	mov.w	r8, #9
    c2ac:	e7ea      	b.n	c284 <__s2b+0x64>
    c2ae:	2100      	movs	r1, #0
    c2b0:	e7ce      	b.n	c250 <__s2b+0x30>
    c2b2:	bf00      	nop
    c2b4:	38e38e39 	.word	0x38e38e39

0000c2b8 <__hi0bits>:
    c2b8:	0c03      	lsrs	r3, r0, #16
    c2ba:	041b      	lsls	r3, r3, #16
    c2bc:	b9b3      	cbnz	r3, c2ec <__hi0bits+0x34>
    c2be:	0400      	lsls	r0, r0, #16
    c2c0:	2310      	movs	r3, #16
    c2c2:	f010 4f7f 	tst.w	r0, #4278190080	; 0xff000000
    c2c6:	bf04      	itt	eq
    c2c8:	0200      	lsleq	r0, r0, #8
    c2ca:	3308      	addeq	r3, #8
    c2cc:	f010 4f70 	tst.w	r0, #4026531840	; 0xf0000000
    c2d0:	bf04      	itt	eq
    c2d2:	0100      	lsleq	r0, r0, #4
    c2d4:	3304      	addeq	r3, #4
    c2d6:	f010 4f40 	tst.w	r0, #3221225472	; 0xc0000000
    c2da:	bf04      	itt	eq
    c2dc:	0080      	lsleq	r0, r0, #2
    c2de:	3302      	addeq	r3, #2
    c2e0:	2800      	cmp	r0, #0
    c2e2:	db07      	blt.n	c2f4 <__hi0bits+0x3c>
    c2e4:	0042      	lsls	r2, r0, #1
    c2e6:	d403      	bmi.n	c2f0 <__hi0bits+0x38>
    c2e8:	2020      	movs	r0, #32
    c2ea:	4770      	bx	lr
    c2ec:	2300      	movs	r3, #0
    c2ee:	e7e8      	b.n	c2c2 <__hi0bits+0xa>
    c2f0:	1c58      	adds	r0, r3, #1
    c2f2:	4770      	bx	lr
    c2f4:	4618      	mov	r0, r3
    c2f6:	4770      	bx	lr

0000c2f8 <__lo0bits>:
    c2f8:	6803      	ldr	r3, [r0, #0]
    c2fa:	f013 0207 	ands.w	r2, r3, #7
    c2fe:	d007      	beq.n	c310 <__lo0bits+0x18>
    c300:	07d9      	lsls	r1, r3, #31
    c302:	d420      	bmi.n	c346 <__lo0bits+0x4e>
    c304:	079a      	lsls	r2, r3, #30
    c306:	d420      	bmi.n	c34a <__lo0bits+0x52>
    c308:	089b      	lsrs	r3, r3, #2
    c30a:	6003      	str	r3, [r0, #0]
    c30c:	2002      	movs	r0, #2
    c30e:	4770      	bx	lr
    c310:	b299      	uxth	r1, r3
    c312:	b909      	cbnz	r1, c318 <__lo0bits+0x20>
    c314:	0c1b      	lsrs	r3, r3, #16
    c316:	2210      	movs	r2, #16
    c318:	f013 0fff 	tst.w	r3, #255	; 0xff
    c31c:	bf04      	itt	eq
    c31e:	0a1b      	lsreq	r3, r3, #8
    c320:	3208      	addeq	r2, #8
    c322:	0719      	lsls	r1, r3, #28
    c324:	bf04      	itt	eq
    c326:	091b      	lsreq	r3, r3, #4
    c328:	3204      	addeq	r2, #4
    c32a:	0799      	lsls	r1, r3, #30
    c32c:	bf04      	itt	eq
    c32e:	089b      	lsreq	r3, r3, #2
    c330:	3202      	addeq	r2, #2
    c332:	07d9      	lsls	r1, r3, #31
    c334:	d404      	bmi.n	c340 <__lo0bits+0x48>
    c336:	085b      	lsrs	r3, r3, #1
    c338:	d101      	bne.n	c33e <__lo0bits+0x46>
    c33a:	2020      	movs	r0, #32
    c33c:	4770      	bx	lr
    c33e:	3201      	adds	r2, #1
    c340:	6003      	str	r3, [r0, #0]
    c342:	4610      	mov	r0, r2
    c344:	4770      	bx	lr
    c346:	2000      	movs	r0, #0
    c348:	4770      	bx	lr
    c34a:	085b      	lsrs	r3, r3, #1
    c34c:	6003      	str	r3, [r0, #0]
    c34e:	2001      	movs	r0, #1
    c350:	4770      	bx	lr
    c352:	bf00      	nop

0000c354 <__i2b>:
    c354:	b510      	push	{r4, lr}
    c356:	460c      	mov	r4, r1
    c358:	2101      	movs	r1, #1
    c35a:	f7ff feed 	bl	c138 <_Balloc>
    c35e:	2201      	movs	r2, #1
    c360:	6144      	str	r4, [r0, #20]
    c362:	6102      	str	r2, [r0, #16]
    c364:	bd10      	pop	{r4, pc}
    c366:	bf00      	nop

0000c368 <__multiply>:
    c368:	e92d 4ff0 	stmdb	sp!, {r4, r5, r6, r7, r8, r9, sl, fp, lr}
    c36c:	690e      	ldr	r6, [r1, #16]
    c36e:	6915      	ldr	r5, [r2, #16]
    c370:	b085      	sub	sp, #20
    c372:	42ae      	cmp	r6, r5
    c374:	460c      	mov	r4, r1
    c376:	4691      	mov	r9, r2
    c378:	f2c0 8092 	blt.w	c4a0 <__multiply+0x138>
    c37c:	462b      	mov	r3, r5
    c37e:	4635      	mov	r5, r6
    c380:	461e      	mov	r6, r3
    c382:	68a3      	ldr	r3, [r4, #8]
    c384:	eb05 0806 	add.w	r8, r5, r6
    c388:	6861      	ldr	r1, [r4, #4]
    c38a:	4598      	cmp	r8, r3
    c38c:	bfc8      	it	gt
    c38e:	3101      	addgt	r1, #1
    c390:	f7ff fed2 	bl	c138 <_Balloc>
    c394:	f100 0a14 	add.w	sl, r0, #20
    c398:	eb0a 0b88 	add.w	fp, sl, r8, lsl #2
    c39c:	45da      	cmp	sl, fp
    c39e:	9001      	str	r0, [sp, #4]
    c3a0:	d205      	bcs.n	c3ae <__multiply+0x46>
    c3a2:	4653      	mov	r3, sl
    c3a4:	2100      	movs	r1, #0
    c3a6:	f843 1b04 	str.w	r1, [r3], #4
    c3aa:	459b      	cmp	fp, r3
    c3ac:	d8fb      	bhi.n	c3a6 <__multiply+0x3e>
    c3ae:	f109 0914 	add.w	r9, r9, #20
    c3b2:	eb09 0386 	add.w	r3, r9, r6, lsl #2
    c3b6:	f104 0214 	add.w	r2, r4, #20
    c3ba:	4599      	cmp	r9, r3
    c3bc:	eb02 0c85 	add.w	ip, r2, r5, lsl #2
    c3c0:	d259      	bcs.n	c476 <__multiply+0x10e>
    c3c2:	f8cd b008 	str.w	fp, [sp, #8]
    c3c6:	f8cd 800c 	str.w	r8, [sp, #12]
    c3ca:	469b      	mov	fp, r3
    c3cc:	4690      	mov	r8, r2
    c3ce:	f859 7b04 	ldr.w	r7, [r9], #4
    c3d2:	fa1f fe87 	uxth.w	lr, r7
    c3d6:	f1be 0f00 	cmp.w	lr, #0
    c3da:	d01f      	beq.n	c41c <__multiply+0xb4>
    c3dc:	4647      	mov	r7, r8
    c3de:	4656      	mov	r6, sl
    c3e0:	2100      	movs	r1, #0
    c3e2:	e000      	b.n	c3e6 <__multiply+0x7e>
    c3e4:	4606      	mov	r6, r0
    c3e6:	4630      	mov	r0, r6
    c3e8:	f857 5b04 	ldr.w	r5, [r7], #4
    c3ec:	6834      	ldr	r4, [r6, #0]
    c3ee:	b2ab      	uxth	r3, r5
    c3f0:	b2a2      	uxth	r2, r4
    c3f2:	fb0e 2203 	mla	r2, lr, r3, r2
    c3f6:	0c2d      	lsrs	r5, r5, #16
    c3f8:	0c24      	lsrs	r4, r4, #16
    c3fa:	fb0e 4405 	mla	r4, lr, r5, r4
    c3fe:	1853      	adds	r3, r2, r1
    c400:	eb04 4113 	add.w	r1, r4, r3, lsr #16
    c404:	b29a      	uxth	r2, r3
    c406:	ea42 4201 	orr.w	r2, r2, r1, lsl #16
    c40a:	45bc      	cmp	ip, r7
    c40c:	ea4f 4111 	mov.w	r1, r1, lsr #16
    c410:	f840 2b04 	str.w	r2, [r0], #4
    c414:	d8e6      	bhi.n	c3e4 <__multiply+0x7c>
    c416:	6071      	str	r1, [r6, #4]
    c418:	f859 7c04 	ldr.w	r7, [r9, #-4]
    c41c:	0c3f      	lsrs	r7, r7, #16
    c41e:	d022      	beq.n	c466 <__multiply+0xfe>
    c420:	f8da 3000 	ldr.w	r3, [sl]
    c424:	2200      	movs	r2, #0
    c426:	4655      	mov	r5, sl
    c428:	461e      	mov	r6, r3
    c42a:	4640      	mov	r0, r8
    c42c:	4696      	mov	lr, r2
    c42e:	e000      	b.n	c432 <__multiply+0xca>
    c430:	4625      	mov	r5, r4
    c432:	462c      	mov	r4, r5
    c434:	8802      	ldrh	r2, [r0, #0]
    c436:	0c36      	lsrs	r6, r6, #16
    c438:	fb07 6602 	mla	r6, r7, r2, r6
    c43c:	b299      	uxth	r1, r3
    c43e:	eb06 020e 	add.w	r2, r6, lr
    c442:	ea41 4302 	orr.w	r3, r1, r2, lsl #16
    c446:	f844 3b04 	str.w	r3, [r4], #4
    c44a:	f850 1b04 	ldr.w	r1, [r0], #4
    c44e:	686e      	ldr	r6, [r5, #4]
    c450:	0c09      	lsrs	r1, r1, #16
    c452:	b2b3      	uxth	r3, r6
    c454:	fb07 3101 	mla	r1, r7, r1, r3
    c458:	4584      	cmp	ip, r0
    c45a:	eb01 4312 	add.w	r3, r1, r2, lsr #16
    c45e:	ea4f 4e13 	mov.w	lr, r3, lsr #16
    c462:	d8e5      	bhi.n	c430 <__multiply+0xc8>
    c464:	606b      	str	r3, [r5, #4]
    c466:	45cb      	cmp	fp, r9
    c468:	f10a 0a04 	add.w	sl, sl, #4
    c46c:	d8af      	bhi.n	c3ce <__multiply+0x66>
    c46e:	f8dd b008 	ldr.w	fp, [sp, #8]
    c472:	f8dd 800c 	ldr.w	r8, [sp, #12]
    c476:	f1b8 0f00 	cmp.w	r8, #0
    c47a:	dd0b      	ble.n	c494 <__multiply+0x12c>
    c47c:	f85b 3c04 	ldr.w	r3, [fp, #-4]
    c480:	f1ab 0b04 	sub.w	fp, fp, #4
    c484:	b11b      	cbz	r3, c48e <__multiply+0x126>
    c486:	e005      	b.n	c494 <__multiply+0x12c>
    c488:	f85b 3d04 	ldr.w	r3, [fp, #-4]!
    c48c:	b913      	cbnz	r3, c494 <__multiply+0x12c>
    c48e:	f1b8 0801 	subs.w	r8, r8, #1
    c492:	d1f9      	bne.n	c488 <__multiply+0x120>
    c494:	9801      	ldr	r0, [sp, #4]
    c496:	f8c0 8010 	str.w	r8, [r0, #16]
    c49a:	b005      	add	sp, #20
    c49c:	e8bd 8ff0 	ldmia.w	sp!, {r4, r5, r6, r7, r8, r9, sl, fp, pc}
    c4a0:	4614      	mov	r4, r2
    c4a2:	4689      	mov	r9, r1
    c4a4:	e76d      	b.n	c382 <__multiply+0x1a>
    c4a6:	bf00      	nop

0000c4a8 <__pow5mult>:
    c4a8:	f012 0303 	ands.w	r3, r2, #3
    c4ac:	e92d 41f0 	stmdb	sp!, {r4, r5, r6, r7, r8, lr}
    c4b0:	4614      	mov	r4, r2
    c4b2:	4607      	mov	r7, r0
    c4b4:	460e      	mov	r6, r1
    c4b6:	d12d      	bne.n	c514 <__pow5mult+0x6c>
    c4b8:	10a4      	asrs	r4, r4, #2
    c4ba:	d01c      	beq.n	c4f6 <__pow5mult+0x4e>
    c4bc:	6cbd      	ldr	r5, [r7, #72]	; 0x48
    c4be:	b395      	cbz	r5, c526 <__pow5mult+0x7e>
    c4c0:	07e3      	lsls	r3, r4, #31
    c4c2:	f04f 0800 	mov.w	r8, #0
    c4c6:	d406      	bmi.n	c4d6 <__pow5mult+0x2e>
    c4c8:	1064      	asrs	r4, r4, #1
    c4ca:	d014      	beq.n	c4f6 <__pow5mult+0x4e>
    c4cc:	6828      	ldr	r0, [r5, #0]
    c4ce:	b1a8      	cbz	r0, c4fc <__pow5mult+0x54>
    c4d0:	4605      	mov	r5, r0
    c4d2:	07e3      	lsls	r3, r4, #31
    c4d4:	d5f8      	bpl.n	c4c8 <__pow5mult+0x20>
    c4d6:	4638      	mov	r0, r7
    c4d8:	4631      	mov	r1, r6
    c4da:	462a      	mov	r2, r5
    c4dc:	f7ff ff44 	bl	c368 <__multiply>
    c4e0:	b1b6      	cbz	r6, c510 <__pow5mult+0x68>
    c4e2:	6872      	ldr	r2, [r6, #4]
    c4e4:	6cfb      	ldr	r3, [r7, #76]	; 0x4c
    c4e6:	1064      	asrs	r4, r4, #1
    c4e8:	f853 1022 	ldr.w	r1, [r3, r2, lsl #2]
    c4ec:	6031      	str	r1, [r6, #0]
    c4ee:	f843 6022 	str.w	r6, [r3, r2, lsl #2]
    c4f2:	4606      	mov	r6, r0
    c4f4:	d1ea      	bne.n	c4cc <__pow5mult+0x24>
    c4f6:	4630      	mov	r0, r6
    c4f8:	e8bd 81f0 	ldmia.w	sp!, {r4, r5, r6, r7, r8, pc}
    c4fc:	4629      	mov	r1, r5
    c4fe:	462a      	mov	r2, r5
    c500:	4638      	mov	r0, r7
    c502:	f7ff ff31 	bl	c368 <__multiply>
    c506:	6028      	str	r0, [r5, #0]
    c508:	f8c0 8000 	str.w	r8, [r0]
    c50c:	4605      	mov	r5, r0
    c50e:	e7e0      	b.n	c4d2 <__pow5mult+0x2a>
    c510:	4606      	mov	r6, r0
    c512:	e7d9      	b.n	c4c8 <__pow5mult+0x20>
    c514:	4a0b      	ldr	r2, [pc, #44]	; (c544 <__pow5mult+0x9c>)
    c516:	3b01      	subs	r3, #1
    c518:	f852 2023 	ldr.w	r2, [r2, r3, lsl #2]
    c51c:	2300      	movs	r3, #0
    c51e:	f7ff fe3d 	bl	c19c <__multadd>
    c522:	4606      	mov	r6, r0
    c524:	e7c8      	b.n	c4b8 <__pow5mult+0x10>
    c526:	2101      	movs	r1, #1
    c528:	4638      	mov	r0, r7
    c52a:	f7ff fe05 	bl	c138 <_Balloc>
    c52e:	f240 2171 	movw	r1, #625	; 0x271
    c532:	2201      	movs	r2, #1
    c534:	2300      	movs	r3, #0
    c536:	6141      	str	r1, [r0, #20]
    c538:	6102      	str	r2, [r0, #16]
    c53a:	4605      	mov	r5, r0
    c53c:	64b8      	str	r0, [r7, #72]	; 0x48
    c53e:	6003      	str	r3, [r0, #0]
    c540:	e7be      	b.n	c4c0 <__pow5mult+0x18>
    c542:	bf00      	nop
    c544:	0000f550 	.word	0x0000f550

0000c548 <__lshift>:
    c548:	e92d 47f0 	stmdb	sp!, {r4, r5, r6, r7, r8, r9, sl, lr}
    c54c:	690f      	ldr	r7, [r1, #16]
    c54e:	ea4f 1962 	mov.w	r9, r2, asr #5
    c552:	688b      	ldr	r3, [r1, #8]
    c554:	444f      	add	r7, r9
    c556:	1c7d      	adds	r5, r7, #1
    c558:	429d      	cmp	r5, r3
    c55a:	460e      	mov	r6, r1
    c55c:	4614      	mov	r4, r2
    c55e:	4680      	mov	r8, r0
    c560:	6849      	ldr	r1, [r1, #4]
    c562:	dd04      	ble.n	c56e <__lshift+0x26>
    c564:	005b      	lsls	r3, r3, #1
    c566:	429d      	cmp	r5, r3
    c568:	f101 0101 	add.w	r1, r1, #1
    c56c:	dcfa      	bgt.n	c564 <__lshift+0x1c>
    c56e:	4640      	mov	r0, r8
    c570:	f7ff fde2 	bl	c138 <_Balloc>
    c574:	f1b9 0f00 	cmp.w	r9, #0
    c578:	f100 0114 	add.w	r1, r0, #20
    c57c:	dd09      	ble.n	c592 <__lshift+0x4a>
    c57e:	2300      	movs	r3, #0
    c580:	469e      	mov	lr, r3
    c582:	460a      	mov	r2, r1
    c584:	3301      	adds	r3, #1
    c586:	454b      	cmp	r3, r9
    c588:	f842 eb04 	str.w	lr, [r2], #4
    c58c:	d1fa      	bne.n	c584 <__lshift+0x3c>
    c58e:	eb01 0183 	add.w	r1, r1, r3, lsl #2
    c592:	6932      	ldr	r2, [r6, #16]
    c594:	f106 0314 	add.w	r3, r6, #20
    c598:	eb03 0e82 	add.w	lr, r3, r2, lsl #2
    c59c:	f014 021f 	ands.w	r2, r4, #31
    c5a0:	d022      	beq.n	c5e8 <__lshift+0xa0>
    c5a2:	f1c2 0920 	rsb	r9, r2, #32
    c5a6:	f04f 0a00 	mov.w	sl, #0
    c5aa:	681c      	ldr	r4, [r3, #0]
    c5ac:	468c      	mov	ip, r1
    c5ae:	4094      	lsls	r4, r2
    c5b0:	ea4a 0404 	orr.w	r4, sl, r4
    c5b4:	f841 4b04 	str.w	r4, [r1], #4
    c5b8:	f853 4b04 	ldr.w	r4, [r3], #4
    c5bc:	459e      	cmp	lr, r3
    c5be:	fa24 fa09 	lsr.w	sl, r4, r9
    c5c2:	d8f2      	bhi.n	c5aa <__lshift+0x62>
    c5c4:	f8cc a004 	str.w	sl, [ip, #4]
    c5c8:	f1ba 0f00 	cmp.w	sl, #0
    c5cc:	d000      	beq.n	c5d0 <__lshift+0x88>
    c5ce:	1cbd      	adds	r5, r7, #2
    c5d0:	f8d8 304c 	ldr.w	r3, [r8, #76]	; 0x4c
    c5d4:	6872      	ldr	r2, [r6, #4]
    c5d6:	3d01      	subs	r5, #1
    c5d8:	f853 1022 	ldr.w	r1, [r3, r2, lsl #2]
    c5dc:	6105      	str	r5, [r0, #16]
    c5de:	6031      	str	r1, [r6, #0]
    c5e0:	f843 6022 	str.w	r6, [r3, r2, lsl #2]
    c5e4:	e8bd 87f0 	ldmia.w	sp!, {r4, r5, r6, r7, r8, r9, sl, pc}
    c5e8:	3904      	subs	r1, #4
    c5ea:	f853 2b04 	ldr.w	r2, [r3], #4
    c5ee:	459e      	cmp	lr, r3
    c5f0:	f841 2f04 	str.w	r2, [r1, #4]!
    c5f4:	d8f9      	bhi.n	c5ea <__lshift+0xa2>
    c5f6:	e7eb      	b.n	c5d0 <__lshift+0x88>

0000c5f8 <__mcmp>:
    c5f8:	6902      	ldr	r2, [r0, #16]
    c5fa:	690b      	ldr	r3, [r1, #16]
    c5fc:	1ad2      	subs	r2, r2, r3
    c5fe:	d113      	bne.n	c628 <__mcmp+0x30>
    c600:	009b      	lsls	r3, r3, #2
    c602:	3014      	adds	r0, #20
    c604:	3114      	adds	r1, #20
    c606:	4419      	add	r1, r3
    c608:	b410      	push	{r4}
    c60a:	4403      	add	r3, r0
    c60c:	e001      	b.n	c612 <__mcmp+0x1a>
    c60e:	4298      	cmp	r0, r3
    c610:	d20c      	bcs.n	c62c <__mcmp+0x34>
    c612:	f853 4d04 	ldr.w	r4, [r3, #-4]!
    c616:	f851 2d04 	ldr.w	r2, [r1, #-4]!
    c61a:	4294      	cmp	r4, r2
    c61c:	d0f7      	beq.n	c60e <__mcmp+0x16>
    c61e:	d309      	bcc.n	c634 <__mcmp+0x3c>
    c620:	2001      	movs	r0, #1
    c622:	f85d 4b04 	ldr.w	r4, [sp], #4
    c626:	4770      	bx	lr
    c628:	4610      	mov	r0, r2
    c62a:	4770      	bx	lr
    c62c:	2000      	movs	r0, #0
    c62e:	f85d 4b04 	ldr.w	r4, [sp], #4
    c632:	4770      	bx	lr
    c634:	f04f 30ff 	mov.w	r0, #4294967295
    c638:	f85d 4b04 	ldr.w	r4, [sp], #4
    c63c:	4770      	bx	lr
    c63e:	bf00      	nop

0000c640 <__mdiff>:
    c640:	e92d 47f0 	stmdb	sp!, {r4, r5, r6, r7, r8, r9, sl, lr}
    c644:	460c      	mov	r4, r1
    c646:	4605      	mov	r5, r0
    c648:	4611      	mov	r1, r2
    c64a:	4620      	mov	r0, r4
    c64c:	4691      	mov	r9, r2
    c64e:	f7ff ffd3 	bl	c5f8 <__mcmp>
    c652:	1e06      	subs	r6, r0, #0
    c654:	d05d      	beq.n	c712 <__mdiff+0xd2>
    c656:	db56      	blt.n	c706 <__mdiff+0xc6>
    c658:	f04f 0a00 	mov.w	sl, #0
    c65c:	4628      	mov	r0, r5
    c65e:	6861      	ldr	r1, [r4, #4]
    c660:	f7ff fd6a 	bl	c138 <_Balloc>
    c664:	f109 0314 	add.w	r3, r9, #20
    c668:	4680      	mov	r8, r0
    c66a:	461e      	mov	r6, r3
    c66c:	6927      	ldr	r7, [r4, #16]
    c66e:	f8d9 2010 	ldr.w	r2, [r9, #16]
    c672:	f104 0e14 	add.w	lr, r4, #20
    c676:	4675      	mov	r5, lr
    c678:	f8c0 a00c 	str.w	sl, [r0, #12]
    c67c:	f100 0414 	add.w	r4, r0, #20
    c680:	eb0e 0e87 	add.w	lr, lr, r7, lsl #2
    c684:	eb03 0c82 	add.w	ip, r3, r2, lsl #2
    c688:	f04f 0a00 	mov.w	sl, #0
    c68c:	f855 2b04 	ldr.w	r2, [r5], #4
    c690:	f856 1b04 	ldr.w	r1, [r6], #4
    c694:	b290      	uxth	r0, r2
    c696:	eb00 030a 	add.w	r3, r0, sl
    c69a:	b288      	uxth	r0, r1
    c69c:	0c09      	lsrs	r1, r1, #16
    c69e:	1a1b      	subs	r3, r3, r0
    c6a0:	ebc1 4212 	rsb	r2, r1, r2, lsr #16
    c6a4:	eb02 4223 	add.w	r2, r2, r3, asr #16
    c6a8:	b29b      	uxth	r3, r3
    c6aa:	ea43 4302 	orr.w	r3, r3, r2, lsl #16
    c6ae:	45b4      	cmp	ip, r6
    c6b0:	f844 3b04 	str.w	r3, [r4], #4
    c6b4:	ea4f 4a22 	mov.w	sl, r2, asr #16
    c6b8:	46a9      	mov	r9, r5
    c6ba:	d8e7      	bhi.n	c68c <__mdiff+0x4c>
    c6bc:	45ae      	cmp	lr, r5
    c6be:	4626      	mov	r6, r4
    c6c0:	d915      	bls.n	c6ee <__mdiff+0xae>
    c6c2:	f859 0b04 	ldr.w	r0, [r9], #4
    c6c6:	b283      	uxth	r3, r0
    c6c8:	4453      	add	r3, sl
    c6ca:	0c00      	lsrs	r0, r0, #16
    c6cc:	eb00 4123 	add.w	r1, r0, r3, asr #16
    c6d0:	b29b      	uxth	r3, r3
    c6d2:	ea43 4301 	orr.w	r3, r3, r1, lsl #16
    c6d6:	45ce      	cmp	lr, r9
    c6d8:	f844 3b04 	str.w	r3, [r4], #4
    c6dc:	ea4f 4a21 	mov.w	sl, r1, asr #16
    c6e0:	d8ef      	bhi.n	c6c2 <__mdiff+0x82>
    c6e2:	43ed      	mvns	r5, r5
    c6e4:	4475      	add	r5, lr
    c6e6:	f025 0403 	bic.w	r4, r5, #3
    c6ea:	3404      	adds	r4, #4
    c6ec:	4434      	add	r4, r6
    c6ee:	3c04      	subs	r4, #4
    c6f0:	b923      	cbnz	r3, c6fc <__mdiff+0xbc>
    c6f2:	f854 3d04 	ldr.w	r3, [r4, #-4]!
    c6f6:	3f01      	subs	r7, #1
    c6f8:	2b00      	cmp	r3, #0
    c6fa:	d0fa      	beq.n	c6f2 <__mdiff+0xb2>
    c6fc:	4640      	mov	r0, r8
    c6fe:	f8c8 7010 	str.w	r7, [r8, #16]
    c702:	e8bd 87f0 	ldmia.w	sp!, {r4, r5, r6, r7, r8, r9, sl, pc}
    c706:	4623      	mov	r3, r4
    c708:	f04f 0a01 	mov.w	sl, #1
    c70c:	464c      	mov	r4, r9
    c70e:	4699      	mov	r9, r3
    c710:	e7a4      	b.n	c65c <__mdiff+0x1c>
    c712:	4628      	mov	r0, r5
    c714:	4631      	mov	r1, r6
    c716:	f7ff fd0f 	bl	c138 <_Balloc>
    c71a:	2301      	movs	r3, #1
    c71c:	6146      	str	r6, [r0, #20]
    c71e:	6103      	str	r3, [r0, #16]
    c720:	e8bd 87f0 	ldmia.w	sp!, {r4, r5, r6, r7, r8, r9, sl, pc}

0000c724 <__ulp>:
    c724:	4b0f      	ldr	r3, [pc, #60]	; (c764 <__ulp+0x40>)
    c726:	400b      	ands	r3, r1
    c728:	f1a3 7350 	sub.w	r3, r3, #54525952	; 0x3400000
    c72c:	2b00      	cmp	r3, #0
    c72e:	dd02      	ble.n	c736 <__ulp+0x12>
    c730:	2000      	movs	r0, #0
    c732:	4619      	mov	r1, r3
    c734:	4770      	bx	lr
    c736:	425b      	negs	r3, r3
    c738:	151b      	asrs	r3, r3, #20
    c73a:	2b13      	cmp	r3, #19
    c73c:	f04f 0000 	mov.w	r0, #0
    c740:	f04f 0100 	mov.w	r1, #0
    c744:	dd09      	ble.n	c75a <__ulp+0x36>
    c746:	2b32      	cmp	r3, #50	; 0x32
    c748:	bfdd      	ittte	le
    c74a:	f1c3 0333 	rsble	r3, r3, #51	; 0x33
    c74e:	2201      	movle	r2, #1
    c750:	fa02 f303 	lslle.w	r3, r2, r3
    c754:	2301      	movgt	r3, #1
    c756:	4618      	mov	r0, r3
    c758:	4770      	bx	lr
    c75a:	f44f 2200 	mov.w	r2, #524288	; 0x80000
    c75e:	fa42 f103 	asr.w	r1, r2, r3
    c762:	4770      	bx	lr
    c764:	7ff00000 	.word	0x7ff00000

0000c768 <__b2d>:
    c768:	e92d 41f0 	stmdb	sp!, {r4, r5, r6, r7, r8, lr}
    c76c:	6905      	ldr	r5, [r0, #16]
    c76e:	f100 0414 	add.w	r4, r0, #20
    c772:	eb04 0585 	add.w	r5, r4, r5, lsl #2
    c776:	f855 7c04 	ldr.w	r7, [r5, #-4]
    c77a:	460e      	mov	r6, r1
    c77c:	4638      	mov	r0, r7
    c77e:	f7ff fd9b 	bl	c2b8 <__hi0bits>
    c782:	f1c0 0320 	rsb	r3, r0, #32
    c786:	280a      	cmp	r0, #10
    c788:	6033      	str	r3, [r6, #0]
    c78a:	f1a5 0104 	sub.w	r1, r5, #4
    c78e:	dc17      	bgt.n	c7c0 <__b2d+0x58>
    c790:	428c      	cmp	r4, r1
    c792:	f1c0 060b 	rsb	r6, r0, #11
    c796:	bf38      	it	cc
    c798:	f855 1c08 	ldrcc.w	r1, [r5, #-8]
    c79c:	fa27 fe06 	lsr.w	lr, r7, r6
    c7a0:	f100 0015 	add.w	r0, r0, #21
    c7a4:	bf34      	ite	cc
    c7a6:	40f1      	lsrcc	r1, r6
    c7a8:	2100      	movcs	r1, #0
    c7aa:	4087      	lsls	r7, r0
    c7ac:	f04e 537f 	orr.w	r3, lr, #1069547520	; 0x3fc00000
    c7b0:	ea41 0207 	orr.w	r2, r1, r7
    c7b4:	f443 1340 	orr.w	r3, r3, #3145728	; 0x300000
    c7b8:	4610      	mov	r0, r2
    c7ba:	4619      	mov	r1, r3
    c7bc:	e8bd 81f0 	ldmia.w	sp!, {r4, r5, r6, r7, r8, pc}
    c7c0:	428c      	cmp	r4, r1
    c7c2:	d222      	bcs.n	c80a <__b2d+0xa2>
    c7c4:	f1b0 0c0b 	subs.w	ip, r0, #11
    c7c8:	f1a5 0808 	sub.w	r8, r5, #8
    c7cc:	f855 1c08 	ldr.w	r1, [r5, #-8]
    c7d0:	d028      	beq.n	c824 <__b2d+0xbc>
    c7d2:	f1c0 0e2b 	rsb	lr, r0, #43	; 0x2b
    c7d6:	4544      	cmp	r4, r8
    c7d8:	fa07 f70c 	lsl.w	r7, r7, ip
    c7dc:	fa21 f60e 	lsr.w	r6, r1, lr
    c7e0:	ea47 0706 	orr.w	r7, r7, r6
    c7e4:	bf38      	it	cc
    c7e6:	f855 0c0c 	ldrcc.w	r0, [r5, #-12]
    c7ea:	f047 537f 	orr.w	r3, r7, #1069547520	; 0x3fc00000
    c7ee:	f443 1340 	orr.w	r3, r3, #3145728	; 0x300000
    c7f2:	bf34      	ite	cc
    c7f4:	fa20 f00e 	lsrcc.w	r0, r0, lr
    c7f8:	2000      	movcs	r0, #0
    c7fa:	fa01 f10c 	lsl.w	r1, r1, ip
    c7fe:	ea41 0200 	orr.w	r2, r1, r0
    c802:	4610      	mov	r0, r2
    c804:	4619      	mov	r1, r3
    c806:	e8bd 81f0 	ldmia.w	sp!, {r4, r5, r6, r7, r8, pc}
    c80a:	f1b0 0c0b 	subs.w	ip, r0, #11
    c80e:	d008      	beq.n	c822 <__b2d+0xba>
    c810:	fa07 f70c 	lsl.w	r7, r7, ip
    c814:	f047 537f 	orr.w	r3, r7, #1069547520	; 0x3fc00000
    c818:	2000      	movs	r0, #0
    c81a:	f443 1340 	orr.w	r3, r3, #3145728	; 0x300000
    c81e:	4601      	mov	r1, r0
    c820:	e7eb      	b.n	c7fa <__b2d+0x92>
    c822:	4661      	mov	r1, ip
    c824:	460a      	mov	r2, r1
    c826:	f047 537f 	orr.w	r3, r7, #1069547520	; 0x3fc00000
    c82a:	f443 1340 	orr.w	r3, r3, #3145728	; 0x300000
    c82e:	4610      	mov	r0, r2
    c830:	4619      	mov	r1, r3
    c832:	e8bd 81f0 	ldmia.w	sp!, {r4, r5, r6, r7, r8, pc}
    c836:	bf00      	nop

0000c838 <__d2b>:
    c838:	b5f0      	push	{r4, r5, r6, r7, lr}
    c83a:	2101      	movs	r1, #1
    c83c:	b083      	sub	sp, #12
    c83e:	461c      	mov	r4, r3
    c840:	f3c3 550a 	ubfx	r5, r3, #20, #11
    c844:	4616      	mov	r6, r2
    c846:	f7ff fc77 	bl	c138 <_Balloc>
    c84a:	f3c4 0413 	ubfx	r4, r4, #0, #20
    c84e:	4607      	mov	r7, r0
    c850:	b10d      	cbz	r5, c856 <__d2b+0x1e>
    c852:	f444 1480 	orr.w	r4, r4, #1048576	; 0x100000
    c856:	9401      	str	r4, [sp, #4]
    c858:	b306      	cbz	r6, c89c <__d2b+0x64>
    c85a:	a802      	add	r0, sp, #8
    c85c:	f840 6d08 	str.w	r6, [r0, #-8]!
    c860:	f7ff fd4a 	bl	c2f8 <__lo0bits>
    c864:	2800      	cmp	r0, #0
    c866:	d130      	bne.n	c8ca <__d2b+0x92>
    c868:	e89d 000c 	ldmia.w	sp, {r2, r3}
    c86c:	617a      	str	r2, [r7, #20]
    c86e:	2b00      	cmp	r3, #0
    c870:	bf14      	ite	ne
    c872:	2402      	movne	r4, #2
    c874:	2401      	moveq	r4, #1
    c876:	61bb      	str	r3, [r7, #24]
    c878:	613c      	str	r4, [r7, #16]
    c87a:	b9d5      	cbnz	r5, c8b2 <__d2b+0x7a>
    c87c:	9a08      	ldr	r2, [sp, #32]
    c87e:	eb07 0384 	add.w	r3, r7, r4, lsl #2
    c882:	f2a0 4032 	subw	r0, r0, #1074	; 0x432
    c886:	6010      	str	r0, [r2, #0]
    c888:	6918      	ldr	r0, [r3, #16]
    c88a:	f7ff fd15 	bl	c2b8 <__hi0bits>
    c88e:	9b09      	ldr	r3, [sp, #36]	; 0x24
    c890:	ebc0 1044 	rsb	r0, r0, r4, lsl #5
    c894:	6018      	str	r0, [r3, #0]
    c896:	4638      	mov	r0, r7
    c898:	b003      	add	sp, #12
    c89a:	bdf0      	pop	{r4, r5, r6, r7, pc}
    c89c:	a801      	add	r0, sp, #4
    c89e:	f7ff fd2b 	bl	c2f8 <__lo0bits>
    c8a2:	9b01      	ldr	r3, [sp, #4]
    c8a4:	2201      	movs	r2, #1
    c8a6:	4614      	mov	r4, r2
    c8a8:	3020      	adds	r0, #32
    c8aa:	613a      	str	r2, [r7, #16]
    c8ac:	617b      	str	r3, [r7, #20]
    c8ae:	2d00      	cmp	r5, #0
    c8b0:	d0e4      	beq.n	c87c <__d2b+0x44>
    c8b2:	f2a5 4333 	subw	r3, r5, #1075	; 0x433
    c8b6:	9a08      	ldr	r2, [sp, #32]
    c8b8:	4403      	add	r3, r0
    c8ba:	6013      	str	r3, [r2, #0]
    c8bc:	9b09      	ldr	r3, [sp, #36]	; 0x24
    c8be:	f1c0 0035 	rsb	r0, r0, #53	; 0x35
    c8c2:	6018      	str	r0, [r3, #0]
    c8c4:	4638      	mov	r0, r7
    c8c6:	b003      	add	sp, #12
    c8c8:	bdf0      	pop	{r4, r5, r6, r7, pc}
    c8ca:	9b01      	ldr	r3, [sp, #4]
    c8cc:	f1c0 0120 	rsb	r1, r0, #32
    c8d0:	9a00      	ldr	r2, [sp, #0]
    c8d2:	fa03 f101 	lsl.w	r1, r3, r1
    c8d6:	430a      	orrs	r2, r1
    c8d8:	40c3      	lsrs	r3, r0
    c8da:	9301      	str	r3, [sp, #4]
    c8dc:	617a      	str	r2, [r7, #20]
    c8de:	e7c6      	b.n	c86e <__d2b+0x36>

0000c8e0 <__ratio>:
    c8e0:	e92d 43f0 	stmdb	sp!, {r4, r5, r6, r7, r8, r9, lr}
    c8e4:	b083      	sub	sp, #12
    c8e6:	4688      	mov	r8, r1
    c8e8:	4669      	mov	r1, sp
    c8ea:	4681      	mov	r9, r0
    c8ec:	f7ff ff3c 	bl	c768 <__b2d>
    c8f0:	4604      	mov	r4, r0
    c8f2:	460d      	mov	r5, r1
    c8f4:	4640      	mov	r0, r8
    c8f6:	a901      	add	r1, sp, #4
    c8f8:	f7ff ff36 	bl	c768 <__b2d>
    c8fc:	f8d9 2010 	ldr.w	r2, [r9, #16]
    c900:	4606      	mov	r6, r0
    c902:	f8d8 0010 	ldr.w	r0, [r8, #16]
    c906:	460f      	mov	r7, r1
    c908:	e89d 000a 	ldmia.w	sp, {r1, r3}
    c90c:	1a12      	subs	r2, r2, r0
    c90e:	1ac9      	subs	r1, r1, r3
    c910:	eb01 1342 	add.w	r3, r1, r2, lsl #5
    c914:	2b00      	cmp	r3, #0
    c916:	dd0b      	ble.n	c930 <__ratio+0x50>
    c918:	eb05 5103 	add.w	r1, r5, r3, lsl #20
    c91c:	460d      	mov	r5, r1
    c91e:	4620      	mov	r0, r4
    c920:	4629      	mov	r1, r5
    c922:	4632      	mov	r2, r6
    c924:	463b      	mov	r3, r7
    c926:	f002 f8ef 	bl	eb08 <__aeabi_ddiv>
    c92a:	b003      	add	sp, #12
    c92c:	e8bd 83f0 	ldmia.w	sp!, {r4, r5, r6, r7, r8, r9, pc}
    c930:	eba7 5903 	sub.w	r9, r7, r3, lsl #20
    c934:	464f      	mov	r7, r9
    c936:	e7f2      	b.n	c91e <__ratio+0x3e>

0000c938 <_mprec_log10>:
    c938:	2817      	cmp	r0, #23
    c93a:	b510      	push	{r4, lr}
    c93c:	4604      	mov	r4, r0
    c93e:	dd08      	ble.n	c952 <_mprec_log10+0x1a>
    c940:	4907      	ldr	r1, [pc, #28]	; (c960 <_mprec_log10+0x28>)
    c942:	2000      	movs	r0, #0
    c944:	2200      	movs	r2, #0
    c946:	4b07      	ldr	r3, [pc, #28]	; (c964 <_mprec_log10+0x2c>)
    c948:	f001 ffb4 	bl	e8b4 <__aeabi_dmul>
    c94c:	3c01      	subs	r4, #1
    c94e:	d1f9      	bne.n	c944 <_mprec_log10+0xc>
    c950:	bd10      	pop	{r4, pc}
    c952:	4b05      	ldr	r3, [pc, #20]	; (c968 <_mprec_log10+0x30>)
    c954:	eb03 04c0 	add.w	r4, r3, r0, lsl #3
    c958:	e9d4 0100 	ldrd	r0, r1, [r4]
    c95c:	bd10      	pop	{r4, pc}
    c95e:	bf00      	nop
    c960:	3ff00000 	.word	0x3ff00000
    c964:	40240000 	.word	0x40240000
    c968:	0000f488 	.word	0x0000f488

0000c96c <__copybits>:
    c96c:	b470      	push	{r4, r5, r6}
    c96e:	6914      	ldr	r4, [r2, #16]
    c970:	f102 0314 	add.w	r3, r2, #20
    c974:	3901      	subs	r1, #1
    c976:	114e      	asrs	r6, r1, #5
    c978:	eb03 0484 	add.w	r4, r3, r4, lsl #2
    c97c:	3601      	adds	r6, #1
    c97e:	42a3      	cmp	r3, r4
    c980:	eb00 0686 	add.w	r6, r0, r6, lsl #2
    c984:	d20c      	bcs.n	c9a0 <__copybits+0x34>
    c986:	1f01      	subs	r1, r0, #4
    c988:	f853 5b04 	ldr.w	r5, [r3], #4
    c98c:	429c      	cmp	r4, r3
    c98e:	f841 5f04 	str.w	r5, [r1, #4]!
    c992:	d8f9      	bhi.n	c988 <__copybits+0x1c>
    c994:	1aa3      	subs	r3, r4, r2
    c996:	3b15      	subs	r3, #21
    c998:	f023 0303 	bic.w	r3, r3, #3
    c99c:	3304      	adds	r3, #4
    c99e:	4418      	add	r0, r3
    c9a0:	4286      	cmp	r6, r0
    c9a2:	d904      	bls.n	c9ae <__copybits+0x42>
    c9a4:	2300      	movs	r3, #0
    c9a6:	f840 3b04 	str.w	r3, [r0], #4
    c9aa:	4286      	cmp	r6, r0
    c9ac:	d8fb      	bhi.n	c9a6 <__copybits+0x3a>
    c9ae:	bc70      	pop	{r4, r5, r6}
    c9b0:	4770      	bx	lr
    c9b2:	bf00      	nop

0000c9b4 <__any_on>:
    c9b4:	6903      	ldr	r3, [r0, #16]
    c9b6:	114a      	asrs	r2, r1, #5
    c9b8:	4293      	cmp	r3, r2
    c9ba:	b410      	push	{r4}
    c9bc:	f100 0414 	add.w	r4, r0, #20
    c9c0:	da10      	bge.n	c9e4 <__any_on+0x30>
    c9c2:	eb04 0383 	add.w	r3, r4, r3, lsl #2
    c9c6:	429c      	cmp	r4, r3
    c9c8:	d220      	bcs.n	ca0c <__any_on+0x58>
    c9ca:	f853 0c04 	ldr.w	r0, [r3, #-4]
    c9ce:	3b04      	subs	r3, #4
    c9d0:	b118      	cbz	r0, c9da <__any_on+0x26>
    c9d2:	e014      	b.n	c9fe <__any_on+0x4a>
    c9d4:	f853 2d04 	ldr.w	r2, [r3, #-4]!
    c9d8:	b98a      	cbnz	r2, c9fe <__any_on+0x4a>
    c9da:	429c      	cmp	r4, r3
    c9dc:	d3fa      	bcc.n	c9d4 <__any_on+0x20>
    c9de:	f85d 4b04 	ldr.w	r4, [sp], #4
    c9e2:	4770      	bx	lr
    c9e4:	dd0f      	ble.n	ca06 <__any_on+0x52>
    c9e6:	f011 011f 	ands.w	r1, r1, #31
    c9ea:	d00c      	beq.n	ca06 <__any_on+0x52>
    c9ec:	f854 0022 	ldr.w	r0, [r4, r2, lsl #2]
    c9f0:	eb04 0382 	add.w	r3, r4, r2, lsl #2
    c9f4:	fa20 f201 	lsr.w	r2, r0, r1
    c9f8:	408a      	lsls	r2, r1
    c9fa:	4282      	cmp	r2, r0
    c9fc:	d0e3      	beq.n	c9c6 <__any_on+0x12>
    c9fe:	2001      	movs	r0, #1
    ca00:	f85d 4b04 	ldr.w	r4, [sp], #4
    ca04:	4770      	bx	lr
    ca06:	eb04 0382 	add.w	r3, r4, r2, lsl #2
    ca0a:	e7dc      	b.n	c9c6 <__any_on+0x12>
    ca0c:	2000      	movs	r0, #0
    ca0e:	e7e6      	b.n	c9de <__any_on+0x2a>

0000ca10 <_read_r>:
    ca10:	b570      	push	{r4, r5, r6, lr}
    ca12:	4c08      	ldr	r4, [pc, #32]	; (ca34 <_read_r+0x24>)
    ca14:	4606      	mov	r6, r0
    ca16:	2500      	movs	r5, #0
    ca18:	4608      	mov	r0, r1
    ca1a:	4611      	mov	r1, r2
    ca1c:	461a      	mov	r2, r3
    ca1e:	6025      	str	r5, [r4, #0]
    ca20:	f7fb fd90 	bl	8544 <_read>
    ca24:	1c43      	adds	r3, r0, #1
    ca26:	d000      	beq.n	ca2a <_read_r+0x1a>
    ca28:	bd70      	pop	{r4, r5, r6, pc}
    ca2a:	6823      	ldr	r3, [r4, #0]
    ca2c:	2b00      	cmp	r3, #0
    ca2e:	d0fb      	beq.n	ca28 <_read_r+0x18>
    ca30:	6033      	str	r3, [r6, #0]
    ca32:	bd70      	pop	{r4, r5, r6, pc}
    ca34:	00018124 	.word	0x00018124

0000ca38 <cleanup_glue>:
    ca38:	b538      	push	{r3, r4, r5, lr}
    ca3a:	460c      	mov	r4, r1
    ca3c:	6809      	ldr	r1, [r1, #0]
    ca3e:	4605      	mov	r5, r0
    ca40:	b109      	cbz	r1, ca46 <cleanup_glue+0xe>
    ca42:	f7ff fff9 	bl	ca38 <cleanup_glue>
    ca46:	4628      	mov	r0, r5
    ca48:	4621      	mov	r1, r4
    ca4a:	e8bd 4038 	ldmia.w	sp!, {r3, r4, r5, lr}
    ca4e:	f7ff b915 	b.w	bc7c <_free_r>
    ca52:	bf00      	nop

0000ca54 <_reclaim_reent>:
    ca54:	4b20      	ldr	r3, [pc, #128]	; (cad8 <_reclaim_reent+0x84>)
    ca56:	681b      	ldr	r3, [r3, #0]
    ca58:	4298      	cmp	r0, r3
    ca5a:	d03c      	beq.n	cad6 <_reclaim_reent+0x82>
    ca5c:	6cc3      	ldr	r3, [r0, #76]	; 0x4c
    ca5e:	b570      	push	{r4, r5, r6, lr}
    ca60:	4605      	mov	r5, r0
    ca62:	b18b      	cbz	r3, ca88 <_reclaim_reent+0x34>
    ca64:	2600      	movs	r6, #0
    ca66:	5999      	ldr	r1, [r3, r6]
    ca68:	b139      	cbz	r1, ca7a <_reclaim_reent+0x26>
    ca6a:	680c      	ldr	r4, [r1, #0]
    ca6c:	4628      	mov	r0, r5
    ca6e:	f7ff f905 	bl	bc7c <_free_r>
    ca72:	4621      	mov	r1, r4
    ca74:	2c00      	cmp	r4, #0
    ca76:	d1f8      	bne.n	ca6a <_reclaim_reent+0x16>
    ca78:	6ceb      	ldr	r3, [r5, #76]	; 0x4c
    ca7a:	3604      	adds	r6, #4
    ca7c:	2e80      	cmp	r6, #128	; 0x80
    ca7e:	d1f2      	bne.n	ca66 <_reclaim_reent+0x12>
    ca80:	4619      	mov	r1, r3
    ca82:	4628      	mov	r0, r5
    ca84:	f7ff f8fa 	bl	bc7c <_free_r>
    ca88:	6c29      	ldr	r1, [r5, #64]	; 0x40
    ca8a:	b111      	cbz	r1, ca92 <_reclaim_reent+0x3e>
    ca8c:	4628      	mov	r0, r5
    ca8e:	f7ff f8f5 	bl	bc7c <_free_r>
    ca92:	f8d5 1148 	ldr.w	r1, [r5, #328]	; 0x148
    ca96:	b151      	cbz	r1, caae <_reclaim_reent+0x5a>
    ca98:	f505 76a6 	add.w	r6, r5, #332	; 0x14c
    ca9c:	42b1      	cmp	r1, r6
    ca9e:	d006      	beq.n	caae <_reclaim_reent+0x5a>
    caa0:	680c      	ldr	r4, [r1, #0]
    caa2:	4628      	mov	r0, r5
    caa4:	f7ff f8ea 	bl	bc7c <_free_r>
    caa8:	42a6      	cmp	r6, r4
    caaa:	4621      	mov	r1, r4
    caac:	d1f8      	bne.n	caa0 <_reclaim_reent+0x4c>
    caae:	6d69      	ldr	r1, [r5, #84]	; 0x54
    cab0:	b111      	cbz	r1, cab8 <_reclaim_reent+0x64>
    cab2:	4628      	mov	r0, r5
    cab4:	f7ff f8e2 	bl	bc7c <_free_r>
    cab8:	6bab      	ldr	r3, [r5, #56]	; 0x38
    caba:	b903      	cbnz	r3, cabe <_reclaim_reent+0x6a>
    cabc:	bd70      	pop	{r4, r5, r6, pc}
    cabe:	6beb      	ldr	r3, [r5, #60]	; 0x3c
    cac0:	4628      	mov	r0, r5
    cac2:	4798      	blx	r3
    cac4:	f8d5 12e0 	ldr.w	r1, [r5, #736]	; 0x2e0
    cac8:	2900      	cmp	r1, #0
    caca:	d0f7      	beq.n	cabc <_reclaim_reent+0x68>
    cacc:	4628      	mov	r0, r5
    cace:	e8bd 4070 	ldmia.w	sp!, {r4, r5, r6, lr}
    cad2:	f7ff bfb1 	b.w	ca38 <cleanup_glue>
    cad6:	4770      	bx	lr
    cad8:	00017b68 	.word	0x00017b68

0000cadc <__fpclassifyd>:
    cadc:	b410      	push	{r4}
    cade:	f031 4400 	bics.w	r4, r1, #2147483648	; 0x80000000
    cae2:	d008      	beq.n	caf6 <__fpclassifyd+0x1a>
    cae4:	4b11      	ldr	r3, [pc, #68]	; (cb2c <__fpclassifyd+0x50>)
    cae6:	f5a1 1280 	sub.w	r2, r1, #1048576	; 0x100000
    caea:	429a      	cmp	r2, r3
    caec:	d808      	bhi.n	cb00 <__fpclassifyd+0x24>
    caee:	2004      	movs	r0, #4
    caf0:	f85d 4b04 	ldr.w	r4, [sp], #4
    caf4:	4770      	bx	lr
    caf6:	b918      	cbnz	r0, cb00 <__fpclassifyd+0x24>
    caf8:	2002      	movs	r0, #2
    cafa:	f85d 4b04 	ldr.w	r4, [sp], #4
    cafe:	4770      	bx	lr
    cb00:	f101 41ff 	add.w	r1, r1, #2139095040	; 0x7f800000
    cb04:	4b09      	ldr	r3, [pc, #36]	; (cb2c <__fpclassifyd+0x50>)
    cb06:	f501 01e0 	add.w	r1, r1, #7340032	; 0x700000
    cb0a:	4299      	cmp	r1, r3
    cb0c:	d9ef      	bls.n	caee <__fpclassifyd+0x12>
    cb0e:	f5b4 1f80 	cmp.w	r4, #1048576	; 0x100000
    cb12:	d201      	bcs.n	cb18 <__fpclassifyd+0x3c>
    cb14:	2003      	movs	r0, #3
    cb16:	e7eb      	b.n	caf0 <__fpclassifyd+0x14>
    cb18:	4b05      	ldr	r3, [pc, #20]	; (cb30 <__fpclassifyd+0x54>)
    cb1a:	429c      	cmp	r4, r3
    cb1c:	d001      	beq.n	cb22 <__fpclassifyd+0x46>
    cb1e:	2000      	movs	r0, #0
    cb20:	e7e6      	b.n	caf0 <__fpclassifyd+0x14>
    cb22:	fab0 f080 	clz	r0, r0
    cb26:	0940      	lsrs	r0, r0, #5
    cb28:	e7e2      	b.n	caf0 <__fpclassifyd+0x14>
    cb2a:	bf00      	nop
    cb2c:	7fdfffff 	.word	0x7fdfffff
    cb30:	7ff00000 	.word	0x7ff00000

0000cb34 <strcmp>:
    cb34:	ea80 0c01 	eor.w	ip, r0, r1
    cb38:	f01c 0f03 	tst.w	ip, #3
    cb3c:	d137      	bne.n	cbae <strcmp+0x7a>
    cb3e:	f010 0c03 	ands.w	ip, r0, #3
    cb42:	f020 0003 	bic.w	r0, r0, #3
    cb46:	f021 0103 	bic.w	r1, r1, #3
    cb4a:	f850 2b04 	ldr.w	r2, [r0], #4
    cb4e:	bf08      	it	eq
    cb50:	f851 3b04 	ldreq.w	r3, [r1], #4
    cb54:	d00e      	beq.n	cb74 <strcmp+0x40>
    cb56:	f08c 0c03 	eor.w	ip, ip, #3
    cb5a:	f06f 437f 	mvn.w	r3, #4278190080	; 0xff000000
    cb5e:	ea4f 0ccc 	mov.w	ip, ip, lsl #3
    cb62:	fa23 fc0c 	lsr.w	ip, r3, ip
    cb66:	f851 3b04 	ldr.w	r3, [r1], #4
    cb6a:	ea42 020c 	orr.w	r2, r2, ip
    cb6e:	ea43 030c 	orr.w	r3, r3, ip
    cb72:	bf00      	nop
    cb74:	f1a2 3c01 	sub.w	ip, r2, #16843009	; 0x1010101
    cb78:	429a      	cmp	r2, r3
    cb7a:	bf01      	itttt	eq
    cb7c:	ea2c 0c02 	biceq.w	ip, ip, r2
    cb80:	f01c 3f80 	tsteq.w	ip, #2155905152	; 0x80808080
    cb84:	f850 2b04 	ldreq.w	r2, [r0], #4
    cb88:	f851 3b04 	ldreq.w	r3, [r1], #4
    cb8c:	d0f2      	beq.n	cb74 <strcmp+0x40>
    cb8e:	ea4f 6002 	mov.w	r0, r2, lsl #24
    cb92:	ea4f 2212 	mov.w	r2, r2, lsr #8
    cb96:	2801      	cmp	r0, #1
    cb98:	bf28      	it	cs
    cb9a:	ebb0 6f03 	cmpcs.w	r0, r3, lsl #24
    cb9e:	bf08      	it	eq
    cba0:	0a1b      	lsreq	r3, r3, #8
    cba2:	d0f4      	beq.n	cb8e <strcmp+0x5a>
    cba4:	f003 03ff 	and.w	r3, r3, #255	; 0xff
    cba8:	0e00      	lsrs	r0, r0, #24
    cbaa:	1ac0      	subs	r0, r0, r3
    cbac:	4770      	bx	lr
    cbae:	f010 0f03 	tst.w	r0, #3
    cbb2:	d00a      	beq.n	cbca <strcmp+0x96>
    cbb4:	f810 2b01 	ldrb.w	r2, [r0], #1
    cbb8:	f811 3b01 	ldrb.w	r3, [r1], #1
    cbbc:	2a01      	cmp	r2, #1
    cbbe:	bf28      	it	cs
    cbc0:	429a      	cmpcs	r2, r3
    cbc2:	d0f4      	beq.n	cbae <strcmp+0x7a>
    cbc4:	eba2 0003 	sub.w	r0, r2, r3
    cbc8:	4770      	bx	lr
    cbca:	f84d 5d04 	str.w	r5, [sp, #-4]!
    cbce:	f850 2b04 	ldr.w	r2, [r0], #4
    cbd2:	f001 0503 	and.w	r5, r1, #3
    cbd6:	f021 0103 	bic.w	r1, r1, #3
    cbda:	f851 3b04 	ldr.w	r3, [r1], #4
    cbde:	2d02      	cmp	r5, #2
    cbe0:	d026      	beq.n	cc30 <strcmp+0xfc>
    cbe2:	d84d      	bhi.n	cc80 <strcmp+0x14c>
    cbe4:	f022 457f 	bic.w	r5, r2, #4278190080	; 0xff000000
    cbe8:	ebb5 2f13 	cmp.w	r5, r3, lsr #8
    cbec:	f1a2 3c01 	sub.w	ip, r2, #16843009	; 0x1010101
    cbf0:	ea2c 0c02 	bic.w	ip, ip, r2
    cbf4:	d10d      	bne.n	cc12 <strcmp+0xde>
    cbf6:	f01c 3c80 	ands.w	ip, ip, #2155905152	; 0x80808080
    cbfa:	bf08      	it	eq
    cbfc:	f851 3b04 	ldreq.w	r3, [r1], #4
    cc00:	d10a      	bne.n	cc18 <strcmp+0xe4>
    cc02:	ea85 0502 	eor.w	r5, r5, r2
    cc06:	ebb5 6f03 	cmp.w	r5, r3, lsl #24
    cc0a:	d10c      	bne.n	cc26 <strcmp+0xf2>
    cc0c:	f850 2b04 	ldr.w	r2, [r0], #4
    cc10:	e7e8      	b.n	cbe4 <strcmp+0xb0>
    cc12:	ea4f 2313 	mov.w	r3, r3, lsr #8
    cc16:	e05b      	b.n	ccd0 <strcmp+0x19c>
    cc18:	f03c 4c7f 	bics.w	ip, ip, #4278190080	; 0xff000000
    cc1c:	d154      	bne.n	ccc8 <strcmp+0x194>
    cc1e:	780b      	ldrb	r3, [r1, #0]
    cc20:	ea4f 6512 	mov.w	r5, r2, lsr #24
    cc24:	e054      	b.n	ccd0 <strcmp+0x19c>
    cc26:	ea4f 6512 	mov.w	r5, r2, lsr #24
    cc2a:	f003 03ff 	and.w	r3, r3, #255	; 0xff
    cc2e:	e04f      	b.n	ccd0 <strcmp+0x19c>
    cc30:	ea4f 4502 	mov.w	r5, r2, lsl #16
    cc34:	f1a2 3c01 	sub.w	ip, r2, #16843009	; 0x1010101
    cc38:	ea4f 4515 	mov.w	r5, r5, lsr #16
    cc3c:	ea2c 0c02 	bic.w	ip, ip, r2
    cc40:	ebb5 4f13 	cmp.w	r5, r3, lsr #16
    cc44:	d118      	bne.n	cc78 <strcmp+0x144>
    cc46:	f01c 3c80 	ands.w	ip, ip, #2155905152	; 0x80808080
    cc4a:	bf08      	it	eq
    cc4c:	f851 3b04 	ldreq.w	r3, [r1], #4
    cc50:	d107      	bne.n	cc62 <strcmp+0x12e>
    cc52:	ea85 0502 	eor.w	r5, r5, r2
    cc56:	ebb5 4f03 	cmp.w	r5, r3, lsl #16
    cc5a:	d109      	bne.n	cc70 <strcmp+0x13c>
    cc5c:	f850 2b04 	ldr.w	r2, [r0], #4
    cc60:	e7e6      	b.n	cc30 <strcmp+0xfc>
    cc62:	ea5f 4c0c 	movs.w	ip, ip, lsl #16
    cc66:	d12f      	bne.n	ccc8 <strcmp+0x194>
    cc68:	880b      	ldrh	r3, [r1, #0]
    cc6a:	ea4f 4512 	mov.w	r5, r2, lsr #16
    cc6e:	e02f      	b.n	ccd0 <strcmp+0x19c>
    cc70:	ea4f 4303 	mov.w	r3, r3, lsl #16
    cc74:	ea4f 4512 	mov.w	r5, r2, lsr #16
    cc78:	ea4f 4313 	mov.w	r3, r3, lsr #16
    cc7c:	e028      	b.n	ccd0 <strcmp+0x19c>
    cc7e:	bf00      	nop
    cc80:	f002 05ff 	and.w	r5, r2, #255	; 0xff
    cc84:	ebb5 6f13 	cmp.w	r5, r3, lsr #24
    cc88:	f1a2 3c01 	sub.w	ip, r2, #16843009	; 0x1010101
    cc8c:	ea2c 0c02 	bic.w	ip, ip, r2
    cc90:	d10d      	bne.n	ccae <strcmp+0x17a>
    cc92:	f01c 3c80 	ands.w	ip, ip, #2155905152	; 0x80808080
    cc96:	bf08      	it	eq
    cc98:	f851 3b04 	ldreq.w	r3, [r1], #4
    cc9c:	d10a      	bne.n	ccb4 <strcmp+0x180>
    cc9e:	ea85 0502 	eor.w	r5, r5, r2
    cca2:	ebb5 2f03 	cmp.w	r5, r3, lsl #8
    cca6:	d10a      	bne.n	ccbe <strcmp+0x18a>
    cca8:	f850 2b04 	ldr.w	r2, [r0], #4
    ccac:	e7e8      	b.n	cc80 <strcmp+0x14c>
    ccae:	ea4f 6313 	mov.w	r3, r3, lsr #24
    ccb2:	e00d      	b.n	ccd0 <strcmp+0x19c>
    ccb4:	f012 0fff 	tst.w	r2, #255	; 0xff
    ccb8:	d006      	beq.n	ccc8 <strcmp+0x194>
    ccba:	f851 3b04 	ldr.w	r3, [r1], #4
    ccbe:	ea4f 2512 	mov.w	r5, r2, lsr #8
    ccc2:	f023 437f 	bic.w	r3, r3, #4278190080	; 0xff000000
    ccc6:	e003      	b.n	ccd0 <strcmp+0x19c>
    ccc8:	f04f 0000 	mov.w	r0, #0
    cccc:	bc20      	pop	{r5}
    ccce:	4770      	bx	lr
    ccd0:	f005 02ff 	and.w	r2, r5, #255	; 0xff
    ccd4:	f003 00ff 	and.w	r0, r3, #255	; 0xff
    ccd8:	2801      	cmp	r0, #1
    ccda:	bf28      	it	cs
    ccdc:	4290      	cmpcs	r0, r2
    ccde:	bf04      	itt	eq
    cce0:	0a2d      	lsreq	r5, r5, #8
    cce2:	0a1b      	lsreq	r3, r3, #8
    cce4:	d0f4      	beq.n	ccd0 <strcmp+0x19c>
    cce6:	eba2 0000 	sub.w	r0, r2, r0
    ccea:	bc20      	pop	{r5}
    ccec:	4770      	bx	lr
    ccee:	bf00      	nop

0000ccf0 <__sprint_r.part.0>:
    ccf0:	6e4b      	ldr	r3, [r1, #100]	; 0x64
    ccf2:	e92d 47f0 	stmdb	sp!, {r4, r5, r6, r7, r8, r9, sl, lr}
    ccf6:	049c      	lsls	r4, r3, #18
    ccf8:	460f      	mov	r7, r1
    ccfa:	4692      	mov	sl, r2
    ccfc:	d52b      	bpl.n	cd56 <__sprint_r.part.0+0x66>
    ccfe:	6893      	ldr	r3, [r2, #8]
    cd00:	6812      	ldr	r2, [r2, #0]
    cd02:	b333      	cbz	r3, cd52 <__sprint_r.part.0+0x62>
    cd04:	4680      	mov	r8, r0
    cd06:	f102 0908 	add.w	r9, r2, #8
    cd0a:	e919 0060 	ldmdb	r9, {r5, r6}
    cd0e:	08b6      	lsrs	r6, r6, #2
    cd10:	d017      	beq.n	cd42 <__sprint_r.part.0+0x52>
    cd12:	3d04      	subs	r5, #4
    cd14:	2400      	movs	r4, #0
    cd16:	e001      	b.n	cd1c <__sprint_r.part.0+0x2c>
    cd18:	42a6      	cmp	r6, r4
    cd1a:	d010      	beq.n	cd3e <__sprint_r.part.0+0x4e>
    cd1c:	4640      	mov	r0, r8
    cd1e:	f855 1f04 	ldr.w	r1, [r5, #4]!
    cd22:	463a      	mov	r2, r7
    cd24:	f000 ff06 	bl	db34 <_fputwc_r>
    cd28:	1c43      	adds	r3, r0, #1
    cd2a:	f104 0401 	add.w	r4, r4, #1
    cd2e:	d1f3      	bne.n	cd18 <__sprint_r.part.0+0x28>
    cd30:	2300      	movs	r3, #0
    cd32:	f8ca 3008 	str.w	r3, [sl, #8]
    cd36:	f8ca 3004 	str.w	r3, [sl, #4]
    cd3a:	e8bd 87f0 	ldmia.w	sp!, {r4, r5, r6, r7, r8, r9, sl, pc}
    cd3e:	f8da 3008 	ldr.w	r3, [sl, #8]
    cd42:	eba3 0386 	sub.w	r3, r3, r6, lsl #2
    cd46:	f8ca 3008 	str.w	r3, [sl, #8]
    cd4a:	f109 0908 	add.w	r9, r9, #8
    cd4e:	2b00      	cmp	r3, #0
    cd50:	d1db      	bne.n	cd0a <__sprint_r.part.0+0x1a>
    cd52:	2000      	movs	r0, #0
    cd54:	e7ec      	b.n	cd30 <__sprint_r.part.0+0x40>
    cd56:	f000 ff27 	bl	dba8 <__sfvwrite_r>
    cd5a:	2300      	movs	r3, #0
    cd5c:	f8ca 3008 	str.w	r3, [sl, #8]
    cd60:	f8ca 3004 	str.w	r3, [sl, #4]
    cd64:	e8bd 87f0 	ldmia.w	sp!, {r4, r5, r6, r7, r8, r9, sl, pc}

0000cd68 <__sprint_r>:
    cd68:	6893      	ldr	r3, [r2, #8]
    cd6a:	b410      	push	{r4}
    cd6c:	b11b      	cbz	r3, cd76 <__sprint_r+0xe>
    cd6e:	f85d 4b04 	ldr.w	r4, [sp], #4
    cd72:	f7ff bfbd 	b.w	ccf0 <__sprint_r.part.0>
    cd76:	4618      	mov	r0, r3
    cd78:	6053      	str	r3, [r2, #4]
    cd7a:	f85d 4b04 	ldr.w	r4, [sp], #4
    cd7e:	4770      	bx	lr

0000cd80 <_vfiprintf_r>:
    cd80:	e92d 4ff0 	stmdb	sp!, {r4, r5, r6, r7, r8, r9, sl, fp, lr}
    cd84:	b0ab      	sub	sp, #172	; 0xac
    cd86:	461c      	mov	r4, r3
    cd88:	9100      	str	r1, [sp, #0]
    cd8a:	4693      	mov	fp, r2
    cd8c:	9304      	str	r3, [sp, #16]
    cd8e:	9001      	str	r0, [sp, #4]
    cd90:	b118      	cbz	r0, cd9a <_vfiprintf_r+0x1a>
    cd92:	6b83      	ldr	r3, [r0, #56]	; 0x38
    cd94:	2b00      	cmp	r3, #0
    cd96:	f000 80e3 	beq.w	cf60 <_vfiprintf_r+0x1e0>
    cd9a:	9b00      	ldr	r3, [sp, #0]
    cd9c:	8999      	ldrh	r1, [r3, #12]
    cd9e:	b28a      	uxth	r2, r1
    cda0:	0490      	lsls	r0, r2, #18
    cda2:	d408      	bmi.n	cdb6 <_vfiprintf_r+0x36>
    cda4:	4618      	mov	r0, r3
    cda6:	6e5b      	ldr	r3, [r3, #100]	; 0x64
    cda8:	f441 5200 	orr.w	r2, r1, #8192	; 0x2000
    cdac:	f423 5300 	bic.w	r3, r3, #8192	; 0x2000
    cdb0:	8182      	strh	r2, [r0, #12]
    cdb2:	6643      	str	r3, [r0, #100]	; 0x64
    cdb4:	b292      	uxth	r2, r2
    cdb6:	0711      	lsls	r1, r2, #28
    cdb8:	f140 80b2 	bpl.w	cf20 <_vfiprintf_r+0x1a0>
    cdbc:	9b00      	ldr	r3, [sp, #0]
    cdbe:	691b      	ldr	r3, [r3, #16]
    cdc0:	2b00      	cmp	r3, #0
    cdc2:	f000 80ad 	beq.w	cf20 <_vfiprintf_r+0x1a0>
    cdc6:	f002 021a 	and.w	r2, r2, #26
    cdca:	2a0a      	cmp	r2, #10
    cdcc:	f000 80b4 	beq.w	cf38 <_vfiprintf_r+0x1b8>
    cdd0:	f10d 0a68 	add.w	sl, sp, #104	; 0x68
    cdd4:	4654      	mov	r4, sl
    cdd6:	2300      	movs	r3, #0
    cdd8:	9309      	str	r3, [sp, #36]	; 0x24
    cdda:	9302      	str	r3, [sp, #8]
    cddc:	930f      	str	r3, [sp, #60]	; 0x3c
    cdde:	930e      	str	r3, [sp, #56]	; 0x38
    cde0:	f8cd a034 	str.w	sl, [sp, #52]	; 0x34
    cde4:	f89b 3000 	ldrb.w	r3, [fp]
    cde8:	2b00      	cmp	r3, #0
    cdea:	f000 84a3 	beq.w	d734 <_vfiprintf_r+0x9b4>
    cdee:	2b25      	cmp	r3, #37	; 0x25
    cdf0:	f000 84a0 	beq.w	d734 <_vfiprintf_r+0x9b4>
    cdf4:	465a      	mov	r2, fp
    cdf6:	e001      	b.n	cdfc <_vfiprintf_r+0x7c>
    cdf8:	2b25      	cmp	r3, #37	; 0x25
    cdfa:	d003      	beq.n	ce04 <_vfiprintf_r+0x84>
    cdfc:	f812 3f01 	ldrb.w	r3, [r2, #1]!
    ce00:	2b00      	cmp	r3, #0
    ce02:	d1f9      	bne.n	cdf8 <_vfiprintf_r+0x78>
    ce04:	ebcb 0602 	rsb	r6, fp, r2
    ce08:	4615      	mov	r5, r2
    ce0a:	b196      	cbz	r6, ce32 <_vfiprintf_r+0xb2>
    ce0c:	9b0e      	ldr	r3, [sp, #56]	; 0x38
    ce0e:	9a0f      	ldr	r2, [sp, #60]	; 0x3c
    ce10:	3301      	adds	r3, #1
    ce12:	4432      	add	r2, r6
    ce14:	2b07      	cmp	r3, #7
    ce16:	f8c4 b000 	str.w	fp, [r4]
    ce1a:	6066      	str	r6, [r4, #4]
    ce1c:	920f      	str	r2, [sp, #60]	; 0x3c
    ce1e:	930e      	str	r3, [sp, #56]	; 0x38
    ce20:	dd79      	ble.n	cf16 <_vfiprintf_r+0x196>
    ce22:	2a00      	cmp	r2, #0
    ce24:	f040 84ad 	bne.w	d782 <_vfiprintf_r+0xa02>
    ce28:	4654      	mov	r4, sl
    ce2a:	9b02      	ldr	r3, [sp, #8]
    ce2c:	920e      	str	r2, [sp, #56]	; 0x38
    ce2e:	4433      	add	r3, r6
    ce30:	9302      	str	r3, [sp, #8]
    ce32:	782b      	ldrb	r3, [r5, #0]
    ce34:	2b00      	cmp	r3, #0
    ce36:	f000 835f 	beq.w	d4f8 <_vfiprintf_r+0x778>
    ce3a:	f04f 0300 	mov.w	r3, #0
    ce3e:	2100      	movs	r1, #0
    ce40:	f04f 3cff 	mov.w	ip, #4294967295
    ce44:	f88d 302f 	strb.w	r3, [sp, #47]	; 0x2f
    ce48:	1c68      	adds	r0, r5, #1
    ce4a:	786b      	ldrb	r3, [r5, #1]
    ce4c:	4688      	mov	r8, r1
    ce4e:	460d      	mov	r5, r1
    ce50:	4666      	mov	r6, ip
    ce52:	f100 0b01 	add.w	fp, r0, #1
    ce56:	f1a3 0220 	sub.w	r2, r3, #32
    ce5a:	2a58      	cmp	r2, #88	; 0x58
    ce5c:	f200 82aa 	bhi.w	d3b4 <_vfiprintf_r+0x634>
    ce60:	e8df f012 	tbh	[pc, r2, lsl #1]
    ce64:	02a8029a 	.word	0x02a8029a
    ce68:	02a202a8 	.word	0x02a202a8
    ce6c:	02a802a8 	.word	0x02a802a8
    ce70:	02a802a8 	.word	0x02a802a8
    ce74:	02a802a8 	.word	0x02a802a8
    ce78:	02600254 	.word	0x02600254
    ce7c:	010d02a8 	.word	0x010d02a8
    ce80:	02a8026c 	.word	0x02a8026c
    ce84:	012f0129 	.word	0x012f0129
    ce88:	012f012f 	.word	0x012f012f
    ce8c:	012f012f 	.word	0x012f012f
    ce90:	012f012f 	.word	0x012f012f
    ce94:	012f012f 	.word	0x012f012f
    ce98:	02a802a8 	.word	0x02a802a8
    ce9c:	02a802a8 	.word	0x02a802a8
    cea0:	02a802a8 	.word	0x02a802a8
    cea4:	02a802a8 	.word	0x02a802a8
    cea8:	02a802a8 	.word	0x02a802a8
    ceac:	02a8013d 	.word	0x02a8013d
    ceb0:	02a802a8 	.word	0x02a802a8
    ceb4:	02a802a8 	.word	0x02a802a8
    ceb8:	02a802a8 	.word	0x02a802a8
    cebc:	02a802a8 	.word	0x02a802a8
    cec0:	017402a8 	.word	0x017402a8
    cec4:	02a802a8 	.word	0x02a802a8
    cec8:	02a802a8 	.word	0x02a802a8
    cecc:	018b02a8 	.word	0x018b02a8
    ced0:	02a802a8 	.word	0x02a802a8
    ced4:	02a801a3 	.word	0x02a801a3
    ced8:	02a802a8 	.word	0x02a802a8
    cedc:	02a802a8 	.word	0x02a802a8
    cee0:	02a802a8 	.word	0x02a802a8
    cee4:	02a802a8 	.word	0x02a802a8
    cee8:	01c702a8 	.word	0x01c702a8
    ceec:	02a801da 	.word	0x02a801da
    cef0:	02a802a8 	.word	0x02a802a8
    cef4:	01da0123 	.word	0x01da0123
    cef8:	02a802a8 	.word	0x02a802a8
    cefc:	02a8024b 	.word	0x02a8024b
    cf00:	01130288 	.word	0x01130288
    cf04:	020701f4 	.word	0x020701f4
    cf08:	020d02a8 	.word	0x020d02a8
    cf0c:	008102a8 	.word	0x008102a8
    cf10:	02a802a8 	.word	0x02a802a8
    cf14:	0232      	.short	0x0232
    cf16:	3408      	adds	r4, #8
    cf18:	9b02      	ldr	r3, [sp, #8]
    cf1a:	4433      	add	r3, r6
    cf1c:	9302      	str	r3, [sp, #8]
    cf1e:	e788      	b.n	ce32 <_vfiprintf_r+0xb2>
    cf20:	9801      	ldr	r0, [sp, #4]
    cf22:	9900      	ldr	r1, [sp, #0]
    cf24:	f7fd fce8 	bl	a8f8 <__swsetup_r>
    cf28:	b9a8      	cbnz	r0, cf56 <_vfiprintf_r+0x1d6>
    cf2a:	9b00      	ldr	r3, [sp, #0]
    cf2c:	899a      	ldrh	r2, [r3, #12]
    cf2e:	f002 021a 	and.w	r2, r2, #26
    cf32:	2a0a      	cmp	r2, #10
    cf34:	f47f af4c 	bne.w	cdd0 <_vfiprintf_r+0x50>
    cf38:	9b00      	ldr	r3, [sp, #0]
    cf3a:	f9b3 300e 	ldrsh.w	r3, [r3, #14]
    cf3e:	2b00      	cmp	r3, #0
    cf40:	f6ff af46 	blt.w	cdd0 <_vfiprintf_r+0x50>
    cf44:	9801      	ldr	r0, [sp, #4]
    cf46:	9900      	ldr	r1, [sp, #0]
    cf48:	465a      	mov	r2, fp
    cf4a:	4623      	mov	r3, r4
    cf4c:	f000 fd2c 	bl	d9a8 <__sbprintf>
    cf50:	b02b      	add	sp, #172	; 0xac
    cf52:	e8bd 8ff0 	ldmia.w	sp!, {r4, r5, r6, r7, r8, r9, sl, fp, pc}
    cf56:	f04f 30ff 	mov.w	r0, #4294967295
    cf5a:	b02b      	add	sp, #172	; 0xac
    cf5c:	e8bd 8ff0 	ldmia.w	sp!, {r4, r5, r6, r7, r8, r9, sl, fp, pc}
    cf60:	f7fb fea8 	bl	8cb4 <__sinit>
    cf64:	e719      	b.n	cd9a <_vfiprintf_r+0x1a>
    cf66:	f018 0f20 	tst.w	r8, #32
    cf6a:	9503      	str	r5, [sp, #12]
    cf6c:	46b4      	mov	ip, r6
    cf6e:	f000 810c 	beq.w	d18a <_vfiprintf_r+0x40a>
    cf72:	9b04      	ldr	r3, [sp, #16]
    cf74:	3307      	adds	r3, #7
    cf76:	f023 0307 	bic.w	r3, r3, #7
    cf7a:	f103 0208 	add.w	r2, r3, #8
    cf7e:	e9d3 6700 	ldrd	r6, r7, [r3]
    cf82:	9204      	str	r2, [sp, #16]
    cf84:	2301      	movs	r3, #1
    cf86:	f04f 0200 	mov.w	r2, #0
    cf8a:	46e1      	mov	r9, ip
    cf8c:	f88d 202f 	strb.w	r2, [sp, #47]	; 0x2f
    cf90:	2500      	movs	r5, #0
    cf92:	f1bc 0f00 	cmp.w	ip, #0
    cf96:	bfa8      	it	ge
    cf98:	f028 0880 	bicge.w	r8, r8, #128	; 0x80
    cf9c:	ea56 0207 	orrs.w	r2, r6, r7
    cfa0:	f040 80c4 	bne.w	d12c <_vfiprintf_r+0x3ac>
    cfa4:	f1bc 0f00 	cmp.w	ip, #0
    cfa8:	f000 8380 	beq.w	d6ac <_vfiprintf_r+0x92c>
    cfac:	2b01      	cmp	r3, #1
    cfae:	f000 80c5 	beq.w	d13c <_vfiprintf_r+0x3bc>
    cfb2:	2b02      	cmp	r3, #2
    cfb4:	f000 8386 	beq.w	d6c4 <_vfiprintf_r+0x944>
    cfb8:	4651      	mov	r1, sl
    cfba:	08f2      	lsrs	r2, r6, #3
    cfbc:	ea42 7247 	orr.w	r2, r2, r7, lsl #29
    cfc0:	08f8      	lsrs	r0, r7, #3
    cfc2:	f006 0307 	and.w	r3, r6, #7
    cfc6:	4607      	mov	r7, r0
    cfc8:	4616      	mov	r6, r2
    cfca:	3330      	adds	r3, #48	; 0x30
    cfcc:	ea56 0207 	orrs.w	r2, r6, r7
    cfd0:	f801 3d01 	strb.w	r3, [r1, #-1]!
    cfd4:	d1f1      	bne.n	cfba <_vfiprintf_r+0x23a>
    cfd6:	f018 0f01 	tst.w	r8, #1
    cfda:	9107      	str	r1, [sp, #28]
    cfdc:	f040 83fa 	bne.w	d7d4 <_vfiprintf_r+0xa54>
    cfe0:	ebc1 090a 	rsb	r9, r1, sl
    cfe4:	45e1      	cmp	r9, ip
    cfe6:	464e      	mov	r6, r9
    cfe8:	bfb8      	it	lt
    cfea:	4666      	movlt	r6, ip
    cfec:	b105      	cbz	r5, cff0 <_vfiprintf_r+0x270>
    cfee:	3601      	adds	r6, #1
    cff0:	f018 0302 	ands.w	r3, r8, #2
    cff4:	9305      	str	r3, [sp, #20]
    cff6:	bf18      	it	ne
    cff8:	3602      	addne	r6, #2
    cffa:	f018 0384 	ands.w	r3, r8, #132	; 0x84
    cffe:	9306      	str	r3, [sp, #24]
    d000:	f040 81f9 	bne.w	d3f6 <_vfiprintf_r+0x676>
    d004:	9b03      	ldr	r3, [sp, #12]
    d006:	1b9d      	subs	r5, r3, r6
    d008:	2d00      	cmp	r5, #0
    d00a:	f340 81f4 	ble.w	d3f6 <_vfiprintf_r+0x676>
    d00e:	2d10      	cmp	r5, #16
    d010:	f340 848a 	ble.w	d928 <_vfiprintf_r+0xba8>
    d014:	4620      	mov	r0, r4
    d016:	f8dd e038 	ldr.w	lr, [sp, #56]	; 0x38
    d01a:	4664      	mov	r4, ip
    d01c:	9a0f      	ldr	r2, [sp, #60]	; 0x3c
    d01e:	4fc4      	ldr	r7, [pc, #784]	; (d330 <_vfiprintf_r+0x5b0>)
    d020:	2310      	movs	r3, #16
    d022:	4671      	mov	r1, lr
    d024:	4684      	mov	ip, r0
    d026:	e007      	b.n	d038 <_vfiprintf_r+0x2b8>
    d028:	f101 0e02 	add.w	lr, r1, #2
    d02c:	4601      	mov	r1, r0
    d02e:	f10c 0c08 	add.w	ip, ip, #8
    d032:	3d10      	subs	r5, #16
    d034:	2d10      	cmp	r5, #16
    d036:	dd13      	ble.n	d060 <_vfiprintf_r+0x2e0>
    d038:	1c48      	adds	r0, r1, #1
    d03a:	3210      	adds	r2, #16
    d03c:	2807      	cmp	r0, #7
    d03e:	920f      	str	r2, [sp, #60]	; 0x3c
    d040:	f8cc 7000 	str.w	r7, [ip]
    d044:	f8cc 3004 	str.w	r3, [ip, #4]
    d048:	900e      	str	r0, [sp, #56]	; 0x38
    d04a:	dded      	ble.n	d028 <_vfiprintf_r+0x2a8>
    d04c:	2a00      	cmp	r2, #0
    d04e:	f040 81c2 	bne.w	d3d6 <_vfiprintf_r+0x656>
    d052:	3d10      	subs	r5, #16
    d054:	2d10      	cmp	r5, #16
    d056:	4611      	mov	r1, r2
    d058:	f04f 0e01 	mov.w	lr, #1
    d05c:	46d4      	mov	ip, sl
    d05e:	dceb      	bgt.n	d038 <_vfiprintf_r+0x2b8>
    d060:	4663      	mov	r3, ip
    d062:	4671      	mov	r1, lr
    d064:	46a4      	mov	ip, r4
    d066:	461c      	mov	r4, r3
    d068:	442a      	add	r2, r5
    d06a:	2907      	cmp	r1, #7
    d06c:	920f      	str	r2, [sp, #60]	; 0x3c
    d06e:	6027      	str	r7, [r4, #0]
    d070:	6065      	str	r5, [r4, #4]
    d072:	910e      	str	r1, [sp, #56]	; 0x38
    d074:	f300 8346 	bgt.w	d704 <_vfiprintf_r+0x984>
    d078:	3408      	adds	r4, #8
    d07a:	1c48      	adds	r0, r1, #1
    d07c:	e1be      	b.n	d3fc <_vfiprintf_r+0x67c>
    d07e:	4658      	mov	r0, fp
    d080:	f048 0804 	orr.w	r8, r8, #4
    d084:	f89b 3000 	ldrb.w	r3, [fp]
    d088:	e6e3      	b.n	ce52 <_vfiprintf_r+0xd2>
    d08a:	f018 0320 	ands.w	r3, r8, #32
    d08e:	9503      	str	r5, [sp, #12]
    d090:	46b4      	mov	ip, r6
    d092:	d062      	beq.n	d15a <_vfiprintf_r+0x3da>
    d094:	9b04      	ldr	r3, [sp, #16]
    d096:	3307      	adds	r3, #7
    d098:	f023 0307 	bic.w	r3, r3, #7
    d09c:	f103 0208 	add.w	r2, r3, #8
    d0a0:	e9d3 6700 	ldrd	r6, r7, [r3]
    d0a4:	9204      	str	r2, [sp, #16]
    d0a6:	2300      	movs	r3, #0
    d0a8:	e76d      	b.n	cf86 <_vfiprintf_r+0x206>
    d0aa:	f048 0840 	orr.w	r8, r8, #64	; 0x40
    d0ae:	f89b 3000 	ldrb.w	r3, [fp]
    d0b2:	4658      	mov	r0, fp
    d0b4:	e6cd      	b.n	ce52 <_vfiprintf_r+0xd2>
    d0b6:	f048 0880 	orr.w	r8, r8, #128	; 0x80
    d0ba:	f89b 3000 	ldrb.w	r3, [fp]
    d0be:	4658      	mov	r0, fp
    d0c0:	e6c7      	b.n	ce52 <_vfiprintf_r+0xd2>
    d0c2:	f1a3 0230 	sub.w	r2, r3, #48	; 0x30
    d0c6:	2500      	movs	r5, #0
    d0c8:	f81b 3b01 	ldrb.w	r3, [fp], #1
    d0cc:	eb05 0585 	add.w	r5, r5, r5, lsl #2
    d0d0:	eb02 0545 	add.w	r5, r2, r5, lsl #1
    d0d4:	f1a3 0230 	sub.w	r2, r3, #48	; 0x30
    d0d8:	2a09      	cmp	r2, #9
    d0da:	d9f5      	bls.n	d0c8 <_vfiprintf_r+0x348>
    d0dc:	e6bb      	b.n	ce56 <_vfiprintf_r+0xd6>
    d0de:	f048 0810 	orr.w	r8, r8, #16
    d0e2:	f018 0f20 	tst.w	r8, #32
    d0e6:	9503      	str	r5, [sp, #12]
    d0e8:	46b4      	mov	ip, r6
    d0ea:	f88d 102f 	strb.w	r1, [sp, #47]	; 0x2f
    d0ee:	f000 809b 	beq.w	d228 <_vfiprintf_r+0x4a8>
    d0f2:	9904      	ldr	r1, [sp, #16]
    d0f4:	3107      	adds	r1, #7
    d0f6:	f021 0107 	bic.w	r1, r1, #7
    d0fa:	e9d1 2300 	ldrd	r2, r3, [r1]
    d0fe:	4616      	mov	r6, r2
    d100:	461f      	mov	r7, r3
    d102:	3108      	adds	r1, #8
    d104:	9104      	str	r1, [sp, #16]
    d106:	2a00      	cmp	r2, #0
    d108:	f173 0300 	sbcs.w	r3, r3, #0
    d10c:	f2c0 83a4 	blt.w	d858 <_vfiprintf_r+0xad8>
    d110:	f1bc 0f00 	cmp.w	ip, #0
    d114:	bfa8      	it	ge
    d116:	f028 0880 	bicge.w	r8, r8, #128	; 0x80
    d11a:	ea56 0207 	orrs.w	r2, r6, r7
    d11e:	f89d 502f 	ldrb.w	r5, [sp, #47]	; 0x2f
    d122:	46e1      	mov	r9, ip
    d124:	f04f 0301 	mov.w	r3, #1
    d128:	f43f af3c 	beq.w	cfa4 <_vfiprintf_r+0x224>
    d12c:	2b01      	cmp	r3, #1
    d12e:	f47f af40 	bne.w	cfb2 <_vfiprintf_r+0x232>
    d132:	2f00      	cmp	r7, #0
    d134:	bf08      	it	eq
    d136:	2e0a      	cmpeq	r6, #10
    d138:	f080 8332 	bcs.w	d7a0 <_vfiprintf_r+0xa20>
    d13c:	ab2a      	add	r3, sp, #168	; 0xa8
    d13e:	3630      	adds	r6, #48	; 0x30
    d140:	f803 6d41 	strb.w	r6, [r3, #-65]!
    d144:	ebc3 090a 	rsb	r9, r3, sl
    d148:	9307      	str	r3, [sp, #28]
    d14a:	e74b      	b.n	cfe4 <_vfiprintf_r+0x264>
    d14c:	f048 0810 	orr.w	r8, r8, #16
    d150:	f018 0320 	ands.w	r3, r8, #32
    d154:	9503      	str	r5, [sp, #12]
    d156:	46b4      	mov	ip, r6
    d158:	d19c      	bne.n	d094 <_vfiprintf_r+0x314>
    d15a:	f018 0210 	ands.w	r2, r8, #16
    d15e:	f040 82f7 	bne.w	d750 <_vfiprintf_r+0x9d0>
    d162:	f018 0340 	ands.w	r3, r8, #64	; 0x40
    d166:	f000 82f3 	beq.w	d750 <_vfiprintf_r+0x9d0>
    d16a:	9904      	ldr	r1, [sp, #16]
    d16c:	4613      	mov	r3, r2
    d16e:	460a      	mov	r2, r1
    d170:	3204      	adds	r2, #4
    d172:	880e      	ldrh	r6, [r1, #0]
    d174:	2700      	movs	r7, #0
    d176:	9204      	str	r2, [sp, #16]
    d178:	e705      	b.n	cf86 <_vfiprintf_r+0x206>
    d17a:	f048 0810 	orr.w	r8, r8, #16
    d17e:	f018 0f20 	tst.w	r8, #32
    d182:	9503      	str	r5, [sp, #12]
    d184:	46b4      	mov	ip, r6
    d186:	f47f aef4 	bne.w	cf72 <_vfiprintf_r+0x1f2>
    d18a:	9a04      	ldr	r2, [sp, #16]
    d18c:	f018 0f10 	tst.w	r8, #16
    d190:	4613      	mov	r3, r2
    d192:	f040 82e4 	bne.w	d75e <_vfiprintf_r+0x9de>
    d196:	f018 0f40 	tst.w	r8, #64	; 0x40
    d19a:	f000 82e0 	beq.w	d75e <_vfiprintf_r+0x9de>
    d19e:	8816      	ldrh	r6, [r2, #0]
    d1a0:	3204      	adds	r2, #4
    d1a2:	2700      	movs	r7, #0
    d1a4:	2301      	movs	r3, #1
    d1a6:	9204      	str	r2, [sp, #16]
    d1a8:	e6ed      	b.n	cf86 <_vfiprintf_r+0x206>
    d1aa:	4a62      	ldr	r2, [pc, #392]	; (d334 <_vfiprintf_r+0x5b4>)
    d1ac:	f018 0f20 	tst.w	r8, #32
    d1b0:	9503      	str	r5, [sp, #12]
    d1b2:	46b4      	mov	ip, r6
    d1b4:	f88d 102f 	strb.w	r1, [sp, #47]	; 0x2f
    d1b8:	9209      	str	r2, [sp, #36]	; 0x24
    d1ba:	f000 808f 	beq.w	d2dc <_vfiprintf_r+0x55c>
    d1be:	9a04      	ldr	r2, [sp, #16]
    d1c0:	3207      	adds	r2, #7
    d1c2:	f022 0207 	bic.w	r2, r2, #7
    d1c6:	f102 0108 	add.w	r1, r2, #8
    d1ca:	9104      	str	r1, [sp, #16]
    d1cc:	e9d2 6700 	ldrd	r6, r7, [r2]
    d1d0:	f018 0f01 	tst.w	r8, #1
    d1d4:	f000 828f 	beq.w	d6f6 <_vfiprintf_r+0x976>
    d1d8:	ea56 0207 	orrs.w	r2, r6, r7
    d1dc:	f000 828b 	beq.w	d6f6 <_vfiprintf_r+0x976>
    d1e0:	2230      	movs	r2, #48	; 0x30
    d1e2:	f88d 3031 	strb.w	r3, [sp, #49]	; 0x31
    d1e6:	f048 0802 	orr.w	r8, r8, #2
    d1ea:	f88d 2030 	strb.w	r2, [sp, #48]	; 0x30
    d1ee:	2302      	movs	r3, #2
    d1f0:	e6c9      	b.n	cf86 <_vfiprintf_r+0x206>
    d1f2:	9a04      	ldr	r2, [sp, #16]
    d1f4:	2601      	movs	r6, #1
    d1f6:	6813      	ldr	r3, [r2, #0]
    d1f8:	f04f 0100 	mov.w	r1, #0
    d1fc:	f88d 3040 	strb.w	r3, [sp, #64]	; 0x40
    d200:	4613      	mov	r3, r2
    d202:	46b1      	mov	r9, r6
    d204:	3304      	adds	r3, #4
    d206:	9304      	str	r3, [sp, #16]
    d208:	ab10      	add	r3, sp, #64	; 0x40
    d20a:	9503      	str	r5, [sp, #12]
    d20c:	f88d 102f 	strb.w	r1, [sp, #47]	; 0x2f
    d210:	9307      	str	r3, [sp, #28]
    d212:	f04f 0c00 	mov.w	ip, #0
    d216:	e6eb      	b.n	cff0 <_vfiprintf_r+0x270>
    d218:	f018 0f20 	tst.w	r8, #32
    d21c:	9503      	str	r5, [sp, #12]
    d21e:	46b4      	mov	ip, r6
    d220:	f88d 102f 	strb.w	r1, [sp, #47]	; 0x2f
    d224:	f47f af65 	bne.w	d0f2 <_vfiprintf_r+0x372>
    d228:	9a04      	ldr	r2, [sp, #16]
    d22a:	f018 0f10 	tst.w	r8, #16
    d22e:	4613      	mov	r3, r2
    d230:	f040 82a0 	bne.w	d774 <_vfiprintf_r+0x9f4>
    d234:	f018 0f40 	tst.w	r8, #64	; 0x40
    d238:	f000 829c 	beq.w	d774 <_vfiprintf_r+0x9f4>
    d23c:	f9b2 6000 	ldrsh.w	r6, [r2]
    d240:	3304      	adds	r3, #4
    d242:	17f7      	asrs	r7, r6, #31
    d244:	9304      	str	r3, [sp, #16]
    d246:	4632      	mov	r2, r6
    d248:	463b      	mov	r3, r7
    d24a:	e75c      	b.n	d106 <_vfiprintf_r+0x386>
    d24c:	9904      	ldr	r1, [sp, #16]
    d24e:	2378      	movs	r3, #120	; 0x78
    d250:	f88d 3031 	strb.w	r3, [sp, #49]	; 0x31
    d254:	4b38      	ldr	r3, [pc, #224]	; (d338 <_vfiprintf_r+0x5b8>)
    d256:	46b4      	mov	ip, r6
    d258:	2230      	movs	r2, #48	; 0x30
    d25a:	680e      	ldr	r6, [r1, #0]
    d25c:	3104      	adds	r1, #4
    d25e:	9309      	str	r3, [sp, #36]	; 0x24
    d260:	9503      	str	r5, [sp, #12]
    d262:	f048 0802 	orr.w	r8, r8, #2
    d266:	9104      	str	r1, [sp, #16]
    d268:	2700      	movs	r7, #0
    d26a:	f88d 2030 	strb.w	r2, [sp, #48]	; 0x30
    d26e:	2302      	movs	r3, #2
    d270:	e689      	b.n	cf86 <_vfiprintf_r+0x206>
    d272:	f048 0820 	orr.w	r8, r8, #32
    d276:	f89b 3000 	ldrb.w	r3, [fp]
    d27a:	4658      	mov	r0, fp
    d27c:	e5e9      	b.n	ce52 <_vfiprintf_r+0xd2>
    d27e:	f04f 0100 	mov.w	r1, #0
    d282:	9a04      	ldr	r2, [sp, #16]
    d284:	9503      	str	r5, [sp, #12]
    d286:	6813      	ldr	r3, [r2, #0]
    d288:	46b4      	mov	ip, r6
    d28a:	9307      	str	r3, [sp, #28]
    d28c:	f88d 102f 	strb.w	r1, [sp, #47]	; 0x2f
    d290:	1d15      	adds	r5, r2, #4
    d292:	2b00      	cmp	r3, #0
    d294:	f000 834e 	beq.w	d934 <_vfiprintf_r+0xbb4>
    d298:	2e00      	cmp	r6, #0
    d29a:	f2c0 8329 	blt.w	d8f0 <_vfiprintf_r+0xb70>
    d29e:	9e07      	ldr	r6, [sp, #28]
    d2a0:	4662      	mov	r2, ip
    d2a2:	4630      	mov	r0, r6
    d2a4:	2100      	movs	r1, #0
    d2a6:	f8cd c010 	str.w	ip, [sp, #16]
    d2aa:	f7fe fe85 	bl	bfb8 <memchr>
    d2ae:	f8dd c010 	ldr.w	ip, [sp, #16]
    d2b2:	2800      	cmp	r0, #0
    d2b4:	f000 834e 	beq.w	d954 <_vfiprintf_r+0xbd4>
    d2b8:	9504      	str	r5, [sp, #16]
    d2ba:	ebc6 0900 	rsb	r9, r6, r0
    d2be:	f89d 502f 	ldrb.w	r5, [sp, #47]	; 0x2f
    d2c2:	f04f 0c00 	mov.w	ip, #0
    d2c6:	e68d      	b.n	cfe4 <_vfiprintf_r+0x264>
    d2c8:	4a1b      	ldr	r2, [pc, #108]	; (d338 <_vfiprintf_r+0x5b8>)
    d2ca:	f018 0f20 	tst.w	r8, #32
    d2ce:	9503      	str	r5, [sp, #12]
    d2d0:	46b4      	mov	ip, r6
    d2d2:	9209      	str	r2, [sp, #36]	; 0x24
    d2d4:	f88d 102f 	strb.w	r1, [sp, #47]	; 0x2f
    d2d8:	f47f af71 	bne.w	d1be <_vfiprintf_r+0x43e>
    d2dc:	9904      	ldr	r1, [sp, #16]
    d2de:	f018 0f10 	tst.w	r8, #16
    d2e2:	460a      	mov	r2, r1
    d2e4:	f040 8241 	bne.w	d76a <_vfiprintf_r+0x9ea>
    d2e8:	f018 0f40 	tst.w	r8, #64	; 0x40
    d2ec:	f000 823d 	beq.w	d76a <_vfiprintf_r+0x9ea>
    d2f0:	3204      	adds	r2, #4
    d2f2:	880e      	ldrh	r6, [r1, #0]
    d2f4:	2700      	movs	r7, #0
    d2f6:	9204      	str	r2, [sp, #16]
    d2f8:	e76a      	b.n	d1d0 <_vfiprintf_r+0x450>
    d2fa:	f89b 3000 	ldrb.w	r3, [fp]
    d2fe:	2b6c      	cmp	r3, #108	; 0x6c
    d300:	f000 82e9 	beq.w	d8d6 <_vfiprintf_r+0xb56>
    d304:	f048 0810 	orr.w	r8, r8, #16
    d308:	4658      	mov	r0, fp
    d30a:	e5a2      	b.n	ce52 <_vfiprintf_r+0xd2>
    d30c:	9a04      	ldr	r2, [sp, #16]
    d30e:	4613      	mov	r3, r2
    d310:	6815      	ldr	r5, [r2, #0]
    d312:	3304      	adds	r3, #4
    d314:	2d00      	cmp	r5, #0
    d316:	f2c0 82e6 	blt.w	d8e6 <_vfiprintf_r+0xb66>
    d31a:	9304      	str	r3, [sp, #16]
    d31c:	f89b 3000 	ldrb.w	r3, [fp]
    d320:	4658      	mov	r0, fp
    d322:	e596      	b.n	ce52 <_vfiprintf_r+0xd2>
    d324:	f89b 3000 	ldrb.w	r3, [fp]
    d328:	4658      	mov	r0, fp
    d32a:	212b      	movs	r1, #43	; 0x2b
    d32c:	e591      	b.n	ce52 <_vfiprintf_r+0xd2>
    d32e:	bf00      	nop
    d330:	0000f5c0 	.word	0x0000f5c0
    d334:	0000f424 	.word	0x0000f424
    d338:	0000f438 	.word	0x0000f438
    d33c:	f89b 3000 	ldrb.w	r3, [fp]
    d340:	f10b 0001 	add.w	r0, fp, #1
    d344:	2b2a      	cmp	r3, #42	; 0x2a
    d346:	f000 830f 	beq.w	d968 <_vfiprintf_r+0xbe8>
    d34a:	f1a3 0230 	sub.w	r2, r3, #48	; 0x30
    d34e:	2a09      	cmp	r2, #9
    d350:	4683      	mov	fp, r0
    d352:	f04f 0600 	mov.w	r6, #0
    d356:	f63f ad7e 	bhi.w	ce56 <_vfiprintf_r+0xd6>
    d35a:	f81b 3b01 	ldrb.w	r3, [fp], #1
    d35e:	eb06 0686 	add.w	r6, r6, r6, lsl #2
    d362:	eb02 0646 	add.w	r6, r2, r6, lsl #1
    d366:	f1a3 0230 	sub.w	r2, r3, #48	; 0x30
    d36a:	2a09      	cmp	r2, #9
    d36c:	d9f5      	bls.n	d35a <_vfiprintf_r+0x5da>
    d36e:	ea46 76e6 	orr.w	r6, r6, r6, asr #31
    d372:	e570      	b.n	ce56 <_vfiprintf_r+0xd6>
    d374:	f018 0f20 	tst.w	r8, #32
    d378:	f88d 102f 	strb.w	r1, [sp, #47]	; 0x2f
    d37c:	f000 8283 	beq.w	d886 <_vfiprintf_r+0xb06>
    d380:	9a04      	ldr	r2, [sp, #16]
    d382:	4613      	mov	r3, r2
    d384:	3304      	adds	r3, #4
    d386:	9304      	str	r3, [sp, #16]
    d388:	9b02      	ldr	r3, [sp, #8]
    d38a:	6811      	ldr	r1, [r2, #0]
    d38c:	17df      	asrs	r7, r3, #31
    d38e:	461a      	mov	r2, r3
    d390:	463b      	mov	r3, r7
    d392:	e9c1 2300 	strd	r2, r3, [r1]
    d396:	e525      	b.n	cde4 <_vfiprintf_r+0x64>
    d398:	4658      	mov	r0, fp
    d39a:	f89b 3000 	ldrb.w	r3, [fp]
    d39e:	2900      	cmp	r1, #0
    d3a0:	f47f ad57 	bne.w	ce52 <_vfiprintf_r+0xd2>
    d3a4:	2120      	movs	r1, #32
    d3a6:	e554      	b.n	ce52 <_vfiprintf_r+0xd2>
    d3a8:	f048 0801 	orr.w	r8, r8, #1
    d3ac:	4658      	mov	r0, fp
    d3ae:	f89b 3000 	ldrb.w	r3, [fp]
    d3b2:	e54e      	b.n	ce52 <_vfiprintf_r+0xd2>
    d3b4:	9503      	str	r5, [sp, #12]
    d3b6:	f88d 102f 	strb.w	r1, [sp, #47]	; 0x2f
    d3ba:	2b00      	cmp	r3, #0
    d3bc:	f000 809c 	beq.w	d4f8 <_vfiprintf_r+0x778>
    d3c0:	f88d 3040 	strb.w	r3, [sp, #64]	; 0x40
    d3c4:	f04f 0300 	mov.w	r3, #0
    d3c8:	2601      	movs	r6, #1
    d3ca:	f88d 302f 	strb.w	r3, [sp, #47]	; 0x2f
    d3ce:	ab10      	add	r3, sp, #64	; 0x40
    d3d0:	46b1      	mov	r9, r6
    d3d2:	9307      	str	r3, [sp, #28]
    d3d4:	e71d      	b.n	d212 <_vfiprintf_r+0x492>
    d3d6:	9801      	ldr	r0, [sp, #4]
    d3d8:	9900      	ldr	r1, [sp, #0]
    d3da:	aa0d      	add	r2, sp, #52	; 0x34
    d3dc:	9308      	str	r3, [sp, #32]
    d3de:	f7ff fc87 	bl	ccf0 <__sprint_r.part.0>
    d3e2:	2800      	cmp	r0, #0
    d3e4:	f040 808f 	bne.w	d506 <_vfiprintf_r+0x786>
    d3e8:	990e      	ldr	r1, [sp, #56]	; 0x38
    d3ea:	46d4      	mov	ip, sl
    d3ec:	9a0f      	ldr	r2, [sp, #60]	; 0x3c
    d3ee:	f101 0e01 	add.w	lr, r1, #1
    d3f2:	9b08      	ldr	r3, [sp, #32]
    d3f4:	e61d      	b.n	d032 <_vfiprintf_r+0x2b2>
    d3f6:	990e      	ldr	r1, [sp, #56]	; 0x38
    d3f8:	9a0f      	ldr	r2, [sp, #60]	; 0x3c
    d3fa:	1c48      	adds	r0, r1, #1
    d3fc:	f89d 302f 	ldrb.w	r3, [sp, #47]	; 0x2f
    d400:	b16b      	cbz	r3, d41e <_vfiprintf_r+0x69e>
    d402:	3201      	adds	r2, #1
    d404:	f10d 032f 	add.w	r3, sp, #47	; 0x2f
    d408:	2101      	movs	r1, #1
    d40a:	2807      	cmp	r0, #7
    d40c:	920f      	str	r2, [sp, #60]	; 0x3c
    d40e:	900e      	str	r0, [sp, #56]	; 0x38
    d410:	6023      	str	r3, [r4, #0]
    d412:	6061      	str	r1, [r4, #4]
    d414:	f300 8134 	bgt.w	d680 <_vfiprintf_r+0x900>
    d418:	4601      	mov	r1, r0
    d41a:	3408      	adds	r4, #8
    d41c:	3001      	adds	r0, #1
    d41e:	9b05      	ldr	r3, [sp, #20]
    d420:	b163      	cbz	r3, d43c <_vfiprintf_r+0x6bc>
    d422:	3202      	adds	r2, #2
    d424:	a90c      	add	r1, sp, #48	; 0x30
    d426:	2302      	movs	r3, #2
    d428:	2807      	cmp	r0, #7
    d42a:	920f      	str	r2, [sp, #60]	; 0x3c
    d42c:	900e      	str	r0, [sp, #56]	; 0x38
    d42e:	e884 000a 	stmia.w	r4, {r1, r3}
    d432:	f300 8134 	bgt.w	d69e <_vfiprintf_r+0x91e>
    d436:	4601      	mov	r1, r0
    d438:	3408      	adds	r4, #8
    d43a:	3001      	adds	r0, #1
    d43c:	9b06      	ldr	r3, [sp, #24]
    d43e:	2b80      	cmp	r3, #128	; 0x80
    d440:	f000 80d4 	beq.w	d5ec <_vfiprintf_r+0x86c>
    d444:	ebc9 070c 	rsb	r7, r9, ip
    d448:	2f00      	cmp	r7, #0
    d44a:	dd2b      	ble.n	d4a4 <_vfiprintf_r+0x724>
    d44c:	2f10      	cmp	r7, #16
    d44e:	4dab      	ldr	r5, [pc, #684]	; (d6fc <_vfiprintf_r+0x97c>)
    d450:	dd1f      	ble.n	d492 <_vfiprintf_r+0x712>
    d452:	46a6      	mov	lr, r4
    d454:	2310      	movs	r3, #16
    d456:	9c01      	ldr	r4, [sp, #4]
    d458:	e007      	b.n	d46a <_vfiprintf_r+0x6ea>
    d45a:	f101 0c02 	add.w	ip, r1, #2
    d45e:	4601      	mov	r1, r0
    d460:	f10e 0e08 	add.w	lr, lr, #8
    d464:	3f10      	subs	r7, #16
    d466:	2f10      	cmp	r7, #16
    d468:	dd11      	ble.n	d48e <_vfiprintf_r+0x70e>
    d46a:	1c48      	adds	r0, r1, #1
    d46c:	3210      	adds	r2, #16
    d46e:	2807      	cmp	r0, #7
    d470:	920f      	str	r2, [sp, #60]	; 0x3c
    d472:	f8ce 5000 	str.w	r5, [lr]
    d476:	f8ce 3004 	str.w	r3, [lr, #4]
    d47a:	900e      	str	r0, [sp, #56]	; 0x38
    d47c:	dded      	ble.n	d45a <_vfiprintf_r+0x6da>
    d47e:	bb6a      	cbnz	r2, d4dc <_vfiprintf_r+0x75c>
    d480:	3f10      	subs	r7, #16
    d482:	2f10      	cmp	r7, #16
    d484:	f04f 0c01 	mov.w	ip, #1
    d488:	4611      	mov	r1, r2
    d48a:	46d6      	mov	lr, sl
    d48c:	dced      	bgt.n	d46a <_vfiprintf_r+0x6ea>
    d48e:	4674      	mov	r4, lr
    d490:	4660      	mov	r0, ip
    d492:	443a      	add	r2, r7
    d494:	2807      	cmp	r0, #7
    d496:	920f      	str	r2, [sp, #60]	; 0x3c
    d498:	e884 00a0 	stmia.w	r4, {r5, r7}
    d49c:	900e      	str	r0, [sp, #56]	; 0x38
    d49e:	dc3b      	bgt.n	d518 <_vfiprintf_r+0x798>
    d4a0:	3408      	adds	r4, #8
    d4a2:	3001      	adds	r0, #1
    d4a4:	eb02 0309 	add.w	r3, r2, r9
    d4a8:	9a07      	ldr	r2, [sp, #28]
    d4aa:	2807      	cmp	r0, #7
    d4ac:	930f      	str	r3, [sp, #60]	; 0x3c
    d4ae:	e884 0204 	stmia.w	r4, {r2, r9}
    d4b2:	900e      	str	r0, [sp, #56]	; 0x38
    d4b4:	dd3d      	ble.n	d532 <_vfiprintf_r+0x7b2>
    d4b6:	2b00      	cmp	r3, #0
    d4b8:	f040 813f 	bne.w	d73a <_vfiprintf_r+0x9ba>
    d4bc:	f018 0f04 	tst.w	r8, #4
    d4c0:	930e      	str	r3, [sp, #56]	; 0x38
    d4c2:	f040 8130 	bne.w	d726 <_vfiprintf_r+0x9a6>
    d4c6:	9b02      	ldr	r3, [sp, #8]
    d4c8:	9a03      	ldr	r2, [sp, #12]
    d4ca:	4296      	cmp	r6, r2
    d4cc:	bfac      	ite	ge
    d4ce:	199b      	addge	r3, r3, r6
    d4d0:	189b      	addlt	r3, r3, r2
    d4d2:	9302      	str	r3, [sp, #8]
    d4d4:	2300      	movs	r3, #0
    d4d6:	930e      	str	r3, [sp, #56]	; 0x38
    d4d8:	4654      	mov	r4, sl
    d4da:	e483      	b.n	cde4 <_vfiprintf_r+0x64>
    d4dc:	4620      	mov	r0, r4
    d4de:	9900      	ldr	r1, [sp, #0]
    d4e0:	aa0d      	add	r2, sp, #52	; 0x34
    d4e2:	9305      	str	r3, [sp, #20]
    d4e4:	f7ff fc04 	bl	ccf0 <__sprint_r.part.0>
    d4e8:	b968      	cbnz	r0, d506 <_vfiprintf_r+0x786>
    d4ea:	990e      	ldr	r1, [sp, #56]	; 0x38
    d4ec:	46d6      	mov	lr, sl
    d4ee:	9a0f      	ldr	r2, [sp, #60]	; 0x3c
    d4f0:	f101 0c01 	add.w	ip, r1, #1
    d4f4:	9b05      	ldr	r3, [sp, #20]
    d4f6:	e7b5      	b.n	d464 <_vfiprintf_r+0x6e4>
    d4f8:	9b0f      	ldr	r3, [sp, #60]	; 0x3c
    d4fa:	b123      	cbz	r3, d506 <_vfiprintf_r+0x786>
    d4fc:	9801      	ldr	r0, [sp, #4]
    d4fe:	9900      	ldr	r1, [sp, #0]
    d500:	aa0d      	add	r2, sp, #52	; 0x34
    d502:	f7ff fbf5 	bl	ccf0 <__sprint_r.part.0>
    d506:	9b00      	ldr	r3, [sp, #0]
    d508:	899b      	ldrh	r3, [r3, #12]
    d50a:	065b      	lsls	r3, r3, #25
    d50c:	f53f ad23 	bmi.w	cf56 <_vfiprintf_r+0x1d6>
    d510:	9802      	ldr	r0, [sp, #8]
    d512:	b02b      	add	sp, #172	; 0xac
    d514:	e8bd 8ff0 	ldmia.w	sp!, {r4, r5, r6, r7, r8, r9, sl, fp, pc}
    d518:	2a00      	cmp	r2, #0
    d51a:	f040 8190 	bne.w	d83e <_vfiprintf_r+0xabe>
    d51e:	464b      	mov	r3, r9
    d520:	4654      	mov	r4, sl
    d522:	9907      	ldr	r1, [sp, #28]
    d524:	2201      	movs	r2, #1
    d526:	f8cd 906c 	str.w	r9, [sp, #108]	; 0x6c
    d52a:	f8cd 903c 	str.w	r9, [sp, #60]	; 0x3c
    d52e:	911a      	str	r1, [sp, #104]	; 0x68
    d530:	920e      	str	r2, [sp, #56]	; 0x38
    d532:	f104 0208 	add.w	r2, r4, #8
    d536:	f018 0f04 	tst.w	r8, #4
    d53a:	d039      	beq.n	d5b0 <_vfiprintf_r+0x830>
    d53c:	9903      	ldr	r1, [sp, #12]
    d53e:	1b8d      	subs	r5, r1, r6
    d540:	2d00      	cmp	r5, #0
    d542:	dd35      	ble.n	d5b0 <_vfiprintf_r+0x830>
    d544:	2d10      	cmp	r5, #16
    d546:	f340 8200 	ble.w	d94a <_vfiprintf_r+0xbca>
    d54a:	980e      	ldr	r0, [sp, #56]	; 0x38
    d54c:	4f6c      	ldr	r7, [pc, #432]	; (d700 <_vfiprintf_r+0x980>)
    d54e:	2410      	movs	r4, #16
    d550:	f8dd 8004 	ldr.w	r8, [sp, #4]
    d554:	f8dd 9000 	ldr.w	r9, [sp]
    d558:	e006      	b.n	d568 <_vfiprintf_r+0x7e8>
    d55a:	f100 0e02 	add.w	lr, r0, #2
    d55e:	4608      	mov	r0, r1
    d560:	3208      	adds	r2, #8
    d562:	3d10      	subs	r5, #16
    d564:	2d10      	cmp	r5, #16
    d566:	dd10      	ble.n	d58a <_vfiprintf_r+0x80a>
    d568:	1c41      	adds	r1, r0, #1
    d56a:	3310      	adds	r3, #16
    d56c:	2907      	cmp	r1, #7
    d56e:	930f      	str	r3, [sp, #60]	; 0x3c
    d570:	6017      	str	r7, [r2, #0]
    d572:	6054      	str	r4, [r2, #4]
    d574:	910e      	str	r1, [sp, #56]	; 0x38
    d576:	ddf0      	ble.n	d55a <_vfiprintf_r+0x7da>
    d578:	2b00      	cmp	r3, #0
    d57a:	d12a      	bne.n	d5d2 <_vfiprintf_r+0x852>
    d57c:	3d10      	subs	r5, #16
    d57e:	2d10      	cmp	r5, #16
    d580:	f04f 0e01 	mov.w	lr, #1
    d584:	4618      	mov	r0, r3
    d586:	4652      	mov	r2, sl
    d588:	dcee      	bgt.n	d568 <_vfiprintf_r+0x7e8>
    d58a:	442b      	add	r3, r5
    d58c:	f1be 0f07 	cmp.w	lr, #7
    d590:	930f      	str	r3, [sp, #60]	; 0x3c
    d592:	6017      	str	r7, [r2, #0]
    d594:	6055      	str	r5, [r2, #4]
    d596:	f8cd e038 	str.w	lr, [sp, #56]	; 0x38
    d59a:	dd09      	ble.n	d5b0 <_vfiprintf_r+0x830>
    d59c:	2b00      	cmp	r3, #0
    d59e:	d092      	beq.n	d4c6 <_vfiprintf_r+0x746>
    d5a0:	9801      	ldr	r0, [sp, #4]
    d5a2:	9900      	ldr	r1, [sp, #0]
    d5a4:	aa0d      	add	r2, sp, #52	; 0x34
    d5a6:	f7ff fba3 	bl	ccf0 <__sprint_r.part.0>
    d5aa:	2800      	cmp	r0, #0
    d5ac:	d1ab      	bne.n	d506 <_vfiprintf_r+0x786>
    d5ae:	9b0f      	ldr	r3, [sp, #60]	; 0x3c
    d5b0:	9a02      	ldr	r2, [sp, #8]
    d5b2:	9903      	ldr	r1, [sp, #12]
    d5b4:	428e      	cmp	r6, r1
    d5b6:	bfac      	ite	ge
    d5b8:	1992      	addge	r2, r2, r6
    d5ba:	1852      	addlt	r2, r2, r1
    d5bc:	9202      	str	r2, [sp, #8]
    d5be:	2b00      	cmp	r3, #0
    d5c0:	d088      	beq.n	d4d4 <_vfiprintf_r+0x754>
    d5c2:	9801      	ldr	r0, [sp, #4]
    d5c4:	9900      	ldr	r1, [sp, #0]
    d5c6:	aa0d      	add	r2, sp, #52	; 0x34
    d5c8:	f7ff fb92 	bl	ccf0 <__sprint_r.part.0>
    d5cc:	2800      	cmp	r0, #0
    d5ce:	d081      	beq.n	d4d4 <_vfiprintf_r+0x754>
    d5d0:	e799      	b.n	d506 <_vfiprintf_r+0x786>
    d5d2:	4640      	mov	r0, r8
    d5d4:	4649      	mov	r1, r9
    d5d6:	aa0d      	add	r2, sp, #52	; 0x34
    d5d8:	f7ff fb8a 	bl	ccf0 <__sprint_r.part.0>
    d5dc:	2800      	cmp	r0, #0
    d5de:	d192      	bne.n	d506 <_vfiprintf_r+0x786>
    d5e0:	980e      	ldr	r0, [sp, #56]	; 0x38
    d5e2:	4652      	mov	r2, sl
    d5e4:	9b0f      	ldr	r3, [sp, #60]	; 0x3c
    d5e6:	f100 0e01 	add.w	lr, r0, #1
    d5ea:	e7ba      	b.n	d562 <_vfiprintf_r+0x7e2>
    d5ec:	9b03      	ldr	r3, [sp, #12]
    d5ee:	1b9f      	subs	r7, r3, r6
    d5f0:	2f00      	cmp	r7, #0
    d5f2:	f77f af27 	ble.w	d444 <_vfiprintf_r+0x6c4>
    d5f6:	2f10      	cmp	r7, #16
    d5f8:	f340 81b3 	ble.w	d962 <_vfiprintf_r+0xbe2>
    d5fc:	4620      	mov	r0, r4
    d5fe:	4d3f      	ldr	r5, [pc, #252]	; (d6fc <_vfiprintf_r+0x97c>)
    d600:	4664      	mov	r4, ip
    d602:	2310      	movs	r3, #16
    d604:	4684      	mov	ip, r0
    d606:	e007      	b.n	d618 <_vfiprintf_r+0x898>
    d608:	f101 0e02 	add.w	lr, r1, #2
    d60c:	4601      	mov	r1, r0
    d60e:	f10c 0c08 	add.w	ip, ip, #8
    d612:	3f10      	subs	r7, #16
    d614:	2f10      	cmp	r7, #16
    d616:	dd11      	ble.n	d63c <_vfiprintf_r+0x8bc>
    d618:	1c48      	adds	r0, r1, #1
    d61a:	3210      	adds	r2, #16
    d61c:	2807      	cmp	r0, #7
    d61e:	920f      	str	r2, [sp, #60]	; 0x3c
    d620:	f8cc 5000 	str.w	r5, [ip]
    d624:	f8cc 3004 	str.w	r3, [ip, #4]
    d628:	900e      	str	r0, [sp, #56]	; 0x38
    d62a:	dded      	ble.n	d608 <_vfiprintf_r+0x888>
    d62c:	b9c2      	cbnz	r2, d660 <_vfiprintf_r+0x8e0>
    d62e:	3f10      	subs	r7, #16
    d630:	2f10      	cmp	r7, #16
    d632:	f04f 0e01 	mov.w	lr, #1
    d636:	4611      	mov	r1, r2
    d638:	46d4      	mov	ip, sl
    d63a:	dced      	bgt.n	d618 <_vfiprintf_r+0x898>
    d63c:	4663      	mov	r3, ip
    d63e:	46a4      	mov	ip, r4
    d640:	461c      	mov	r4, r3
    d642:	443a      	add	r2, r7
    d644:	f1be 0f07 	cmp.w	lr, #7
    d648:	920f      	str	r2, [sp, #60]	; 0x3c
    d64a:	e884 00a0 	stmia.w	r4, {r5, r7}
    d64e:	f8cd e038 	str.w	lr, [sp, #56]	; 0x38
    d652:	f300 80ee 	bgt.w	d832 <_vfiprintf_r+0xab2>
    d656:	3408      	adds	r4, #8
    d658:	f10e 0001 	add.w	r0, lr, #1
    d65c:	4671      	mov	r1, lr
    d65e:	e6f1      	b.n	d444 <_vfiprintf_r+0x6c4>
    d660:	9801      	ldr	r0, [sp, #4]
    d662:	9900      	ldr	r1, [sp, #0]
    d664:	aa0d      	add	r2, sp, #52	; 0x34
    d666:	9305      	str	r3, [sp, #20]
    d668:	f7ff fb42 	bl	ccf0 <__sprint_r.part.0>
    d66c:	2800      	cmp	r0, #0
    d66e:	f47f af4a 	bne.w	d506 <_vfiprintf_r+0x786>
    d672:	990e      	ldr	r1, [sp, #56]	; 0x38
    d674:	46d4      	mov	ip, sl
    d676:	9a0f      	ldr	r2, [sp, #60]	; 0x3c
    d678:	f101 0e01 	add.w	lr, r1, #1
    d67c:	9b05      	ldr	r3, [sp, #20]
    d67e:	e7c8      	b.n	d612 <_vfiprintf_r+0x892>
    d680:	2a00      	cmp	r2, #0
    d682:	f040 80c5 	bne.w	d810 <_vfiprintf_r+0xa90>
    d686:	9b05      	ldr	r3, [sp, #20]
    d688:	2b00      	cmp	r3, #0
    d68a:	f000 8085 	beq.w	d798 <_vfiprintf_r+0xa18>
    d68e:	aa0c      	add	r2, sp, #48	; 0x30
    d690:	2302      	movs	r3, #2
    d692:	921a      	str	r2, [sp, #104]	; 0x68
    d694:	4608      	mov	r0, r1
    d696:	931b      	str	r3, [sp, #108]	; 0x6c
    d698:	461a      	mov	r2, r3
    d69a:	4654      	mov	r4, sl
    d69c:	e6cb      	b.n	d436 <_vfiprintf_r+0x6b6>
    d69e:	2a00      	cmp	r2, #0
    d6a0:	f040 80a5 	bne.w	d7ee <_vfiprintf_r+0xa6e>
    d6a4:	2001      	movs	r0, #1
    d6a6:	4611      	mov	r1, r2
    d6a8:	4654      	mov	r4, sl
    d6aa:	e6c7      	b.n	d43c <_vfiprintf_r+0x6bc>
    d6ac:	bb03      	cbnz	r3, d6f0 <_vfiprintf_r+0x970>
    d6ae:	f018 0f01 	tst.w	r8, #1
    d6b2:	d01d      	beq.n	d6f0 <_vfiprintf_r+0x970>
    d6b4:	ab2a      	add	r3, sp, #168	; 0xa8
    d6b6:	2230      	movs	r2, #48	; 0x30
    d6b8:	f803 2d41 	strb.w	r2, [r3, #-65]!
    d6bc:	ebc3 090a 	rsb	r9, r3, sl
    d6c0:	9307      	str	r3, [sp, #28]
    d6c2:	e48f      	b.n	cfe4 <_vfiprintf_r+0x264>
    d6c4:	46d1      	mov	r9, sl
    d6c6:	9809      	ldr	r0, [sp, #36]	; 0x24
    d6c8:	0933      	lsrs	r3, r6, #4
    d6ca:	ea43 7307 	orr.w	r3, r3, r7, lsl #28
    d6ce:	0939      	lsrs	r1, r7, #4
    d6d0:	f006 020f 	and.w	r2, r6, #15
    d6d4:	460f      	mov	r7, r1
    d6d6:	461e      	mov	r6, r3
    d6d8:	5c83      	ldrb	r3, [r0, r2]
    d6da:	f809 3d01 	strb.w	r3, [r9, #-1]!
    d6de:	ea56 0307 	orrs.w	r3, r6, r7
    d6e2:	d1f1      	bne.n	d6c8 <_vfiprintf_r+0x948>
    d6e4:	464b      	mov	r3, r9
    d6e6:	f8cd 901c 	str.w	r9, [sp, #28]
    d6ea:	ebc3 090a 	rsb	r9, r3, sl
    d6ee:	e479      	b.n	cfe4 <_vfiprintf_r+0x264>
    d6f0:	f8cd a01c 	str.w	sl, [sp, #28]
    d6f4:	e476      	b.n	cfe4 <_vfiprintf_r+0x264>
    d6f6:	2302      	movs	r3, #2
    d6f8:	e445      	b.n	cf86 <_vfiprintf_r+0x206>
    d6fa:	bf00      	nop
    d6fc:	0000f5b0 	.word	0x0000f5b0
    d700:	0000f5c0 	.word	0x0000f5c0
    d704:	2a00      	cmp	r2, #0
    d706:	f040 80d5 	bne.w	d8b4 <_vfiprintf_r+0xb34>
    d70a:	f89d 302f 	ldrb.w	r3, [sp, #47]	; 0x2f
    d70e:	2b00      	cmp	r3, #0
    d710:	f000 80ac 	beq.w	d86c <_vfiprintf_r+0xaec>
    d714:	2301      	movs	r3, #1
    d716:	f10d 012f 	add.w	r1, sp, #47	; 0x2f
    d71a:	4618      	mov	r0, r3
    d71c:	931b      	str	r3, [sp, #108]	; 0x6c
    d71e:	461a      	mov	r2, r3
    d720:	911a      	str	r1, [sp, #104]	; 0x68
    d722:	4654      	mov	r4, sl
    d724:	e678      	b.n	d418 <_vfiprintf_r+0x698>
    d726:	9a03      	ldr	r2, [sp, #12]
    d728:	1b95      	subs	r5, r2, r6
    d72a:	2d00      	cmp	r5, #0
    d72c:	4652      	mov	r2, sl
    d72e:	f73f af09 	bgt.w	d544 <_vfiprintf_r+0x7c4>
    d732:	e6c8      	b.n	d4c6 <_vfiprintf_r+0x746>
    d734:	465d      	mov	r5, fp
    d736:	f7ff bb7c 	b.w	ce32 <_vfiprintf_r+0xb2>
    d73a:	9801      	ldr	r0, [sp, #4]
    d73c:	9900      	ldr	r1, [sp, #0]
    d73e:	aa0d      	add	r2, sp, #52	; 0x34
    d740:	f7ff fad6 	bl	ccf0 <__sprint_r.part.0>
    d744:	2800      	cmp	r0, #0
    d746:	f47f aede 	bne.w	d506 <_vfiprintf_r+0x786>
    d74a:	4652      	mov	r2, sl
    d74c:	9b0f      	ldr	r3, [sp, #60]	; 0x3c
    d74e:	e6f2      	b.n	d536 <_vfiprintf_r+0x7b6>
    d750:	9904      	ldr	r1, [sp, #16]
    d752:	2700      	movs	r7, #0
    d754:	460a      	mov	r2, r1
    d756:	3204      	adds	r2, #4
    d758:	680e      	ldr	r6, [r1, #0]
    d75a:	9204      	str	r2, [sp, #16]
    d75c:	e413      	b.n	cf86 <_vfiprintf_r+0x206>
    d75e:	3204      	adds	r2, #4
    d760:	681e      	ldr	r6, [r3, #0]
    d762:	2700      	movs	r7, #0
    d764:	2301      	movs	r3, #1
    d766:	9204      	str	r2, [sp, #16]
    d768:	e40d      	b.n	cf86 <_vfiprintf_r+0x206>
    d76a:	6816      	ldr	r6, [r2, #0]
    d76c:	3204      	adds	r2, #4
    d76e:	9204      	str	r2, [sp, #16]
    d770:	2700      	movs	r7, #0
    d772:	e52d      	b.n	d1d0 <_vfiprintf_r+0x450>
    d774:	681e      	ldr	r6, [r3, #0]
    d776:	3304      	adds	r3, #4
    d778:	17f7      	asrs	r7, r6, #31
    d77a:	9304      	str	r3, [sp, #16]
    d77c:	4632      	mov	r2, r6
    d77e:	463b      	mov	r3, r7
    d780:	e4c1      	b.n	d106 <_vfiprintf_r+0x386>
    d782:	9801      	ldr	r0, [sp, #4]
    d784:	9900      	ldr	r1, [sp, #0]
    d786:	aa0d      	add	r2, sp, #52	; 0x34
    d788:	f7ff fab2 	bl	ccf0 <__sprint_r.part.0>
    d78c:	2800      	cmp	r0, #0
    d78e:	f47f aeba 	bne.w	d506 <_vfiprintf_r+0x786>
    d792:	4654      	mov	r4, sl
    d794:	f7ff bbc0 	b.w	cf18 <_vfiprintf_r+0x198>
    d798:	4608      	mov	r0, r1
    d79a:	4654      	mov	r4, sl
    d79c:	4611      	mov	r1, r2
    d79e:	e64d      	b.n	d43c <_vfiprintf_r+0x6bc>
    d7a0:	46d1      	mov	r9, sl
    d7a2:	f8cd c014 	str.w	ip, [sp, #20]
    d7a6:	4630      	mov	r0, r6
    d7a8:	4639      	mov	r1, r7
    d7aa:	220a      	movs	r2, #10
    d7ac:	2300      	movs	r3, #0
    d7ae:	f001 fb43 	bl	ee38 <__aeabi_uldivmod>
    d7b2:	3230      	adds	r2, #48	; 0x30
    d7b4:	4630      	mov	r0, r6
    d7b6:	4639      	mov	r1, r7
    d7b8:	f809 2d01 	strb.w	r2, [r9, #-1]!
    d7bc:	2300      	movs	r3, #0
    d7be:	220a      	movs	r2, #10
    d7c0:	f001 fb3a 	bl	ee38 <__aeabi_uldivmod>
    d7c4:	4606      	mov	r6, r0
    d7c6:	460f      	mov	r7, r1
    d7c8:	ea56 0307 	orrs.w	r3, r6, r7
    d7cc:	d1eb      	bne.n	d7a6 <_vfiprintf_r+0xa26>
    d7ce:	f8dd c014 	ldr.w	ip, [sp, #20]
    d7d2:	e787      	b.n	d6e4 <_vfiprintf_r+0x964>
    d7d4:	2b30      	cmp	r3, #48	; 0x30
    d7d6:	9b07      	ldr	r3, [sp, #28]
    d7d8:	d087      	beq.n	d6ea <_vfiprintf_r+0x96a>
    d7da:	3b01      	subs	r3, #1
    d7dc:	461a      	mov	r2, r3
    d7de:	9307      	str	r3, [sp, #28]
    d7e0:	2330      	movs	r3, #48	; 0x30
    d7e2:	ebc2 090a 	rsb	r9, r2, sl
    d7e6:	f801 3c01 	strb.w	r3, [r1, #-1]
    d7ea:	f7ff bbfb 	b.w	cfe4 <_vfiprintf_r+0x264>
    d7ee:	9801      	ldr	r0, [sp, #4]
    d7f0:	9900      	ldr	r1, [sp, #0]
    d7f2:	aa0d      	add	r2, sp, #52	; 0x34
    d7f4:	f8cd c014 	str.w	ip, [sp, #20]
    d7f8:	f7ff fa7a 	bl	ccf0 <__sprint_r.part.0>
    d7fc:	2800      	cmp	r0, #0
    d7fe:	f47f ae82 	bne.w	d506 <_vfiprintf_r+0x786>
    d802:	990e      	ldr	r1, [sp, #56]	; 0x38
    d804:	4654      	mov	r4, sl
    d806:	9a0f      	ldr	r2, [sp, #60]	; 0x3c
    d808:	1c48      	adds	r0, r1, #1
    d80a:	f8dd c014 	ldr.w	ip, [sp, #20]
    d80e:	e615      	b.n	d43c <_vfiprintf_r+0x6bc>
    d810:	9801      	ldr	r0, [sp, #4]
    d812:	9900      	ldr	r1, [sp, #0]
    d814:	aa0d      	add	r2, sp, #52	; 0x34
    d816:	f8cd c020 	str.w	ip, [sp, #32]
    d81a:	f7ff fa69 	bl	ccf0 <__sprint_r.part.0>
    d81e:	2800      	cmp	r0, #0
    d820:	f47f ae71 	bne.w	d506 <_vfiprintf_r+0x786>
    d824:	990e      	ldr	r1, [sp, #56]	; 0x38
    d826:	4654      	mov	r4, sl
    d828:	9a0f      	ldr	r2, [sp, #60]	; 0x3c
    d82a:	1c48      	adds	r0, r1, #1
    d82c:	f8dd c020 	ldr.w	ip, [sp, #32]
    d830:	e5f5      	b.n	d41e <_vfiprintf_r+0x69e>
    d832:	2a00      	cmp	r2, #0
    d834:	d167      	bne.n	d906 <_vfiprintf_r+0xb86>
    d836:	2001      	movs	r0, #1
    d838:	4611      	mov	r1, r2
    d83a:	4654      	mov	r4, sl
    d83c:	e602      	b.n	d444 <_vfiprintf_r+0x6c4>
    d83e:	9801      	ldr	r0, [sp, #4]
    d840:	9900      	ldr	r1, [sp, #0]
    d842:	aa0d      	add	r2, sp, #52	; 0x34
    d844:	f7ff fa54 	bl	ccf0 <__sprint_r.part.0>
    d848:	2800      	cmp	r0, #0
    d84a:	f47f ae5c 	bne.w	d506 <_vfiprintf_r+0x786>
    d84e:	980e      	ldr	r0, [sp, #56]	; 0x38
    d850:	4654      	mov	r4, sl
    d852:	9a0f      	ldr	r2, [sp, #60]	; 0x3c
    d854:	3001      	adds	r0, #1
    d856:	e625      	b.n	d4a4 <_vfiprintf_r+0x724>
    d858:	252d      	movs	r5, #45	; 0x2d
    d85a:	4276      	negs	r6, r6
    d85c:	eb67 0747 	sbc.w	r7, r7, r7, lsl #1
    d860:	f88d 502f 	strb.w	r5, [sp, #47]	; 0x2f
    d864:	46e1      	mov	r9, ip
    d866:	2301      	movs	r3, #1
    d868:	f7ff bb93 	b.w	cf92 <_vfiprintf_r+0x212>
    d86c:	9b05      	ldr	r3, [sp, #20]
    d86e:	4611      	mov	r1, r2
    d870:	2001      	movs	r0, #1
    d872:	4654      	mov	r4, sl
    d874:	2b00      	cmp	r3, #0
    d876:	f43f ade5 	beq.w	d444 <_vfiprintf_r+0x6c4>
    d87a:	aa0c      	add	r2, sp, #48	; 0x30
    d87c:	2302      	movs	r3, #2
    d87e:	e88a 000c 	stmia.w	sl, {r2, r3}
    d882:	461a      	mov	r2, r3
    d884:	e5d7      	b.n	d436 <_vfiprintf_r+0x6b6>
    d886:	f018 0f10 	tst.w	r8, #16
    d88a:	d10b      	bne.n	d8a4 <_vfiprintf_r+0xb24>
    d88c:	f018 0f40 	tst.w	r8, #64	; 0x40
    d890:	d008      	beq.n	d8a4 <_vfiprintf_r+0xb24>
    d892:	9a04      	ldr	r2, [sp, #16]
    d894:	6813      	ldr	r3, [r2, #0]
    d896:	3204      	adds	r2, #4
    d898:	9204      	str	r2, [sp, #16]
    d89a:	f8bd 2008 	ldrh.w	r2, [sp, #8]
    d89e:	801a      	strh	r2, [r3, #0]
    d8a0:	f7ff baa0 	b.w	cde4 <_vfiprintf_r+0x64>
    d8a4:	9a04      	ldr	r2, [sp, #16]
    d8a6:	6813      	ldr	r3, [r2, #0]
    d8a8:	3204      	adds	r2, #4
    d8aa:	9204      	str	r2, [sp, #16]
    d8ac:	9a02      	ldr	r2, [sp, #8]
    d8ae:	601a      	str	r2, [r3, #0]
    d8b0:	f7ff ba98 	b.w	cde4 <_vfiprintf_r+0x64>
    d8b4:	9801      	ldr	r0, [sp, #4]
    d8b6:	9900      	ldr	r1, [sp, #0]
    d8b8:	aa0d      	add	r2, sp, #52	; 0x34
    d8ba:	f8cd c020 	str.w	ip, [sp, #32]
    d8be:	f7ff fa17 	bl	ccf0 <__sprint_r.part.0>
    d8c2:	2800      	cmp	r0, #0
    d8c4:	f47f ae1f 	bne.w	d506 <_vfiprintf_r+0x786>
    d8c8:	990e      	ldr	r1, [sp, #56]	; 0x38
    d8ca:	4654      	mov	r4, sl
    d8cc:	9a0f      	ldr	r2, [sp, #60]	; 0x3c
    d8ce:	1c48      	adds	r0, r1, #1
    d8d0:	f8dd c020 	ldr.w	ip, [sp, #32]
    d8d4:	e592      	b.n	d3fc <_vfiprintf_r+0x67c>
    d8d6:	f048 0820 	orr.w	r8, r8, #32
    d8da:	f10b 0001 	add.w	r0, fp, #1
    d8de:	f89b 3001 	ldrb.w	r3, [fp, #1]
    d8e2:	f7ff bab6 	b.w	ce52 <_vfiprintf_r+0xd2>
    d8e6:	426d      	negs	r5, r5
    d8e8:	9304      	str	r3, [sp, #16]
    d8ea:	4658      	mov	r0, fp
    d8ec:	f7ff bbc8 	b.w	d080 <_vfiprintf_r+0x300>
    d8f0:	9807      	ldr	r0, [sp, #28]
    d8f2:	9504      	str	r5, [sp, #16]
    d8f4:	f7fb fd50 	bl	9398 <strlen>
    d8f8:	f89d 502f 	ldrb.w	r5, [sp, #47]	; 0x2f
    d8fc:	4681      	mov	r9, r0
    d8fe:	f04f 0c00 	mov.w	ip, #0
    d902:	f7ff bb6f 	b.w	cfe4 <_vfiprintf_r+0x264>
    d906:	9801      	ldr	r0, [sp, #4]
    d908:	9900      	ldr	r1, [sp, #0]
    d90a:	aa0d      	add	r2, sp, #52	; 0x34
    d90c:	f8cd c014 	str.w	ip, [sp, #20]
    d910:	f7ff f9ee 	bl	ccf0 <__sprint_r.part.0>
    d914:	2800      	cmp	r0, #0
    d916:	f47f adf6 	bne.w	d506 <_vfiprintf_r+0x786>
    d91a:	990e      	ldr	r1, [sp, #56]	; 0x38
    d91c:	4654      	mov	r4, sl
    d91e:	9a0f      	ldr	r2, [sp, #60]	; 0x3c
    d920:	1c48      	adds	r0, r1, #1
    d922:	f8dd c014 	ldr.w	ip, [sp, #20]
    d926:	e58d      	b.n	d444 <_vfiprintf_r+0x6c4>
    d928:	990e      	ldr	r1, [sp, #56]	; 0x38
    d92a:	9a0f      	ldr	r2, [sp, #60]	; 0x3c
    d92c:	3101      	adds	r1, #1
    d92e:	4f15      	ldr	r7, [pc, #84]	; (d984 <_vfiprintf_r+0xc04>)
    d930:	f7ff bb9a 	b.w	d068 <_vfiprintf_r+0x2e8>
    d934:	2e06      	cmp	r6, #6
    d936:	4b14      	ldr	r3, [pc, #80]	; (d988 <_vfiprintf_r+0xc08>)
    d938:	bf28      	it	cs
    d93a:	f04f 0c06 	movcs.w	ip, #6
    d93e:	46e1      	mov	r9, ip
    d940:	9504      	str	r5, [sp, #16]
    d942:	ea2c 76ec 	bic.w	r6, ip, ip, asr #31
    d946:	9307      	str	r3, [sp, #28]
    d948:	e463      	b.n	d212 <_vfiprintf_r+0x492>
    d94a:	990e      	ldr	r1, [sp, #56]	; 0x38
    d94c:	4f0d      	ldr	r7, [pc, #52]	; (d984 <_vfiprintf_r+0xc04>)
    d94e:	f101 0e01 	add.w	lr, r1, #1
    d952:	e61a      	b.n	d58a <_vfiprintf_r+0x80a>
    d954:	46e1      	mov	r9, ip
    d956:	9504      	str	r5, [sp, #16]
    d958:	4684      	mov	ip, r0
    d95a:	f89d 502f 	ldrb.w	r5, [sp, #47]	; 0x2f
    d95e:	f7ff bb41 	b.w	cfe4 <_vfiprintf_r+0x264>
    d962:	4686      	mov	lr, r0
    d964:	4d09      	ldr	r5, [pc, #36]	; (d98c <_vfiprintf_r+0xc0c>)
    d966:	e66c      	b.n	d642 <_vfiprintf_r+0x8c2>
    d968:	9a04      	ldr	r2, [sp, #16]
    d96a:	f89b 3001 	ldrb.w	r3, [fp, #1]
    d96e:	6816      	ldr	r6, [r2, #0]
    d970:	3204      	adds	r2, #4
    d972:	2e00      	cmp	r6, #0
    d974:	9204      	str	r2, [sp, #16]
    d976:	f6bf aa6c 	bge.w	ce52 <_vfiprintf_r+0xd2>
    d97a:	f04f 36ff 	mov.w	r6, #4294967295
    d97e:	f7ff ba68 	b.w	ce52 <_vfiprintf_r+0xd2>
    d982:	bf00      	nop
    d984:	0000f5c0 	.word	0x0000f5c0
    d988:	0000f44c 	.word	0x0000f44c
    d98c:	0000f5b0 	.word	0x0000f5b0

0000d990 <vfiprintf>:
    d990:	b430      	push	{r4, r5}
    d992:	460d      	mov	r5, r1
    d994:	4c03      	ldr	r4, [pc, #12]	; (d9a4 <vfiprintf+0x14>)
    d996:	4613      	mov	r3, r2
    d998:	4601      	mov	r1, r0
    d99a:	462a      	mov	r2, r5
    d99c:	6820      	ldr	r0, [r4, #0]
    d99e:	bc30      	pop	{r4, r5}
    d9a0:	f7ff b9ee 	b.w	cd80 <_vfiprintf_r>
    d9a4:	00017b68 	.word	0x00017b68

0000d9a8 <__sbprintf>:
    d9a8:	e92d 45f0 	stmdb	sp!, {r4, r5, r6, r7, r8, sl, lr}
    d9ac:	4688      	mov	r8, r1
    d9ae:	6e4f      	ldr	r7, [r1, #100]	; 0x64
    d9b0:	f2ad 4d6c 	subw	sp, sp, #1132	; 0x46c
    d9b4:	9719      	str	r7, [sp, #100]	; 0x64
    d9b6:	f8d8 701c 	ldr.w	r7, [r8, #28]
    d9ba:	f8b1 e00c 	ldrh.w	lr, [r1, #12]
    d9be:	f8b1 a00e 	ldrh.w	sl, [r1, #14]
    d9c2:	9707      	str	r7, [sp, #28]
    d9c4:	f8d8 7024 	ldr.w	r7, [r8, #36]	; 0x24
    d9c8:	ac1a      	add	r4, sp, #104	; 0x68
    d9ca:	f44f 6580 	mov.w	r5, #1024	; 0x400
    d9ce:	f02e 0e02 	bic.w	lr, lr, #2
    d9d2:	2600      	movs	r6, #0
    d9d4:	4669      	mov	r1, sp
    d9d6:	9400      	str	r4, [sp, #0]
    d9d8:	9404      	str	r4, [sp, #16]
    d9da:	9502      	str	r5, [sp, #8]
    d9dc:	9505      	str	r5, [sp, #20]
    d9de:	f8ad e00c 	strh.w	lr, [sp, #12]
    d9e2:	f8ad a00e 	strh.w	sl, [sp, #14]
    d9e6:	9709      	str	r7, [sp, #36]	; 0x24
    d9e8:	9606      	str	r6, [sp, #24]
    d9ea:	4605      	mov	r5, r0
    d9ec:	f7ff f9c8 	bl	cd80 <_vfiprintf_r>
    d9f0:	1e04      	subs	r4, r0, #0
    d9f2:	db07      	blt.n	da04 <__sbprintf+0x5c>
    d9f4:	4628      	mov	r0, r5
    d9f6:	4669      	mov	r1, sp
    d9f8:	f7fe f8ca 	bl	bb90 <_fflush_r>
    d9fc:	42b0      	cmp	r0, r6
    d9fe:	bf18      	it	ne
    da00:	f04f 34ff 	movne.w	r4, #4294967295
    da04:	f8bd 300c 	ldrh.w	r3, [sp, #12]
    da08:	065b      	lsls	r3, r3, #25
    da0a:	d505      	bpl.n	da18 <__sbprintf+0x70>
    da0c:	f8b8 300c 	ldrh.w	r3, [r8, #12]
    da10:	f043 0340 	orr.w	r3, r3, #64	; 0x40
    da14:	f8a8 300c 	strh.w	r3, [r8, #12]
    da18:	4620      	mov	r0, r4
    da1a:	f20d 4d6c 	addw	sp, sp, #1132	; 0x46c
    da1e:	e8bd 85f0 	ldmia.w	sp!, {r4, r5, r6, r7, r8, sl, pc}
    da22:	bf00      	nop

0000da24 <_calloc_r>:
    da24:	b510      	push	{r4, lr}
    da26:	fb02 f101 	mul.w	r1, r2, r1
    da2a:	f7fb f9b1 	bl	8d90 <_malloc_r>
    da2e:	4604      	mov	r4, r0
    da30:	b168      	cbz	r0, da4e <_calloc_r+0x2a>
    da32:	f850 2c04 	ldr.w	r2, [r0, #-4]
    da36:	f022 0203 	bic.w	r2, r2, #3
    da3a:	3a04      	subs	r2, #4
    da3c:	2a24      	cmp	r2, #36	; 0x24
    da3e:	d818      	bhi.n	da72 <_calloc_r+0x4e>
    da40:	2a13      	cmp	r2, #19
    da42:	d806      	bhi.n	da52 <_calloc_r+0x2e>
    da44:	4603      	mov	r3, r0
    da46:	2200      	movs	r2, #0
    da48:	601a      	str	r2, [r3, #0]
    da4a:	605a      	str	r2, [r3, #4]
    da4c:	609a      	str	r2, [r3, #8]
    da4e:	4620      	mov	r0, r4
    da50:	bd10      	pop	{r4, pc}
    da52:	2300      	movs	r3, #0
    da54:	2a1b      	cmp	r2, #27
    da56:	6003      	str	r3, [r0, #0]
    da58:	6043      	str	r3, [r0, #4]
    da5a:	d90f      	bls.n	da7c <_calloc_r+0x58>
    da5c:	2a24      	cmp	r2, #36	; 0x24
    da5e:	6083      	str	r3, [r0, #8]
    da60:	60c3      	str	r3, [r0, #12]
    da62:	bf05      	ittet	eq
    da64:	6103      	streq	r3, [r0, #16]
    da66:	6143      	streq	r3, [r0, #20]
    da68:	f100 0310 	addne.w	r3, r0, #16
    da6c:	f100 0318 	addeq.w	r3, r0, #24
    da70:	e7e9      	b.n	da46 <_calloc_r+0x22>
    da72:	2100      	movs	r1, #0
    da74:	f7fa fbb0 	bl	81d8 <memset>
    da78:	4620      	mov	r0, r4
    da7a:	bd10      	pop	{r4, pc}
    da7c:	f100 0308 	add.w	r3, r0, #8
    da80:	e7e1      	b.n	da46 <_calloc_r+0x22>
    da82:	bf00      	nop

0000da84 <__fputwc>:
    da84:	e92d 41f0 	stmdb	sp!, {r4, r5, r6, r7, r8, lr}
    da88:	b082      	sub	sp, #8
    da8a:	4607      	mov	r7, r0
    da8c:	460e      	mov	r6, r1
    da8e:	4614      	mov	r4, r2
    da90:	f7fe f9f2 	bl	be78 <__locale_mb_cur_max>
    da94:	2801      	cmp	r0, #1
    da96:	d040      	beq.n	db1a <__fputwc+0x96>
    da98:	4638      	mov	r0, r7
    da9a:	a901      	add	r1, sp, #4
    da9c:	4632      	mov	r2, r6
    da9e:	f104 035c 	add.w	r3, r4, #92	; 0x5c
    daa2:	f000 fcd3 	bl	e44c <_wcrtomb_r>
    daa6:	f1b0 3fff 	cmp.w	r0, #4294967295
    daaa:	4680      	mov	r8, r0
    daac:	d02e      	beq.n	db0c <__fputwc+0x88>
    daae:	2800      	cmp	r0, #0
    dab0:	d03b      	beq.n	db2a <__fputwc+0xa6>
    dab2:	f89d 1004 	ldrb.w	r1, [sp, #4]
    dab6:	2500      	movs	r5, #0
    dab8:	e009      	b.n	dace <__fputwc+0x4a>
    daba:	6823      	ldr	r3, [r4, #0]
    dabc:	7019      	strb	r1, [r3, #0]
    dabe:	6823      	ldr	r3, [r4, #0]
    dac0:	3301      	adds	r3, #1
    dac2:	6023      	str	r3, [r4, #0]
    dac4:	3501      	adds	r5, #1
    dac6:	45a8      	cmp	r8, r5
    dac8:	d92f      	bls.n	db2a <__fputwc+0xa6>
    daca:	ab01      	add	r3, sp, #4
    dacc:	5d59      	ldrb	r1, [r3, r5]
    dace:	68a3      	ldr	r3, [r4, #8]
    dad0:	3b01      	subs	r3, #1
    dad2:	2b00      	cmp	r3, #0
    dad4:	60a3      	str	r3, [r4, #8]
    dad6:	daf0      	bge.n	daba <__fputwc+0x36>
    dad8:	69a2      	ldr	r2, [r4, #24]
    dada:	4293      	cmp	r3, r2
    dadc:	db06      	blt.n	daec <__fputwc+0x68>
    dade:	6823      	ldr	r3, [r4, #0]
    dae0:	7019      	strb	r1, [r3, #0]
    dae2:	6823      	ldr	r3, [r4, #0]
    dae4:	7819      	ldrb	r1, [r3, #0]
    dae6:	3301      	adds	r3, #1
    dae8:	290a      	cmp	r1, #10
    daea:	d1ea      	bne.n	dac2 <__fputwc+0x3e>
    daec:	4638      	mov	r0, r7
    daee:	4622      	mov	r2, r4
    daf0:	f000 fc50 	bl	e394 <__swbuf_r>
    daf4:	f1a0 30ff 	sub.w	r0, r0, #4294967295
    daf8:	fab0 f080 	clz	r0, r0
    dafc:	0940      	lsrs	r0, r0, #5
    dafe:	2800      	cmp	r0, #0
    db00:	d0e0      	beq.n	dac4 <__fputwc+0x40>
    db02:	f04f 30ff 	mov.w	r0, #4294967295
    db06:	b002      	add	sp, #8
    db08:	e8bd 81f0 	ldmia.w	sp!, {r4, r5, r6, r7, r8, pc}
    db0c:	89a3      	ldrh	r3, [r4, #12]
    db0e:	f043 0340 	orr.w	r3, r3, #64	; 0x40
    db12:	81a3      	strh	r3, [r4, #12]
    db14:	b002      	add	sp, #8
    db16:	e8bd 81f0 	ldmia.w	sp!, {r4, r5, r6, r7, r8, pc}
    db1a:	1e73      	subs	r3, r6, #1
    db1c:	2bfe      	cmp	r3, #254	; 0xfe
    db1e:	d8bb      	bhi.n	da98 <__fputwc+0x14>
    db20:	b2f1      	uxtb	r1, r6
    db22:	4680      	mov	r8, r0
    db24:	f88d 1004 	strb.w	r1, [sp, #4]
    db28:	e7c5      	b.n	dab6 <__fputwc+0x32>
    db2a:	4630      	mov	r0, r6
    db2c:	b002      	add	sp, #8
    db2e:	e8bd 81f0 	ldmia.w	sp!, {r4, r5, r6, r7, r8, pc}
    db32:	bf00      	nop

0000db34 <_fputwc_r>:
    db34:	8993      	ldrh	r3, [r2, #12]
    db36:	f413 5f00 	tst.w	r3, #8192	; 0x2000
    db3a:	d10b      	bne.n	db54 <_fputwc_r+0x20>
    db3c:	b410      	push	{r4}
    db3e:	6e54      	ldr	r4, [r2, #100]	; 0x64
    db40:	f443 5300 	orr.w	r3, r3, #8192	; 0x2000
    db44:	f444 5400 	orr.w	r4, r4, #8192	; 0x2000
    db48:	6654      	str	r4, [r2, #100]	; 0x64
    db4a:	8193      	strh	r3, [r2, #12]
    db4c:	f85d 4b04 	ldr.w	r4, [sp], #4
    db50:	f7ff bf98 	b.w	da84 <__fputwc>
    db54:	f7ff bf96 	b.w	da84 <__fputwc>

0000db58 <fputwc>:
    db58:	4b08      	ldr	r3, [pc, #32]	; (db7c <fputwc+0x24>)
    db5a:	b570      	push	{r4, r5, r6, lr}
    db5c:	681c      	ldr	r4, [r3, #0]
    db5e:	4606      	mov	r6, r0
    db60:	460d      	mov	r5, r1
    db62:	b124      	cbz	r4, db6e <fputwc+0x16>
    db64:	6ba3      	ldr	r3, [r4, #56]	; 0x38
    db66:	b913      	cbnz	r3, db6e <fputwc+0x16>
    db68:	4620      	mov	r0, r4
    db6a:	f7fb f8a3 	bl	8cb4 <__sinit>
    db6e:	4620      	mov	r0, r4
    db70:	4631      	mov	r1, r6
    db72:	462a      	mov	r2, r5
    db74:	e8bd 4070 	ldmia.w	sp!, {r4, r5, r6, lr}
    db78:	f7ff bfdc 	b.w	db34 <_fputwc_r>
    db7c:	00017b68 	.word	0x00017b68

0000db80 <_fstat_r>:
    db80:	b538      	push	{r3, r4, r5, lr}
    db82:	4c08      	ldr	r4, [pc, #32]	; (dba4 <_fstat_r+0x24>)
    db84:	2300      	movs	r3, #0
    db86:	4605      	mov	r5, r0
    db88:	4608      	mov	r0, r1
    db8a:	4611      	mov	r1, r2
    db8c:	6023      	str	r3, [r4, #0]
    db8e:	f7fa fe13 	bl	87b8 <_fstat>
    db92:	1c43      	adds	r3, r0, #1
    db94:	d000      	beq.n	db98 <_fstat_r+0x18>
    db96:	bd38      	pop	{r3, r4, r5, pc}
    db98:	6823      	ldr	r3, [r4, #0]
    db9a:	2b00      	cmp	r3, #0
    db9c:	d0fb      	beq.n	db96 <_fstat_r+0x16>
    db9e:	602b      	str	r3, [r5, #0]
    dba0:	bd38      	pop	{r3, r4, r5, pc}
    dba2:	bf00      	nop
    dba4:	00018124 	.word	0x00018124

0000dba8 <__sfvwrite_r>:
    dba8:	6893      	ldr	r3, [r2, #8]
    dbaa:	2b00      	cmp	r3, #0
    dbac:	f000 80b1 	beq.w	dd12 <__sfvwrite_r+0x16a>
    dbb0:	e92d 4ff0 	stmdb	sp!, {r4, r5, r6, r7, r8, r9, sl, fp, lr}
    dbb4:	f8b1 e00c 	ldrh.w	lr, [r1, #12]
    dbb8:	b083      	sub	sp, #12
    dbba:	f01e 0f08 	tst.w	lr, #8
    dbbe:	460c      	mov	r4, r1
    dbc0:	4681      	mov	r9, r0
    dbc2:	4616      	mov	r6, r2
    dbc4:	d028      	beq.n	dc18 <__sfvwrite_r+0x70>
    dbc6:	690b      	ldr	r3, [r1, #16]
    dbc8:	b333      	cbz	r3, dc18 <__sfvwrite_r+0x70>
    dbca:	f00e 0802 	and.w	r8, lr, #2
    dbce:	fa1f f088 	uxth.w	r0, r8
    dbd2:	6835      	ldr	r5, [r6, #0]
    dbd4:	b380      	cbz	r0, dc38 <__sfvwrite_r+0x90>
    dbd6:	f04f 0b00 	mov.w	fp, #0
    dbda:	46d8      	mov	r8, fp
    dbdc:	f8df a2e4 	ldr.w	sl, [pc, #740]	; dec4 <__sfvwrite_r+0x31c>
    dbe0:	f1b8 0f00 	cmp.w	r8, #0
    dbe4:	f000 808f 	beq.w	dd06 <__sfvwrite_r+0x15e>
    dbe8:	45d0      	cmp	r8, sl
    dbea:	4643      	mov	r3, r8
    dbec:	4648      	mov	r0, r9
    dbee:	bf28      	it	cs
    dbf0:	4653      	movcs	r3, sl
    dbf2:	69e1      	ldr	r1, [r4, #28]
    dbf4:	465a      	mov	r2, fp
    dbf6:	6a67      	ldr	r7, [r4, #36]	; 0x24
    dbf8:	47b8      	blx	r7
    dbfa:	2800      	cmp	r0, #0
    dbfc:	f340 80a8 	ble.w	dd50 <__sfvwrite_r+0x1a8>
    dc00:	68b3      	ldr	r3, [r6, #8]
    dc02:	4483      	add	fp, r0
    dc04:	1a1b      	subs	r3, r3, r0
    dc06:	ebc0 0808 	rsb	r8, r0, r8
    dc0a:	60b3      	str	r3, [r6, #8]
    dc0c:	2b00      	cmp	r3, #0
    dc0e:	d1e7      	bne.n	dbe0 <__sfvwrite_r+0x38>
    dc10:	2000      	movs	r0, #0
    dc12:	b003      	add	sp, #12
    dc14:	e8bd 8ff0 	ldmia.w	sp!, {r4, r5, r6, r7, r8, r9, sl, fp, pc}
    dc18:	4648      	mov	r0, r9
    dc1a:	4621      	mov	r1, r4
    dc1c:	f7fc fe6c 	bl	a8f8 <__swsetup_r>
    dc20:	2800      	cmp	r0, #0
    dc22:	f040 8146 	bne.w	deb2 <__sfvwrite_r+0x30a>
    dc26:	f8b4 e00c 	ldrh.w	lr, [r4, #12]
    dc2a:	6835      	ldr	r5, [r6, #0]
    dc2c:	f00e 0802 	and.w	r8, lr, #2
    dc30:	fa1f f088 	uxth.w	r0, r8
    dc34:	2800      	cmp	r0, #0
    dc36:	d1ce      	bne.n	dbd6 <__sfvwrite_r+0x2e>
    dc38:	f01e 0b01 	ands.w	fp, lr, #1
    dc3c:	f040 8091 	bne.w	dd62 <__sfvwrite_r+0x1ba>
    dc40:	46d8      	mov	r8, fp
    dc42:	f1b8 0f00 	cmp.w	r8, #0
    dc46:	d058      	beq.n	dcfa <__sfvwrite_r+0x152>
    dc48:	f41e 7f00 	tst.w	lr, #512	; 0x200
    dc4c:	68a7      	ldr	r7, [r4, #8]
    dc4e:	d062      	beq.n	dd16 <__sfvwrite_r+0x16e>
    dc50:	45b8      	cmp	r8, r7
    dc52:	46ba      	mov	sl, r7
    dc54:	f0c0 80c2 	bcc.w	dddc <__sfvwrite_r+0x234>
    dc58:	f41e 6f90 	tst.w	lr, #1152	; 0x480
    dc5c:	f000 80c0 	beq.w	dde0 <__sfvwrite_r+0x238>
    dc60:	6967      	ldr	r7, [r4, #20]
    dc62:	6921      	ldr	r1, [r4, #16]
    dc64:	6823      	ldr	r3, [r4, #0]
    dc66:	eb07 0747 	add.w	r7, r7, r7, lsl #1
    dc6a:	1a5b      	subs	r3, r3, r1
    dc6c:	eb07 77d7 	add.w	r7, r7, r7, lsr #31
    dc70:	1c58      	adds	r0, r3, #1
    dc72:	107f      	asrs	r7, r7, #1
    dc74:	4440      	add	r0, r8
    dc76:	4287      	cmp	r7, r0
    dc78:	463a      	mov	r2, r7
    dc7a:	bf3c      	itt	cc
    dc7c:	4607      	movcc	r7, r0
    dc7e:	463a      	movcc	r2, r7
    dc80:	f41e 6f80 	tst.w	lr, #1024	; 0x400
    dc84:	9300      	str	r3, [sp, #0]
    dc86:	f000 80fb 	beq.w	de80 <__sfvwrite_r+0x2d8>
    dc8a:	4611      	mov	r1, r2
    dc8c:	4648      	mov	r0, r9
    dc8e:	f7fb f87f 	bl	8d90 <_malloc_r>
    dc92:	9b00      	ldr	r3, [sp, #0]
    dc94:	4682      	mov	sl, r0
    dc96:	2800      	cmp	r0, #0
    dc98:	f000 810e 	beq.w	deb8 <__sfvwrite_r+0x310>
    dc9c:	461a      	mov	r2, r3
    dc9e:	6921      	ldr	r1, [r4, #16]
    dca0:	9300      	str	r3, [sp, #0]
    dca2:	f7fe f9d3 	bl	c04c <memcpy>
    dca6:	89a2      	ldrh	r2, [r4, #12]
    dca8:	9b00      	ldr	r3, [sp, #0]
    dcaa:	f422 6290 	bic.w	r2, r2, #1152	; 0x480
    dcae:	f042 0280 	orr.w	r2, r2, #128	; 0x80
    dcb2:	81a2      	strh	r2, [r4, #12]
    dcb4:	eb0a 0003 	add.w	r0, sl, r3
    dcb8:	f8c4 a010 	str.w	sl, [r4, #16]
    dcbc:	1afb      	subs	r3, r7, r3
    dcbe:	6167      	str	r7, [r4, #20]
    dcc0:	46c2      	mov	sl, r8
    dcc2:	4647      	mov	r7, r8
    dcc4:	6020      	str	r0, [r4, #0]
    dcc6:	60a3      	str	r3, [r4, #8]
    dcc8:	4652      	mov	r2, sl
    dcca:	4659      	mov	r1, fp
    dccc:	f000 f90e 	bl	deec <memmove>
    dcd0:	68a0      	ldr	r0, [r4, #8]
    dcd2:	6822      	ldr	r2, [r4, #0]
    dcd4:	1bc0      	subs	r0, r0, r7
    dcd6:	60a0      	str	r0, [r4, #8]
    dcd8:	4640      	mov	r0, r8
    dcda:	eb02 030a 	add.w	r3, r2, sl
    dcde:	6023      	str	r3, [r4, #0]
    dce0:	68b3      	ldr	r3, [r6, #8]
    dce2:	4483      	add	fp, r0
    dce4:	1a1b      	subs	r3, r3, r0
    dce6:	ebc0 0808 	rsb	r8, r0, r8
    dcea:	60b3      	str	r3, [r6, #8]
    dcec:	2b00      	cmp	r3, #0
    dcee:	d08f      	beq.n	dc10 <__sfvwrite_r+0x68>
    dcf0:	f8b4 e00c 	ldrh.w	lr, [r4, #12]
    dcf4:	f1b8 0f00 	cmp.w	r8, #0
    dcf8:	d1a6      	bne.n	dc48 <__sfvwrite_r+0xa0>
    dcfa:	f8d5 b000 	ldr.w	fp, [r5]
    dcfe:	f8d5 8004 	ldr.w	r8, [r5, #4]
    dd02:	3508      	adds	r5, #8
    dd04:	e79d      	b.n	dc42 <__sfvwrite_r+0x9a>
    dd06:	f8d5 b000 	ldr.w	fp, [r5]
    dd0a:	f8d5 8004 	ldr.w	r8, [r5, #4]
    dd0e:	3508      	adds	r5, #8
    dd10:	e766      	b.n	dbe0 <__sfvwrite_r+0x38>
    dd12:	2000      	movs	r0, #0
    dd14:	4770      	bx	lr
    dd16:	6820      	ldr	r0, [r4, #0]
    dd18:	6923      	ldr	r3, [r4, #16]
    dd1a:	4298      	cmp	r0, r3
    dd1c:	d803      	bhi.n	dd26 <__sfvwrite_r+0x17e>
    dd1e:	6962      	ldr	r2, [r4, #20]
    dd20:	4590      	cmp	r8, r2
    dd22:	f080 8085 	bcs.w	de30 <__sfvwrite_r+0x288>
    dd26:	4547      	cmp	r7, r8
    dd28:	bf28      	it	cs
    dd2a:	4647      	movcs	r7, r8
    dd2c:	4659      	mov	r1, fp
    dd2e:	463a      	mov	r2, r7
    dd30:	f000 f8dc 	bl	deec <memmove>
    dd34:	68a3      	ldr	r3, [r4, #8]
    dd36:	6822      	ldr	r2, [r4, #0]
    dd38:	1bdb      	subs	r3, r3, r7
    dd3a:	443a      	add	r2, r7
    dd3c:	60a3      	str	r3, [r4, #8]
    dd3e:	6022      	str	r2, [r4, #0]
    dd40:	2b00      	cmp	r3, #0
    dd42:	d149      	bne.n	ddd8 <__sfvwrite_r+0x230>
    dd44:	4648      	mov	r0, r9
    dd46:	4621      	mov	r1, r4
    dd48:	f7fd ff22 	bl	bb90 <_fflush_r>
    dd4c:	2800      	cmp	r0, #0
    dd4e:	d043      	beq.n	ddd8 <__sfvwrite_r+0x230>
    dd50:	89a3      	ldrh	r3, [r4, #12]
    dd52:	f043 0340 	orr.w	r3, r3, #64	; 0x40
    dd56:	f04f 30ff 	mov.w	r0, #4294967295
    dd5a:	81a3      	strh	r3, [r4, #12]
    dd5c:	b003      	add	sp, #12
    dd5e:	e8bd 8ff0 	ldmia.w	sp!, {r4, r5, r6, r7, r8, r9, sl, fp, pc}
    dd62:	4680      	mov	r8, r0
    dd64:	4683      	mov	fp, r0
    dd66:	4682      	mov	sl, r0
    dd68:	9000      	str	r0, [sp, #0]
    dd6a:	f1ba 0f00 	cmp.w	sl, #0
    dd6e:	d02b      	beq.n	ddc8 <__sfvwrite_r+0x220>
    dd70:	9b00      	ldr	r3, [sp, #0]
    dd72:	2b00      	cmp	r3, #0
    dd74:	d04f      	beq.n	de16 <__sfvwrite_r+0x26e>
    dd76:	45d0      	cmp	r8, sl
    dd78:	4643      	mov	r3, r8
    dd7a:	bf28      	it	cs
    dd7c:	4653      	movcs	r3, sl
    dd7e:	6820      	ldr	r0, [r4, #0]
    dd80:	6921      	ldr	r1, [r4, #16]
    dd82:	461f      	mov	r7, r3
    dd84:	4288      	cmp	r0, r1
    dd86:	f8d4 e008 	ldr.w	lr, [r4, #8]
    dd8a:	6962      	ldr	r2, [r4, #20]
    dd8c:	d903      	bls.n	dd96 <__sfvwrite_r+0x1ee>
    dd8e:	eb0e 0c02 	add.w	ip, lr, r2
    dd92:	4563      	cmp	r3, ip
    dd94:	dc5e      	bgt.n	de54 <__sfvwrite_r+0x2ac>
    dd96:	4293      	cmp	r3, r2
    dd98:	db24      	blt.n	dde4 <__sfvwrite_r+0x23c>
    dd9a:	4613      	mov	r3, r2
    dd9c:	6a67      	ldr	r7, [r4, #36]	; 0x24
    dd9e:	4648      	mov	r0, r9
    dda0:	69e1      	ldr	r1, [r4, #28]
    dda2:	465a      	mov	r2, fp
    dda4:	47b8      	blx	r7
    dda6:	1e07      	subs	r7, r0, #0
    dda8:	ddd2      	ble.n	dd50 <__sfvwrite_r+0x1a8>
    ddaa:	ebb8 0807 	subs.w	r8, r8, r7
    ddae:	d029      	beq.n	de04 <__sfvwrite_r+0x25c>
    ddb0:	68b3      	ldr	r3, [r6, #8]
    ddb2:	44bb      	add	fp, r7
    ddb4:	1bdb      	subs	r3, r3, r7
    ddb6:	ebc7 0a0a 	rsb	sl, r7, sl
    ddba:	60b3      	str	r3, [r6, #8]
    ddbc:	2b00      	cmp	r3, #0
    ddbe:	f43f af27 	beq.w	dc10 <__sfvwrite_r+0x68>
    ddc2:	f1ba 0f00 	cmp.w	sl, #0
    ddc6:	d1d3      	bne.n	dd70 <__sfvwrite_r+0x1c8>
    ddc8:	2300      	movs	r3, #0
    ddca:	f8d5 b000 	ldr.w	fp, [r5]
    ddce:	f8d5 a004 	ldr.w	sl, [r5, #4]
    ddd2:	9300      	str	r3, [sp, #0]
    ddd4:	3508      	adds	r5, #8
    ddd6:	e7c8      	b.n	dd6a <__sfvwrite_r+0x1c2>
    ddd8:	4638      	mov	r0, r7
    ddda:	e781      	b.n	dce0 <__sfvwrite_r+0x138>
    dddc:	4647      	mov	r7, r8
    ddde:	46c2      	mov	sl, r8
    dde0:	6820      	ldr	r0, [r4, #0]
    dde2:	e771      	b.n	dcc8 <__sfvwrite_r+0x120>
    dde4:	461a      	mov	r2, r3
    dde6:	4659      	mov	r1, fp
    dde8:	9301      	str	r3, [sp, #4]
    ddea:	f000 f87f 	bl	deec <memmove>
    ddee:	68a2      	ldr	r2, [r4, #8]
    ddf0:	6821      	ldr	r1, [r4, #0]
    ddf2:	9b01      	ldr	r3, [sp, #4]
    ddf4:	ebb8 0807 	subs.w	r8, r8, r7
    ddf8:	eba2 0203 	sub.w	r2, r2, r3
    ddfc:	440b      	add	r3, r1
    ddfe:	60a2      	str	r2, [r4, #8]
    de00:	6023      	str	r3, [r4, #0]
    de02:	d1d5      	bne.n	ddb0 <__sfvwrite_r+0x208>
    de04:	4648      	mov	r0, r9
    de06:	4621      	mov	r1, r4
    de08:	f7fd fec2 	bl	bb90 <_fflush_r>
    de0c:	2800      	cmp	r0, #0
    de0e:	d19f      	bne.n	dd50 <__sfvwrite_r+0x1a8>
    de10:	f8cd 8000 	str.w	r8, [sp]
    de14:	e7cc      	b.n	ddb0 <__sfvwrite_r+0x208>
    de16:	4658      	mov	r0, fp
    de18:	210a      	movs	r1, #10
    de1a:	4652      	mov	r2, sl
    de1c:	f7fe f8cc 	bl	bfb8 <memchr>
    de20:	2800      	cmp	r0, #0
    de22:	d041      	beq.n	dea8 <__sfvwrite_r+0x300>
    de24:	3001      	adds	r0, #1
    de26:	2301      	movs	r3, #1
    de28:	ebcb 0800 	rsb	r8, fp, r0
    de2c:	9300      	str	r3, [sp, #0]
    de2e:	e7a2      	b.n	dd76 <__sfvwrite_r+0x1ce>
    de30:	f06f 4300 	mvn.w	r3, #2147483648	; 0x80000000
    de34:	4543      	cmp	r3, r8
    de36:	bf28      	it	cs
    de38:	4643      	movcs	r3, r8
    de3a:	fb93 f3f2 	sdiv	r3, r3, r2
    de3e:	6a67      	ldr	r7, [r4, #36]	; 0x24
    de40:	fb03 f302 	mul.w	r3, r3, r2
    de44:	4648      	mov	r0, r9
    de46:	69e1      	ldr	r1, [r4, #28]
    de48:	465a      	mov	r2, fp
    de4a:	47b8      	blx	r7
    de4c:	2800      	cmp	r0, #0
    de4e:	f73f af47 	bgt.w	dce0 <__sfvwrite_r+0x138>
    de52:	e77d      	b.n	dd50 <__sfvwrite_r+0x1a8>
    de54:	4662      	mov	r2, ip
    de56:	4659      	mov	r1, fp
    de58:	f8cd c004 	str.w	ip, [sp, #4]
    de5c:	f000 f846 	bl	deec <memmove>
    de60:	6823      	ldr	r3, [r4, #0]
    de62:	f8dd c004 	ldr.w	ip, [sp, #4]
    de66:	4648      	mov	r0, r9
    de68:	4463      	add	r3, ip
    de6a:	6023      	str	r3, [r4, #0]
    de6c:	4621      	mov	r1, r4
    de6e:	f7fd fe8f 	bl	bb90 <_fflush_r>
    de72:	f8dd c004 	ldr.w	ip, [sp, #4]
    de76:	2800      	cmp	r0, #0
    de78:	f47f af6a 	bne.w	dd50 <__sfvwrite_r+0x1a8>
    de7c:	4667      	mov	r7, ip
    de7e:	e794      	b.n	ddaa <__sfvwrite_r+0x202>
    de80:	4648      	mov	r0, r9
    de82:	f000 f897 	bl	dfb4 <_realloc_r>
    de86:	9b00      	ldr	r3, [sp, #0]
    de88:	4682      	mov	sl, r0
    de8a:	2800      	cmp	r0, #0
    de8c:	f47f af12 	bne.w	dcb4 <__sfvwrite_r+0x10c>
    de90:	4648      	mov	r0, r9
    de92:	6921      	ldr	r1, [r4, #16]
    de94:	f7fd fef2 	bl	bc7c <_free_r>
    de98:	89a3      	ldrh	r3, [r4, #12]
    de9a:	220c      	movs	r2, #12
    de9c:	f023 0380 	bic.w	r3, r3, #128	; 0x80
    dea0:	b29b      	uxth	r3, r3
    dea2:	f8c9 2000 	str.w	r2, [r9]
    dea6:	e754      	b.n	dd52 <__sfvwrite_r+0x1aa>
    dea8:	2301      	movs	r3, #1
    deaa:	f10a 0801 	add.w	r8, sl, #1
    deae:	9300      	str	r3, [sp, #0]
    deb0:	e761      	b.n	dd76 <__sfvwrite_r+0x1ce>
    deb2:	f04f 30ff 	mov.w	r0, #4294967295
    deb6:	e6ac      	b.n	dc12 <__sfvwrite_r+0x6a>
    deb8:	230c      	movs	r3, #12
    deba:	f8c9 3000 	str.w	r3, [r9]
    debe:	89a3      	ldrh	r3, [r4, #12]
    dec0:	e747      	b.n	dd52 <__sfvwrite_r+0x1aa>
    dec2:	bf00      	nop
    dec4:	7ffffc00 	.word	0x7ffffc00

0000dec8 <_isatty_r>:
    dec8:	b538      	push	{r3, r4, r5, lr}
    deca:	4c07      	ldr	r4, [pc, #28]	; (dee8 <_isatty_r+0x20>)
    decc:	2300      	movs	r3, #0
    dece:	4605      	mov	r5, r0
    ded0:	4608      	mov	r0, r1
    ded2:	6023      	str	r3, [r4, #0]
    ded4:	f7fa fd62 	bl	899c <_isatty>
    ded8:	1c43      	adds	r3, r0, #1
    deda:	d000      	beq.n	dede <_isatty_r+0x16>
    dedc:	bd38      	pop	{r3, r4, r5, pc}
    dede:	6823      	ldr	r3, [r4, #0]
    dee0:	2b00      	cmp	r3, #0
    dee2:	d0fb      	beq.n	dedc <_isatty_r+0x14>
    dee4:	602b      	str	r3, [r5, #0]
    dee6:	bd38      	pop	{r3, r4, r5, pc}
    dee8:	00018124 	.word	0x00018124

0000deec <memmove>:
    deec:	4288      	cmp	r0, r1
    deee:	b5f0      	push	{r4, r5, r6, r7, lr}
    def0:	d90d      	bls.n	df0e <memmove+0x22>
    def2:	188b      	adds	r3, r1, r2
    def4:	4298      	cmp	r0, r3
    def6:	d20a      	bcs.n	df0e <memmove+0x22>
    def8:	1881      	adds	r1, r0, r2
    defa:	2a00      	cmp	r2, #0
    defc:	d054      	beq.n	dfa8 <memmove+0xbc>
    defe:	1a9a      	subs	r2, r3, r2
    df00:	f813 4d01 	ldrb.w	r4, [r3, #-1]!
    df04:	4293      	cmp	r3, r2
    df06:	f801 4d01 	strb.w	r4, [r1, #-1]!
    df0a:	d1f9      	bne.n	df00 <memmove+0x14>
    df0c:	bdf0      	pop	{r4, r5, r6, r7, pc}
    df0e:	2a0f      	cmp	r2, #15
    df10:	d948      	bls.n	dfa4 <memmove+0xb8>
    df12:	ea40 0301 	orr.w	r3, r0, r1
    df16:	079b      	lsls	r3, r3, #30
    df18:	d147      	bne.n	dfaa <memmove+0xbe>
    df1a:	4615      	mov	r5, r2
    df1c:	f100 0410 	add.w	r4, r0, #16
    df20:	f101 0310 	add.w	r3, r1, #16
    df24:	f853 6c10 	ldr.w	r6, [r3, #-16]
    df28:	3d10      	subs	r5, #16
    df2a:	f844 6c10 	str.w	r6, [r4, #-16]
    df2e:	f853 6c0c 	ldr.w	r6, [r3, #-12]
    df32:	2d0f      	cmp	r5, #15
    df34:	f844 6c0c 	str.w	r6, [r4, #-12]
    df38:	f853 6c08 	ldr.w	r6, [r3, #-8]
    df3c:	f104 0410 	add.w	r4, r4, #16
    df40:	f844 6c18 	str.w	r6, [r4, #-24]
    df44:	f853 6c04 	ldr.w	r6, [r3, #-4]
    df48:	f103 0310 	add.w	r3, r3, #16
    df4c:	f844 6c14 	str.w	r6, [r4, #-20]
    df50:	d8e8      	bhi.n	df24 <memmove+0x38>
    df52:	f1a2 0310 	sub.w	r3, r2, #16
    df56:	f023 030f 	bic.w	r3, r3, #15
    df5a:	f002 0e0f 	and.w	lr, r2, #15
    df5e:	3310      	adds	r3, #16
    df60:	f1be 0f03 	cmp.w	lr, #3
    df64:	4419      	add	r1, r3
    df66:	4403      	add	r3, r0
    df68:	d921      	bls.n	dfae <memmove+0xc2>
    df6a:	460e      	mov	r6, r1
    df6c:	4674      	mov	r4, lr
    df6e:	1f1d      	subs	r5, r3, #4
    df70:	f856 7b04 	ldr.w	r7, [r6], #4
    df74:	3c04      	subs	r4, #4
    df76:	2c03      	cmp	r4, #3
    df78:	f845 7f04 	str.w	r7, [r5, #4]!
    df7c:	d8f8      	bhi.n	df70 <memmove+0x84>
    df7e:	f1ae 0404 	sub.w	r4, lr, #4
    df82:	f024 0403 	bic.w	r4, r4, #3
    df86:	3404      	adds	r4, #4
    df88:	4423      	add	r3, r4
    df8a:	4421      	add	r1, r4
    df8c:	f002 0203 	and.w	r2, r2, #3
    df90:	b152      	cbz	r2, dfa8 <memmove+0xbc>
    df92:	3b01      	subs	r3, #1
    df94:	440a      	add	r2, r1
    df96:	f811 4b01 	ldrb.w	r4, [r1], #1
    df9a:	4291      	cmp	r1, r2
    df9c:	f803 4f01 	strb.w	r4, [r3, #1]!
    dfa0:	d1f9      	bne.n	df96 <memmove+0xaa>
    dfa2:	bdf0      	pop	{r4, r5, r6, r7, pc}
    dfa4:	4603      	mov	r3, r0
    dfa6:	e7f3      	b.n	df90 <memmove+0xa4>
    dfa8:	bdf0      	pop	{r4, r5, r6, r7, pc}
    dfaa:	4603      	mov	r3, r0
    dfac:	e7f1      	b.n	df92 <memmove+0xa6>
    dfae:	4672      	mov	r2, lr
    dfb0:	e7ee      	b.n	df90 <memmove+0xa4>
    dfb2:	bf00      	nop

0000dfb4 <_realloc_r>:
    dfb4:	e92d 4ff0 	stmdb	sp!, {r4, r5, r6, r7, r8, r9, sl, fp, lr}
    dfb8:	4617      	mov	r7, r2
    dfba:	b083      	sub	sp, #12
    dfbc:	460d      	mov	r5, r1
    dfbe:	2900      	cmp	r1, #0
    dfc0:	f000 80e2 	beq.w	e188 <_realloc_r+0x1d4>
    dfc4:	4681      	mov	r9, r0
    dfc6:	f107 040b 	add.w	r4, r7, #11
    dfca:	f7fb f967 	bl	929c <__malloc_lock>
    dfce:	f855 3c04 	ldr.w	r3, [r5, #-4]
    dfd2:	2c16      	cmp	r4, #22
    dfd4:	f023 0603 	bic.w	r6, r3, #3
    dfd8:	f1a5 0808 	sub.w	r8, r5, #8
    dfdc:	d84b      	bhi.n	e076 <_realloc_r+0xc2>
    dfde:	2210      	movs	r2, #16
    dfe0:	4614      	mov	r4, r2
    dfe2:	42a7      	cmp	r7, r4
    dfe4:	d84c      	bhi.n	e080 <_realloc_r+0xcc>
    dfe6:	4296      	cmp	r6, r2
    dfe8:	da51      	bge.n	e08e <_realloc_r+0xda>
    dfea:	f8df b3a4 	ldr.w	fp, [pc, #932]	; e390 <_realloc_r+0x3dc>
    dfee:	eb08 0106 	add.w	r1, r8, r6
    dff2:	f8db 0008 	ldr.w	r0, [fp, #8]
    dff6:	4288      	cmp	r0, r1
    dff8:	f000 80d3 	beq.w	e1a2 <_realloc_r+0x1ee>
    dffc:	6848      	ldr	r0, [r1, #4]
    dffe:	f020 0e01 	bic.w	lr, r0, #1
    e002:	448e      	add	lr, r1
    e004:	f8de e004 	ldr.w	lr, [lr, #4]
    e008:	f01e 0f01 	tst.w	lr, #1
    e00c:	d154      	bne.n	e0b8 <_realloc_r+0x104>
    e00e:	f020 0003 	bic.w	r0, r0, #3
    e012:	4430      	add	r0, r6
    e014:	4290      	cmp	r0, r2
    e016:	f280 80bd 	bge.w	e194 <_realloc_r+0x1e0>
    e01a:	07db      	lsls	r3, r3, #31
    e01c:	f100 8090 	bmi.w	e140 <_realloc_r+0x18c>
    e020:	f855 3c08 	ldr.w	r3, [r5, #-8]
    e024:	ebc3 0a08 	rsb	sl, r3, r8
    e028:	f8da 3004 	ldr.w	r3, [sl, #4]
    e02c:	f023 0303 	bic.w	r3, r3, #3
    e030:	eb00 0e03 	add.w	lr, r0, r3
    e034:	4596      	cmp	lr, r2
    e036:	db49      	blt.n	e0cc <_realloc_r+0x118>
    e038:	4657      	mov	r7, sl
    e03a:	68cb      	ldr	r3, [r1, #12]
    e03c:	6889      	ldr	r1, [r1, #8]
    e03e:	1f32      	subs	r2, r6, #4
    e040:	60cb      	str	r3, [r1, #12]
    e042:	6099      	str	r1, [r3, #8]
    e044:	f857 1f08 	ldr.w	r1, [r7, #8]!
    e048:	f8da 300c 	ldr.w	r3, [sl, #12]
    e04c:	2a24      	cmp	r2, #36	; 0x24
    e04e:	60cb      	str	r3, [r1, #12]
    e050:	6099      	str	r1, [r3, #8]
    e052:	f200 8133 	bhi.w	e2bc <_realloc_r+0x308>
    e056:	2a13      	cmp	r2, #19
    e058:	f240 80fa 	bls.w	e250 <_realloc_r+0x29c>
    e05c:	682b      	ldr	r3, [r5, #0]
    e05e:	2a1b      	cmp	r2, #27
    e060:	f8ca 3008 	str.w	r3, [sl, #8]
    e064:	686b      	ldr	r3, [r5, #4]
    e066:	f8ca 300c 	str.w	r3, [sl, #12]
    e06a:	f200 813b 	bhi.w	e2e4 <_realloc_r+0x330>
    e06e:	3508      	adds	r5, #8
    e070:	f10a 0310 	add.w	r3, sl, #16
    e074:	e0ed      	b.n	e252 <_realloc_r+0x29e>
    e076:	f024 0407 	bic.w	r4, r4, #7
    e07a:	2c00      	cmp	r4, #0
    e07c:	4622      	mov	r2, r4
    e07e:	dab0      	bge.n	dfe2 <_realloc_r+0x2e>
    e080:	230c      	movs	r3, #12
    e082:	2000      	movs	r0, #0
    e084:	f8c9 3000 	str.w	r3, [r9]
    e088:	b003      	add	sp, #12
    e08a:	e8bd 8ff0 	ldmia.w	sp!, {r4, r5, r6, r7, r8, r9, sl, fp, pc}
    e08e:	462f      	mov	r7, r5
    e090:	1b32      	subs	r2, r6, r4
    e092:	2a0f      	cmp	r2, #15
    e094:	f003 0301 	and.w	r3, r3, #1
    e098:	d840      	bhi.n	e11c <_realloc_r+0x168>
    e09a:	4333      	orrs	r3, r6
    e09c:	f8c8 3004 	str.w	r3, [r8, #4]
    e0a0:	4446      	add	r6, r8
    e0a2:	6873      	ldr	r3, [r6, #4]
    e0a4:	f043 0301 	orr.w	r3, r3, #1
    e0a8:	6073      	str	r3, [r6, #4]
    e0aa:	4648      	mov	r0, r9
    e0ac:	f7fb f8f8 	bl	92a0 <__malloc_unlock>
    e0b0:	4638      	mov	r0, r7
    e0b2:	b003      	add	sp, #12
    e0b4:	e8bd 8ff0 	ldmia.w	sp!, {r4, r5, r6, r7, r8, r9, sl, fp, pc}
    e0b8:	07d9      	lsls	r1, r3, #31
    e0ba:	d441      	bmi.n	e140 <_realloc_r+0x18c>
    e0bc:	f855 3c08 	ldr.w	r3, [r5, #-8]
    e0c0:	ebc3 0a08 	rsb	sl, r3, r8
    e0c4:	f8da 3004 	ldr.w	r3, [sl, #4]
    e0c8:	f023 0303 	bic.w	r3, r3, #3
    e0cc:	4433      	add	r3, r6
    e0ce:	4293      	cmp	r3, r2
    e0d0:	db36      	blt.n	e140 <_realloc_r+0x18c>
    e0d2:	4657      	mov	r7, sl
    e0d4:	f8da 100c 	ldr.w	r1, [sl, #12]
    e0d8:	f857 0f08 	ldr.w	r0, [r7, #8]!
    e0dc:	1f32      	subs	r2, r6, #4
    e0de:	2a24      	cmp	r2, #36	; 0x24
    e0e0:	60c1      	str	r1, [r0, #12]
    e0e2:	6088      	str	r0, [r1, #8]
    e0e4:	f200 80f5 	bhi.w	e2d2 <_realloc_r+0x31e>
    e0e8:	2a13      	cmp	r2, #19
    e0ea:	f240 80f0 	bls.w	e2ce <_realloc_r+0x31a>
    e0ee:	6829      	ldr	r1, [r5, #0]
    e0f0:	2a1b      	cmp	r2, #27
    e0f2:	f8ca 1008 	str.w	r1, [sl, #8]
    e0f6:	6869      	ldr	r1, [r5, #4]
    e0f8:	f8ca 100c 	str.w	r1, [sl, #12]
    e0fc:	f200 8107 	bhi.w	e30e <_realloc_r+0x35a>
    e100:	3508      	adds	r5, #8
    e102:	f10a 0210 	add.w	r2, sl, #16
    e106:	6829      	ldr	r1, [r5, #0]
    e108:	461e      	mov	r6, r3
    e10a:	6011      	str	r1, [r2, #0]
    e10c:	6869      	ldr	r1, [r5, #4]
    e10e:	46d0      	mov	r8, sl
    e110:	6051      	str	r1, [r2, #4]
    e112:	68ab      	ldr	r3, [r5, #8]
    e114:	6093      	str	r3, [r2, #8]
    e116:	f8da 3004 	ldr.w	r3, [sl, #4]
    e11a:	e7b9      	b.n	e090 <_realloc_r+0xdc>
    e11c:	eb08 0104 	add.w	r1, r8, r4
    e120:	4323      	orrs	r3, r4
    e122:	f042 0001 	orr.w	r0, r2, #1
    e126:	f8c8 3004 	str.w	r3, [r8, #4]
    e12a:	440a      	add	r2, r1
    e12c:	6048      	str	r0, [r1, #4]
    e12e:	6853      	ldr	r3, [r2, #4]
    e130:	3108      	adds	r1, #8
    e132:	f043 0301 	orr.w	r3, r3, #1
    e136:	6053      	str	r3, [r2, #4]
    e138:	4648      	mov	r0, r9
    e13a:	f7fd fd9f 	bl	bc7c <_free_r>
    e13e:	e7b4      	b.n	e0aa <_realloc_r+0xf6>
    e140:	4639      	mov	r1, r7
    e142:	4648      	mov	r0, r9
    e144:	f7fa fe24 	bl	8d90 <_malloc_r>
    e148:	4607      	mov	r7, r0
    e14a:	2800      	cmp	r0, #0
    e14c:	d0ad      	beq.n	e0aa <_realloc_r+0xf6>
    e14e:	f855 3c04 	ldr.w	r3, [r5, #-4]
    e152:	f1a0 0108 	sub.w	r1, r0, #8
    e156:	f023 0201 	bic.w	r2, r3, #1
    e15a:	4442      	add	r2, r8
    e15c:	4291      	cmp	r1, r2
    e15e:	f000 80a6 	beq.w	e2ae <_realloc_r+0x2fa>
    e162:	1f32      	subs	r2, r6, #4
    e164:	2a24      	cmp	r2, #36	; 0x24
    e166:	f200 8093 	bhi.w	e290 <_realloc_r+0x2dc>
    e16a:	2a13      	cmp	r2, #19
    e16c:	d865      	bhi.n	e23a <_realloc_r+0x286>
    e16e:	4603      	mov	r3, r0
    e170:	462a      	mov	r2, r5
    e172:	6811      	ldr	r1, [r2, #0]
    e174:	6019      	str	r1, [r3, #0]
    e176:	6851      	ldr	r1, [r2, #4]
    e178:	6059      	str	r1, [r3, #4]
    e17a:	6892      	ldr	r2, [r2, #8]
    e17c:	609a      	str	r2, [r3, #8]
    e17e:	4629      	mov	r1, r5
    e180:	4648      	mov	r0, r9
    e182:	f7fd fd7b 	bl	bc7c <_free_r>
    e186:	e790      	b.n	e0aa <_realloc_r+0xf6>
    e188:	4611      	mov	r1, r2
    e18a:	b003      	add	sp, #12
    e18c:	e8bd 4ff0 	ldmia.w	sp!, {r4, r5, r6, r7, r8, r9, sl, fp, lr}
    e190:	f7fa bdfe 	b.w	8d90 <_malloc_r>
    e194:	68ca      	ldr	r2, [r1, #12]
    e196:	6889      	ldr	r1, [r1, #8]
    e198:	462f      	mov	r7, r5
    e19a:	60ca      	str	r2, [r1, #12]
    e19c:	4606      	mov	r6, r0
    e19e:	6091      	str	r1, [r2, #8]
    e1a0:	e776      	b.n	e090 <_realloc_r+0xdc>
    e1a2:	6841      	ldr	r1, [r0, #4]
    e1a4:	f104 0010 	add.w	r0, r4, #16
    e1a8:	f021 0103 	bic.w	r1, r1, #3
    e1ac:	4431      	add	r1, r6
    e1ae:	4281      	cmp	r1, r0
    e1b0:	da5a      	bge.n	e268 <_realloc_r+0x2b4>
    e1b2:	07db      	lsls	r3, r3, #31
    e1b4:	d4c4      	bmi.n	e140 <_realloc_r+0x18c>
    e1b6:	f855 3c08 	ldr.w	r3, [r5, #-8]
    e1ba:	ebc3 0a08 	rsb	sl, r3, r8
    e1be:	f8da 3004 	ldr.w	r3, [sl, #4]
    e1c2:	f023 0303 	bic.w	r3, r3, #3
    e1c6:	eb01 0c03 	add.w	ip, r1, r3
    e1ca:	4560      	cmp	r0, ip
    e1cc:	f73f af7e 	bgt.w	e0cc <_realloc_r+0x118>
    e1d0:	4657      	mov	r7, sl
    e1d2:	f8da 300c 	ldr.w	r3, [sl, #12]
    e1d6:	f857 1f08 	ldr.w	r1, [r7, #8]!
    e1da:	1f32      	subs	r2, r6, #4
    e1dc:	2a24      	cmp	r2, #36	; 0x24
    e1de:	60cb      	str	r3, [r1, #12]
    e1e0:	6099      	str	r1, [r3, #8]
    e1e2:	f200 80b6 	bhi.w	e352 <_realloc_r+0x39e>
    e1e6:	2a13      	cmp	r2, #19
    e1e8:	f240 80a7 	bls.w	e33a <_realloc_r+0x386>
    e1ec:	682b      	ldr	r3, [r5, #0]
    e1ee:	2a1b      	cmp	r2, #27
    e1f0:	f8ca 3008 	str.w	r3, [sl, #8]
    e1f4:	686b      	ldr	r3, [r5, #4]
    e1f6:	f8ca 300c 	str.w	r3, [sl, #12]
    e1fa:	f200 80b3 	bhi.w	e364 <_realloc_r+0x3b0>
    e1fe:	3508      	adds	r5, #8
    e200:	f10a 0310 	add.w	r3, sl, #16
    e204:	682a      	ldr	r2, [r5, #0]
    e206:	601a      	str	r2, [r3, #0]
    e208:	686a      	ldr	r2, [r5, #4]
    e20a:	605a      	str	r2, [r3, #4]
    e20c:	68aa      	ldr	r2, [r5, #8]
    e20e:	609a      	str	r2, [r3, #8]
    e210:	ebc4 030c 	rsb	r3, r4, ip
    e214:	eb0a 0204 	add.w	r2, sl, r4
    e218:	f043 0301 	orr.w	r3, r3, #1
    e21c:	f8cb 2008 	str.w	r2, [fp, #8]
    e220:	6053      	str	r3, [r2, #4]
    e222:	f8da 3004 	ldr.w	r3, [sl, #4]
    e226:	4648      	mov	r0, r9
    e228:	f003 0301 	and.w	r3, r3, #1
    e22c:	431c      	orrs	r4, r3
    e22e:	f8ca 4004 	str.w	r4, [sl, #4]
    e232:	f7fb f835 	bl	92a0 <__malloc_unlock>
    e236:	4638      	mov	r0, r7
    e238:	e73b      	b.n	e0b2 <_realloc_r+0xfe>
    e23a:	682b      	ldr	r3, [r5, #0]
    e23c:	2a1b      	cmp	r2, #27
    e23e:	6003      	str	r3, [r0, #0]
    e240:	686b      	ldr	r3, [r5, #4]
    e242:	6043      	str	r3, [r0, #4]
    e244:	d828      	bhi.n	e298 <_realloc_r+0x2e4>
    e246:	f100 0308 	add.w	r3, r0, #8
    e24a:	f105 0208 	add.w	r2, r5, #8
    e24e:	e790      	b.n	e172 <_realloc_r+0x1be>
    e250:	463b      	mov	r3, r7
    e252:	682a      	ldr	r2, [r5, #0]
    e254:	4676      	mov	r6, lr
    e256:	601a      	str	r2, [r3, #0]
    e258:	686a      	ldr	r2, [r5, #4]
    e25a:	46d0      	mov	r8, sl
    e25c:	605a      	str	r2, [r3, #4]
    e25e:	68aa      	ldr	r2, [r5, #8]
    e260:	609a      	str	r2, [r3, #8]
    e262:	f8da 3004 	ldr.w	r3, [sl, #4]
    e266:	e713      	b.n	e090 <_realloc_r+0xdc>
    e268:	1b0b      	subs	r3, r1, r4
    e26a:	eb08 0204 	add.w	r2, r8, r4
    e26e:	f043 0301 	orr.w	r3, r3, #1
    e272:	f8cb 2008 	str.w	r2, [fp, #8]
    e276:	6053      	str	r3, [r2, #4]
    e278:	f855 3c04 	ldr.w	r3, [r5, #-4]
    e27c:	4648      	mov	r0, r9
    e27e:	f003 0301 	and.w	r3, r3, #1
    e282:	431c      	orrs	r4, r3
    e284:	f845 4c04 	str.w	r4, [r5, #-4]
    e288:	f7fb f80a 	bl	92a0 <__malloc_unlock>
    e28c:	4628      	mov	r0, r5
    e28e:	e710      	b.n	e0b2 <_realloc_r+0xfe>
    e290:	4629      	mov	r1, r5
    e292:	f7ff fe2b 	bl	deec <memmove>
    e296:	e772      	b.n	e17e <_realloc_r+0x1ca>
    e298:	68ab      	ldr	r3, [r5, #8]
    e29a:	2a24      	cmp	r2, #36	; 0x24
    e29c:	6083      	str	r3, [r0, #8]
    e29e:	68eb      	ldr	r3, [r5, #12]
    e2a0:	60c3      	str	r3, [r0, #12]
    e2a2:	d02b      	beq.n	e2fc <_realloc_r+0x348>
    e2a4:	f100 0310 	add.w	r3, r0, #16
    e2a8:	f105 0210 	add.w	r2, r5, #16
    e2ac:	e761      	b.n	e172 <_realloc_r+0x1be>
    e2ae:	f850 2c04 	ldr.w	r2, [r0, #-4]
    e2b2:	462f      	mov	r7, r5
    e2b4:	f022 0203 	bic.w	r2, r2, #3
    e2b8:	4416      	add	r6, r2
    e2ba:	e6e9      	b.n	e090 <_realloc_r+0xdc>
    e2bc:	4629      	mov	r1, r5
    e2be:	4638      	mov	r0, r7
    e2c0:	4676      	mov	r6, lr
    e2c2:	46d0      	mov	r8, sl
    e2c4:	f7ff fe12 	bl	deec <memmove>
    e2c8:	f8da 3004 	ldr.w	r3, [sl, #4]
    e2cc:	e6e0      	b.n	e090 <_realloc_r+0xdc>
    e2ce:	463a      	mov	r2, r7
    e2d0:	e719      	b.n	e106 <_realloc_r+0x152>
    e2d2:	4629      	mov	r1, r5
    e2d4:	4638      	mov	r0, r7
    e2d6:	461e      	mov	r6, r3
    e2d8:	46d0      	mov	r8, sl
    e2da:	f7ff fe07 	bl	deec <memmove>
    e2de:	f8da 3004 	ldr.w	r3, [sl, #4]
    e2e2:	e6d5      	b.n	e090 <_realloc_r+0xdc>
    e2e4:	68ab      	ldr	r3, [r5, #8]
    e2e6:	2a24      	cmp	r2, #36	; 0x24
    e2e8:	f8ca 3010 	str.w	r3, [sl, #16]
    e2ec:	68eb      	ldr	r3, [r5, #12]
    e2ee:	f8ca 3014 	str.w	r3, [sl, #20]
    e2f2:	d018      	beq.n	e326 <_realloc_r+0x372>
    e2f4:	3510      	adds	r5, #16
    e2f6:	f10a 0318 	add.w	r3, sl, #24
    e2fa:	e7aa      	b.n	e252 <_realloc_r+0x29e>
    e2fc:	692a      	ldr	r2, [r5, #16]
    e2fe:	f100 0318 	add.w	r3, r0, #24
    e302:	6102      	str	r2, [r0, #16]
    e304:	6969      	ldr	r1, [r5, #20]
    e306:	f105 0218 	add.w	r2, r5, #24
    e30a:	6141      	str	r1, [r0, #20]
    e30c:	e731      	b.n	e172 <_realloc_r+0x1be>
    e30e:	68a9      	ldr	r1, [r5, #8]
    e310:	2a24      	cmp	r2, #36	; 0x24
    e312:	f8ca 1010 	str.w	r1, [sl, #16]
    e316:	68e9      	ldr	r1, [r5, #12]
    e318:	f8ca 1014 	str.w	r1, [sl, #20]
    e31c:	d00f      	beq.n	e33e <_realloc_r+0x38a>
    e31e:	3510      	adds	r5, #16
    e320:	f10a 0218 	add.w	r2, sl, #24
    e324:	e6ef      	b.n	e106 <_realloc_r+0x152>
    e326:	692a      	ldr	r2, [r5, #16]
    e328:	f10a 0320 	add.w	r3, sl, #32
    e32c:	f8ca 2018 	str.w	r2, [sl, #24]
    e330:	696a      	ldr	r2, [r5, #20]
    e332:	3518      	adds	r5, #24
    e334:	f8ca 201c 	str.w	r2, [sl, #28]
    e338:	e78b      	b.n	e252 <_realloc_r+0x29e>
    e33a:	463b      	mov	r3, r7
    e33c:	e762      	b.n	e204 <_realloc_r+0x250>
    e33e:	6929      	ldr	r1, [r5, #16]
    e340:	f10a 0220 	add.w	r2, sl, #32
    e344:	f8ca 1018 	str.w	r1, [sl, #24]
    e348:	6969      	ldr	r1, [r5, #20]
    e34a:	3518      	adds	r5, #24
    e34c:	f8ca 101c 	str.w	r1, [sl, #28]
    e350:	e6d9      	b.n	e106 <_realloc_r+0x152>
    e352:	4629      	mov	r1, r5
    e354:	4638      	mov	r0, r7
    e356:	f8cd c004 	str.w	ip, [sp, #4]
    e35a:	f7ff fdc7 	bl	deec <memmove>
    e35e:	f8dd c004 	ldr.w	ip, [sp, #4]
    e362:	e755      	b.n	e210 <_realloc_r+0x25c>
    e364:	68ab      	ldr	r3, [r5, #8]
    e366:	2a24      	cmp	r2, #36	; 0x24
    e368:	f8ca 3010 	str.w	r3, [sl, #16]
    e36c:	68eb      	ldr	r3, [r5, #12]
    e36e:	f8ca 3014 	str.w	r3, [sl, #20]
    e372:	d003      	beq.n	e37c <_realloc_r+0x3c8>
    e374:	3510      	adds	r5, #16
    e376:	f10a 0318 	add.w	r3, sl, #24
    e37a:	e743      	b.n	e204 <_realloc_r+0x250>
    e37c:	692a      	ldr	r2, [r5, #16]
    e37e:	f10a 0320 	add.w	r3, sl, #32
    e382:	f8ca 2018 	str.w	r2, [sl, #24]
    e386:	696a      	ldr	r2, [r5, #20]
    e388:	3518      	adds	r5, #24
    e38a:	f8ca 201c 	str.w	r2, [sl, #28]
    e38e:	e739      	b.n	e204 <_realloc_r+0x250>
    e390:	00017b88 	.word	0x00017b88

0000e394 <__swbuf_r>:
    e394:	b570      	push	{r4, r5, r6, lr}
    e396:	460d      	mov	r5, r1
    e398:	4614      	mov	r4, r2
    e39a:	4606      	mov	r6, r0
    e39c:	b110      	cbz	r0, e3a4 <__swbuf_r+0x10>
    e39e:	6b83      	ldr	r3, [r0, #56]	; 0x38
    e3a0:	2b00      	cmp	r3, #0
    e3a2:	d048      	beq.n	e436 <__swbuf_r+0xa2>
    e3a4:	89a2      	ldrh	r2, [r4, #12]
    e3a6:	69a3      	ldr	r3, [r4, #24]
    e3a8:	b291      	uxth	r1, r2
    e3aa:	0708      	lsls	r0, r1, #28
    e3ac:	60a3      	str	r3, [r4, #8]
    e3ae:	d538      	bpl.n	e422 <__swbuf_r+0x8e>
    e3b0:	6923      	ldr	r3, [r4, #16]
    e3b2:	2b00      	cmp	r3, #0
    e3b4:	d035      	beq.n	e422 <__swbuf_r+0x8e>
    e3b6:	0489      	lsls	r1, r1, #18
    e3b8:	b2ed      	uxtb	r5, r5
    e3ba:	d515      	bpl.n	e3e8 <__swbuf_r+0x54>
    e3bc:	6822      	ldr	r2, [r4, #0]
    e3be:	6961      	ldr	r1, [r4, #20]
    e3c0:	1ad3      	subs	r3, r2, r3
    e3c2:	428b      	cmp	r3, r1
    e3c4:	da1c      	bge.n	e400 <__swbuf_r+0x6c>
    e3c6:	3301      	adds	r3, #1
    e3c8:	68a1      	ldr	r1, [r4, #8]
    e3ca:	1c50      	adds	r0, r2, #1
    e3cc:	3901      	subs	r1, #1
    e3ce:	60a1      	str	r1, [r4, #8]
    e3d0:	6020      	str	r0, [r4, #0]
    e3d2:	7015      	strb	r5, [r2, #0]
    e3d4:	6962      	ldr	r2, [r4, #20]
    e3d6:	429a      	cmp	r2, r3
    e3d8:	d01a      	beq.n	e410 <__swbuf_r+0x7c>
    e3da:	89a3      	ldrh	r3, [r4, #12]
    e3dc:	07db      	lsls	r3, r3, #31
    e3de:	d501      	bpl.n	e3e4 <__swbuf_r+0x50>
    e3e0:	2d0a      	cmp	r5, #10
    e3e2:	d015      	beq.n	e410 <__swbuf_r+0x7c>
    e3e4:	4628      	mov	r0, r5
    e3e6:	bd70      	pop	{r4, r5, r6, pc}
    e3e8:	6e61      	ldr	r1, [r4, #100]	; 0x64
    e3ea:	f442 5200 	orr.w	r2, r2, #8192	; 0x2000
    e3ee:	f421 5100 	bic.w	r1, r1, #8192	; 0x2000
    e3f2:	81a2      	strh	r2, [r4, #12]
    e3f4:	6822      	ldr	r2, [r4, #0]
    e3f6:	6661      	str	r1, [r4, #100]	; 0x64
    e3f8:	6961      	ldr	r1, [r4, #20]
    e3fa:	1ad3      	subs	r3, r2, r3
    e3fc:	428b      	cmp	r3, r1
    e3fe:	dbe2      	blt.n	e3c6 <__swbuf_r+0x32>
    e400:	4630      	mov	r0, r6
    e402:	4621      	mov	r1, r4
    e404:	f7fd fbc4 	bl	bb90 <_fflush_r>
    e408:	b940      	cbnz	r0, e41c <__swbuf_r+0x88>
    e40a:	6822      	ldr	r2, [r4, #0]
    e40c:	2301      	movs	r3, #1
    e40e:	e7db      	b.n	e3c8 <__swbuf_r+0x34>
    e410:	4630      	mov	r0, r6
    e412:	4621      	mov	r1, r4
    e414:	f7fd fbbc 	bl	bb90 <_fflush_r>
    e418:	2800      	cmp	r0, #0
    e41a:	d0e3      	beq.n	e3e4 <__swbuf_r+0x50>
    e41c:	f04f 30ff 	mov.w	r0, #4294967295
    e420:	bd70      	pop	{r4, r5, r6, pc}
    e422:	4630      	mov	r0, r6
    e424:	4621      	mov	r1, r4
    e426:	f7fc fa67 	bl	a8f8 <__swsetup_r>
    e42a:	2800      	cmp	r0, #0
    e42c:	d1f6      	bne.n	e41c <__swbuf_r+0x88>
    e42e:	89a2      	ldrh	r2, [r4, #12]
    e430:	6923      	ldr	r3, [r4, #16]
    e432:	b291      	uxth	r1, r2
    e434:	e7bf      	b.n	e3b6 <__swbuf_r+0x22>
    e436:	f7fa fc3d 	bl	8cb4 <__sinit>
    e43a:	e7b3      	b.n	e3a4 <__swbuf_r+0x10>

0000e43c <__swbuf>:
    e43c:	4b02      	ldr	r3, [pc, #8]	; (e448 <__swbuf+0xc>)
    e43e:	460a      	mov	r2, r1
    e440:	4601      	mov	r1, r0
    e442:	6818      	ldr	r0, [r3, #0]
    e444:	f7ff bfa6 	b.w	e394 <__swbuf_r>
    e448:	00017b68 	.word	0x00017b68

0000e44c <_wcrtomb_r>:
    e44c:	e92d 41f0 	stmdb	sp!, {r4, r5, r6, r7, r8, lr}
    e450:	4605      	mov	r5, r0
    e452:	b086      	sub	sp, #24
    e454:	461e      	mov	r6, r3
    e456:	460c      	mov	r4, r1
    e458:	b1a1      	cbz	r1, e484 <_wcrtomb_r+0x38>
    e45a:	4b10      	ldr	r3, [pc, #64]	; (e49c <_wcrtomb_r+0x50>)
    e45c:	4617      	mov	r7, r2
    e45e:	f8d3 8000 	ldr.w	r8, [r3]
    e462:	f7fd fd05 	bl	be70 <__locale_charset>
    e466:	9600      	str	r6, [sp, #0]
    e468:	4603      	mov	r3, r0
    e46a:	4621      	mov	r1, r4
    e46c:	463a      	mov	r2, r7
    e46e:	4628      	mov	r0, r5
    e470:	47c0      	blx	r8
    e472:	1c43      	adds	r3, r0, #1
    e474:	d103      	bne.n	e47e <_wcrtomb_r+0x32>
    e476:	2200      	movs	r2, #0
    e478:	238a      	movs	r3, #138	; 0x8a
    e47a:	6032      	str	r2, [r6, #0]
    e47c:	602b      	str	r3, [r5, #0]
    e47e:	b006      	add	sp, #24
    e480:	e8bd 81f0 	ldmia.w	sp!, {r4, r5, r6, r7, r8, pc}
    e484:	4b05      	ldr	r3, [pc, #20]	; (e49c <_wcrtomb_r+0x50>)
    e486:	681f      	ldr	r7, [r3, #0]
    e488:	f7fd fcf2 	bl	be70 <__locale_charset>
    e48c:	9600      	str	r6, [sp, #0]
    e48e:	4603      	mov	r3, r0
    e490:	4622      	mov	r2, r4
    e492:	4628      	mov	r0, r5
    e494:	a903      	add	r1, sp, #12
    e496:	47b8      	blx	r7
    e498:	e7eb      	b.n	e472 <_wcrtomb_r+0x26>
    e49a:	bf00      	nop
    e49c:	00018014 	.word	0x00018014

0000e4a0 <wcrtomb>:
    e4a0:	e92d 41f0 	stmdb	sp!, {r4, r5, r6, r7, r8, lr}
    e4a4:	4b12      	ldr	r3, [pc, #72]	; (e4f0 <wcrtomb+0x50>)
    e4a6:	b086      	sub	sp, #24
    e4a8:	4616      	mov	r6, r2
    e4aa:	681d      	ldr	r5, [r3, #0]
    e4ac:	4604      	mov	r4, r0
    e4ae:	b1a0      	cbz	r0, e4da <wcrtomb+0x3a>
    e4b0:	4b10      	ldr	r3, [pc, #64]	; (e4f4 <wcrtomb+0x54>)
    e4b2:	460f      	mov	r7, r1
    e4b4:	f8d3 8000 	ldr.w	r8, [r3]
    e4b8:	f7fd fcda 	bl	be70 <__locale_charset>
    e4bc:	9600      	str	r6, [sp, #0]
    e4be:	4603      	mov	r3, r0
    e4c0:	4621      	mov	r1, r4
    e4c2:	463a      	mov	r2, r7
    e4c4:	4628      	mov	r0, r5
    e4c6:	47c0      	blx	r8
    e4c8:	1c43      	adds	r3, r0, #1
    e4ca:	d103      	bne.n	e4d4 <wcrtomb+0x34>
    e4cc:	2200      	movs	r2, #0
    e4ce:	238a      	movs	r3, #138	; 0x8a
    e4d0:	6032      	str	r2, [r6, #0]
    e4d2:	602b      	str	r3, [r5, #0]
    e4d4:	b006      	add	sp, #24
    e4d6:	e8bd 81f0 	ldmia.w	sp!, {r4, r5, r6, r7, r8, pc}
    e4da:	4b06      	ldr	r3, [pc, #24]	; (e4f4 <wcrtomb+0x54>)
    e4dc:	681f      	ldr	r7, [r3, #0]
    e4de:	f7fd fcc7 	bl	be70 <__locale_charset>
    e4e2:	9600      	str	r6, [sp, #0]
    e4e4:	4603      	mov	r3, r0
    e4e6:	4622      	mov	r2, r4
    e4e8:	4628      	mov	r0, r5
    e4ea:	a903      	add	r1, sp, #12
    e4ec:	47b8      	blx	r7
    e4ee:	e7eb      	b.n	e4c8 <wcrtomb+0x28>
    e4f0:	00017b68 	.word	0x00017b68
    e4f4:	00018014 	.word	0x00018014

0000e4f8 <__ascii_wctomb>:
    e4f8:	b121      	cbz	r1, e504 <__ascii_wctomb+0xc>
    e4fa:	2aff      	cmp	r2, #255	; 0xff
    e4fc:	d804      	bhi.n	e508 <__ascii_wctomb+0x10>
    e4fe:	700a      	strb	r2, [r1, #0]
    e500:	2001      	movs	r0, #1
    e502:	4770      	bx	lr
    e504:	4608      	mov	r0, r1
    e506:	4770      	bx	lr
    e508:	238a      	movs	r3, #138	; 0x8a
    e50a:	6003      	str	r3, [r0, #0]
    e50c:	f04f 30ff 	mov.w	r0, #4294967295
    e510:	4770      	bx	lr
    e512:	bf00      	nop

0000e514 <_wctomb_r>:
    e514:	e92d 41f0 	stmdb	sp!, {r4, r5, r6, r7, r8, lr}
    e518:	4c09      	ldr	r4, [pc, #36]	; (e540 <_wctomb_r+0x2c>)
    e51a:	b082      	sub	sp, #8
    e51c:	4698      	mov	r8, r3
    e51e:	4605      	mov	r5, r0
    e520:	460f      	mov	r7, r1
    e522:	4616      	mov	r6, r2
    e524:	6824      	ldr	r4, [r4, #0]
    e526:	f7fd fca3 	bl	be70 <__locale_charset>
    e52a:	f8cd 8000 	str.w	r8, [sp]
    e52e:	4603      	mov	r3, r0
    e530:	4639      	mov	r1, r7
    e532:	4632      	mov	r2, r6
    e534:	4628      	mov	r0, r5
    e536:	47a0      	blx	r4
    e538:	b002      	add	sp, #8
    e53a:	e8bd 81f0 	ldmia.w	sp!, {r4, r5, r6, r7, r8, pc}
    e53e:	bf00      	nop
    e540:	00018014 	.word	0x00018014

0000e544 <__aeabi_drsub>:
    e544:	f081 4100 	eor.w	r1, r1, #2147483648	; 0x80000000
    e548:	e002      	b.n	e550 <__adddf3>
    e54a:	bf00      	nop

0000e54c <__aeabi_dsub>:
    e54c:	f083 4300 	eor.w	r3, r3, #2147483648	; 0x80000000

0000e550 <__adddf3>:
    e550:	b530      	push	{r4, r5, lr}
    e552:	ea4f 0441 	mov.w	r4, r1, lsl #1
    e556:	ea4f 0543 	mov.w	r5, r3, lsl #1
    e55a:	ea94 0f05 	teq	r4, r5
    e55e:	bf08      	it	eq
    e560:	ea90 0f02 	teqeq	r0, r2
    e564:	bf1f      	itttt	ne
    e566:	ea54 0c00 	orrsne.w	ip, r4, r0
    e56a:	ea55 0c02 	orrsne.w	ip, r5, r2
    e56e:	ea7f 5c64 	mvnsne.w	ip, r4, asr #21
    e572:	ea7f 5c65 	mvnsne.w	ip, r5, asr #21
    e576:	f000 80e2 	beq.w	e73e <__adddf3+0x1ee>
    e57a:	ea4f 5454 	mov.w	r4, r4, lsr #21
    e57e:	ebd4 5555 	rsbs	r5, r4, r5, lsr #21
    e582:	bfb8      	it	lt
    e584:	426d      	neglt	r5, r5
    e586:	dd0c      	ble.n	e5a2 <__adddf3+0x52>
    e588:	442c      	add	r4, r5
    e58a:	ea80 0202 	eor.w	r2, r0, r2
    e58e:	ea81 0303 	eor.w	r3, r1, r3
    e592:	ea82 0000 	eor.w	r0, r2, r0
    e596:	ea83 0101 	eor.w	r1, r3, r1
    e59a:	ea80 0202 	eor.w	r2, r0, r2
    e59e:	ea81 0303 	eor.w	r3, r1, r3
    e5a2:	2d36      	cmp	r5, #54	; 0x36
    e5a4:	bf88      	it	hi
    e5a6:	bd30      	pophi	{r4, r5, pc}
    e5a8:	f011 4f00 	tst.w	r1, #2147483648	; 0x80000000
    e5ac:	ea4f 3101 	mov.w	r1, r1, lsl #12
    e5b0:	f44f 1c80 	mov.w	ip, #1048576	; 0x100000
    e5b4:	ea4c 3111 	orr.w	r1, ip, r1, lsr #12
    e5b8:	d002      	beq.n	e5c0 <__adddf3+0x70>
    e5ba:	4240      	negs	r0, r0
    e5bc:	eb61 0141 	sbc.w	r1, r1, r1, lsl #1
    e5c0:	f013 4f00 	tst.w	r3, #2147483648	; 0x80000000
    e5c4:	ea4f 3303 	mov.w	r3, r3, lsl #12
    e5c8:	ea4c 3313 	orr.w	r3, ip, r3, lsr #12
    e5cc:	d002      	beq.n	e5d4 <__adddf3+0x84>
    e5ce:	4252      	negs	r2, r2
    e5d0:	eb63 0343 	sbc.w	r3, r3, r3, lsl #1
    e5d4:	ea94 0f05 	teq	r4, r5
    e5d8:	f000 80a7 	beq.w	e72a <__adddf3+0x1da>
    e5dc:	f1a4 0401 	sub.w	r4, r4, #1
    e5e0:	f1d5 0e20 	rsbs	lr, r5, #32
    e5e4:	db0d      	blt.n	e602 <__adddf3+0xb2>
    e5e6:	fa02 fc0e 	lsl.w	ip, r2, lr
    e5ea:	fa22 f205 	lsr.w	r2, r2, r5
    e5ee:	1880      	adds	r0, r0, r2
    e5f0:	f141 0100 	adc.w	r1, r1, #0
    e5f4:	fa03 f20e 	lsl.w	r2, r3, lr
    e5f8:	1880      	adds	r0, r0, r2
    e5fa:	fa43 f305 	asr.w	r3, r3, r5
    e5fe:	4159      	adcs	r1, r3
    e600:	e00e      	b.n	e620 <__adddf3+0xd0>
    e602:	f1a5 0520 	sub.w	r5, r5, #32
    e606:	f10e 0e20 	add.w	lr, lr, #32
    e60a:	2a01      	cmp	r2, #1
    e60c:	fa03 fc0e 	lsl.w	ip, r3, lr
    e610:	bf28      	it	cs
    e612:	f04c 0c02 	orrcs.w	ip, ip, #2
    e616:	fa43 f305 	asr.w	r3, r3, r5
    e61a:	18c0      	adds	r0, r0, r3
    e61c:	eb51 71e3 	adcs.w	r1, r1, r3, asr #31
    e620:	f001 4500 	and.w	r5, r1, #2147483648	; 0x80000000
    e624:	d507      	bpl.n	e636 <__adddf3+0xe6>
    e626:	f04f 0e00 	mov.w	lr, #0
    e62a:	f1dc 0c00 	rsbs	ip, ip, #0
    e62e:	eb7e 0000 	sbcs.w	r0, lr, r0
    e632:	eb6e 0101 	sbc.w	r1, lr, r1
    e636:	f5b1 1f80 	cmp.w	r1, #1048576	; 0x100000
    e63a:	d31b      	bcc.n	e674 <__adddf3+0x124>
    e63c:	f5b1 1f00 	cmp.w	r1, #2097152	; 0x200000
    e640:	d30c      	bcc.n	e65c <__adddf3+0x10c>
    e642:	0849      	lsrs	r1, r1, #1
    e644:	ea5f 0030 	movs.w	r0, r0, rrx
    e648:	ea4f 0c3c 	mov.w	ip, ip, rrx
    e64c:	f104 0401 	add.w	r4, r4, #1
    e650:	ea4f 5244 	mov.w	r2, r4, lsl #21
    e654:	f512 0f80 	cmn.w	r2, #4194304	; 0x400000
    e658:	f080 809a 	bcs.w	e790 <__adddf3+0x240>
    e65c:	f1bc 4f00 	cmp.w	ip, #2147483648	; 0x80000000
    e660:	bf08      	it	eq
    e662:	ea5f 0c50 	movseq.w	ip, r0, lsr #1
    e666:	f150 0000 	adcs.w	r0, r0, #0
    e66a:	eb41 5104 	adc.w	r1, r1, r4, lsl #20
    e66e:	ea41 0105 	orr.w	r1, r1, r5
    e672:	bd30      	pop	{r4, r5, pc}
    e674:	ea5f 0c4c 	movs.w	ip, ip, lsl #1
    e678:	4140      	adcs	r0, r0
    e67a:	eb41 0101 	adc.w	r1, r1, r1
    e67e:	f411 1f80 	tst.w	r1, #1048576	; 0x100000
    e682:	f1a4 0401 	sub.w	r4, r4, #1
    e686:	d1e9      	bne.n	e65c <__adddf3+0x10c>
    e688:	f091 0f00 	teq	r1, #0
    e68c:	bf04      	itt	eq
    e68e:	4601      	moveq	r1, r0
    e690:	2000      	moveq	r0, #0
    e692:	fab1 f381 	clz	r3, r1
    e696:	bf08      	it	eq
    e698:	3320      	addeq	r3, #32
    e69a:	f1a3 030b 	sub.w	r3, r3, #11
    e69e:	f1b3 0220 	subs.w	r2, r3, #32
    e6a2:	da0c      	bge.n	e6be <__adddf3+0x16e>
    e6a4:	320c      	adds	r2, #12
    e6a6:	dd08      	ble.n	e6ba <__adddf3+0x16a>
    e6a8:	f102 0c14 	add.w	ip, r2, #20
    e6ac:	f1c2 020c 	rsb	r2, r2, #12
    e6b0:	fa01 f00c 	lsl.w	r0, r1, ip
    e6b4:	fa21 f102 	lsr.w	r1, r1, r2
    e6b8:	e00c      	b.n	e6d4 <__adddf3+0x184>
    e6ba:	f102 0214 	add.w	r2, r2, #20
    e6be:	bfd8      	it	le
    e6c0:	f1c2 0c20 	rsble	ip, r2, #32
    e6c4:	fa01 f102 	lsl.w	r1, r1, r2
    e6c8:	fa20 fc0c 	lsr.w	ip, r0, ip
    e6cc:	bfdc      	itt	le
    e6ce:	ea41 010c 	orrle.w	r1, r1, ip
    e6d2:	4090      	lslle	r0, r2
    e6d4:	1ae4      	subs	r4, r4, r3
    e6d6:	bfa2      	ittt	ge
    e6d8:	eb01 5104 	addge.w	r1, r1, r4, lsl #20
    e6dc:	4329      	orrge	r1, r5
    e6de:	bd30      	popge	{r4, r5, pc}
    e6e0:	ea6f 0404 	mvn.w	r4, r4
    e6e4:	3c1f      	subs	r4, #31
    e6e6:	da1c      	bge.n	e722 <__adddf3+0x1d2>
    e6e8:	340c      	adds	r4, #12
    e6ea:	dc0e      	bgt.n	e70a <__adddf3+0x1ba>
    e6ec:	f104 0414 	add.w	r4, r4, #20
    e6f0:	f1c4 0220 	rsb	r2, r4, #32
    e6f4:	fa20 f004 	lsr.w	r0, r0, r4
    e6f8:	fa01 f302 	lsl.w	r3, r1, r2
    e6fc:	ea40 0003 	orr.w	r0, r0, r3
    e700:	fa21 f304 	lsr.w	r3, r1, r4
    e704:	ea45 0103 	orr.w	r1, r5, r3
    e708:	bd30      	pop	{r4, r5, pc}
    e70a:	f1c4 040c 	rsb	r4, r4, #12
    e70e:	f1c4 0220 	rsb	r2, r4, #32
    e712:	fa20 f002 	lsr.w	r0, r0, r2
    e716:	fa01 f304 	lsl.w	r3, r1, r4
    e71a:	ea40 0003 	orr.w	r0, r0, r3
    e71e:	4629      	mov	r1, r5
    e720:	bd30      	pop	{r4, r5, pc}
    e722:	fa21 f004 	lsr.w	r0, r1, r4
    e726:	4629      	mov	r1, r5
    e728:	bd30      	pop	{r4, r5, pc}
    e72a:	f094 0f00 	teq	r4, #0
    e72e:	f483 1380 	eor.w	r3, r3, #1048576	; 0x100000
    e732:	bf06      	itte	eq
    e734:	f481 1180 	eoreq.w	r1, r1, #1048576	; 0x100000
    e738:	3401      	addeq	r4, #1
    e73a:	3d01      	subne	r5, #1
    e73c:	e74e      	b.n	e5dc <__adddf3+0x8c>
    e73e:	ea7f 5c64 	mvns.w	ip, r4, asr #21
    e742:	bf18      	it	ne
    e744:	ea7f 5c65 	mvnsne.w	ip, r5, asr #21
    e748:	d029      	beq.n	e79e <__adddf3+0x24e>
    e74a:	ea94 0f05 	teq	r4, r5
    e74e:	bf08      	it	eq
    e750:	ea90 0f02 	teqeq	r0, r2
    e754:	d005      	beq.n	e762 <__adddf3+0x212>
    e756:	ea54 0c00 	orrs.w	ip, r4, r0
    e75a:	bf04      	itt	eq
    e75c:	4619      	moveq	r1, r3
    e75e:	4610      	moveq	r0, r2
    e760:	bd30      	pop	{r4, r5, pc}
    e762:	ea91 0f03 	teq	r1, r3
    e766:	bf1e      	ittt	ne
    e768:	2100      	movne	r1, #0
    e76a:	2000      	movne	r0, #0
    e76c:	bd30      	popne	{r4, r5, pc}
    e76e:	ea5f 5c54 	movs.w	ip, r4, lsr #21
    e772:	d105      	bne.n	e780 <__adddf3+0x230>
    e774:	0040      	lsls	r0, r0, #1
    e776:	4149      	adcs	r1, r1
    e778:	bf28      	it	cs
    e77a:	f041 4100 	orrcs.w	r1, r1, #2147483648	; 0x80000000
    e77e:	bd30      	pop	{r4, r5, pc}
    e780:	f514 0480 	adds.w	r4, r4, #4194304	; 0x400000
    e784:	bf3c      	itt	cc
    e786:	f501 1180 	addcc.w	r1, r1, #1048576	; 0x100000
    e78a:	bd30      	popcc	{r4, r5, pc}
    e78c:	f001 4500 	and.w	r5, r1, #2147483648	; 0x80000000
    e790:	f045 41fe 	orr.w	r1, r5, #2130706432	; 0x7f000000
    e794:	f441 0170 	orr.w	r1, r1, #15728640	; 0xf00000
    e798:	f04f 0000 	mov.w	r0, #0
    e79c:	bd30      	pop	{r4, r5, pc}
    e79e:	ea7f 5c64 	mvns.w	ip, r4, asr #21
    e7a2:	bf1a      	itte	ne
    e7a4:	4619      	movne	r1, r3
    e7a6:	4610      	movne	r0, r2
    e7a8:	ea7f 5c65 	mvnseq.w	ip, r5, asr #21
    e7ac:	bf1c      	itt	ne
    e7ae:	460b      	movne	r3, r1
    e7b0:	4602      	movne	r2, r0
    e7b2:	ea50 3401 	orrs.w	r4, r0, r1, lsl #12
    e7b6:	bf06      	itte	eq
    e7b8:	ea52 3503 	orrseq.w	r5, r2, r3, lsl #12
    e7bc:	ea91 0f03 	teqeq	r1, r3
    e7c0:	f441 2100 	orrne.w	r1, r1, #524288	; 0x80000
    e7c4:	bd30      	pop	{r4, r5, pc}
    e7c6:	bf00      	nop

0000e7c8 <__aeabi_ui2d>:
    e7c8:	f090 0f00 	teq	r0, #0
    e7cc:	bf04      	itt	eq
    e7ce:	2100      	moveq	r1, #0
    e7d0:	4770      	bxeq	lr
    e7d2:	b530      	push	{r4, r5, lr}
    e7d4:	f44f 6480 	mov.w	r4, #1024	; 0x400
    e7d8:	f104 0432 	add.w	r4, r4, #50	; 0x32
    e7dc:	f04f 0500 	mov.w	r5, #0
    e7e0:	f04f 0100 	mov.w	r1, #0
    e7e4:	e750      	b.n	e688 <__adddf3+0x138>
    e7e6:	bf00      	nop

0000e7e8 <__aeabi_i2d>:
    e7e8:	f090 0f00 	teq	r0, #0
    e7ec:	bf04      	itt	eq
    e7ee:	2100      	moveq	r1, #0
    e7f0:	4770      	bxeq	lr
    e7f2:	b530      	push	{r4, r5, lr}
    e7f4:	f44f 6480 	mov.w	r4, #1024	; 0x400
    e7f8:	f104 0432 	add.w	r4, r4, #50	; 0x32
    e7fc:	f010 4500 	ands.w	r5, r0, #2147483648	; 0x80000000
    e800:	bf48      	it	mi
    e802:	4240      	negmi	r0, r0
    e804:	f04f 0100 	mov.w	r1, #0
    e808:	e73e      	b.n	e688 <__adddf3+0x138>
    e80a:	bf00      	nop

0000e80c <__aeabi_f2d>:
    e80c:	0042      	lsls	r2, r0, #1
    e80e:	ea4f 01e2 	mov.w	r1, r2, asr #3
    e812:	ea4f 0131 	mov.w	r1, r1, rrx
    e816:	ea4f 7002 	mov.w	r0, r2, lsl #28
    e81a:	bf1f      	itttt	ne
    e81c:	f012 437f 	andsne.w	r3, r2, #4278190080	; 0xff000000
    e820:	f093 4f7f 	teqne	r3, #4278190080	; 0xff000000
    e824:	f081 5160 	eorne.w	r1, r1, #939524096	; 0x38000000
    e828:	4770      	bxne	lr
    e82a:	f092 0f00 	teq	r2, #0
    e82e:	bf14      	ite	ne
    e830:	f093 4f7f 	teqne	r3, #4278190080	; 0xff000000
    e834:	4770      	bxeq	lr
    e836:	b530      	push	{r4, r5, lr}
    e838:	f44f 7460 	mov.w	r4, #896	; 0x380
    e83c:	f001 4500 	and.w	r5, r1, #2147483648	; 0x80000000
    e840:	f021 4100 	bic.w	r1, r1, #2147483648	; 0x80000000
    e844:	e720      	b.n	e688 <__adddf3+0x138>
    e846:	bf00      	nop

0000e848 <__aeabi_ul2d>:
    e848:	ea50 0201 	orrs.w	r2, r0, r1
    e84c:	bf08      	it	eq
    e84e:	4770      	bxeq	lr
    e850:	b530      	push	{r4, r5, lr}
    e852:	f04f 0500 	mov.w	r5, #0
    e856:	e00a      	b.n	e86e <__aeabi_l2d+0x16>

0000e858 <__aeabi_l2d>:
    e858:	ea50 0201 	orrs.w	r2, r0, r1
    e85c:	bf08      	it	eq
    e85e:	4770      	bxeq	lr
    e860:	b530      	push	{r4, r5, lr}
    e862:	f011 4500 	ands.w	r5, r1, #2147483648	; 0x80000000
    e866:	d502      	bpl.n	e86e <__aeabi_l2d+0x16>
    e868:	4240      	negs	r0, r0
    e86a:	eb61 0141 	sbc.w	r1, r1, r1, lsl #1
    e86e:	f44f 6480 	mov.w	r4, #1024	; 0x400
    e872:	f104 0432 	add.w	r4, r4, #50	; 0x32
    e876:	ea5f 5c91 	movs.w	ip, r1, lsr #22
    e87a:	f43f aedc 	beq.w	e636 <__adddf3+0xe6>
    e87e:	f04f 0203 	mov.w	r2, #3
    e882:	ea5f 0cdc 	movs.w	ip, ip, lsr #3
    e886:	bf18      	it	ne
    e888:	3203      	addne	r2, #3
    e88a:	ea5f 0cdc 	movs.w	ip, ip, lsr #3
    e88e:	bf18      	it	ne
    e890:	3203      	addne	r2, #3
    e892:	eb02 02dc 	add.w	r2, r2, ip, lsr #3
    e896:	f1c2 0320 	rsb	r3, r2, #32
    e89a:	fa00 fc03 	lsl.w	ip, r0, r3
    e89e:	fa20 f002 	lsr.w	r0, r0, r2
    e8a2:	fa01 fe03 	lsl.w	lr, r1, r3
    e8a6:	ea40 000e 	orr.w	r0, r0, lr
    e8aa:	fa21 f102 	lsr.w	r1, r1, r2
    e8ae:	4414      	add	r4, r2
    e8b0:	e6c1      	b.n	e636 <__adddf3+0xe6>
    e8b2:	bf00      	nop

0000e8b4 <__aeabi_dmul>:
    e8b4:	b570      	push	{r4, r5, r6, lr}
    e8b6:	f04f 0cff 	mov.w	ip, #255	; 0xff
    e8ba:	f44c 6ce0 	orr.w	ip, ip, #1792	; 0x700
    e8be:	ea1c 5411 	ands.w	r4, ip, r1, lsr #20
    e8c2:	bf1d      	ittte	ne
    e8c4:	ea1c 5513 	andsne.w	r5, ip, r3, lsr #20
    e8c8:	ea94 0f0c 	teqne	r4, ip
    e8cc:	ea95 0f0c 	teqne	r5, ip
    e8d0:	f000 f8de 	bleq	ea90 <__aeabi_dmul+0x1dc>
    e8d4:	442c      	add	r4, r5
    e8d6:	ea81 0603 	eor.w	r6, r1, r3
    e8da:	ea21 514c 	bic.w	r1, r1, ip, lsl #21
    e8de:	ea23 534c 	bic.w	r3, r3, ip, lsl #21
    e8e2:	ea50 3501 	orrs.w	r5, r0, r1, lsl #12
    e8e6:	bf18      	it	ne
    e8e8:	ea52 3503 	orrsne.w	r5, r2, r3, lsl #12
    e8ec:	f441 1180 	orr.w	r1, r1, #1048576	; 0x100000
    e8f0:	f443 1380 	orr.w	r3, r3, #1048576	; 0x100000
    e8f4:	d038      	beq.n	e968 <__aeabi_dmul+0xb4>
    e8f6:	fba0 ce02 	umull	ip, lr, r0, r2
    e8fa:	f04f 0500 	mov.w	r5, #0
    e8fe:	fbe1 e502 	umlal	lr, r5, r1, r2
    e902:	f006 4200 	and.w	r2, r6, #2147483648	; 0x80000000
    e906:	fbe0 e503 	umlal	lr, r5, r0, r3
    e90a:	f04f 0600 	mov.w	r6, #0
    e90e:	fbe1 5603 	umlal	r5, r6, r1, r3
    e912:	f09c 0f00 	teq	ip, #0
    e916:	bf18      	it	ne
    e918:	f04e 0e01 	orrne.w	lr, lr, #1
    e91c:	f1a4 04ff 	sub.w	r4, r4, #255	; 0xff
    e920:	f5b6 7f00 	cmp.w	r6, #512	; 0x200
    e924:	f564 7440 	sbc.w	r4, r4, #768	; 0x300
    e928:	d204      	bcs.n	e934 <__aeabi_dmul+0x80>
    e92a:	ea5f 0e4e 	movs.w	lr, lr, lsl #1
    e92e:	416d      	adcs	r5, r5
    e930:	eb46 0606 	adc.w	r6, r6, r6
    e934:	ea42 21c6 	orr.w	r1, r2, r6, lsl #11
    e938:	ea41 5155 	orr.w	r1, r1, r5, lsr #21
    e93c:	ea4f 20c5 	mov.w	r0, r5, lsl #11
    e940:	ea40 505e 	orr.w	r0, r0, lr, lsr #21
    e944:	ea4f 2ece 	mov.w	lr, lr, lsl #11
    e948:	f1b4 0cfd 	subs.w	ip, r4, #253	; 0xfd
    e94c:	bf88      	it	hi
    e94e:	f5bc 6fe0 	cmphi.w	ip, #1792	; 0x700
    e952:	d81e      	bhi.n	e992 <__aeabi_dmul+0xde>
    e954:	f1be 4f00 	cmp.w	lr, #2147483648	; 0x80000000
    e958:	bf08      	it	eq
    e95a:	ea5f 0e50 	movseq.w	lr, r0, lsr #1
    e95e:	f150 0000 	adcs.w	r0, r0, #0
    e962:	eb41 5104 	adc.w	r1, r1, r4, lsl #20
    e966:	bd70      	pop	{r4, r5, r6, pc}
    e968:	f006 4600 	and.w	r6, r6, #2147483648	; 0x80000000
    e96c:	ea46 0101 	orr.w	r1, r6, r1
    e970:	ea40 0002 	orr.w	r0, r0, r2
    e974:	ea81 0103 	eor.w	r1, r1, r3
    e978:	ebb4 045c 	subs.w	r4, r4, ip, lsr #1
    e97c:	bfc2      	ittt	gt
    e97e:	ebd4 050c 	rsbsgt	r5, r4, ip
    e982:	ea41 5104 	orrgt.w	r1, r1, r4, lsl #20
    e986:	bd70      	popgt	{r4, r5, r6, pc}
    e988:	f441 1180 	orr.w	r1, r1, #1048576	; 0x100000
    e98c:	f04f 0e00 	mov.w	lr, #0
    e990:	3c01      	subs	r4, #1
    e992:	f300 80ab 	bgt.w	eaec <__aeabi_dmul+0x238>
    e996:	f114 0f36 	cmn.w	r4, #54	; 0x36
    e99a:	bfde      	ittt	le
    e99c:	2000      	movle	r0, #0
    e99e:	f001 4100 	andle.w	r1, r1, #2147483648	; 0x80000000
    e9a2:	bd70      	pople	{r4, r5, r6, pc}
    e9a4:	f1c4 0400 	rsb	r4, r4, #0
    e9a8:	3c20      	subs	r4, #32
    e9aa:	da35      	bge.n	ea18 <__aeabi_dmul+0x164>
    e9ac:	340c      	adds	r4, #12
    e9ae:	dc1b      	bgt.n	e9e8 <__aeabi_dmul+0x134>
    e9b0:	f104 0414 	add.w	r4, r4, #20
    e9b4:	f1c4 0520 	rsb	r5, r4, #32
    e9b8:	fa00 f305 	lsl.w	r3, r0, r5
    e9bc:	fa20 f004 	lsr.w	r0, r0, r4
    e9c0:	fa01 f205 	lsl.w	r2, r1, r5
    e9c4:	ea40 0002 	orr.w	r0, r0, r2
    e9c8:	f001 4200 	and.w	r2, r1, #2147483648	; 0x80000000
    e9cc:	f021 4100 	bic.w	r1, r1, #2147483648	; 0x80000000
    e9d0:	eb10 70d3 	adds.w	r0, r0, r3, lsr #31
    e9d4:	fa21 f604 	lsr.w	r6, r1, r4
    e9d8:	eb42 0106 	adc.w	r1, r2, r6
    e9dc:	ea5e 0e43 	orrs.w	lr, lr, r3, lsl #1
    e9e0:	bf08      	it	eq
    e9e2:	ea20 70d3 	biceq.w	r0, r0, r3, lsr #31
    e9e6:	bd70      	pop	{r4, r5, r6, pc}
    e9e8:	f1c4 040c 	rsb	r4, r4, #12
    e9ec:	f1c4 0520 	rsb	r5, r4, #32
    e9f0:	fa00 f304 	lsl.w	r3, r0, r4
    e9f4:	fa20 f005 	lsr.w	r0, r0, r5
    e9f8:	fa01 f204 	lsl.w	r2, r1, r4
    e9fc:	ea40 0002 	orr.w	r0, r0, r2
    ea00:	f001 4100 	and.w	r1, r1, #2147483648	; 0x80000000
    ea04:	eb10 70d3 	adds.w	r0, r0, r3, lsr #31
    ea08:	f141 0100 	adc.w	r1, r1, #0
    ea0c:	ea5e 0e43 	orrs.w	lr, lr, r3, lsl #1
    ea10:	bf08      	it	eq
    ea12:	ea20 70d3 	biceq.w	r0, r0, r3, lsr #31
    ea16:	bd70      	pop	{r4, r5, r6, pc}
    ea18:	f1c4 0520 	rsb	r5, r4, #32
    ea1c:	fa00 f205 	lsl.w	r2, r0, r5
    ea20:	ea4e 0e02 	orr.w	lr, lr, r2
    ea24:	fa20 f304 	lsr.w	r3, r0, r4
    ea28:	fa01 f205 	lsl.w	r2, r1, r5
    ea2c:	ea43 0302 	orr.w	r3, r3, r2
    ea30:	fa21 f004 	lsr.w	r0, r1, r4
    ea34:	f001 4100 	and.w	r1, r1, #2147483648	; 0x80000000
    ea38:	fa21 f204 	lsr.w	r2, r1, r4
    ea3c:	ea20 0002 	bic.w	r0, r0, r2
    ea40:	eb00 70d3 	add.w	r0, r0, r3, lsr #31
    ea44:	ea5e 0e43 	orrs.w	lr, lr, r3, lsl #1
    ea48:	bf08      	it	eq
    ea4a:	ea20 70d3 	biceq.w	r0, r0, r3, lsr #31
    ea4e:	bd70      	pop	{r4, r5, r6, pc}
    ea50:	f094 0f00 	teq	r4, #0
    ea54:	d10f      	bne.n	ea76 <__aeabi_dmul+0x1c2>
    ea56:	f001 4600 	and.w	r6, r1, #2147483648	; 0x80000000
    ea5a:	0040      	lsls	r0, r0, #1
    ea5c:	eb41 0101 	adc.w	r1, r1, r1
    ea60:	f411 1f80 	tst.w	r1, #1048576	; 0x100000
    ea64:	bf08      	it	eq
    ea66:	3c01      	subeq	r4, #1
    ea68:	d0f7      	beq.n	ea5a <__aeabi_dmul+0x1a6>
    ea6a:	ea41 0106 	orr.w	r1, r1, r6
    ea6e:	f095 0f00 	teq	r5, #0
    ea72:	bf18      	it	ne
    ea74:	4770      	bxne	lr
    ea76:	f003 4600 	and.w	r6, r3, #2147483648	; 0x80000000
    ea7a:	0052      	lsls	r2, r2, #1
    ea7c:	eb43 0303 	adc.w	r3, r3, r3
    ea80:	f413 1f80 	tst.w	r3, #1048576	; 0x100000
    ea84:	bf08      	it	eq
    ea86:	3d01      	subeq	r5, #1
    ea88:	d0f7      	beq.n	ea7a <__aeabi_dmul+0x1c6>
    ea8a:	ea43 0306 	orr.w	r3, r3, r6
    ea8e:	4770      	bx	lr
    ea90:	ea94 0f0c 	teq	r4, ip
    ea94:	ea0c 5513 	and.w	r5, ip, r3, lsr #20
    ea98:	bf18      	it	ne
    ea9a:	ea95 0f0c 	teqne	r5, ip
    ea9e:	d00c      	beq.n	eaba <__aeabi_dmul+0x206>
    eaa0:	ea50 0641 	orrs.w	r6, r0, r1, lsl #1
    eaa4:	bf18      	it	ne
    eaa6:	ea52 0643 	orrsne.w	r6, r2, r3, lsl #1
    eaaa:	d1d1      	bne.n	ea50 <__aeabi_dmul+0x19c>
    eaac:	ea81 0103 	eor.w	r1, r1, r3
    eab0:	f001 4100 	and.w	r1, r1, #2147483648	; 0x80000000
    eab4:	f04f 0000 	mov.w	r0, #0
    eab8:	bd70      	pop	{r4, r5, r6, pc}
    eaba:	ea50 0641 	orrs.w	r6, r0, r1, lsl #1
    eabe:	bf06      	itte	eq
    eac0:	4610      	moveq	r0, r2
    eac2:	4619      	moveq	r1, r3
    eac4:	ea52 0643 	orrsne.w	r6, r2, r3, lsl #1
    eac8:	d019      	beq.n	eafe <__aeabi_dmul+0x24a>
    eaca:	ea94 0f0c 	teq	r4, ip
    eace:	d102      	bne.n	ead6 <__aeabi_dmul+0x222>
    ead0:	ea50 3601 	orrs.w	r6, r0, r1, lsl #12
    ead4:	d113      	bne.n	eafe <__aeabi_dmul+0x24a>
    ead6:	ea95 0f0c 	teq	r5, ip
    eada:	d105      	bne.n	eae8 <__aeabi_dmul+0x234>
    eadc:	ea52 3603 	orrs.w	r6, r2, r3, lsl #12
    eae0:	bf1c      	itt	ne
    eae2:	4610      	movne	r0, r2
    eae4:	4619      	movne	r1, r3
    eae6:	d10a      	bne.n	eafe <__aeabi_dmul+0x24a>
    eae8:	ea81 0103 	eor.w	r1, r1, r3
    eaec:	f001 4100 	and.w	r1, r1, #2147483648	; 0x80000000
    eaf0:	f041 41fe 	orr.w	r1, r1, #2130706432	; 0x7f000000
    eaf4:	f441 0170 	orr.w	r1, r1, #15728640	; 0xf00000
    eaf8:	f04f 0000 	mov.w	r0, #0
    eafc:	bd70      	pop	{r4, r5, r6, pc}
    eafe:	f041 41fe 	orr.w	r1, r1, #2130706432	; 0x7f000000
    eb02:	f441 0178 	orr.w	r1, r1, #16252928	; 0xf80000
    eb06:	bd70      	pop	{r4, r5, r6, pc}

0000eb08 <__aeabi_ddiv>:
    eb08:	b570      	push	{r4, r5, r6, lr}
    eb0a:	f04f 0cff 	mov.w	ip, #255	; 0xff
    eb0e:	f44c 6ce0 	orr.w	ip, ip, #1792	; 0x700
    eb12:	ea1c 5411 	ands.w	r4, ip, r1, lsr #20
    eb16:	bf1d      	ittte	ne
    eb18:	ea1c 5513 	andsne.w	r5, ip, r3, lsr #20
    eb1c:	ea94 0f0c 	teqne	r4, ip
    eb20:	ea95 0f0c 	teqne	r5, ip
    eb24:	f000 f8a7 	bleq	ec76 <__aeabi_ddiv+0x16e>
    eb28:	eba4 0405 	sub.w	r4, r4, r5
    eb2c:	ea81 0e03 	eor.w	lr, r1, r3
    eb30:	ea52 3503 	orrs.w	r5, r2, r3, lsl #12
    eb34:	ea4f 3101 	mov.w	r1, r1, lsl #12
    eb38:	f000 8088 	beq.w	ec4c <__aeabi_ddiv+0x144>
    eb3c:	ea4f 3303 	mov.w	r3, r3, lsl #12
    eb40:	f04f 5580 	mov.w	r5, #268435456	; 0x10000000
    eb44:	ea45 1313 	orr.w	r3, r5, r3, lsr #4
    eb48:	ea43 6312 	orr.w	r3, r3, r2, lsr #24
    eb4c:	ea4f 2202 	mov.w	r2, r2, lsl #8
    eb50:	ea45 1511 	orr.w	r5, r5, r1, lsr #4
    eb54:	ea45 6510 	orr.w	r5, r5, r0, lsr #24
    eb58:	ea4f 2600 	mov.w	r6, r0, lsl #8
    eb5c:	f00e 4100 	and.w	r1, lr, #2147483648	; 0x80000000
    eb60:	429d      	cmp	r5, r3
    eb62:	bf08      	it	eq
    eb64:	4296      	cmpeq	r6, r2
    eb66:	f144 04fd 	adc.w	r4, r4, #253	; 0xfd
    eb6a:	f504 7440 	add.w	r4, r4, #768	; 0x300
    eb6e:	d202      	bcs.n	eb76 <__aeabi_ddiv+0x6e>
    eb70:	085b      	lsrs	r3, r3, #1
    eb72:	ea4f 0232 	mov.w	r2, r2, rrx
    eb76:	1ab6      	subs	r6, r6, r2
    eb78:	eb65 0503 	sbc.w	r5, r5, r3
    eb7c:	085b      	lsrs	r3, r3, #1
    eb7e:	ea4f 0232 	mov.w	r2, r2, rrx
    eb82:	f44f 1080 	mov.w	r0, #1048576	; 0x100000
    eb86:	f44f 2c00 	mov.w	ip, #524288	; 0x80000
    eb8a:	ebb6 0e02 	subs.w	lr, r6, r2
    eb8e:	eb75 0e03 	sbcs.w	lr, r5, r3
    eb92:	bf22      	ittt	cs
    eb94:	1ab6      	subcs	r6, r6, r2
    eb96:	4675      	movcs	r5, lr
    eb98:	ea40 000c 	orrcs.w	r0, r0, ip
    eb9c:	085b      	lsrs	r3, r3, #1
    eb9e:	ea4f 0232 	mov.w	r2, r2, rrx
    eba2:	ebb6 0e02 	subs.w	lr, r6, r2
    eba6:	eb75 0e03 	sbcs.w	lr, r5, r3
    ebaa:	bf22      	ittt	cs
    ebac:	1ab6      	subcs	r6, r6, r2
    ebae:	4675      	movcs	r5, lr
    ebb0:	ea40 005c 	orrcs.w	r0, r0, ip, lsr #1
    ebb4:	085b      	lsrs	r3, r3, #1
    ebb6:	ea4f 0232 	mov.w	r2, r2, rrx
    ebba:	ebb6 0e02 	subs.w	lr, r6, r2
    ebbe:	eb75 0e03 	sbcs.w	lr, r5, r3
    ebc2:	bf22      	ittt	cs
    ebc4:	1ab6      	subcs	r6, r6, r2
    ebc6:	4675      	movcs	r5, lr
    ebc8:	ea40 009c 	orrcs.w	r0, r0, ip, lsr #2
    ebcc:	085b      	lsrs	r3, r3, #1
    ebce:	ea4f 0232 	mov.w	r2, r2, rrx
    ebd2:	ebb6 0e02 	subs.w	lr, r6, r2
    ebd6:	eb75 0e03 	sbcs.w	lr, r5, r3
    ebda:	bf22      	ittt	cs
    ebdc:	1ab6      	subcs	r6, r6, r2
    ebde:	4675      	movcs	r5, lr
    ebe0:	ea40 00dc 	orrcs.w	r0, r0, ip, lsr #3
    ebe4:	ea55 0e06 	orrs.w	lr, r5, r6
    ebe8:	d018      	beq.n	ec1c <__aeabi_ddiv+0x114>
    ebea:	ea4f 1505 	mov.w	r5, r5, lsl #4
    ebee:	ea45 7516 	orr.w	r5, r5, r6, lsr #28
    ebf2:	ea4f 1606 	mov.w	r6, r6, lsl #4
    ebf6:	ea4f 03c3 	mov.w	r3, r3, lsl #3
    ebfa:	ea43 7352 	orr.w	r3, r3, r2, lsr #29
    ebfe:	ea4f 02c2 	mov.w	r2, r2, lsl #3
    ec02:	ea5f 1c1c 	movs.w	ip, ip, lsr #4
    ec06:	d1c0      	bne.n	eb8a <__aeabi_ddiv+0x82>
    ec08:	f411 1f80 	tst.w	r1, #1048576	; 0x100000
    ec0c:	d10b      	bne.n	ec26 <__aeabi_ddiv+0x11e>
    ec0e:	ea41 0100 	orr.w	r1, r1, r0
    ec12:	f04f 0000 	mov.w	r0, #0
    ec16:	f04f 4c00 	mov.w	ip, #2147483648	; 0x80000000
    ec1a:	e7b6      	b.n	eb8a <__aeabi_ddiv+0x82>
    ec1c:	f411 1f80 	tst.w	r1, #1048576	; 0x100000
    ec20:	bf04      	itt	eq
    ec22:	4301      	orreq	r1, r0
    ec24:	2000      	moveq	r0, #0
    ec26:	f1b4 0cfd 	subs.w	ip, r4, #253	; 0xfd
    ec2a:	bf88      	it	hi
    ec2c:	f5bc 6fe0 	cmphi.w	ip, #1792	; 0x700
    ec30:	f63f aeaf 	bhi.w	e992 <__aeabi_dmul+0xde>
    ec34:	ebb5 0c03 	subs.w	ip, r5, r3
    ec38:	bf04      	itt	eq
    ec3a:	ebb6 0c02 	subseq.w	ip, r6, r2
    ec3e:	ea5f 0c50 	movseq.w	ip, r0, lsr #1
    ec42:	f150 0000 	adcs.w	r0, r0, #0
    ec46:	eb41 5104 	adc.w	r1, r1, r4, lsl #20
    ec4a:	bd70      	pop	{r4, r5, r6, pc}
    ec4c:	f00e 4e00 	and.w	lr, lr, #2147483648	; 0x80000000
    ec50:	ea4e 3111 	orr.w	r1, lr, r1, lsr #12
    ec54:	eb14 045c 	adds.w	r4, r4, ip, lsr #1
    ec58:	bfc2      	ittt	gt
    ec5a:	ebd4 050c 	rsbsgt	r5, r4, ip
    ec5e:	ea41 5104 	orrgt.w	r1, r1, r4, lsl #20
    ec62:	bd70      	popgt	{r4, r5, r6, pc}
    ec64:	f441 1180 	orr.w	r1, r1, #1048576	; 0x100000
    ec68:	f04f 0e00 	mov.w	lr, #0
    ec6c:	3c01      	subs	r4, #1
    ec6e:	e690      	b.n	e992 <__aeabi_dmul+0xde>
    ec70:	ea45 0e06 	orr.w	lr, r5, r6
    ec74:	e68d      	b.n	e992 <__aeabi_dmul+0xde>
    ec76:	ea0c 5513 	and.w	r5, ip, r3, lsr #20
    ec7a:	ea94 0f0c 	teq	r4, ip
    ec7e:	bf08      	it	eq
    ec80:	ea95 0f0c 	teqeq	r5, ip
    ec84:	f43f af3b 	beq.w	eafe <__aeabi_dmul+0x24a>
    ec88:	ea94 0f0c 	teq	r4, ip
    ec8c:	d10a      	bne.n	eca4 <__aeabi_ddiv+0x19c>
    ec8e:	ea50 3401 	orrs.w	r4, r0, r1, lsl #12
    ec92:	f47f af34 	bne.w	eafe <__aeabi_dmul+0x24a>
    ec96:	ea95 0f0c 	teq	r5, ip
    ec9a:	f47f af25 	bne.w	eae8 <__aeabi_dmul+0x234>
    ec9e:	4610      	mov	r0, r2
    eca0:	4619      	mov	r1, r3
    eca2:	e72c      	b.n	eafe <__aeabi_dmul+0x24a>
    eca4:	ea95 0f0c 	teq	r5, ip
    eca8:	d106      	bne.n	ecb8 <__aeabi_ddiv+0x1b0>
    ecaa:	ea52 3503 	orrs.w	r5, r2, r3, lsl #12
    ecae:	f43f aefd 	beq.w	eaac <__aeabi_dmul+0x1f8>
    ecb2:	4610      	mov	r0, r2
    ecb4:	4619      	mov	r1, r3
    ecb6:	e722      	b.n	eafe <__aeabi_dmul+0x24a>
    ecb8:	ea50 0641 	orrs.w	r6, r0, r1, lsl #1
    ecbc:	bf18      	it	ne
    ecbe:	ea52 0643 	orrsne.w	r6, r2, r3, lsl #1
    ecc2:	f47f aec5 	bne.w	ea50 <__aeabi_dmul+0x19c>
    ecc6:	ea50 0441 	orrs.w	r4, r0, r1, lsl #1
    ecca:	f47f af0d 	bne.w	eae8 <__aeabi_dmul+0x234>
    ecce:	ea52 0543 	orrs.w	r5, r2, r3, lsl #1
    ecd2:	f47f aeeb 	bne.w	eaac <__aeabi_dmul+0x1f8>
    ecd6:	e712      	b.n	eafe <__aeabi_dmul+0x24a>

0000ecd8 <__gedf2>:
    ecd8:	f04f 3cff 	mov.w	ip, #4294967295
    ecdc:	e006      	b.n	ecec <__cmpdf2+0x4>
    ecde:	bf00      	nop

0000ece0 <__ledf2>:
    ece0:	f04f 0c01 	mov.w	ip, #1
    ece4:	e002      	b.n	ecec <__cmpdf2+0x4>
    ece6:	bf00      	nop

0000ece8 <__cmpdf2>:
    ece8:	f04f 0c01 	mov.w	ip, #1
    ecec:	f84d cd04 	str.w	ip, [sp, #-4]!
    ecf0:	ea4f 0c41 	mov.w	ip, r1, lsl #1
    ecf4:	ea7f 5c6c 	mvns.w	ip, ip, asr #21
    ecf8:	ea4f 0c43 	mov.w	ip, r3, lsl #1
    ecfc:	bf18      	it	ne
    ecfe:	ea7f 5c6c 	mvnsne.w	ip, ip, asr #21
    ed02:	d01b      	beq.n	ed3c <__cmpdf2+0x54>
    ed04:	b001      	add	sp, #4
    ed06:	ea50 0c41 	orrs.w	ip, r0, r1, lsl #1
    ed0a:	bf0c      	ite	eq
    ed0c:	ea52 0c43 	orrseq.w	ip, r2, r3, lsl #1
    ed10:	ea91 0f03 	teqne	r1, r3
    ed14:	bf02      	ittt	eq
    ed16:	ea90 0f02 	teqeq	r0, r2
    ed1a:	2000      	moveq	r0, #0
    ed1c:	4770      	bxeq	lr
    ed1e:	f110 0f00 	cmn.w	r0, #0
    ed22:	ea91 0f03 	teq	r1, r3
    ed26:	bf58      	it	pl
    ed28:	4299      	cmppl	r1, r3
    ed2a:	bf08      	it	eq
    ed2c:	4290      	cmpeq	r0, r2
    ed2e:	bf2c      	ite	cs
    ed30:	17d8      	asrcs	r0, r3, #31
    ed32:	ea6f 70e3 	mvncc.w	r0, r3, asr #31
    ed36:	f040 0001 	orr.w	r0, r0, #1
    ed3a:	4770      	bx	lr
    ed3c:	ea4f 0c41 	mov.w	ip, r1, lsl #1
    ed40:	ea7f 5c6c 	mvns.w	ip, ip, asr #21
    ed44:	d102      	bne.n	ed4c <__cmpdf2+0x64>
    ed46:	ea50 3c01 	orrs.w	ip, r0, r1, lsl #12
    ed4a:	d107      	bne.n	ed5c <__cmpdf2+0x74>
    ed4c:	ea4f 0c43 	mov.w	ip, r3, lsl #1
    ed50:	ea7f 5c6c 	mvns.w	ip, ip, asr #21
    ed54:	d1d6      	bne.n	ed04 <__cmpdf2+0x1c>
    ed56:	ea52 3c03 	orrs.w	ip, r2, r3, lsl #12
    ed5a:	d0d3      	beq.n	ed04 <__cmpdf2+0x1c>
    ed5c:	f85d 0b04 	ldr.w	r0, [sp], #4
    ed60:	4770      	bx	lr
    ed62:	bf00      	nop

0000ed64 <__aeabi_cdrcmple>:
    ed64:	4684      	mov	ip, r0
    ed66:	4610      	mov	r0, r2
    ed68:	4662      	mov	r2, ip
    ed6a:	468c      	mov	ip, r1
    ed6c:	4619      	mov	r1, r3
    ed6e:	4663      	mov	r3, ip
    ed70:	e000      	b.n	ed74 <__aeabi_cdcmpeq>
    ed72:	bf00      	nop

0000ed74 <__aeabi_cdcmpeq>:
    ed74:	b501      	push	{r0, lr}
    ed76:	f7ff ffb7 	bl	ece8 <__cmpdf2>
    ed7a:	2800      	cmp	r0, #0
    ed7c:	bf48      	it	mi
    ed7e:	f110 0f00 	cmnmi.w	r0, #0
    ed82:	bd01      	pop	{r0, pc}

0000ed84 <__aeabi_dcmpeq>:
    ed84:	f84d ed08 	str.w	lr, [sp, #-8]!
    ed88:	f7ff fff4 	bl	ed74 <__aeabi_cdcmpeq>
    ed8c:	bf0c      	ite	eq
    ed8e:	2001      	moveq	r0, #1
    ed90:	2000      	movne	r0, #0
    ed92:	f85d fb08 	ldr.w	pc, [sp], #8
    ed96:	bf00      	nop

0000ed98 <__aeabi_dcmplt>:
    ed98:	f84d ed08 	str.w	lr, [sp, #-8]!
    ed9c:	f7ff ffea 	bl	ed74 <__aeabi_cdcmpeq>
    eda0:	bf34      	ite	cc
    eda2:	2001      	movcc	r0, #1
    eda4:	2000      	movcs	r0, #0
    eda6:	f85d fb08 	ldr.w	pc, [sp], #8
    edaa:	bf00      	nop

0000edac <__aeabi_dcmple>:
    edac:	f84d ed08 	str.w	lr, [sp, #-8]!
    edb0:	f7ff ffe0 	bl	ed74 <__aeabi_cdcmpeq>
    edb4:	bf94      	ite	ls
    edb6:	2001      	movls	r0, #1
    edb8:	2000      	movhi	r0, #0
    edba:	f85d fb08 	ldr.w	pc, [sp], #8
    edbe:	bf00      	nop

0000edc0 <__aeabi_dcmpge>:
    edc0:	f84d ed08 	str.w	lr, [sp, #-8]!
    edc4:	f7ff ffce 	bl	ed64 <__aeabi_cdrcmple>
    edc8:	bf94      	ite	ls
    edca:	2001      	movls	r0, #1
    edcc:	2000      	movhi	r0, #0
    edce:	f85d fb08 	ldr.w	pc, [sp], #8
    edd2:	bf00      	nop

0000edd4 <__aeabi_dcmpgt>:
    edd4:	f84d ed08 	str.w	lr, [sp, #-8]!
    edd8:	f7ff ffc4 	bl	ed64 <__aeabi_cdrcmple>
    eddc:	bf34      	ite	cc
    edde:	2001      	movcc	r0, #1
    ede0:	2000      	movcs	r0, #0
    ede2:	f85d fb08 	ldr.w	pc, [sp], #8
    ede6:	bf00      	nop

0000ede8 <__aeabi_d2iz>:
    ede8:	ea4f 0241 	mov.w	r2, r1, lsl #1
    edec:	f512 1200 	adds.w	r2, r2, #2097152	; 0x200000
    edf0:	d215      	bcs.n	ee1e <__aeabi_d2iz+0x36>
    edf2:	d511      	bpl.n	ee18 <__aeabi_d2iz+0x30>
    edf4:	f46f 7378 	mvn.w	r3, #992	; 0x3e0
    edf8:	ebb3 5262 	subs.w	r2, r3, r2, asr #21
    edfc:	d912      	bls.n	ee24 <__aeabi_d2iz+0x3c>
    edfe:	ea4f 23c1 	mov.w	r3, r1, lsl #11
    ee02:	f043 4300 	orr.w	r3, r3, #2147483648	; 0x80000000
    ee06:	ea43 5350 	orr.w	r3, r3, r0, lsr #21
    ee0a:	f011 4f00 	tst.w	r1, #2147483648	; 0x80000000
    ee0e:	fa23 f002 	lsr.w	r0, r3, r2
    ee12:	bf18      	it	ne
    ee14:	4240      	negne	r0, r0
    ee16:	4770      	bx	lr
    ee18:	f04f 0000 	mov.w	r0, #0
    ee1c:	4770      	bx	lr
    ee1e:	ea50 3001 	orrs.w	r0, r0, r1, lsl #12
    ee22:	d105      	bne.n	ee30 <__aeabi_d2iz+0x48>
    ee24:	f011 4000 	ands.w	r0, r1, #2147483648	; 0x80000000
    ee28:	bf08      	it	eq
    ee2a:	f06f 4000 	mvneq.w	r0, #2147483648	; 0x80000000
    ee2e:	4770      	bx	lr
    ee30:	f04f 0000 	mov.w	r0, #0
    ee34:	4770      	bx	lr
    ee36:	bf00      	nop

0000ee38 <__aeabi_uldivmod>:
    ee38:	b953      	cbnz	r3, ee50 <__aeabi_uldivmod+0x18>
    ee3a:	b94a      	cbnz	r2, ee50 <__aeabi_uldivmod+0x18>
    ee3c:	2900      	cmp	r1, #0
    ee3e:	bf08      	it	eq
    ee40:	2800      	cmpeq	r0, #0
    ee42:	bf1c      	itt	ne
    ee44:	f04f 31ff 	movne.w	r1, #4294967295
    ee48:	f04f 30ff 	movne.w	r0, #4294967295
    ee4c:	f000 b83c 	b.w	eec8 <__aeabi_idiv0>
    ee50:	b082      	sub	sp, #8
    ee52:	46ec      	mov	ip, sp
    ee54:	e92d 5000 	stmdb	sp!, {ip, lr}
    ee58:	f000 f81e 	bl	ee98 <__gnu_uldivmod_helper>
    ee5c:	f8dd e004 	ldr.w	lr, [sp, #4]
    ee60:	b002      	add	sp, #8
    ee62:	bc0c      	pop	{r2, r3}
    ee64:	4770      	bx	lr
    ee66:	bf00      	nop

0000ee68 <__gnu_ldivmod_helper>:
    ee68:	e92d 41f0 	stmdb	sp!, {r4, r5, r6, r7, r8, lr}
    ee6c:	9c06      	ldr	r4, [sp, #24]
    ee6e:	4690      	mov	r8, r2
    ee70:	4606      	mov	r6, r0
    ee72:	460f      	mov	r7, r1
    ee74:	461d      	mov	r5, r3
    ee76:	f000 f829 	bl	eecc <__divdi3>
    ee7a:	fb08 fc01 	mul.w	ip, r8, r1
    ee7e:	fba8 2300 	umull	r2, r3, r8, r0
    ee82:	fb00 c505 	mla	r5, r0, r5, ip
    ee86:	1ab2      	subs	r2, r6, r2
    ee88:	442b      	add	r3, r5
    ee8a:	eb67 0303 	sbc.w	r3, r7, r3
    ee8e:	4686      	mov	lr, r0
    ee90:	e9c4 2300 	strd	r2, r3, [r4]
    ee94:	e8bd 81f0 	ldmia.w	sp!, {r4, r5, r6, r7, r8, pc}

0000ee98 <__gnu_uldivmod_helper>:
    ee98:	e92d 43f8 	stmdb	sp!, {r3, r4, r5, r6, r7, r8, r9, lr}
    ee9c:	9e08      	ldr	r6, [sp, #32]
    ee9e:	4617      	mov	r7, r2
    eea0:	4680      	mov	r8, r0
    eea2:	4689      	mov	r9, r1
    eea4:	461d      	mov	r5, r3
    eea6:	f000 f967 	bl	f178 <__udivdi3>
    eeaa:	fb00 f305 	mul.w	r3, r0, r5
    eeae:	fba0 4507 	umull	r4, r5, r0, r7
    eeb2:	fb07 3701 	mla	r7, r7, r1, r3
    eeb6:	ebb8 0404 	subs.w	r4, r8, r4
    eeba:	443d      	add	r5, r7
    eebc:	eb69 0505 	sbc.w	r5, r9, r5
    eec0:	e9c6 4500 	strd	r4, r5, [r6]
    eec4:	e8bd 83f8 	ldmia.w	sp!, {r3, r4, r5, r6, r7, r8, r9, pc}

0000eec8 <__aeabi_idiv0>:
    eec8:	4770      	bx	lr
    eeca:	bf00      	nop

0000eecc <__divdi3>:
    eecc:	2900      	cmp	r1, #0
    eece:	e92d 43f0 	stmdb	sp!, {r4, r5, r6, r7, r8, r9, lr}
    eed2:	f2c0 80a8 	blt.w	f026 <__divdi3+0x15a>
    eed6:	2600      	movs	r6, #0
    eed8:	2b00      	cmp	r3, #0
    eeda:	f2c0 809e 	blt.w	f01a <__divdi3+0x14e>
    eede:	4681      	mov	r9, r0
    eee0:	468e      	mov	lr, r1
    eee2:	4690      	mov	r8, r2
    eee4:	469c      	mov	ip, r3
    eee6:	4617      	mov	r7, r2
    eee8:	4604      	mov	r4, r0
    eeea:	460d      	mov	r5, r1
    eeec:	2b00      	cmp	r3, #0
    eeee:	d13d      	bne.n	ef6c <__divdi3+0xa0>
    eef0:	428a      	cmp	r2, r1
    eef2:	d959      	bls.n	efa8 <__divdi3+0xdc>
    eef4:	fab2 f382 	clz	r3, r2
    eef8:	b13b      	cbz	r3, ef0a <__divdi3+0x3e>
    eefa:	f1c3 0220 	rsb	r2, r3, #32
    eefe:	409d      	lsls	r5, r3
    ef00:	fa20 f202 	lsr.w	r2, r0, r2
    ef04:	409f      	lsls	r7, r3
    ef06:	4315      	orrs	r5, r2
    ef08:	409c      	lsls	r4, r3
    ef0a:	0c39      	lsrs	r1, r7, #16
    ef0c:	fbb5 f0f1 	udiv	r0, r5, r1
    ef10:	fa1f fe87 	uxth.w	lr, r7
    ef14:	fb01 5510 	mls	r5, r1, r0, r5
    ef18:	fb0e f300 	mul.w	r3, lr, r0
    ef1c:	0c22      	lsrs	r2, r4, #16
    ef1e:	ea42 4505 	orr.w	r5, r2, r5, lsl #16
    ef22:	42ab      	cmp	r3, r5
    ef24:	d909      	bls.n	ef3a <__divdi3+0x6e>
    ef26:	19ed      	adds	r5, r5, r7
    ef28:	f100 32ff 	add.w	r2, r0, #4294967295
    ef2c:	f080 810b 	bcs.w	f146 <__divdi3+0x27a>
    ef30:	42ab      	cmp	r3, r5
    ef32:	f240 8108 	bls.w	f146 <__divdi3+0x27a>
    ef36:	3802      	subs	r0, #2
    ef38:	443d      	add	r5, r7
    ef3a:	1aed      	subs	r5, r5, r3
    ef3c:	fbb5 f3f1 	udiv	r3, r5, r1
    ef40:	fb01 5513 	mls	r5, r1, r3, r5
    ef44:	fb0e fe03 	mul.w	lr, lr, r3
    ef48:	b2a4      	uxth	r4, r4
    ef4a:	ea44 4505 	orr.w	r5, r4, r5, lsl #16
    ef4e:	45ae      	cmp	lr, r5
    ef50:	d908      	bls.n	ef64 <__divdi3+0x98>
    ef52:	19ed      	adds	r5, r5, r7
    ef54:	f103 32ff 	add.w	r2, r3, #4294967295
    ef58:	f080 80f7 	bcs.w	f14a <__divdi3+0x27e>
    ef5c:	45ae      	cmp	lr, r5
    ef5e:	f240 80f4 	bls.w	f14a <__divdi3+0x27e>
    ef62:	3b02      	subs	r3, #2
    ef64:	ea43 4300 	orr.w	r3, r3, r0, lsl #16
    ef68:	2200      	movs	r2, #0
    ef6a:	e003      	b.n	ef74 <__divdi3+0xa8>
    ef6c:	428b      	cmp	r3, r1
    ef6e:	d90f      	bls.n	ef90 <__divdi3+0xc4>
    ef70:	2200      	movs	r2, #0
    ef72:	4613      	mov	r3, r2
    ef74:	1c34      	adds	r4, r6, #0
    ef76:	bf18      	it	ne
    ef78:	2401      	movne	r4, #1
    ef7a:	4260      	negs	r0, r4
    ef7c:	f04f 0500 	mov.w	r5, #0
    ef80:	eb65 0145 	sbc.w	r1, r5, r5, lsl #1
    ef84:	4058      	eors	r0, r3
    ef86:	4051      	eors	r1, r2
    ef88:	1900      	adds	r0, r0, r4
    ef8a:	4169      	adcs	r1, r5
    ef8c:	e8bd 83f0 	ldmia.w	sp!, {r4, r5, r6, r7, r8, r9, pc}
    ef90:	fab3 f283 	clz	r2, r3
    ef94:	2a00      	cmp	r2, #0
    ef96:	f040 8089 	bne.w	f0ac <__divdi3+0x1e0>
    ef9a:	428b      	cmp	r3, r1
    ef9c:	d302      	bcc.n	efa4 <__divdi3+0xd8>
    ef9e:	4580      	cmp	r8, r0
    efa0:	f200 80e2 	bhi.w	f168 <__divdi3+0x29c>
    efa4:	2301      	movs	r3, #1
    efa6:	e7e5      	b.n	ef74 <__divdi3+0xa8>
    efa8:	b912      	cbnz	r2, efb0 <__divdi3+0xe4>
    efaa:	2301      	movs	r3, #1
    efac:	fbb3 f7f2 	udiv	r7, r3, r2
    efb0:	fab7 f887 	clz	r8, r7
    efb4:	f1b8 0f00 	cmp.w	r8, #0
    efb8:	d13b      	bne.n	f032 <__divdi3+0x166>
    efba:	1bed      	subs	r5, r5, r7
    efbc:	ea4f 4c17 	mov.w	ip, r7, lsr #16
    efc0:	fa1f fe87 	uxth.w	lr, r7
    efc4:	2201      	movs	r2, #1
    efc6:	fbb5 f0fc 	udiv	r0, r5, ip
    efca:	fb0c 5510 	mls	r5, ip, r0, r5
    efce:	fb0e f300 	mul.w	r3, lr, r0
    efd2:	0c21      	lsrs	r1, r4, #16
    efd4:	ea41 4505 	orr.w	r5, r1, r5, lsl #16
    efd8:	42ab      	cmp	r3, r5
    efda:	d907      	bls.n	efec <__divdi3+0x120>
    efdc:	19ed      	adds	r5, r5, r7
    efde:	f100 31ff 	add.w	r1, r0, #4294967295
    efe2:	d202      	bcs.n	efea <__divdi3+0x11e>
    efe4:	42ab      	cmp	r3, r5
    efe6:	f200 80c3 	bhi.w	f170 <__divdi3+0x2a4>
    efea:	4608      	mov	r0, r1
    efec:	1aed      	subs	r5, r5, r3
    efee:	fbb5 f3fc 	udiv	r3, r5, ip
    eff2:	fb0c 5513 	mls	r5, ip, r3, r5
    eff6:	fb0e fe03 	mul.w	lr, lr, r3
    effa:	b2a4      	uxth	r4, r4
    effc:	ea44 4505 	orr.w	r5, r4, r5, lsl #16
    f000:	45ae      	cmp	lr, r5
    f002:	d907      	bls.n	f014 <__divdi3+0x148>
    f004:	19ed      	adds	r5, r5, r7
    f006:	f103 31ff 	add.w	r1, r3, #4294967295
    f00a:	d202      	bcs.n	f012 <__divdi3+0x146>
    f00c:	45ae      	cmp	lr, r5
    f00e:	f200 80ad 	bhi.w	f16c <__divdi3+0x2a0>
    f012:	460b      	mov	r3, r1
    f014:	ea43 4300 	orr.w	r3, r3, r0, lsl #16
    f018:	e7ac      	b.n	ef74 <__divdi3+0xa8>
    f01a:	4252      	negs	r2, r2
    f01c:	ea6f 0606 	mvn.w	r6, r6
    f020:	eb63 0343 	sbc.w	r3, r3, r3, lsl #1
    f024:	e75b      	b.n	eede <__divdi3+0x12>
    f026:	4240      	negs	r0, r0
    f028:	eb61 0141 	sbc.w	r1, r1, r1, lsl #1
    f02c:	f04f 36ff 	mov.w	r6, #4294967295
    f030:	e752      	b.n	eed8 <__divdi3+0xc>
    f032:	fa07 f708 	lsl.w	r7, r7, r8
    f036:	f1c8 0220 	rsb	r2, r8, #32
    f03a:	fa25 f302 	lsr.w	r3, r5, r2
    f03e:	ea4f 4c17 	mov.w	ip, r7, lsr #16
    f042:	fbb3 f1fc 	udiv	r1, r3, ip
    f046:	fa1f fe87 	uxth.w	lr, r7
    f04a:	fb0c 3311 	mls	r3, ip, r1, r3
    f04e:	fa24 f202 	lsr.w	r2, r4, r2
    f052:	fa05 f508 	lsl.w	r5, r5, r8
    f056:	fb0e f901 	mul.w	r9, lr, r1
    f05a:	432a      	orrs	r2, r5
    f05c:	0c10      	lsrs	r0, r2, #16
    f05e:	ea40 4303 	orr.w	r3, r0, r3, lsl #16
    f062:	4599      	cmp	r9, r3
    f064:	fa04 f408 	lsl.w	r4, r4, r8
    f068:	d907      	bls.n	f07a <__divdi3+0x1ae>
    f06a:	19db      	adds	r3, r3, r7
    f06c:	f101 30ff 	add.w	r0, r1, #4294967295
    f070:	d278      	bcs.n	f164 <__divdi3+0x298>
    f072:	4599      	cmp	r9, r3
    f074:	d976      	bls.n	f164 <__divdi3+0x298>
    f076:	3902      	subs	r1, #2
    f078:	443b      	add	r3, r7
    f07a:	ebc9 0303 	rsb	r3, r9, r3
    f07e:	fbb3 f0fc 	udiv	r0, r3, ip
    f082:	fb0c 3310 	mls	r3, ip, r0, r3
    f086:	fb0e f500 	mul.w	r5, lr, r0
    f08a:	b292      	uxth	r2, r2
    f08c:	ea42 4303 	orr.w	r3, r2, r3, lsl #16
    f090:	429d      	cmp	r5, r3
    f092:	d907      	bls.n	f0a4 <__divdi3+0x1d8>
    f094:	19db      	adds	r3, r3, r7
    f096:	f100 32ff 	add.w	r2, r0, #4294967295
    f09a:	d25f      	bcs.n	f15c <__divdi3+0x290>
    f09c:	429d      	cmp	r5, r3
    f09e:	d95d      	bls.n	f15c <__divdi3+0x290>
    f0a0:	3802      	subs	r0, #2
    f0a2:	443b      	add	r3, r7
    f0a4:	1b5d      	subs	r5, r3, r5
    f0a6:	ea40 4201 	orr.w	r2, r0, r1, lsl #16
    f0aa:	e78c      	b.n	efc6 <__divdi3+0xfa>
    f0ac:	f1c2 0320 	rsb	r3, r2, #32
    f0b0:	fa28 f103 	lsr.w	r1, r8, r3
    f0b4:	fa0c fc02 	lsl.w	ip, ip, r2
    f0b8:	ea41 0c0c 	orr.w	ip, r1, ip
    f0bc:	ea4f 401c 	mov.w	r0, ip, lsr #16
    f0c0:	fa2e f103 	lsr.w	r1, lr, r3
    f0c4:	fbb1 f5f0 	udiv	r5, r1, r0
    f0c8:	fa1f f78c 	uxth.w	r7, ip
    f0cc:	fb00 1115 	mls	r1, r0, r5, r1
    f0d0:	fa29 f303 	lsr.w	r3, r9, r3
    f0d4:	fa0e fe02 	lsl.w	lr, lr, r2
    f0d8:	fb07 f905 	mul.w	r9, r7, r5
    f0dc:	ea43 0e0e 	orr.w	lr, r3, lr
    f0e0:	ea4f 431e 	mov.w	r3, lr, lsr #16
    f0e4:	ea43 4101 	orr.w	r1, r3, r1, lsl #16
    f0e8:	4589      	cmp	r9, r1
    f0ea:	fa08 f802 	lsl.w	r8, r8, r2
    f0ee:	d908      	bls.n	f102 <__divdi3+0x236>
    f0f0:	eb11 010c 	adds.w	r1, r1, ip
    f0f4:	f105 33ff 	add.w	r3, r5, #4294967295
    f0f8:	d232      	bcs.n	f160 <__divdi3+0x294>
    f0fa:	4589      	cmp	r9, r1
    f0fc:	d930      	bls.n	f160 <__divdi3+0x294>
    f0fe:	3d02      	subs	r5, #2
    f100:	4461      	add	r1, ip
    f102:	ebc9 0101 	rsb	r1, r9, r1
    f106:	fbb1 f3f0 	udiv	r3, r1, r0
    f10a:	fb00 1113 	mls	r1, r0, r3, r1
    f10e:	fb07 f703 	mul.w	r7, r7, r3
    f112:	fa1f fe8e 	uxth.w	lr, lr
    f116:	ea4e 4e01 	orr.w	lr, lr, r1, lsl #16
    f11a:	4577      	cmp	r7, lr
    f11c:	d908      	bls.n	f130 <__divdi3+0x264>
    f11e:	eb1e 0e0c 	adds.w	lr, lr, ip
    f122:	f103 31ff 	add.w	r1, r3, #4294967295
    f126:	d217      	bcs.n	f158 <__divdi3+0x28c>
    f128:	4577      	cmp	r7, lr
    f12a:	d915      	bls.n	f158 <__divdi3+0x28c>
    f12c:	3b02      	subs	r3, #2
    f12e:	44e6      	add	lr, ip
    f130:	ea43 4305 	orr.w	r3, r3, r5, lsl #16
    f134:	fba3 8908 	umull	r8, r9, r3, r8
    f138:	ebc7 0e0e 	rsb	lr, r7, lr
    f13c:	45ce      	cmp	lr, r9
    f13e:	d309      	bcc.n	f154 <__divdi3+0x288>
    f140:	d005      	beq.n	f14e <__divdi3+0x282>
    f142:	2200      	movs	r2, #0
    f144:	e716      	b.n	ef74 <__divdi3+0xa8>
    f146:	4610      	mov	r0, r2
    f148:	e6f7      	b.n	ef3a <__divdi3+0x6e>
    f14a:	4613      	mov	r3, r2
    f14c:	e70a      	b.n	ef64 <__divdi3+0x98>
    f14e:	4094      	lsls	r4, r2
    f150:	4544      	cmp	r4, r8
    f152:	d2f6      	bcs.n	f142 <__divdi3+0x276>
    f154:	3b01      	subs	r3, #1
    f156:	e7f4      	b.n	f142 <__divdi3+0x276>
    f158:	460b      	mov	r3, r1
    f15a:	e7e9      	b.n	f130 <__divdi3+0x264>
    f15c:	4610      	mov	r0, r2
    f15e:	e7a1      	b.n	f0a4 <__divdi3+0x1d8>
    f160:	461d      	mov	r5, r3
    f162:	e7ce      	b.n	f102 <__divdi3+0x236>
    f164:	4601      	mov	r1, r0
    f166:	e788      	b.n	f07a <__divdi3+0x1ae>
    f168:	4613      	mov	r3, r2
    f16a:	e703      	b.n	ef74 <__divdi3+0xa8>
    f16c:	3b02      	subs	r3, #2
    f16e:	e751      	b.n	f014 <__divdi3+0x148>
    f170:	3802      	subs	r0, #2
    f172:	443d      	add	r5, r7
    f174:	e73a      	b.n	efec <__divdi3+0x120>
    f176:	bf00      	nop

0000f178 <__udivdi3>:
    f178:	e92d 43f0 	stmdb	sp!, {r4, r5, r6, r7, r8, r9, lr}
    f17c:	2b00      	cmp	r3, #0
    f17e:	d144      	bne.n	f20a <__udivdi3+0x92>
    f180:	428a      	cmp	r2, r1
    f182:	4615      	mov	r5, r2
    f184:	4604      	mov	r4, r0
    f186:	d94f      	bls.n	f228 <__udivdi3+0xb0>
    f188:	fab2 f782 	clz	r7, r2
    f18c:	460e      	mov	r6, r1
    f18e:	b14f      	cbz	r7, f1a4 <__udivdi3+0x2c>
    f190:	f1c7 0320 	rsb	r3, r7, #32
    f194:	40b9      	lsls	r1, r7
    f196:	fa20 f603 	lsr.w	r6, r0, r3
    f19a:	fa02 f507 	lsl.w	r5, r2, r7
    f19e:	430e      	orrs	r6, r1
    f1a0:	fa00 f407 	lsl.w	r4, r0, r7
    f1a4:	0c2f      	lsrs	r7, r5, #16
    f1a6:	fbb6 f0f7 	udiv	r0, r6, r7
    f1aa:	fa1f fe85 	uxth.w	lr, r5
    f1ae:	fb07 6210 	mls	r2, r7, r0, r6
    f1b2:	fb0e f100 	mul.w	r1, lr, r0
    f1b6:	0c26      	lsrs	r6, r4, #16
    f1b8:	ea46 4302 	orr.w	r3, r6, r2, lsl #16
    f1bc:	4299      	cmp	r1, r3
    f1be:	d909      	bls.n	f1d4 <__udivdi3+0x5c>
    f1c0:	195b      	adds	r3, r3, r5
    f1c2:	f100 32ff 	add.w	r2, r0, #4294967295
    f1c6:	f080 80ee 	bcs.w	f3a6 <__udivdi3+0x22e>
    f1ca:	4299      	cmp	r1, r3
    f1cc:	f240 80eb 	bls.w	f3a6 <__udivdi3+0x22e>
    f1d0:	3802      	subs	r0, #2
    f1d2:	442b      	add	r3, r5
    f1d4:	1a59      	subs	r1, r3, r1
    f1d6:	fbb1 f3f7 	udiv	r3, r1, r7
    f1da:	fb07 1113 	mls	r1, r7, r3, r1
    f1de:	fb0e fe03 	mul.w	lr, lr, r3
    f1e2:	b2a4      	uxth	r4, r4
    f1e4:	ea44 4101 	orr.w	r1, r4, r1, lsl #16
    f1e8:	458e      	cmp	lr, r1
    f1ea:	d908      	bls.n	f1fe <__udivdi3+0x86>
    f1ec:	1949      	adds	r1, r1, r5
    f1ee:	f103 32ff 	add.w	r2, r3, #4294967295
    f1f2:	f080 80da 	bcs.w	f3aa <__udivdi3+0x232>
    f1f6:	458e      	cmp	lr, r1
    f1f8:	f240 80d7 	bls.w	f3aa <__udivdi3+0x232>
    f1fc:	3b02      	subs	r3, #2
    f1fe:	ea43 4000 	orr.w	r0, r3, r0, lsl #16
    f202:	2600      	movs	r6, #0
    f204:	4631      	mov	r1, r6
    f206:	e8bd 83f0 	ldmia.w	sp!, {r4, r5, r6, r7, r8, r9, pc}
    f20a:	428b      	cmp	r3, r1
    f20c:	d847      	bhi.n	f29e <__udivdi3+0x126>
    f20e:	fab3 f683 	clz	r6, r3
    f212:	2e00      	cmp	r6, #0
    f214:	d148      	bne.n	f2a8 <__udivdi3+0x130>
    f216:	428b      	cmp	r3, r1
    f218:	d302      	bcc.n	f220 <__udivdi3+0xa8>
    f21a:	4282      	cmp	r2, r0
    f21c:	f200 80cf 	bhi.w	f3be <__udivdi3+0x246>
    f220:	2001      	movs	r0, #1
    f222:	4631      	mov	r1, r6
    f224:	e8bd 83f0 	ldmia.w	sp!, {r4, r5, r6, r7, r8, r9, pc}
    f228:	b912      	cbnz	r2, f230 <__udivdi3+0xb8>
    f22a:	2501      	movs	r5, #1
    f22c:	fbb5 f5f2 	udiv	r5, r5, r2
    f230:	fab5 fc85 	clz	ip, r5
    f234:	f1bc 0f00 	cmp.w	ip, #0
    f238:	d178      	bne.n	f32c <__udivdi3+0x1b4>
    f23a:	1b49      	subs	r1, r1, r5
    f23c:	0c2f      	lsrs	r7, r5, #16
    f23e:	fa1f fe85 	uxth.w	lr, r5
    f242:	2601      	movs	r6, #1
    f244:	fbb1 f0f7 	udiv	r0, r1, r7
    f248:	fb07 1110 	mls	r1, r7, r0, r1
    f24c:	fb0e f200 	mul.w	r2, lr, r0
    f250:	0c23      	lsrs	r3, r4, #16
    f252:	ea43 4101 	orr.w	r1, r3, r1, lsl #16
    f256:	428a      	cmp	r2, r1
    f258:	d907      	bls.n	f26a <__udivdi3+0xf2>
    f25a:	1949      	adds	r1, r1, r5
    f25c:	f100 33ff 	add.w	r3, r0, #4294967295
    f260:	d202      	bcs.n	f268 <__udivdi3+0xf0>
    f262:	428a      	cmp	r2, r1
    f264:	f200 80bc 	bhi.w	f3e0 <__udivdi3+0x268>
    f268:	4618      	mov	r0, r3
    f26a:	1a89      	subs	r1, r1, r2
    f26c:	fbb1 f3f7 	udiv	r3, r1, r7
    f270:	fb07 1113 	mls	r1, r7, r3, r1
    f274:	fb0e fe03 	mul.w	lr, lr, r3
    f278:	b2a4      	uxth	r4, r4
    f27a:	ea44 4201 	orr.w	r2, r4, r1, lsl #16
    f27e:	4596      	cmp	lr, r2
    f280:	d908      	bls.n	f294 <__udivdi3+0x11c>
    f282:	1952      	adds	r2, r2, r5
    f284:	f103 31ff 	add.w	r1, r3, #4294967295
    f288:	f080 8091 	bcs.w	f3ae <__udivdi3+0x236>
    f28c:	4596      	cmp	lr, r2
    f28e:	f240 808e 	bls.w	f3ae <__udivdi3+0x236>
    f292:	3b02      	subs	r3, #2
    f294:	ea43 4000 	orr.w	r0, r3, r0, lsl #16
    f298:	4631      	mov	r1, r6
    f29a:	e8bd 83f0 	ldmia.w	sp!, {r4, r5, r6, r7, r8, r9, pc}
    f29e:	2600      	movs	r6, #0
    f2a0:	4630      	mov	r0, r6
    f2a2:	4631      	mov	r1, r6
    f2a4:	e8bd 83f0 	ldmia.w	sp!, {r4, r5, r6, r7, r8, r9, pc}
    f2a8:	f1c6 0420 	rsb	r4, r6, #32
    f2ac:	fa22 f504 	lsr.w	r5, r2, r4
    f2b0:	40b3      	lsls	r3, r6
    f2b2:	432b      	orrs	r3, r5
    f2b4:	fa21 f704 	lsr.w	r7, r1, r4
    f2b8:	ea4f 4813 	mov.w	r8, r3, lsr #16
    f2bc:	fbb7 fcf8 	udiv	ip, r7, r8
    f2c0:	fa1f f983 	uxth.w	r9, r3
    f2c4:	fb08 771c 	mls	r7, r8, ip, r7
    f2c8:	fa20 fe04 	lsr.w	lr, r0, r4
    f2cc:	fa01 f506 	lsl.w	r5, r1, r6
    f2d0:	fb09 f40c 	mul.w	r4, r9, ip
    f2d4:	ea4e 0505 	orr.w	r5, lr, r5
    f2d8:	ea4f 4e15 	mov.w	lr, r5, lsr #16
    f2dc:	ea4e 4707 	orr.w	r7, lr, r7, lsl #16
    f2e0:	42bc      	cmp	r4, r7
    f2e2:	fa02 f206 	lsl.w	r2, r2, r6
    f2e6:	d904      	bls.n	f2f2 <__udivdi3+0x17a>
    f2e8:	18ff      	adds	r7, r7, r3
    f2ea:	f10c 31ff 	add.w	r1, ip, #4294967295
    f2ee:	d368      	bcc.n	f3c2 <__udivdi3+0x24a>
    f2f0:	468c      	mov	ip, r1
    f2f2:	1b3f      	subs	r7, r7, r4
    f2f4:	fbb7 f4f8 	udiv	r4, r7, r8
    f2f8:	fb08 7714 	mls	r7, r8, r4, r7
    f2fc:	fb09 f904 	mul.w	r9, r9, r4
    f300:	b2ad      	uxth	r5, r5
    f302:	ea45 4107 	orr.w	r1, r5, r7, lsl #16
    f306:	4589      	cmp	r9, r1
    f308:	d904      	bls.n	f314 <__udivdi3+0x19c>
    f30a:	18c9      	adds	r1, r1, r3
    f30c:	f104 35ff 	add.w	r5, r4, #4294967295
    f310:	d35d      	bcc.n	f3ce <__udivdi3+0x256>
    f312:	462c      	mov	r4, r5
    f314:	ea44 440c 	orr.w	r4, r4, ip, lsl #16
    f318:	fba4 2302 	umull	r2, r3, r4, r2
    f31c:	ebc9 0101 	rsb	r1, r9, r1
    f320:	4299      	cmp	r1, r3
    f322:	d349      	bcc.n	f3b8 <__udivdi3+0x240>
    f324:	d045      	beq.n	f3b2 <__udivdi3+0x23a>
    f326:	4620      	mov	r0, r4
    f328:	2600      	movs	r6, #0
    f32a:	e76b      	b.n	f204 <__udivdi3+0x8c>
    f32c:	f1cc 0420 	rsb	r4, ip, #32
    f330:	fa05 f50c 	lsl.w	r5, r5, ip
    f334:	fa21 f304 	lsr.w	r3, r1, r4
    f338:	0c2a      	lsrs	r2, r5, #16
    f33a:	fbb3 f6f2 	udiv	r6, r3, r2
    f33e:	fa1f fe85 	uxth.w	lr, r5
    f342:	fb02 3816 	mls	r8, r2, r6, r3
    f346:	fa20 f704 	lsr.w	r7, r0, r4
    f34a:	fa01 f10c 	lsl.w	r1, r1, ip
    f34e:	fb0e f906 	mul.w	r9, lr, r6
    f352:	430f      	orrs	r7, r1
    f354:	0c3c      	lsrs	r4, r7, #16
    f356:	ea44 4308 	orr.w	r3, r4, r8, lsl #16
    f35a:	4599      	cmp	r9, r3
    f35c:	fa00 f40c 	lsl.w	r4, r0, ip
    f360:	d907      	bls.n	f372 <__udivdi3+0x1fa>
    f362:	195b      	adds	r3, r3, r5
    f364:	f106 31ff 	add.w	r1, r6, #4294967295
    f368:	d238      	bcs.n	f3dc <__udivdi3+0x264>
    f36a:	4599      	cmp	r9, r3
    f36c:	d936      	bls.n	f3dc <__udivdi3+0x264>
    f36e:	3e02      	subs	r6, #2
    f370:	442b      	add	r3, r5
    f372:	ebc9 0303 	rsb	r3, r9, r3
    f376:	fbb3 f0f2 	udiv	r0, r3, r2
    f37a:	fb02 3310 	mls	r3, r2, r0, r3
    f37e:	fb0e f100 	mul.w	r1, lr, r0
    f382:	b2bf      	uxth	r7, r7
    f384:	ea47 4303 	orr.w	r3, r7, r3, lsl #16
    f388:	4299      	cmp	r1, r3
    f38a:	d907      	bls.n	f39c <__udivdi3+0x224>
    f38c:	195b      	adds	r3, r3, r5
    f38e:	f100 37ff 	add.w	r7, r0, #4294967295
    f392:	d221      	bcs.n	f3d8 <__udivdi3+0x260>
    f394:	4299      	cmp	r1, r3
    f396:	d91f      	bls.n	f3d8 <__udivdi3+0x260>
    f398:	3802      	subs	r0, #2
    f39a:	442b      	add	r3, r5
    f39c:	4617      	mov	r7, r2
    f39e:	1a59      	subs	r1, r3, r1
    f3a0:	ea40 4606 	orr.w	r6, r0, r6, lsl #16
    f3a4:	e74e      	b.n	f244 <__udivdi3+0xcc>
    f3a6:	4610      	mov	r0, r2
    f3a8:	e714      	b.n	f1d4 <__udivdi3+0x5c>
    f3aa:	4613      	mov	r3, r2
    f3ac:	e727      	b.n	f1fe <__udivdi3+0x86>
    f3ae:	460b      	mov	r3, r1
    f3b0:	e770      	b.n	f294 <__udivdi3+0x11c>
    f3b2:	40b0      	lsls	r0, r6
    f3b4:	4290      	cmp	r0, r2
    f3b6:	d2b6      	bcs.n	f326 <__udivdi3+0x1ae>
    f3b8:	1e60      	subs	r0, r4, #1
    f3ba:	2600      	movs	r6, #0
    f3bc:	e722      	b.n	f204 <__udivdi3+0x8c>
    f3be:	4630      	mov	r0, r6
    f3c0:	e720      	b.n	f204 <__udivdi3+0x8c>
    f3c2:	42bc      	cmp	r4, r7
    f3c4:	d994      	bls.n	f2f0 <__udivdi3+0x178>
    f3c6:	f1ac 0c02 	sub.w	ip, ip, #2
    f3ca:	441f      	add	r7, r3
    f3cc:	e791      	b.n	f2f2 <__udivdi3+0x17a>
    f3ce:	4589      	cmp	r9, r1
    f3d0:	d99f      	bls.n	f312 <__udivdi3+0x19a>
    f3d2:	3c02      	subs	r4, #2
    f3d4:	4419      	add	r1, r3
    f3d6:	e79d      	b.n	f314 <__udivdi3+0x19c>
    f3d8:	4638      	mov	r0, r7
    f3da:	e7df      	b.n	f39c <__udivdi3+0x224>
    f3dc:	460e      	mov	r6, r1
    f3de:	e7c8      	b.n	f372 <__udivdi3+0x1fa>
    f3e0:	3802      	subs	r0, #2
    f3e2:	4429      	add	r1, r5
    f3e4:	e741      	b.n	f26a <__udivdi3+0xf2>
    f3e6:	bf00      	nop

Disassembly of section .fini:

0000f3e8 <_fini>:
    f3e8:	b5f8      	push	{r3, r4, r5, r6, r7, lr}
    f3ea:	bf00      	nop
    f3ec:	bcf8      	pop	{r3, r4, r5, r6, r7}
    f3ee:	bc08      	pop	{r3}
    f3f0:	469e      	mov	lr, r3
    f3f2:	4770      	bx	lr
